ARM GAS  C:\Users\15311\AppData\Local\Temp\cccFsPp9.s 			page 1


   1              		.syntax unified
   2              		.cpu cortex-m4
   3              		.eabi_attribute 27, 1
   4              		.fpu fpv4-sp-d16
   5              		.eabi_attribute 20, 1
   6              		.eabi_attribute 21, 1
   7              		.eabi_attribute 23, 3
   8              		.eabi_attribute 24, 1
   9              		.eabi_attribute 25, 1
  10              		.eabi_attribute 26, 1
  11              		.eabi_attribute 30, 1
  12              		.eabi_attribute 34, 1
  13              		.eabi_attribute 18, 4
  14              		.thumb
  15              		.syntax unified
  16              		.file	"main_cm4.c"
  17              		.text
  18              	.Ltext0:
  19              		.cfi_sections	.debug_frame
  20              		.section	.text.main,"ax",%progbits
  21              		.align	2
  22              		.global	main
  23              		.thumb
  24              		.thumb_func
  25              		.type	main, %function
  26              	main:
  27              	.LFB485:
  28              		.file 1 "main_cm4.c"
   1:main_cm4.c    **** #include "project.h"
   2:main_cm4.c    **** #include "FreeRTOS.h"
   3:main_cm4.c    **** #include "task.h"
   4:main_cm4.c    **** #include <stdio.h>
   5:main_cm4.c    **** #include <math.h>
   6:main_cm4.c    **** #include <string.h>
   7:main_cm4.c    **** 
   8:main_cm4.c    **** // Task configuration
   9:main_cm4.c    **** #define ADPD1080_TASK_STACK_SIZE 1024
  10:main_cm4.c    **** #define ADC_TASK_STACK_SIZE 1024
  11:main_cm4.c    **** #define ADPD1080_TASK_PRIORITY   2
  12:main_cm4.c    **** #define ADC_Task_PRIORITY   3
  13:main_cm4.c    **** #define READ_INTERVAL_MS         500
  14:main_cm4.c    **** #define ADC_READ_INTERVAL_MS 1000
  15:main_cm4.c    **** 
  16:main_cm4.c    **** #define OPCODE_ADC_0 0x01
  17:main_cm4.c    **** #define OPCODE_ADC_1 0x02
  18:main_cm4.c    **** #define OPCODE_ADC_2 0x03
  19:main_cm4.c    **** #define OPCODE_ADC_3 0x04
  20:main_cm4.c    **** #define OPCODE_ADC_4 0x05
  21:main_cm4.c    **** #define OPCODE_ADC_5 0x06
  22:main_cm4.c    **** #define OPCODE_ADC_6 0x07
  23:main_cm4.c    **** #define OPCODE_ADC_7 0x08
  24:main_cm4.c    **** #define OPCODE_I2C 0x09
  25:main_cm4.c    **** 
  26:main_cm4.c    **** // Function prototypes
  27:main_cm4.c    **** void ADPD1080_Task(void *pvParameters);
  28:main_cm4.c    **** void ADC_TASK(void *pvParameters);
  29:main_cm4.c    **** void send_task(void *pvParameters);
ARM GAS  C:\Users\15311\AppData\Local\Temp\cccFsPp9.s 			page 2


  30:main_cm4.c    **** 
  31:main_cm4.c    **** int main(void)
  32:main_cm4.c    **** {
  29              		.loc 1 32 0
  30              		.cfi_startproc
  31              		@ Volatile: function does not return.
  32              		@ args = 0, pretend = 0, frame = 0
  33              		@ frame_needed = 0, uses_anonymous_args = 0
  34 0000 00B5     		push	{lr}
  35              		.cfi_def_cfa_offset 4
  36              		.cfi_offset 14, -4
  37 0002 83B0     		sub	sp, sp, #12
  38              		.cfi_def_cfa_offset 16
  33:main_cm4.c    ****     // Initialize UART for serial communication
  34:main_cm4.c    ****     UART_Start();
  39              		.loc 1 34 0
  40 0004 FFF7FEFF 		bl	UART_Start
  41              	.LVL0:
  42              	.LBB4:
  43              	.LBB5:
  44              		.file 2 "Generated_Source\\PSoC6\\pdl\\cmsis/include/cmsis_gcc.h"
   1:Generated_Source\PSoC6\pdl\cmsis/include/cmsis_gcc.h **** /**************************************************************************//**
   2:Generated_Source\PSoC6\pdl\cmsis/include/cmsis_gcc.h ****  * @file     cmsis_gcc.h
   3:Generated_Source\PSoC6\pdl\cmsis/include/cmsis_gcc.h ****  * @brief    CMSIS compiler GCC header file
   4:Generated_Source\PSoC6\pdl\cmsis/include/cmsis_gcc.h ****  * @version  V5.0.3
   5:Generated_Source\PSoC6\pdl\cmsis/include/cmsis_gcc.h ****  * @date     16. January 2018
   6:Generated_Source\PSoC6\pdl\cmsis/include/cmsis_gcc.h ****  ******************************************************************************/
   7:Generated_Source\PSoC6\pdl\cmsis/include/cmsis_gcc.h **** /*
   8:Generated_Source\PSoC6\pdl\cmsis/include/cmsis_gcc.h ****  * Copyright (c) 2009-2017 ARM Limited. All rights reserved.
   9:Generated_Source\PSoC6\pdl\cmsis/include/cmsis_gcc.h ****  *
  10:Generated_Source\PSoC6\pdl\cmsis/include/cmsis_gcc.h ****  * SPDX-License-Identifier: Apache-2.0
  11:Generated_Source\PSoC6\pdl\cmsis/include/cmsis_gcc.h ****  *
  12:Generated_Source\PSoC6\pdl\cmsis/include/cmsis_gcc.h ****  * Licensed under the Apache License, Version 2.0 (the License); you may
  13:Generated_Source\PSoC6\pdl\cmsis/include/cmsis_gcc.h ****  * not use this file except in compliance with the License.
  14:Generated_Source\PSoC6\pdl\cmsis/include/cmsis_gcc.h ****  * You may obtain a copy of the License at
  15:Generated_Source\PSoC6\pdl\cmsis/include/cmsis_gcc.h ****  *
  16:Generated_Source\PSoC6\pdl\cmsis/include/cmsis_gcc.h ****  * www.apache.org/licenses/LICENSE-2.0
  17:Generated_Source\PSoC6\pdl\cmsis/include/cmsis_gcc.h ****  *
  18:Generated_Source\PSoC6\pdl\cmsis/include/cmsis_gcc.h ****  * Unless required by applicable law or agreed to in writing, software
  19:Generated_Source\PSoC6\pdl\cmsis/include/cmsis_gcc.h ****  * distributed under the License is distributed on an AS IS BASIS, WITHOUT
  20:Generated_Source\PSoC6\pdl\cmsis/include/cmsis_gcc.h ****  * WARRANTIES OR CONDITIONS OF ANY KIND, either express or implied.
  21:Generated_Source\PSoC6\pdl\cmsis/include/cmsis_gcc.h ****  * See the License for the specific language governing permissions and
  22:Generated_Source\PSoC6\pdl\cmsis/include/cmsis_gcc.h ****  * limitations under the License.
  23:Generated_Source\PSoC6\pdl\cmsis/include/cmsis_gcc.h ****  */
  24:Generated_Source\PSoC6\pdl\cmsis/include/cmsis_gcc.h **** 
  25:Generated_Source\PSoC6\pdl\cmsis/include/cmsis_gcc.h **** #ifndef __CMSIS_GCC_H
  26:Generated_Source\PSoC6\pdl\cmsis/include/cmsis_gcc.h **** #define __CMSIS_GCC_H
  27:Generated_Source\PSoC6\pdl\cmsis/include/cmsis_gcc.h **** 
  28:Generated_Source\PSoC6\pdl\cmsis/include/cmsis_gcc.h **** /* ignore some GCC warnings */
  29:Generated_Source\PSoC6\pdl\cmsis/include/cmsis_gcc.h **** #pragma GCC diagnostic push
  30:Generated_Source\PSoC6\pdl\cmsis/include/cmsis_gcc.h **** #pragma GCC diagnostic ignored "-Wsign-conversion"
  31:Generated_Source\PSoC6\pdl\cmsis/include/cmsis_gcc.h **** #pragma GCC diagnostic ignored "-Wconversion"
  32:Generated_Source\PSoC6\pdl\cmsis/include/cmsis_gcc.h **** #pragma GCC diagnostic ignored "-Wunused-parameter"
  33:Generated_Source\PSoC6\pdl\cmsis/include/cmsis_gcc.h **** 
  34:Generated_Source\PSoC6\pdl\cmsis/include/cmsis_gcc.h **** /* Fallback for __has_builtin */
  35:Generated_Source\PSoC6\pdl\cmsis/include/cmsis_gcc.h **** #ifndef __has_builtin
  36:Generated_Source\PSoC6\pdl\cmsis/include/cmsis_gcc.h ****   #define __has_builtin(x) (0)
ARM GAS  C:\Users\15311\AppData\Local\Temp\cccFsPp9.s 			page 3


  37:Generated_Source\PSoC6\pdl\cmsis/include/cmsis_gcc.h **** #endif
  38:Generated_Source\PSoC6\pdl\cmsis/include/cmsis_gcc.h **** 
  39:Generated_Source\PSoC6\pdl\cmsis/include/cmsis_gcc.h **** /* CMSIS compiler specific defines */
  40:Generated_Source\PSoC6\pdl\cmsis/include/cmsis_gcc.h **** #ifndef   __ASM
  41:Generated_Source\PSoC6\pdl\cmsis/include/cmsis_gcc.h ****   #define __ASM                                  __asm
  42:Generated_Source\PSoC6\pdl\cmsis/include/cmsis_gcc.h **** #endif
  43:Generated_Source\PSoC6\pdl\cmsis/include/cmsis_gcc.h **** #ifndef   __INLINE
  44:Generated_Source\PSoC6\pdl\cmsis/include/cmsis_gcc.h ****   #define __INLINE                               inline
  45:Generated_Source\PSoC6\pdl\cmsis/include/cmsis_gcc.h **** #endif
  46:Generated_Source\PSoC6\pdl\cmsis/include/cmsis_gcc.h **** #ifndef   __STATIC_INLINE
  47:Generated_Source\PSoC6\pdl\cmsis/include/cmsis_gcc.h ****   #define __STATIC_INLINE                        static inline
  48:Generated_Source\PSoC6\pdl\cmsis/include/cmsis_gcc.h **** #endif
  49:Generated_Source\PSoC6\pdl\cmsis/include/cmsis_gcc.h **** #ifndef   __STATIC_FORCEINLINE                 
  50:Generated_Source\PSoC6\pdl\cmsis/include/cmsis_gcc.h ****   #define __STATIC_FORCEINLINE                   __attribute__((always_inline)) static inline
  51:Generated_Source\PSoC6\pdl\cmsis/include/cmsis_gcc.h **** #endif                                           
  52:Generated_Source\PSoC6\pdl\cmsis/include/cmsis_gcc.h **** #ifndef   __NO_RETURN
  53:Generated_Source\PSoC6\pdl\cmsis/include/cmsis_gcc.h ****   #define __NO_RETURN                            __attribute__((__noreturn__))
  54:Generated_Source\PSoC6\pdl\cmsis/include/cmsis_gcc.h **** #endif
  55:Generated_Source\PSoC6\pdl\cmsis/include/cmsis_gcc.h **** #ifndef   __USED
  56:Generated_Source\PSoC6\pdl\cmsis/include/cmsis_gcc.h ****   #define __USED                                 __attribute__((used))
  57:Generated_Source\PSoC6\pdl\cmsis/include/cmsis_gcc.h **** #endif
  58:Generated_Source\PSoC6\pdl\cmsis/include/cmsis_gcc.h **** #ifndef   __WEAK
  59:Generated_Source\PSoC6\pdl\cmsis/include/cmsis_gcc.h ****   #define __WEAK                                 __attribute__((weak))
  60:Generated_Source\PSoC6\pdl\cmsis/include/cmsis_gcc.h **** #endif
  61:Generated_Source\PSoC6\pdl\cmsis/include/cmsis_gcc.h **** #ifndef   __PACKED
  62:Generated_Source\PSoC6\pdl\cmsis/include/cmsis_gcc.h ****   #define __PACKED                               __attribute__((packed, aligned(1)))
  63:Generated_Source\PSoC6\pdl\cmsis/include/cmsis_gcc.h **** #endif
  64:Generated_Source\PSoC6\pdl\cmsis/include/cmsis_gcc.h **** #ifndef   __PACKED_STRUCT
  65:Generated_Source\PSoC6\pdl\cmsis/include/cmsis_gcc.h ****   #define __PACKED_STRUCT                        struct __attribute__((packed, aligned(1)))
  66:Generated_Source\PSoC6\pdl\cmsis/include/cmsis_gcc.h **** #endif
  67:Generated_Source\PSoC6\pdl\cmsis/include/cmsis_gcc.h **** #ifndef   __PACKED_UNION
  68:Generated_Source\PSoC6\pdl\cmsis/include/cmsis_gcc.h ****   #define __PACKED_UNION                         union __attribute__((packed, aligned(1)))
  69:Generated_Source\PSoC6\pdl\cmsis/include/cmsis_gcc.h **** #endif
  70:Generated_Source\PSoC6\pdl\cmsis/include/cmsis_gcc.h **** #ifndef   __UNALIGNED_UINT32        /* deprecated */
  71:Generated_Source\PSoC6\pdl\cmsis/include/cmsis_gcc.h ****   #pragma GCC diagnostic push
  72:Generated_Source\PSoC6\pdl\cmsis/include/cmsis_gcc.h ****   #pragma GCC diagnostic ignored "-Wpacked"
  73:Generated_Source\PSoC6\pdl\cmsis/include/cmsis_gcc.h ****   #pragma GCC diagnostic ignored "-Wattributes"
  74:Generated_Source\PSoC6\pdl\cmsis/include/cmsis_gcc.h ****   struct __attribute__((packed)) T_UINT32 { uint32_t v; };
  75:Generated_Source\PSoC6\pdl\cmsis/include/cmsis_gcc.h ****   #pragma GCC diagnostic pop
  76:Generated_Source\PSoC6\pdl\cmsis/include/cmsis_gcc.h ****   #define __UNALIGNED_UINT32(x)                  (((struct T_UINT32 *)(x))->v)
  77:Generated_Source\PSoC6\pdl\cmsis/include/cmsis_gcc.h **** #endif
  78:Generated_Source\PSoC6\pdl\cmsis/include/cmsis_gcc.h **** #ifndef   __UNALIGNED_UINT16_WRITE
  79:Generated_Source\PSoC6\pdl\cmsis/include/cmsis_gcc.h ****   #pragma GCC diagnostic push
  80:Generated_Source\PSoC6\pdl\cmsis/include/cmsis_gcc.h ****   #pragma GCC diagnostic ignored "-Wpacked"
  81:Generated_Source\PSoC6\pdl\cmsis/include/cmsis_gcc.h ****   #pragma GCC diagnostic ignored "-Wattributes"
  82:Generated_Source\PSoC6\pdl\cmsis/include/cmsis_gcc.h ****   __PACKED_STRUCT T_UINT16_WRITE { uint16_t v; };
  83:Generated_Source\PSoC6\pdl\cmsis/include/cmsis_gcc.h ****   #pragma GCC diagnostic pop
  84:Generated_Source\PSoC6\pdl\cmsis/include/cmsis_gcc.h ****   #define __UNALIGNED_UINT16_WRITE(addr, val)    (void)((((struct T_UINT16_WRITE *)(void *)(addr))-
  85:Generated_Source\PSoC6\pdl\cmsis/include/cmsis_gcc.h **** #endif
  86:Generated_Source\PSoC6\pdl\cmsis/include/cmsis_gcc.h **** #ifndef   __UNALIGNED_UINT16_READ
  87:Generated_Source\PSoC6\pdl\cmsis/include/cmsis_gcc.h ****   #pragma GCC diagnostic push
  88:Generated_Source\PSoC6\pdl\cmsis/include/cmsis_gcc.h ****   #pragma GCC diagnostic ignored "-Wpacked"
  89:Generated_Source\PSoC6\pdl\cmsis/include/cmsis_gcc.h ****   #pragma GCC diagnostic ignored "-Wattributes"
  90:Generated_Source\PSoC6\pdl\cmsis/include/cmsis_gcc.h ****   __PACKED_STRUCT T_UINT16_READ { uint16_t v; };
  91:Generated_Source\PSoC6\pdl\cmsis/include/cmsis_gcc.h ****   #pragma GCC diagnostic pop
  92:Generated_Source\PSoC6\pdl\cmsis/include/cmsis_gcc.h ****   #define __UNALIGNED_UINT16_READ(addr)          (((const struct T_UINT16_READ *)(const void *)(add
  93:Generated_Source\PSoC6\pdl\cmsis/include/cmsis_gcc.h **** #endif
ARM GAS  C:\Users\15311\AppData\Local\Temp\cccFsPp9.s 			page 4


  94:Generated_Source\PSoC6\pdl\cmsis/include/cmsis_gcc.h **** #ifndef   __UNALIGNED_UINT32_WRITE
  95:Generated_Source\PSoC6\pdl\cmsis/include/cmsis_gcc.h ****   #pragma GCC diagnostic push
  96:Generated_Source\PSoC6\pdl\cmsis/include/cmsis_gcc.h ****   #pragma GCC diagnostic ignored "-Wpacked"
  97:Generated_Source\PSoC6\pdl\cmsis/include/cmsis_gcc.h ****   #pragma GCC diagnostic ignored "-Wattributes"
  98:Generated_Source\PSoC6\pdl\cmsis/include/cmsis_gcc.h ****   __PACKED_STRUCT T_UINT32_WRITE { uint32_t v; };
  99:Generated_Source\PSoC6\pdl\cmsis/include/cmsis_gcc.h ****   #pragma GCC diagnostic pop
 100:Generated_Source\PSoC6\pdl\cmsis/include/cmsis_gcc.h ****   #define __UNALIGNED_UINT32_WRITE(addr, val)    (void)((((struct T_UINT32_WRITE *)(void *)(addr))-
 101:Generated_Source\PSoC6\pdl\cmsis/include/cmsis_gcc.h **** #endif
 102:Generated_Source\PSoC6\pdl\cmsis/include/cmsis_gcc.h **** #ifndef   __UNALIGNED_UINT32_READ
 103:Generated_Source\PSoC6\pdl\cmsis/include/cmsis_gcc.h ****   #pragma GCC diagnostic push
 104:Generated_Source\PSoC6\pdl\cmsis/include/cmsis_gcc.h ****   #pragma GCC diagnostic ignored "-Wpacked"
 105:Generated_Source\PSoC6\pdl\cmsis/include/cmsis_gcc.h ****   #pragma GCC diagnostic ignored "-Wattributes"
 106:Generated_Source\PSoC6\pdl\cmsis/include/cmsis_gcc.h ****   __PACKED_STRUCT T_UINT32_READ { uint32_t v; };
 107:Generated_Source\PSoC6\pdl\cmsis/include/cmsis_gcc.h ****   #pragma GCC diagnostic pop
 108:Generated_Source\PSoC6\pdl\cmsis/include/cmsis_gcc.h ****   #define __UNALIGNED_UINT32_READ(addr)          (((const struct T_UINT32_READ *)(const void *)(add
 109:Generated_Source\PSoC6\pdl\cmsis/include/cmsis_gcc.h **** #endif
 110:Generated_Source\PSoC6\pdl\cmsis/include/cmsis_gcc.h **** #ifndef   __ALIGNED
 111:Generated_Source\PSoC6\pdl\cmsis/include/cmsis_gcc.h ****   #define __ALIGNED(x)                           __attribute__((aligned(x)))
 112:Generated_Source\PSoC6\pdl\cmsis/include/cmsis_gcc.h **** #endif
 113:Generated_Source\PSoC6\pdl\cmsis/include/cmsis_gcc.h **** #ifndef   __RESTRICT
 114:Generated_Source\PSoC6\pdl\cmsis/include/cmsis_gcc.h ****   #define __RESTRICT                             __restrict
 115:Generated_Source\PSoC6\pdl\cmsis/include/cmsis_gcc.h **** #endif
 116:Generated_Source\PSoC6\pdl\cmsis/include/cmsis_gcc.h **** 
 117:Generated_Source\PSoC6\pdl\cmsis/include/cmsis_gcc.h **** 
 118:Generated_Source\PSoC6\pdl\cmsis/include/cmsis_gcc.h **** /* ###########################  Core Function Access  ########################### */
 119:Generated_Source\PSoC6\pdl\cmsis/include/cmsis_gcc.h **** /** \ingroup  CMSIS_Core_FunctionInterface
 120:Generated_Source\PSoC6\pdl\cmsis/include/cmsis_gcc.h ****     \defgroup CMSIS_Core_RegAccFunctions CMSIS Core Register Access Functions
 121:Generated_Source\PSoC6\pdl\cmsis/include/cmsis_gcc.h ****   @{
 122:Generated_Source\PSoC6\pdl\cmsis/include/cmsis_gcc.h ****  */
 123:Generated_Source\PSoC6\pdl\cmsis/include/cmsis_gcc.h **** 
 124:Generated_Source\PSoC6\pdl\cmsis/include/cmsis_gcc.h **** /**
 125:Generated_Source\PSoC6\pdl\cmsis/include/cmsis_gcc.h ****   \brief   Enable IRQ Interrupts
 126:Generated_Source\PSoC6\pdl\cmsis/include/cmsis_gcc.h ****   \details Enables IRQ interrupts by clearing the I-bit in the CPSR.
 127:Generated_Source\PSoC6\pdl\cmsis/include/cmsis_gcc.h ****            Can only be executed in Privileged modes.
 128:Generated_Source\PSoC6\pdl\cmsis/include/cmsis_gcc.h ****  */
 129:Generated_Source\PSoC6\pdl\cmsis/include/cmsis_gcc.h **** __STATIC_FORCEINLINE void __enable_irq(void)
 130:Generated_Source\PSoC6\pdl\cmsis/include/cmsis_gcc.h **** {
 131:Generated_Source\PSoC6\pdl\cmsis/include/cmsis_gcc.h ****   __ASM volatile ("cpsie i" : : : "memory");
  45              		.loc 2 131 0
  46              		.syntax unified
  47              	@ 131 "Generated_Source\PSoC6\pdl\cmsis/include/cmsis_gcc.h" 1
  48 0008 62B6     		cpsie i
  49              	@ 0 "" 2
  50              		.thumb
  51              		.syntax unified
  52              	.LBE5:
  53              	.LBE4:
  35:main_cm4.c    ****     
  36:main_cm4.c    ****     // Initialize I2C for sensor communication
  37:main_cm4.c    ****     //I2C_Start();
  38:main_cm4.c    **** 
  39:main_cm4.c    ****     // Start ADC module 
  40:main_cm4.c    ****     //ADC_Start();
  41:main_cm4.c    **** 
  42:main_cm4.c    ****     __enable_irq();  // Enable global interrupts
  43:main_cm4.c    ****     // Create the ADPD1080 task
  44:main_cm4.c    ****     //xTaskCreate(ADPD1080_Task, "ADPD1080 Task", ADPD1080_TASK_STACK_SIZE, NULL, ADPD1080_TASK_PRI
ARM GAS  C:\Users\15311\AppData\Local\Temp\cccFsPp9.s 			page 5


  45:main_cm4.c    ****     //xTaskCreate(ADC_TASK, "ADC Task", ADC_TASK_STACK_SIZE, NULL, ADC_Task_PRIORITY, NULL);
  46:main_cm4.c    ****     xTaskCreate(send_task, "send data", 1024, NULL, 2, NULL);
  54              		.loc 1 46 0
  55 000a 0023     		movs	r3, #0
  56 000c 0193     		str	r3, [sp, #4]
  57 000e 0222     		movs	r2, #2
  58 0010 0092     		str	r2, [sp]
  59 0012 4FF48062 		mov	r2, #1024
  60 0016 0349     		ldr	r1, .L4
  61 0018 0348     		ldr	r0, .L4+4
  62 001a FFF7FEFF 		bl	xTaskCreate
  63              	.LVL1:
  47:main_cm4.c    ****     // Start the FreeRTOS scheduler
  48:main_cm4.c    ****     vTaskStartScheduler();
  64              		.loc 1 48 0
  65 001e FFF7FEFF 		bl	vTaskStartScheduler
  66              	.LVL2:
  67              	.L2:
  68 0022 FEE7     		b	.L2
  69              	.L5:
  70              		.align	2
  71              	.L4:
  72 0024 00000000 		.word	.LC0
  73 0028 00000000 		.word	send_task
  74              		.cfi_endproc
  75              	.LFE485:
  76              		.size	main, .-main
  77              		.section	.text.calculate_crc8,"ax",%progbits
  78              		.align	2
  79              		.global	calculate_crc8
  80              		.thumb
  81              		.thumb_func
  82              		.type	calculate_crc8, %function
  83              	calculate_crc8:
  84              	.LFB486:
  49:main_cm4.c    **** 
  50:main_cm4.c    ****     for (;;) {
  51:main_cm4.c    ****         // This point should never be reached
  52:main_cm4.c    ****     }
  53:main_cm4.c    **** }
  54:main_cm4.c    **** 
  55:main_cm4.c    **** #define OPCODE_ADC_0 0x01
  56:main_cm4.c    **** #define OPCODE_ADC_1 0x02
  57:main_cm4.c    **** #define OPCODE_ADC_2 0x03
  58:main_cm4.c    **** #define OPCODE_ADC_3 0x04
  59:main_cm4.c    **** #define OPCODE_ADC_4 0x05
  60:main_cm4.c    **** #define OPCODE_ADC_5 0x06
  61:main_cm4.c    **** #define OPCODE_ADC_6 0x07
  62:main_cm4.c    **** #define OPCODE_ADC_7 0x08
  63:main_cm4.c    **** #define OPCODE_I2C 0x09
  64:main_cm4.c    **** 
  65:main_cm4.c    **** /* calculate crc8 for specific data*/
  66:main_cm4.c    **** uint8_t calculate_crc8(uint8_t *data, uint8_t length) {
  85              		.loc 1 66 0
  86              		.cfi_startproc
  87              		@ args = 0, pretend = 0, frame = 0
  88              		@ frame_needed = 0, uses_anonymous_args = 0
ARM GAS  C:\Users\15311\AppData\Local\Temp\cccFsPp9.s 			page 6


  89              		@ link register save eliminated.
  90              	.LVL3:
  91 0000 10B4     		push	{r4}
  92              		.cfi_def_cfa_offset 4
  93              		.cfi_offset 4, -4
  94 0002 0446     		mov	r4, r0
  95              	.LVL4:
  96              	.LBB6:
  67:main_cm4.c    ****     uint8_t crc = 0x00;
  68:main_cm4.c    ****     for (uint8_t i = 0; i < length; i++) {
  97              		.loc 1 68 0
  98 0004 0022     		movs	r2, #0
  99              	.LBE6:
  67:main_cm4.c    ****     uint8_t crc = 0x00;
 100              		.loc 1 67 0
 101 0006 1046     		mov	r0, r2
 102              	.LVL5:
 103              	.LBB8:
 104              		.loc 1 68 0
 105 0008 13E0     		b	.L7
 106              	.LVL6:
 107              	.L12:
  69:main_cm4.c    ****         crc ^= data[i];
 108              		.loc 1 69 0
 109 000a A35C     		ldrb	r3, [r4, r2]	@ zero_extendqisi2
 110 000c 5840     		eors	r0, r0, r3
 111              	.LVL7:
 112              	.LBB7:
  70:main_cm4.c    ****         for (uint8_t j = 0; j < 8; j++) {
 113              		.loc 1 70 0
 114 000e 0023     		movs	r3, #0
 115 0010 0BE0     		b	.L8
 116              	.LVL8:
 117              	.L11:
  71:main_cm4.c    ****             if (crc & 0x80)
 118              		.loc 1 71 0
 119 0012 10F0800F 		tst	r0, #128
 120 0016 04D0     		beq	.L9
  72:main_cm4.c    ****                 crc = (crc << 1) ^ 0x07;
 121              		.loc 1 72 0
 122 0018 4000     		lsls	r0, r0, #1
 123              	.LVL9:
 124 001a 80F00700 		eor	r0, r0, #7
 125 001e C0B2     		uxtb	r0, r0
 126              	.LVL10:
 127 0020 01E0     		b	.L10
 128              	.L9:
  73:main_cm4.c    ****             else
  74:main_cm4.c    ****                 crc <<= 1;
 129              		.loc 1 74 0
 130 0022 4000     		lsls	r0, r0, #1
 131              	.LVL11:
 132 0024 C0B2     		uxtb	r0, r0
 133              	.LVL12:
 134              	.L10:
  70:main_cm4.c    ****             if (crc & 0x80)
 135              		.loc 1 70 0 discriminator 2
ARM GAS  C:\Users\15311\AppData\Local\Temp\cccFsPp9.s 			page 7


 136 0026 0133     		adds	r3, r3, #1
 137              	.LVL13:
 138 0028 DBB2     		uxtb	r3, r3
 139              	.LVL14:
 140              	.L8:
  70:main_cm4.c    ****             if (crc & 0x80)
 141              		.loc 1 70 0 is_stmt 0 discriminator 1
 142 002a 072B     		cmp	r3, #7
 143 002c F1D9     		bls	.L11
 144              	.LBE7:
  68:main_cm4.c    ****         crc ^= data[i];
 145              		.loc 1 68 0 is_stmt 1 discriminator 2
 146 002e 0132     		adds	r2, r2, #1
 147              	.LVL15:
 148 0030 D2B2     		uxtb	r2, r2
 149              	.LVL16:
 150              	.L7:
  68:main_cm4.c    ****         crc ^= data[i];
 151              		.loc 1 68 0 is_stmt 0 discriminator 1
 152 0032 8A42     		cmp	r2, r1
 153 0034 E9D3     		bcc	.L12
 154              	.LBE8:
  75:main_cm4.c    ****         }
  76:main_cm4.c    ****     }
  77:main_cm4.c    ****     return crc;
  78:main_cm4.c    **** }
 155              		.loc 1 78 0 is_stmt 1
 156 0036 5DF8044B 		ldr	r4, [sp], #4
 157              		.cfi_restore 4
 158              		.cfi_def_cfa_offset 0
 159              	.LVL17:
 160 003a 7047     		bx	lr
 161              		.cfi_endproc
 162              	.LFE486:
 163              		.size	calculate_crc8, .-calculate_crc8
 164              		.section	.text.wrap_data,"ax",%progbits
 165              		.align	2
 166              		.global	wrap_data
 167              		.thumb
 168              		.thumb_func
 169              		.type	wrap_data, %function
 170              	wrap_data:
 171              	.LFB487:
  79:main_cm4.c    **** 
  80:main_cm4.c    **** void wrap_data(uint8_t opcode, uint8_t* data, uint8_t length) {
 172              		.loc 1 80 0
 173              		.cfi_startproc
 174              		@ args = 0, pretend = 0, frame = 0
 175              		@ frame_needed = 1, uses_anonymous_args = 0
 176              	.LVL18:
 177 0000 F8B5     		push	{r3, r4, r5, r6, r7, lr}
 178              		.cfi_def_cfa_offset 24
 179              		.cfi_offset 3, -24
 180              		.cfi_offset 4, -20
 181              		.cfi_offset 5, -16
 182              		.cfi_offset 6, -12
 183              		.cfi_offset 7, -8
ARM GAS  C:\Users\15311\AppData\Local\Temp\cccFsPp9.s 			page 8


 184              		.cfi_offset 14, -4
 185 0002 00AF     		add	r7, sp, #0
 186              		.cfi_def_cfa_register 7
  81:main_cm4.c    ****     uint8_t packet[2 + length + 1];
 187              		.loc 1 81 0
 188 0004 D51C     		adds	r5, r2, #3
 189 0006 961C     		adds	r6, r2, #2
 190              	.LVL19:
 191 0008 02F10A04 		add	r4, r2, #10
 192 000c 24F00704 		bic	r4, r4, #7
 193 0010 ADEB040D 		sub	sp, sp, r4
 194 0014 6C46     		mov	r4, sp
 195              	.LVL20:
  82:main_cm4.c    ****     packet[0] = opcode;
 196              		.loc 1 82 0
 197 0016 8DF80000 		strb	r0, [sp]
  83:main_cm4.c    ****     packet[1] = length;
 198              		.loc 1 83 0
 199 001a 8DF80120 		strb	r2, [sp, #1]
  84:main_cm4.c    ****     memcpy(&packet[2], data, length);
 200              		.loc 1 84 0
 201 001e 0DF10200 		add	r0, sp, #2
 202              	.LVL21:
 203 0022 FFF7FEFF 		bl	memcpy
 204              	.LVL22:
  85:main_cm4.c    ****     packet[2 + length] = calculate_crc8(packet, 2 + length);
 205              		.loc 1 85 0
 206 0026 F1B2     		uxtb	r1, r6
 207 0028 6846     		mov	r0, sp
 208 002a FFF7FEFF 		bl	calculate_crc8
 209              	.LVL23:
 210 002e 0DF80600 		strb	r0, [sp, r6]
 211              	.LVL24:
 212              	.LBB11:
 213              	.LBB12:
 214              		.file 3 "Generated_Source\\PSoC6\\pdl\\drivers/peripheral/scb/cy_scb_uart.h"
   1:Generated_Source\PSoC6\pdl\drivers/peripheral/scb/cy_scb_uart.h **** /***************************************************************************//**
   2:Generated_Source\PSoC6\pdl\drivers/peripheral/scb/cy_scb_uart.h **** * \file cy_scb_uart.h
   3:Generated_Source\PSoC6\pdl\drivers/peripheral/scb/cy_scb_uart.h **** * \version 2.30
   4:Generated_Source\PSoC6\pdl\drivers/peripheral/scb/cy_scb_uart.h **** *
   5:Generated_Source\PSoC6\pdl\drivers/peripheral/scb/cy_scb_uart.h **** * Provides UART API declarations of the SCB driver.
   6:Generated_Source\PSoC6\pdl\drivers/peripheral/scb/cy_scb_uart.h **** *
   7:Generated_Source\PSoC6\pdl\drivers/peripheral/scb/cy_scb_uart.h **** ********************************************************************************
   8:Generated_Source\PSoC6\pdl\drivers/peripheral/scb/cy_scb_uart.h **** * \copyright
   9:Generated_Source\PSoC6\pdl\drivers/peripheral/scb/cy_scb_uart.h **** * Copyright 2016-2021, Cypress Semiconductor Corporation.  All rights reserved.
  10:Generated_Source\PSoC6\pdl\drivers/peripheral/scb/cy_scb_uart.h **** * You may use this file only in accordance with the license, terms, conditions,
  11:Generated_Source\PSoC6\pdl\drivers/peripheral/scb/cy_scb_uart.h **** * disclaimers, and limitations in the end user license agreement accompanying
  12:Generated_Source\PSoC6\pdl\drivers/peripheral/scb/cy_scb_uart.h **** * the software package with which this file was provided.
  13:Generated_Source\PSoC6\pdl\drivers/peripheral/scb/cy_scb_uart.h **** *******************************************************************************/
  14:Generated_Source\PSoC6\pdl\drivers/peripheral/scb/cy_scb_uart.h **** 
  15:Generated_Source\PSoC6\pdl\drivers/peripheral/scb/cy_scb_uart.h **** /**
  16:Generated_Source\PSoC6\pdl\drivers/peripheral/scb/cy_scb_uart.h **** * \addtogroup group_scb_uart
  17:Generated_Source\PSoC6\pdl\drivers/peripheral/scb/cy_scb_uart.h **** * \{
  18:Generated_Source\PSoC6\pdl\drivers/peripheral/scb/cy_scb_uart.h **** * Driver API for UART
  19:Generated_Source\PSoC6\pdl\drivers/peripheral/scb/cy_scb_uart.h **** *
  20:Generated_Source\PSoC6\pdl\drivers/peripheral/scb/cy_scb_uart.h **** * The functions and other declarations used in this part of the driver are in
  21:Generated_Source\PSoC6\pdl\drivers/peripheral/scb/cy_scb_uart.h **** * cy_scb_uart.h. You can also include cy_pdl.h (ModusToolbox only) to get access
ARM GAS  C:\Users\15311\AppData\Local\Temp\cccFsPp9.s 			page 9


  22:Generated_Source\PSoC6\pdl\drivers/peripheral/scb/cy_scb_uart.h **** * to all functions and declarations in the PDL.
  23:Generated_Source\PSoC6\pdl\drivers/peripheral/scb/cy_scb_uart.h **** *
  24:Generated_Source\PSoC6\pdl\drivers/peripheral/scb/cy_scb_uart.h **** * The Universal Asynchronous Receiver/Transmitter (UART) protocol is an
  25:Generated_Source\PSoC6\pdl\drivers/peripheral/scb/cy_scb_uart.h **** * asynchronous serial interface protocol. UART communication is typically
  26:Generated_Source\PSoC6\pdl\drivers/peripheral/scb/cy_scb_uart.h **** * point-to-point. The UART interface consists of two signals:
  27:Generated_Source\PSoC6\pdl\drivers/peripheral/scb/cy_scb_uart.h **** * * TX: Transmitter output
  28:Generated_Source\PSoC6\pdl\drivers/peripheral/scb/cy_scb_uart.h **** * * RX: Receiver input
  29:Generated_Source\PSoC6\pdl\drivers/peripheral/scb/cy_scb_uart.h **** *
  30:Generated_Source\PSoC6\pdl\drivers/peripheral/scb/cy_scb_uart.h **** * Additionally, two side-band signals are used to implement flow control in
  31:Generated_Source\PSoC6\pdl\drivers/peripheral/scb/cy_scb_uart.h **** * UART. Note that the flow control applies only to TX functionality.
  32:Generated_Source\PSoC6\pdl\drivers/peripheral/scb/cy_scb_uart.h **** * * Clear to Send (CTS): This is an input signal to the transmitter.
  33:Generated_Source\PSoC6\pdl\drivers/peripheral/scb/cy_scb_uart.h **** *   When active, it indicates that the slave is ready for the master to
  34:Generated_Source\PSoC6\pdl\drivers/peripheral/scb/cy_scb_uart.h **** *   transmit data.
  35:Generated_Source\PSoC6\pdl\drivers/peripheral/scb/cy_scb_uart.h **** * * Ready to Send (RTS): This is an output signal from the receiver. When
  36:Generated_Source\PSoC6\pdl\drivers/peripheral/scb/cy_scb_uart.h **** *   active, it indicates that the receiver is ready to receive data
  37:Generated_Source\PSoC6\pdl\drivers/peripheral/scb/cy_scb_uart.h **** *
  38:Generated_Source\PSoC6\pdl\drivers/peripheral/scb/cy_scb_uart.h **** * Features:
  39:Generated_Source\PSoC6\pdl\drivers/peripheral/scb/cy_scb_uart.h **** * * Supports UART protocol
  40:Generated_Source\PSoC6\pdl\drivers/peripheral/scb/cy_scb_uart.h **** *   * Standard UART
  41:Generated_Source\PSoC6\pdl\drivers/peripheral/scb/cy_scb_uart.h **** *   * Multi-processor mode
  42:Generated_Source\PSoC6\pdl\drivers/peripheral/scb/cy_scb_uart.h **** * * SmartCard (ISO7816) reader
  43:Generated_Source\PSoC6\pdl\drivers/peripheral/scb/cy_scb_uart.h **** * * IrDA
  44:Generated_Source\PSoC6\pdl\drivers/peripheral/scb/cy_scb_uart.h **** * * Data frame size programmable from 4 to 16 bits
  45:Generated_Source\PSoC6\pdl\drivers/peripheral/scb/cy_scb_uart.h **** * * Programmable number of STOP bits, which can be set in terms of half bit
  46:Generated_Source\PSoC6\pdl\drivers/peripheral/scb/cy_scb_uart.h **** *   periods between 1 and 4
  47:Generated_Source\PSoC6\pdl\drivers/peripheral/scb/cy_scb_uart.h **** * * Parity support (odd and even parity)
  48:Generated_Source\PSoC6\pdl\drivers/peripheral/scb/cy_scb_uart.h **** * * Median filter on Rx input
  49:Generated_Source\PSoC6\pdl\drivers/peripheral/scb/cy_scb_uart.h **** * * Programmable oversampling
  50:Generated_Source\PSoC6\pdl\drivers/peripheral/scb/cy_scb_uart.h **** * * Start skipping
  51:Generated_Source\PSoC6\pdl\drivers/peripheral/scb/cy_scb_uart.h **** *
  52:Generated_Source\PSoC6\pdl\drivers/peripheral/scb/cy_scb_uart.h **** ********************************************************************************
  53:Generated_Source\PSoC6\pdl\drivers/peripheral/scb/cy_scb_uart.h **** * \section group_scb_uart_configuration Configuration Considerations
  54:Generated_Source\PSoC6\pdl\drivers/peripheral/scb/cy_scb_uart.h **** ********************************************************************************
  55:Generated_Source\PSoC6\pdl\drivers/peripheral/scb/cy_scb_uart.h **** * The UART driver configuration can be divided to number of sequential
  56:Generated_Source\PSoC6\pdl\drivers/peripheral/scb/cy_scb_uart.h **** * steps listed below:
  57:Generated_Source\PSoC6\pdl\drivers/peripheral/scb/cy_scb_uart.h **** * * \ref group_scb_uart_config
  58:Generated_Source\PSoC6\pdl\drivers/peripheral/scb/cy_scb_uart.h **** * * \ref group_scb_uart_pins
  59:Generated_Source\PSoC6\pdl\drivers/peripheral/scb/cy_scb_uart.h **** * * \ref group_scb_uart_clock
  60:Generated_Source\PSoC6\pdl\drivers/peripheral/scb/cy_scb_uart.h **** * * \ref group_scb_uart_data_rate
  61:Generated_Source\PSoC6\pdl\drivers/peripheral/scb/cy_scb_uart.h **** * * \ref group_scb_uart_intr
  62:Generated_Source\PSoC6\pdl\drivers/peripheral/scb/cy_scb_uart.h **** * * \ref group_scb_uart_enable
  63:Generated_Source\PSoC6\pdl\drivers/peripheral/scb/cy_scb_uart.h **** *
  64:Generated_Source\PSoC6\pdl\drivers/peripheral/scb/cy_scb_uart.h **** * \note
  65:Generated_Source\PSoC6\pdl\drivers/peripheral/scb/cy_scb_uart.h **** * UART driver is built on top of the SCB hardware block. The SCB5 instance is
  66:Generated_Source\PSoC6\pdl\drivers/peripheral/scb/cy_scb_uart.h **** * used as an example for all code snippets. Modify the code to match your
  67:Generated_Source\PSoC6\pdl\drivers/peripheral/scb/cy_scb_uart.h **** * design.
  68:Generated_Source\PSoC6\pdl\drivers/peripheral/scb/cy_scb_uart.h **** *
  69:Generated_Source\PSoC6\pdl\drivers/peripheral/scb/cy_scb_uart.h **** ********************************************************************************
  70:Generated_Source\PSoC6\pdl\drivers/peripheral/scb/cy_scb_uart.h **** * \subsection group_scb_uart_config Configure UART
  71:Generated_Source\PSoC6\pdl\drivers/peripheral/scb/cy_scb_uart.h **** ********************************************************************************
  72:Generated_Source\PSoC6\pdl\drivers/peripheral/scb/cy_scb_uart.h **** * To set up the UART driver, provide the configuration parameters in the
  73:Generated_Source\PSoC6\pdl\drivers/peripheral/scb/cy_scb_uart.h **** * \ref cy_stc_scb_uart_config_t structure. For example: provide uartMode,
  74:Generated_Source\PSoC6\pdl\drivers/peripheral/scb/cy_scb_uart.h **** * oversample, dataWidth, enableMsbFirst, parity, and stopBits. The other
  75:Generated_Source\PSoC6\pdl\drivers/peripheral/scb/cy_scb_uart.h **** * parameters are optional. To initialize the driver, call \ref Cy_SCB_UART_Init
  76:Generated_Source\PSoC6\pdl\drivers/peripheral/scb/cy_scb_uart.h **** * function providing a pointer to the populated \ref cy_stc_scb_uart_config_t
  77:Generated_Source\PSoC6\pdl\drivers/peripheral/scb/cy_scb_uart.h **** * structure and the allocated \ref cy_stc_scb_uart_context_t structure.
  78:Generated_Source\PSoC6\pdl\drivers/peripheral/scb/cy_scb_uart.h **** *
ARM GAS  C:\Users\15311\AppData\Local\Temp\cccFsPp9.s 			page 10


  79:Generated_Source\PSoC6\pdl\drivers/peripheral/scb/cy_scb_uart.h **** * \snippet SCB_CompDatasheet_sut_01_revA.cydsn\uart_snippets.c UART_CFG
  80:Generated_Source\PSoC6\pdl\drivers/peripheral/scb/cy_scb_uart.h **** *
  81:Generated_Source\PSoC6\pdl\drivers/peripheral/scb/cy_scb_uart.h **** ********************************************************************************
  82:Generated_Source\PSoC6\pdl\drivers/peripheral/scb/cy_scb_uart.h **** * \subsection group_scb_uart_pins Assign and Configure Pins
  83:Generated_Source\PSoC6\pdl\drivers/peripheral/scb/cy_scb_uart.h **** ********************************************************************************
  84:Generated_Source\PSoC6\pdl\drivers/peripheral/scb/cy_scb_uart.h **** * Only dedicated SCB pins can be used for UART operation. The HSIOM
  85:Generated_Source\PSoC6\pdl\drivers/peripheral/scb/cy_scb_uart.h **** * register must be configured to connect dedicated SCB UART pins to the
  86:Generated_Source\PSoC6\pdl\drivers/peripheral/scb/cy_scb_uart.h **** * SCB block. Also, the UART output pins must be configured in Strong Drive
  87:Generated_Source\PSoC6\pdl\drivers/peripheral/scb/cy_scb_uart.h **** * Input Off mode and UART input pins in Digital High-Z:
  88:Generated_Source\PSoC6\pdl\drivers/peripheral/scb/cy_scb_uart.h **** *
  89:Generated_Source\PSoC6\pdl\drivers/peripheral/scb/cy_scb_uart.h **** * \snippet SCB_CompDatasheet_sut_01_revA.cydsn\uart_snippets.c UART_CFG_PINS
  90:Generated_Source\PSoC6\pdl\drivers/peripheral/scb/cy_scb_uart.h **** *
  91:Generated_Source\PSoC6\pdl\drivers/peripheral/scb/cy_scb_uart.h **** ********************************************************************************
  92:Generated_Source\PSoC6\pdl\drivers/peripheral/scb/cy_scb_uart.h **** * \subsection group_scb_uart_clock Assign Clock Divider
  93:Generated_Source\PSoC6\pdl\drivers/peripheral/scb/cy_scb_uart.h **** ********************************************************************************
  94:Generated_Source\PSoC6\pdl\drivers/peripheral/scb/cy_scb_uart.h **** * A clock source must be connected to the SCB block to oversample input and
  95:Generated_Source\PSoC6\pdl\drivers/peripheral/scb/cy_scb_uart.h **** * output signals, in this document this clock will be referred as clk_scb.
  96:Generated_Source\PSoC6\pdl\drivers/peripheral/scb/cy_scb_uart.h **** * You must use one of available integer or fractional dividers. Use the
  97:Generated_Source\PSoC6\pdl\drivers/peripheral/scb/cy_scb_uart.h **** * \ref group_sysclk driver API to do this.
  98:Generated_Source\PSoC6\pdl\drivers/peripheral/scb/cy_scb_uart.h **** *
  99:Generated_Source\PSoC6\pdl\drivers/peripheral/scb/cy_scb_uart.h **** * \snippet SCB_CompDatasheet_sut_01_revA.cydsn\uart_snippets.c UART_CFG_ASSIGN_CLOCK
 100:Generated_Source\PSoC6\pdl\drivers/peripheral/scb/cy_scb_uart.h **** *
 101:Generated_Source\PSoC6\pdl\drivers/peripheral/scb/cy_scb_uart.h **** ********************************************************************************
 102:Generated_Source\PSoC6\pdl\drivers/peripheral/scb/cy_scb_uart.h **** * \subsection group_scb_uart_data_rate Configure Baud Rate
 103:Generated_Source\PSoC6\pdl\drivers/peripheral/scb/cy_scb_uart.h **** ********************************************************************************
 104:Generated_Source\PSoC6\pdl\drivers/peripheral/scb/cy_scb_uart.h **** * To get the UART to operate with the desired baud rate, the clk_scb frequency
 105:Generated_Source\PSoC6\pdl\drivers/peripheral/scb/cy_scb_uart.h **** * and the oversample must be configured. Use the \ref group_sysclk driver API
 106:Generated_Source\PSoC6\pdl\drivers/peripheral/scb/cy_scb_uart.h **** * to configure clk_scb frequency. Set the <em><b>oversample parameter
 107:Generated_Source\PSoC6\pdl\drivers/peripheral/scb/cy_scb_uart.h **** * in configuration structure</b></em> to define the number of the SCB clocks
 108:Generated_Source\PSoC6\pdl\drivers/peripheral/scb/cy_scb_uart.h **** * within one UART bit-time.
 109:Generated_Source\PSoC6\pdl\drivers/peripheral/scb/cy_scb_uart.h **** *
 110:Generated_Source\PSoC6\pdl\drivers/peripheral/scb/cy_scb_uart.h **** * \snippet SCB_CompDatasheet_sut_01_revA.cydsn\uart_snippets.c UART_CFG_DATA_RATE
 111:Generated_Source\PSoC6\pdl\drivers/peripheral/scb/cy_scb_uart.h **** *
 112:Generated_Source\PSoC6\pdl\drivers/peripheral/scb/cy_scb_uart.h **** * <b>Refer to the technical reference manual (TRM) section UART sub-section
 113:Generated_Source\PSoC6\pdl\drivers/peripheral/scb/cy_scb_uart.h **** * Clocking and Oversampling to get information about how to configure the UART to run with
 114:Generated_Source\PSoC6\pdl\drivers/peripheral/scb/cy_scb_uart.h **** * desired baud rate.</b>
 115:Generated_Source\PSoC6\pdl\drivers/peripheral/scb/cy_scb_uart.h **** *
 116:Generated_Source\PSoC6\pdl\drivers/peripheral/scb/cy_scb_uart.h **** ********************************************************************************
 117:Generated_Source\PSoC6\pdl\drivers/peripheral/scb/cy_scb_uart.h **** * \subsection group_scb_uart_intr Configure Interrupt
 118:Generated_Source\PSoC6\pdl\drivers/peripheral/scb/cy_scb_uart.h **** ********************************************************************************
 119:Generated_Source\PSoC6\pdl\drivers/peripheral/scb/cy_scb_uart.h **** * The interrupt is optional for the UART operation. To configure interrupt
 120:Generated_Source\PSoC6\pdl\drivers/peripheral/scb/cy_scb_uart.h **** * the \ref Cy_SCB_UART_Interrupt function must be called in the interrupt
 121:Generated_Source\PSoC6\pdl\drivers/peripheral/scb/cy_scb_uart.h **** * handler for the selected SCB instance. Also, this interrupt must be enabled
 122:Generated_Source\PSoC6\pdl\drivers/peripheral/scb/cy_scb_uart.h **** * in the NVIC.
 123:Generated_Source\PSoC6\pdl\drivers/peripheral/scb/cy_scb_uart.h **** * The interrupt must be configured when \ref group_scb_uart_hl will be used.
 124:Generated_Source\PSoC6\pdl\drivers/peripheral/scb/cy_scb_uart.h **** *
 125:Generated_Source\PSoC6\pdl\drivers/peripheral/scb/cy_scb_uart.h **** * \snippet SCB_CompDatasheet_sut_01_revA.cydsn\uart_snippets.c UART_INTR_A
 126:Generated_Source\PSoC6\pdl\drivers/peripheral/scb/cy_scb_uart.h **** * \snippet SCB_CompDatasheet_sut_01_revA.cydsn\uart_snippets.c UART_INTR_B
 127:Generated_Source\PSoC6\pdl\drivers/peripheral/scb/cy_scb_uart.h **** *
 128:Generated_Source\PSoC6\pdl\drivers/peripheral/scb/cy_scb_uart.h **** ********************************************************************************
 129:Generated_Source\PSoC6\pdl\drivers/peripheral/scb/cy_scb_uart.h **** * \subsection group_scb_uart_enable Enable UART
 130:Generated_Source\PSoC6\pdl\drivers/peripheral/scb/cy_scb_uart.h **** ********************************************************************************
 131:Generated_Source\PSoC6\pdl\drivers/peripheral/scb/cy_scb_uart.h **** * Finally, enable the UART operation by calling \ref Cy_SCB_UART_Enable.
 132:Generated_Source\PSoC6\pdl\drivers/peripheral/scb/cy_scb_uart.h **** *
 133:Generated_Source\PSoC6\pdl\drivers/peripheral/scb/cy_scb_uart.h **** * \snippet SCB_CompDatasheet_sut_01_revA.cydsn\uart_snippets.c UART_ENABLE
 134:Generated_Source\PSoC6\pdl\drivers/peripheral/scb/cy_scb_uart.h **** *
 135:Generated_Source\PSoC6\pdl\drivers/peripheral/scb/cy_scb_uart.h **** ********************************************************************************
ARM GAS  C:\Users\15311\AppData\Local\Temp\cccFsPp9.s 			page 11


 136:Generated_Source\PSoC6\pdl\drivers/peripheral/scb/cy_scb_uart.h **** * \section group_scb_uart_use_cases Common Use Cases
 137:Generated_Source\PSoC6\pdl\drivers/peripheral/scb/cy_scb_uart.h **** ********************************************************************************
 138:Generated_Source\PSoC6\pdl\drivers/peripheral/scb/cy_scb_uart.h **** * The UART API is divided into two categories: \ref group_scb_uart_low_level_functions
 139:Generated_Source\PSoC6\pdl\drivers/peripheral/scb/cy_scb_uart.h **** * and \ref group_scb_uart_high_level_functions. \n
 140:Generated_Source\PSoC6\pdl\drivers/peripheral/scb/cy_scb_uart.h **** * <em>Do not mix <b>High-Level</b> and <b>Low-Level</b> API because a Low-Level
 141:Generated_Source\PSoC6\pdl\drivers/peripheral/scb/cy_scb_uart.h **** * API can adversely affect the operation of a High-Level API.</em>
 142:Generated_Source\PSoC6\pdl\drivers/peripheral/scb/cy_scb_uart.h **** *
 143:Generated_Source\PSoC6\pdl\drivers/peripheral/scb/cy_scb_uart.h **** ********************************************************************************
 144:Generated_Source\PSoC6\pdl\drivers/peripheral/scb/cy_scb_uart.h **** * \subsection group_scb_uart_ll Low-Level API
 145:Generated_Source\PSoC6\pdl\drivers/peripheral/scb/cy_scb_uart.h **** ********************************************************************************
 146:Generated_Source\PSoC6\pdl\drivers/peripheral/scb/cy_scb_uart.h **** * The \ref group_scb_uart_low_level_functions functions allow
 147:Generated_Source\PSoC6\pdl\drivers/peripheral/scb/cy_scb_uart.h **** * interacting directly with the hardware and do not use \ref Cy_SCB_UART_Interrupt.
 148:Generated_Source\PSoC6\pdl\drivers/peripheral/scb/cy_scb_uart.h **** * These functions do not require context for operation. Thus, NULL can be
 149:Generated_Source\PSoC6\pdl\drivers/peripheral/scb/cy_scb_uart.h **** * passed for context parameter in \ref Cy_SCB_UART_Init and \ref Cy_SCB_UART_Disable
 150:Generated_Source\PSoC6\pdl\drivers/peripheral/scb/cy_scb_uart.h **** * instead of a pointer to the context structure.
 151:Generated_Source\PSoC6\pdl\drivers/peripheral/scb/cy_scb_uart.h **** *
 152:Generated_Source\PSoC6\pdl\drivers/peripheral/scb/cy_scb_uart.h **** * * To write data into the TX FIFO, use one of the provided functions:
 153:Generated_Source\PSoC6\pdl\drivers/peripheral/scb/cy_scb_uart.h **** *   \ref Cy_SCB_UART_Put, \ref Cy_SCB_UART_PutArray,
 154:Generated_Source\PSoC6\pdl\drivers/peripheral/scb/cy_scb_uart.h **** *   \ref Cy_SCB_UART_PutArrayBlocking or \ref Cy_SCB_UART_PutString.
 155:Generated_Source\PSoC6\pdl\drivers/peripheral/scb/cy_scb_uart.h **** *   Note that putting data into the TX FIFO starts data transfer.
 156:Generated_Source\PSoC6\pdl\drivers/peripheral/scb/cy_scb_uart.h **** *
 157:Generated_Source\PSoC6\pdl\drivers/peripheral/scb/cy_scb_uart.h **** * * To read data from the RX FIFO, use one of the provided functions:
 158:Generated_Source\PSoC6\pdl\drivers/peripheral/scb/cy_scb_uart.h **** *   \ref Cy_SCB_UART_Get, \ref Cy_SCB_UART_GetArray or
 159:Generated_Source\PSoC6\pdl\drivers/peripheral/scb/cy_scb_uart.h **** *   \ref Cy_SCB_UART_GetArrayBlocking.
 160:Generated_Source\PSoC6\pdl\drivers/peripheral/scb/cy_scb_uart.h **** *
 161:Generated_Source\PSoC6\pdl\drivers/peripheral/scb/cy_scb_uart.h **** * * The statuses can be polled using: \ref Cy_SCB_UART_GetRxFifoStatus and
 162:Generated_Source\PSoC6\pdl\drivers/peripheral/scb/cy_scb_uart.h **** *   \ref Cy_SCB_UART_GetTxFifoStatus.
 163:Generated_Source\PSoC6\pdl\drivers/peripheral/scb/cy_scb_uart.h **** *   <em>The statuses are <b>W1C (Write 1 to Clear)</b> and after a status
 164:Generated_Source\PSoC6\pdl\drivers/peripheral/scb/cy_scb_uart.h **** *   is set, it must be cleared.</em> Note that there are statuses evaluated as level.
 165:Generated_Source\PSoC6\pdl\drivers/peripheral/scb/cy_scb_uart.h **** *   These statuses remain set until an event is true. Therefore, after the clear
 166:Generated_Source\PSoC6\pdl\drivers/peripheral/scb/cy_scb_uart.h **** *   operation, the status is cleared but then it is restored (if event is still
 167:Generated_Source\PSoC6\pdl\drivers/peripheral/scb/cy_scb_uart.h **** *   true).
 168:Generated_Source\PSoC6\pdl\drivers/peripheral/scb/cy_scb_uart.h **** *   Also, the following functions can be used for polling as well
 169:Generated_Source\PSoC6\pdl\drivers/peripheral/scb/cy_scb_uart.h **** *   \ref Cy_SCB_UART_IsTxComplete, \ref Cy_SCB_UART_GetNumInRxFifo and
 170:Generated_Source\PSoC6\pdl\drivers/peripheral/scb/cy_scb_uart.h **** *   \ref Cy_SCB_UART_GetNumInTxFifo.
 171:Generated_Source\PSoC6\pdl\drivers/peripheral/scb/cy_scb_uart.h **** *
 172:Generated_Source\PSoC6\pdl\drivers/peripheral/scb/cy_scb_uart.h **** * \snippet SCB_CompDatasheet_sut_01_revA.cydsn\uart_snippets.c UART_TRANSMIT_DATA_LL
 173:Generated_Source\PSoC6\pdl\drivers/peripheral/scb/cy_scb_uart.h **** *
 174:Generated_Source\PSoC6\pdl\drivers/peripheral/scb/cy_scb_uart.h **** ********************************************************************************
 175:Generated_Source\PSoC6\pdl\drivers/peripheral/scb/cy_scb_uart.h **** * \subsection group_scb_uart_hl High-Level API
 176:Generated_Source\PSoC6\pdl\drivers/peripheral/scb/cy_scb_uart.h **** ********************************************************************************
 177:Generated_Source\PSoC6\pdl\drivers/peripheral/scb/cy_scb_uart.h **** * The \ref group_scb_uart_high_level_functions API use \ref Cy_SCB_UART_Interrupt
 178:Generated_Source\PSoC6\pdl\drivers/peripheral/scb/cy_scb_uart.h **** * to execute the transfer. Call \ref Cy_SCB_UART_Transmit to start transmission.
 179:Generated_Source\PSoC6\pdl\drivers/peripheral/scb/cy_scb_uart.h **** * Call \ref Cy_SCB_UART_Receive to start receive operation. After the
 180:Generated_Source\PSoC6\pdl\drivers/peripheral/scb/cy_scb_uart.h **** * operation is started the \ref Cy_SCB_UART_Interrupt handles the data
 181:Generated_Source\PSoC6\pdl\drivers/peripheral/scb/cy_scb_uart.h **** * transfer until its completion.
 182:Generated_Source\PSoC6\pdl\drivers/peripheral/scb/cy_scb_uart.h **** * Therefore \ref Cy_SCB_UART_Interrupt must be called inside the user
 183:Generated_Source\PSoC6\pdl\drivers/peripheral/scb/cy_scb_uart.h **** * interrupt handler to make the High-Level API work. To monitor status
 184:Generated_Source\PSoC6\pdl\drivers/peripheral/scb/cy_scb_uart.h **** * of transmit operation, use \ref Cy_SCB_UART_GetTransmitStatus and
 185:Generated_Source\PSoC6\pdl\drivers/peripheral/scb/cy_scb_uart.h **** * \ref Cy_SCB_UART_GetReceiveStatus to monitor receive status appropriately.
 186:Generated_Source\PSoC6\pdl\drivers/peripheral/scb/cy_scb_uart.h **** * Alternatively use \ref Cy_SCB_UART_RegisterCallback to register callback
 187:Generated_Source\PSoC6\pdl\drivers/peripheral/scb/cy_scb_uart.h **** * function to be notified about \ref group_scb_uart_macros_callback_events.
 188:Generated_Source\PSoC6\pdl\drivers/peripheral/scb/cy_scb_uart.h **** *
 189:Generated_Source\PSoC6\pdl\drivers/peripheral/scb/cy_scb_uart.h **** * <b>Receive Operation</b>
 190:Generated_Source\PSoC6\pdl\drivers/peripheral/scb/cy_scb_uart.h **** * \snippet SCB_CompDatasheet_sut_01_revA.cydsn\uart_snippets.c UART_RECEIVE_DATA_HL
 191:Generated_Source\PSoC6\pdl\drivers/peripheral/scb/cy_scb_uart.h **** *
 192:Generated_Source\PSoC6\pdl\drivers/peripheral/scb/cy_scb_uart.h **** * <b>Transmit Operation</b>
ARM GAS  C:\Users\15311\AppData\Local\Temp\cccFsPp9.s 			page 12


 193:Generated_Source\PSoC6\pdl\drivers/peripheral/scb/cy_scb_uart.h **** * \snippet SCB_CompDatasheet_sut_01_revA.cydsn\uart_snippets.c UART_TRANSMIT_DATA_HL
 194:Generated_Source\PSoC6\pdl\drivers/peripheral/scb/cy_scb_uart.h **** *
 195:Generated_Source\PSoC6\pdl\drivers/peripheral/scb/cy_scb_uart.h **** * There is also capability to insert a receive ring buffer that operates between
 196:Generated_Source\PSoC6\pdl\drivers/peripheral/scb/cy_scb_uart.h **** * the RX FIFO and the user buffer. The received data is copied into the ring
 197:Generated_Source\PSoC6\pdl\drivers/peripheral/scb/cy_scb_uart.h **** * buffer from the RX FIFO. This process runs in the background after the ring
 198:Generated_Source\PSoC6\pdl\drivers/peripheral/scb/cy_scb_uart.h **** * buffer operation is started by \ref Cy_SCB_UART_StartRingBuffer.
 199:Generated_Source\PSoC6\pdl\drivers/peripheral/scb/cy_scb_uart.h **** * When \ref Cy_SCB_UART_Receive is called, it first reads data from the ring
 200:Generated_Source\PSoC6\pdl\drivers/peripheral/scb/cy_scb_uart.h **** * buffer and then sets up an interrupt to receive more data if the required
 201:Generated_Source\PSoC6\pdl\drivers/peripheral/scb/cy_scb_uart.h **** * amount has not yet been read.
 202:Generated_Source\PSoC6\pdl\drivers/peripheral/scb/cy_scb_uart.h **** *
 203:Generated_Source\PSoC6\pdl\drivers/peripheral/scb/cy_scb_uart.h **** ********************************************************************************
 204:Generated_Source\PSoC6\pdl\drivers/peripheral/scb/cy_scb_uart.h **** * \section group_scb_uart_dma_trig DMA Trigger
 205:Generated_Source\PSoC6\pdl\drivers/peripheral/scb/cy_scb_uart.h **** ********************************************************************************
 206:Generated_Source\PSoC6\pdl\drivers/peripheral/scb/cy_scb_uart.h **** * The SCB provides TX and RX output trigger signals that can be routed to the
 207:Generated_Source\PSoC6\pdl\drivers/peripheral/scb/cy_scb_uart.h **** * DMA controller inputs. These signals are assigned based on the data availability
 208:Generated_Source\PSoC6\pdl\drivers/peripheral/scb/cy_scb_uart.h **** * in the TX and RX FIFOs appropriately.
 209:Generated_Source\PSoC6\pdl\drivers/peripheral/scb/cy_scb_uart.h **** *
 210:Generated_Source\PSoC6\pdl\drivers/peripheral/scb/cy_scb_uart.h **** * * The RX trigger signal is active while the number of data
 211:Generated_Source\PSoC6\pdl\drivers/peripheral/scb/cy_scb_uart.h **** *   elements in the RX FIFO is greater than the value of RX FIFO level. Use
 212:Generated_Source\PSoC6\pdl\drivers/peripheral/scb/cy_scb_uart.h **** *   function \ref Cy_SCB_SetRxFifoLevel or set configuration structure
 213:Generated_Source\PSoC6\pdl\drivers/peripheral/scb/cy_scb_uart.h **** *   rxFifoTriggerLevel parameter to configure RX FIFO level value. \n
 214:Generated_Source\PSoC6\pdl\drivers/peripheral/scb/cy_scb_uart.h **** *   <em>For example, the RX FIFO has 8 data elements and the RX FIFO level is 0.
 215:Generated_Source\PSoC6\pdl\drivers/peripheral/scb/cy_scb_uart.h **** *   The RX trigger signal is active until DMA reads all data from
 216:Generated_Source\PSoC6\pdl\drivers/peripheral/scb/cy_scb_uart.h **** *   the RX FIFO.</em>
 217:Generated_Source\PSoC6\pdl\drivers/peripheral/scb/cy_scb_uart.h **** *
 218:Generated_Source\PSoC6\pdl\drivers/peripheral/scb/cy_scb_uart.h **** * * The TX trigger signal is active while the number of data elements
 219:Generated_Source\PSoC6\pdl\drivers/peripheral/scb/cy_scb_uart.h **** *   in the TX FIFO is less than the value of TX FIFO level. Use function
 220:Generated_Source\PSoC6\pdl\drivers/peripheral/scb/cy_scb_uart.h **** *   \ref Cy_SCB_SetTxFifoLevel or set configuration structure txFifoTriggerLevel
 221:Generated_Source\PSoC6\pdl\drivers/peripheral/scb/cy_scb_uart.h **** *   parameter to configure TX FIFO level value. \n
 222:Generated_Source\PSoC6\pdl\drivers/peripheral/scb/cy_scb_uart.h **** *   <em>For example, the TX FIFO has 0 data elements (empty) and the TX FIFO level
 223:Generated_Source\PSoC6\pdl\drivers/peripheral/scb/cy_scb_uart.h **** *   is 7. The TX trigger signal is active until DMA loads TX FIFO
 224:Generated_Source\PSoC6\pdl\drivers/peripheral/scb/cy_scb_uart.h **** *   with 8 data elements (note that after the first TX load operation, the data
 225:Generated_Source\PSoC6\pdl\drivers/peripheral/scb/cy_scb_uart.h **** *   element goes to the shift register and TX FIFO is empty).</em>
 226:Generated_Source\PSoC6\pdl\drivers/peripheral/scb/cy_scb_uart.h **** *
 227:Generated_Source\PSoC6\pdl\drivers/peripheral/scb/cy_scb_uart.h **** * To route SCB TX or RX trigger signals to DMA controller use \ref group_trigmux
 228:Generated_Source\PSoC6\pdl\drivers/peripheral/scb/cy_scb_uart.h **** * driver API.
 229:Generated_Source\PSoC6\pdl\drivers/peripheral/scb/cy_scb_uart.h **** *
 230:Generated_Source\PSoC6\pdl\drivers/peripheral/scb/cy_scb_uart.h **** * \note
 231:Generated_Source\PSoC6\pdl\drivers/peripheral/scb/cy_scb_uart.h **** * To properly handle DMA level request signal activation and de-activation from the SCB
 232:Generated_Source\PSoC6\pdl\drivers/peripheral/scb/cy_scb_uart.h **** * peripheral block the DMA Descriptor typically must be configured to re-trigger
 233:Generated_Source\PSoC6\pdl\drivers/peripheral/scb/cy_scb_uart.h **** * after 16 Clk_Slow cycles.
 234:Generated_Source\PSoC6\pdl\drivers/peripheral/scb/cy_scb_uart.h **** *
 235:Generated_Source\PSoC6\pdl\drivers/peripheral/scb/cy_scb_uart.h **** ********************************************************************************
 236:Generated_Source\PSoC6\pdl\drivers/peripheral/scb/cy_scb_uart.h **** * \section group_scb_uart_lp Low Power Support
 237:Generated_Source\PSoC6\pdl\drivers/peripheral/scb/cy_scb_uart.h **** ********************************************************************************
 238:Generated_Source\PSoC6\pdl\drivers/peripheral/scb/cy_scb_uart.h **** * The UART driver provides callback functions to handle power mode
 239:Generated_Source\PSoC6\pdl\drivers/peripheral/scb/cy_scb_uart.h **** * transition. The callback \ref Cy_SCB_UART_DeepSleepCallback must be called
 240:Generated_Source\PSoC6\pdl\drivers/peripheral/scb/cy_scb_uart.h **** * during execution of \ref Cy_SysPm_CpuEnterDeepSleep \ref Cy_SCB_UART_HibernateCallback
 241:Generated_Source\PSoC6\pdl\drivers/peripheral/scb/cy_scb_uart.h **** * must be called during execution of \ref Cy_SysPm_SystemEnterHibernate. To trigger the
 242:Generated_Source\PSoC6\pdl\drivers/peripheral/scb/cy_scb_uart.h **** * callback execution, the callback must be registered before calling the
 243:Generated_Source\PSoC6\pdl\drivers/peripheral/scb/cy_scb_uart.h **** * power mode transition function. Refer to \ref group_syspm driver for more
 244:Generated_Source\PSoC6\pdl\drivers/peripheral/scb/cy_scb_uart.h **** * information about power mode transitions and callback registration.
 245:Generated_Source\PSoC6\pdl\drivers/peripheral/scb/cy_scb_uart.h **** *
 246:Generated_Source\PSoC6\pdl\drivers/peripheral/scb/cy_scb_uart.h **** * The UART is disabled during Deep Sleep and Hibernate and stops driving
 247:Generated_Source\PSoC6\pdl\drivers/peripheral/scb/cy_scb_uart.h **** * the output pins. The state of the UART output pins TX and RTS is High-Z,
 248:Generated_Source\PSoC6\pdl\drivers/peripheral/scb/cy_scb_uart.h **** * which can cause unexpected behavior of the UART receiver due to possible
 249:Generated_Source\PSoC6\pdl\drivers/peripheral/scb/cy_scb_uart.h **** * glitches on these lines. These pins must be set to the inactive state before
ARM GAS  C:\Users\15311\AppData\Local\Temp\cccFsPp9.s 			page 13


 250:Generated_Source\PSoC6\pdl\drivers/peripheral/scb/cy_scb_uart.h **** * entering Deep Sleep or Hibernate mode.
 251:Generated_Source\PSoC6\pdl\drivers/peripheral/scb/cy_scb_uart.h **** * These pins must keep the inactive level (the same state
 252:Generated_Source\PSoC6\pdl\drivers/peripheral/scb/cy_scb_uart.h **** * when UART TX is enabled and does not transfer data) before entering Deep
 253:Generated_Source\PSoC6\pdl\drivers/peripheral/scb/cy_scb_uart.h **** * Sleep or Hibernate mode. To do that, write the GPIO data register of each pin
 254:Generated_Source\PSoC6\pdl\drivers/peripheral/scb/cy_scb_uart.h **** * to the inactive level for each output pin. Then configure High-Speed Input
 255:Generated_Source\PSoC6\pdl\drivers/peripheral/scb/cy_scb_uart.h **** * Output Multiplexer (HSIOM) of each pin to be controlled by the GPIO (use
 256:Generated_Source\PSoC6\pdl\drivers/peripheral/scb/cy_scb_uart.h **** * \ref group_gpio driver API). After exiting Deep Sleep mode the UART
 257:Generated_Source\PSoC6\pdl\drivers/peripheral/scb/cy_scb_uart.h **** * must be enabled and the pins configuration restored to return the
 258:Generated_Source\PSoC6\pdl\drivers/peripheral/scb/cy_scb_uart.h **** * UART control of the pins (after exiting Hibernate mode, the
 259:Generated_Source\PSoC6\pdl\drivers/peripheral/scb/cy_scb_uart.h **** * system initialization code does the same). Copy either or
 260:Generated_Source\PSoC6\pdl\drivers/peripheral/scb/cy_scb_uart.h **** * both \ref Cy_SCB_UART_DeepSleepCallback and \ref Cy_SCB_UART_HibernateCallback
 261:Generated_Source\PSoC6\pdl\drivers/peripheral/scb/cy_scb_uart.h **** * as appropriate, and make the changes described above inside the function.
 262:Generated_Source\PSoC6\pdl\drivers/peripheral/scb/cy_scb_uart.h **** * Alternately, external pull-up or pull-down resistors can be connected
 263:Generated_Source\PSoC6\pdl\drivers/peripheral/scb/cy_scb_uart.h **** * to the appropriate UART lines to keep them inactive during Deep-Sleep or
 264:Generated_Source\PSoC6\pdl\drivers/peripheral/scb/cy_scb_uart.h **** * Hibernate.
 265:Generated_Source\PSoC6\pdl\drivers/peripheral/scb/cy_scb_uart.h **** *
 266:Generated_Source\PSoC6\pdl\drivers/peripheral/scb/cy_scb_uart.h **** ********************************************************************************
 267:Generated_Source\PSoC6\pdl\drivers/peripheral/scb/cy_scb_uart.h **** * \section group_scb_uart_more_information More Information
 268:Generated_Source\PSoC6\pdl\drivers/peripheral/scb/cy_scb_uart.h **** ********************************************************************************
 269:Generated_Source\PSoC6\pdl\drivers/peripheral/scb/cy_scb_uart.h **** * For more information on the SCB peripheral, refer to the technical reference
 270:Generated_Source\PSoC6\pdl\drivers/peripheral/scb/cy_scb_uart.h **** * manual (TRM).
 271:Generated_Source\PSoC6\pdl\drivers/peripheral/scb/cy_scb_uart.h **** *
 272:Generated_Source\PSoC6\pdl\drivers/peripheral/scb/cy_scb_uart.h **** ********************************************************************************
 273:Generated_Source\PSoC6\pdl\drivers/peripheral/scb/cy_scb_uart.h **** * \section group_scb_uart_MISRA MISRA-C Compliance
 274:Generated_Source\PSoC6\pdl\drivers/peripheral/scb/cy_scb_uart.h **** ********************************************************************************
 275:Generated_Source\PSoC6\pdl\drivers/peripheral/scb/cy_scb_uart.h **** * <table class="doxtable">
 276:Generated_Source\PSoC6\pdl\drivers/peripheral/scb/cy_scb_uart.h **** *   <tr>
 277:Generated_Source\PSoC6\pdl\drivers/peripheral/scb/cy_scb_uart.h **** *     <th>MISRA Rule</th>
 278:Generated_Source\PSoC6\pdl\drivers/peripheral/scb/cy_scb_uart.h **** *     <th>Rule Class (Required/Advisory)</th>
 279:Generated_Source\PSoC6\pdl\drivers/peripheral/scb/cy_scb_uart.h **** *     <th>Rule Description</th>
 280:Generated_Source\PSoC6\pdl\drivers/peripheral/scb/cy_scb_uart.h **** *     <th>Description of Deviation(s)</th>
 281:Generated_Source\PSoC6\pdl\drivers/peripheral/scb/cy_scb_uart.h **** *   </tr>
 282:Generated_Source\PSoC6\pdl\drivers/peripheral/scb/cy_scb_uart.h **** *   <tr>
 283:Generated_Source\PSoC6\pdl\drivers/peripheral/scb/cy_scb_uart.h **** *     <td>11.4</td>
 284:Generated_Source\PSoC6\pdl\drivers/peripheral/scb/cy_scb_uart.h **** *     <td>A</td>
 285:Generated_Source\PSoC6\pdl\drivers/peripheral/scb/cy_scb_uart.h **** *     <td>A cast should not be performed between a pointer to object type and
 286:Generated_Source\PSoC6\pdl\drivers/peripheral/scb/cy_scb_uart.h **** *         a different pointer to object type.</td>
 287:Generated_Source\PSoC6\pdl\drivers/peripheral/scb/cy_scb_uart.h **** *     <td>
 288:Generated_Source\PSoC6\pdl\drivers/peripheral/scb/cy_scb_uart.h **** *         * The pointer to the buffer memory is void to allow handling different
 289:Generated_Source\PSoC6\pdl\drivers/peripheral/scb/cy_scb_uart.h **** *         different data types: uint8_t (4-8 bits) or uint16_t (9-16 bits).
 290:Generated_Source\PSoC6\pdl\drivers/peripheral/scb/cy_scb_uart.h **** *         The cast operation is safe because the configuration is verified
 291:Generated_Source\PSoC6\pdl\drivers/peripheral/scb/cy_scb_uart.h **** *         before operation is performed.
 292:Generated_Source\PSoC6\pdl\drivers/peripheral/scb/cy_scb_uart.h **** *         * The functions \ref Cy_SCB_UART_DeepSleepCallback and
 293:Generated_Source\PSoC6\pdl\drivers/peripheral/scb/cy_scb_uart.h **** *         \ref Cy_SCB_UART_HibernateCallback are callback of
 294:Generated_Source\PSoC6\pdl\drivers/peripheral/scb/cy_scb_uart.h **** *         \ref cy_en_syspm_status_t type. The cast operation safety in these
 295:Generated_Source\PSoC6\pdl\drivers/peripheral/scb/cy_scb_uart.h **** *         functions becomes the user's responsibility because pointers are
 296:Generated_Source\PSoC6\pdl\drivers/peripheral/scb/cy_scb_uart.h **** *         initialized when callback is registered in SysPm driver.</td>
 297:Generated_Source\PSoC6\pdl\drivers/peripheral/scb/cy_scb_uart.h **** *   </tr>
 298:Generated_Source\PSoC6\pdl\drivers/peripheral/scb/cy_scb_uart.h **** *   <tr>
 299:Generated_Source\PSoC6\pdl\drivers/peripheral/scb/cy_scb_uart.h **** *     <td>14.2</td>
 300:Generated_Source\PSoC6\pdl\drivers/peripheral/scb/cy_scb_uart.h **** *     <td>R</td>
 301:Generated_Source\PSoC6\pdl\drivers/peripheral/scb/cy_scb_uart.h **** *     <td>All non-null statements shall either: a) have at least one side-effect
 302:Generated_Source\PSoC6\pdl\drivers/peripheral/scb/cy_scb_uart.h **** *         however executed, or b) cause control flow to change.</td>
 303:Generated_Source\PSoC6\pdl\drivers/peripheral/scb/cy_scb_uart.h **** *     <td>The unused function parameters are cast to void. This statement
 304:Generated_Source\PSoC6\pdl\drivers/peripheral/scb/cy_scb_uart.h **** *         has no side-effect and is used to suppress a compiler warning.</td>
 305:Generated_Source\PSoC6\pdl\drivers/peripheral/scb/cy_scb_uart.h **** *   </tr>
 306:Generated_Source\PSoC6\pdl\drivers/peripheral/scb/cy_scb_uart.h **** *   <tr>
ARM GAS  C:\Users\15311\AppData\Local\Temp\cccFsPp9.s 			page 14


 307:Generated_Source\PSoC6\pdl\drivers/peripheral/scb/cy_scb_uart.h **** *     <td>14.7</td>
 308:Generated_Source\PSoC6\pdl\drivers/peripheral/scb/cy_scb_uart.h **** *     <td>R</td>
 309:Generated_Source\PSoC6\pdl\drivers/peripheral/scb/cy_scb_uart.h **** *     <td>A function shall have a single point of exit at the end of the
 310:Generated_Source\PSoC6\pdl\drivers/peripheral/scb/cy_scb_uart.h **** *         function.</td>
 311:Generated_Source\PSoC6\pdl\drivers/peripheral/scb/cy_scb_uart.h **** *     <td>The functions can return from several points. This is done to improve
 312:Generated_Source\PSoC6\pdl\drivers/peripheral/scb/cy_scb_uart.h **** *         code clarity when returning error status code if input parameters
 313:Generated_Source\PSoC6\pdl\drivers/peripheral/scb/cy_scb_uart.h **** *         validation fails.</td>
 314:Generated_Source\PSoC6\pdl\drivers/peripheral/scb/cy_scb_uart.h **** *   </tr>
 315:Generated_Source\PSoC6\pdl\drivers/peripheral/scb/cy_scb_uart.h **** * </table>
 316:Generated_Source\PSoC6\pdl\drivers/peripheral/scb/cy_scb_uart.h **** *
 317:Generated_Source\PSoC6\pdl\drivers/peripheral/scb/cy_scb_uart.h **** * \section group_scb_uart_changelog Changelog
 318:Generated_Source\PSoC6\pdl\drivers/peripheral/scb/cy_scb_uart.h **** * <table class="doxtable">
 319:Generated_Source\PSoC6\pdl\drivers/peripheral/scb/cy_scb_uart.h **** *   <tr><th>Version</th><th>Changes</th><th>Reason for Change</th></tr>
 320:Generated_Source\PSoC6\pdl\drivers/peripheral/scb/cy_scb_uart.h **** *   <tr>
 321:Generated_Source\PSoC6\pdl\drivers/peripheral/scb/cy_scb_uart.h **** *     <td rowspan="2">2.20</td>
 322:Generated_Source\PSoC6\pdl\drivers/peripheral/scb/cy_scb_uart.h **** *     <td>Flattened the organization of the driver source code into the single
 323:Generated_Source\PSoC6\pdl\drivers/peripheral/scb/cy_scb_uart.h **** *         source directory and the single include directory.
 324:Generated_Source\PSoC6\pdl\drivers/peripheral/scb/cy_scb_uart.h **** *     </td>
 325:Generated_Source\PSoC6\pdl\drivers/peripheral/scb/cy_scb_uart.h **** *     <td>Driver library directory-structure simplification.</td>
 326:Generated_Source\PSoC6\pdl\drivers/peripheral/scb/cy_scb_uart.h **** *   </tr>
 327:Generated_Source\PSoC6\pdl\drivers/peripheral/scb/cy_scb_uart.h **** *   <tr>
 328:Generated_Source\PSoC6\pdl\drivers/peripheral/scb/cy_scb_uart.h **** *     <td>Added register access layer. Use register access macros instead
 329:Generated_Source\PSoC6\pdl\drivers/peripheral/scb/cy_scb_uart.h **** *         of direct register access using dereferenced pointers.</td>
 330:Generated_Source\PSoC6\pdl\drivers/peripheral/scb/cy_scb_uart.h **** *     <td>Makes register access device-independent, so that the PDL does
 331:Generated_Source\PSoC6\pdl\drivers/peripheral/scb/cy_scb_uart.h **** *         not need to be recompiled for each supported part number.</td>
 332:Generated_Source\PSoC6\pdl\drivers/peripheral/scb/cy_scb_uart.h **** *   </tr>
 333:Generated_Source\PSoC6\pdl\drivers/peripheral/scb/cy_scb_uart.h **** *   <tr>
 334:Generated_Source\PSoC6\pdl\drivers/peripheral/scb/cy_scb_uart.h **** *     <td>2.10</td>
 335:Generated_Source\PSoC6\pdl\drivers/peripheral/scb/cy_scb_uart.h **** *     <td>None.</td>
 336:Generated_Source\PSoC6\pdl\drivers/peripheral/scb/cy_scb_uart.h **** *     <td>SCB I2C driver updated.</td>
 337:Generated_Source\PSoC6\pdl\drivers/peripheral/scb/cy_scb_uart.h **** *   </tr>
 338:Generated_Source\PSoC6\pdl\drivers/peripheral/scb/cy_scb_uart.h **** *   <tr>
 339:Generated_Source\PSoC6\pdl\drivers/peripheral/scb/cy_scb_uart.h **** *     <td rowspan="5">2.0</td>
 340:Generated_Source\PSoC6\pdl\drivers/peripheral/scb/cy_scb_uart.h **** *     <td>Added parameters validation for public API.</td>
 341:Generated_Source\PSoC6\pdl\drivers/peripheral/scb/cy_scb_uart.h **** *     <td></td>
 342:Generated_Source\PSoC6\pdl\drivers/peripheral/scb/cy_scb_uart.h **** *   </tr>
 343:Generated_Source\PSoC6\pdl\drivers/peripheral/scb/cy_scb_uart.h **** *   <tr>
 344:Generated_Source\PSoC6\pdl\drivers/peripheral/scb/cy_scb_uart.h **** *     <td>Replaced variables that have limited range of values with enumerated
 345:Generated_Source\PSoC6\pdl\drivers/peripheral/scb/cy_scb_uart.h **** *         types.</td>
 346:Generated_Source\PSoC6\pdl\drivers/peripheral/scb/cy_scb_uart.h **** *     <td></td>
 347:Generated_Source\PSoC6\pdl\drivers/peripheral/scb/cy_scb_uart.h **** *   </tr>
 348:Generated_Source\PSoC6\pdl\drivers/peripheral/scb/cy_scb_uart.h **** *   <tr>
 349:Generated_Source\PSoC6\pdl\drivers/peripheral/scb/cy_scb_uart.h **** *     <td>Added missing "cy_cb_" to the callback function type names.</td>
 350:Generated_Source\PSoC6\pdl\drivers/peripheral/scb/cy_scb_uart.h **** *     <td></td>
 351:Generated_Source\PSoC6\pdl\drivers/peripheral/scb/cy_scb_uart.h **** *   </tr>
 352:Generated_Source\PSoC6\pdl\drivers/peripheral/scb/cy_scb_uart.h **** *   <tr>
 353:Generated_Source\PSoC6\pdl\drivers/peripheral/scb/cy_scb_uart.h **** *     <td>Added function \ref Cy_SCB_UART_SendBreakBlocking for break condition
 354:Generated_Source\PSoC6\pdl\drivers/peripheral/scb/cy_scb_uart.h **** *         generation.</td>
 355:Generated_Source\PSoC6\pdl\drivers/peripheral/scb/cy_scb_uart.h **** *     <td></td>
 356:Generated_Source\PSoC6\pdl\drivers/peripheral/scb/cy_scb_uart.h **** *   </tr>
 357:Generated_Source\PSoC6\pdl\drivers/peripheral/scb/cy_scb_uart.h **** *   <tr>
 358:Generated_Source\PSoC6\pdl\drivers/peripheral/scb/cy_scb_uart.h **** *     <td>Fixed low power callbacks \ref Cy_SCB_UART_DeepSleepCallback and
 359:Generated_Source\PSoC6\pdl\drivers/peripheral/scb/cy_scb_uart.h **** *         \ref Cy_SCB_UART_HibernateCallback to prevent the device from entering
 360:Generated_Source\PSoC6\pdl\drivers/peripheral/scb/cy_scb_uart.h **** *         low power mode when RX FIFO is not empty.</td>
 361:Generated_Source\PSoC6\pdl\drivers/peripheral/scb/cy_scb_uart.h **** *     <td>The callbacks allowed entering device into low power mode when RX FIFO
 362:Generated_Source\PSoC6\pdl\drivers/peripheral/scb/cy_scb_uart.h **** *         had data.</td>
 363:Generated_Source\PSoC6\pdl\drivers/peripheral/scb/cy_scb_uart.h **** *   </tr>
ARM GAS  C:\Users\15311\AppData\Local\Temp\cccFsPp9.s 			page 15


 364:Generated_Source\PSoC6\pdl\drivers/peripheral/scb/cy_scb_uart.h **** *   <tr>
 365:Generated_Source\PSoC6\pdl\drivers/peripheral/scb/cy_scb_uart.h **** *     <td>1.0</td>
 366:Generated_Source\PSoC6\pdl\drivers/peripheral/scb/cy_scb_uart.h **** *     <td>Initial version.</td>
 367:Generated_Source\PSoC6\pdl\drivers/peripheral/scb/cy_scb_uart.h **** *     <td></td>
 368:Generated_Source\PSoC6\pdl\drivers/peripheral/scb/cy_scb_uart.h **** *   </tr>
 369:Generated_Source\PSoC6\pdl\drivers/peripheral/scb/cy_scb_uart.h **** * </table>
 370:Generated_Source\PSoC6\pdl\drivers/peripheral/scb/cy_scb_uart.h **** *
 371:Generated_Source\PSoC6\pdl\drivers/peripheral/scb/cy_scb_uart.h **** * \defgroup group_scb_uart_macros Macros
 372:Generated_Source\PSoC6\pdl\drivers/peripheral/scb/cy_scb_uart.h **** * \defgroup group_scb_uart_functions Functions
 373:Generated_Source\PSoC6\pdl\drivers/peripheral/scb/cy_scb_uart.h **** * \{
 374:Generated_Source\PSoC6\pdl\drivers/peripheral/scb/cy_scb_uart.h **** * \defgroup group_scb_uart_general_functions General
 375:Generated_Source\PSoC6\pdl\drivers/peripheral/scb/cy_scb_uart.h **** * \defgroup group_scb_uart_high_level_functions High-Level
 376:Generated_Source\PSoC6\pdl\drivers/peripheral/scb/cy_scb_uart.h **** * \defgroup group_scb_uart_low_level_functions Low-Level
 377:Generated_Source\PSoC6\pdl\drivers/peripheral/scb/cy_scb_uart.h **** * \defgroup group_scb_uart_interrupt_functions Interrupt
 378:Generated_Source\PSoC6\pdl\drivers/peripheral/scb/cy_scb_uart.h **** * \defgroup group_scb_uart_low_power_functions Low Power Callbacks
 379:Generated_Source\PSoC6\pdl\drivers/peripheral/scb/cy_scb_uart.h **** * \}
 380:Generated_Source\PSoC6\pdl\drivers/peripheral/scb/cy_scb_uart.h **** * \defgroup group_scb_uart_data_structures Data Structures
 381:Generated_Source\PSoC6\pdl\drivers/peripheral/scb/cy_scb_uart.h **** * \defgroup group_scb_uart_enums Enumerated Types
 382:Generated_Source\PSoC6\pdl\drivers/peripheral/scb/cy_scb_uart.h **** */
 383:Generated_Source\PSoC6\pdl\drivers/peripheral/scb/cy_scb_uart.h **** 
 384:Generated_Source\PSoC6\pdl\drivers/peripheral/scb/cy_scb_uart.h **** #if !defined(CY_SCB_UART_H)
 385:Generated_Source\PSoC6\pdl\drivers/peripheral/scb/cy_scb_uart.h **** #define CY_SCB_UART_H
 386:Generated_Source\PSoC6\pdl\drivers/peripheral/scb/cy_scb_uart.h **** 
 387:Generated_Source\PSoC6\pdl\drivers/peripheral/scb/cy_scb_uart.h **** #include "cy_scb_common.h"
 388:Generated_Source\PSoC6\pdl\drivers/peripheral/scb/cy_scb_uart.h **** 
 389:Generated_Source\PSoC6\pdl\drivers/peripheral/scb/cy_scb_uart.h **** #if defined(__cplusplus)
 390:Generated_Source\PSoC6\pdl\drivers/peripheral/scb/cy_scb_uart.h **** extern "C" {
 391:Generated_Source\PSoC6\pdl\drivers/peripheral/scb/cy_scb_uart.h **** #endif
 392:Generated_Source\PSoC6\pdl\drivers/peripheral/scb/cy_scb_uart.h **** 
 393:Generated_Source\PSoC6\pdl\drivers/peripheral/scb/cy_scb_uart.h **** /***************************************
 394:Generated_Source\PSoC6\pdl\drivers/peripheral/scb/cy_scb_uart.h **** *          Enumerated Types
 395:Generated_Source\PSoC6\pdl\drivers/peripheral/scb/cy_scb_uart.h **** ***************************************/
 396:Generated_Source\PSoC6\pdl\drivers/peripheral/scb/cy_scb_uart.h **** 
 397:Generated_Source\PSoC6\pdl\drivers/peripheral/scb/cy_scb_uart.h **** /**
 398:Generated_Source\PSoC6\pdl\drivers/peripheral/scb/cy_scb_uart.h **** * \addtogroup group_scb_uart_enums
 399:Generated_Source\PSoC6\pdl\drivers/peripheral/scb/cy_scb_uart.h **** * \{
 400:Generated_Source\PSoC6\pdl\drivers/peripheral/scb/cy_scb_uart.h **** */
 401:Generated_Source\PSoC6\pdl\drivers/peripheral/scb/cy_scb_uart.h **** 
 402:Generated_Source\PSoC6\pdl\drivers/peripheral/scb/cy_scb_uart.h **** /** UART status codes */
 403:Generated_Source\PSoC6\pdl\drivers/peripheral/scb/cy_scb_uart.h **** typedef enum
 404:Generated_Source\PSoC6\pdl\drivers/peripheral/scb/cy_scb_uart.h **** {
 405:Generated_Source\PSoC6\pdl\drivers/peripheral/scb/cy_scb_uart.h ****     /** Operation completed successfully */
 406:Generated_Source\PSoC6\pdl\drivers/peripheral/scb/cy_scb_uart.h ****     CY_SCB_UART_SUCCESS = 0U,
 407:Generated_Source\PSoC6\pdl\drivers/peripheral/scb/cy_scb_uart.h **** 
 408:Generated_Source\PSoC6\pdl\drivers/peripheral/scb/cy_scb_uart.h ****     /** One or more of input parameters are invalid */
 409:Generated_Source\PSoC6\pdl\drivers/peripheral/scb/cy_scb_uart.h ****     CY_SCB_UART_BAD_PARAM = (CY_SCB_ID | CY_PDL_STATUS_ERROR | CY_SCB_UART_ID | 1U),
 410:Generated_Source\PSoC6\pdl\drivers/peripheral/scb/cy_scb_uart.h **** 
 411:Generated_Source\PSoC6\pdl\drivers/peripheral/scb/cy_scb_uart.h ****     /**
 412:Generated_Source\PSoC6\pdl\drivers/peripheral/scb/cy_scb_uart.h ****     * The UART is busy processing a receive operation.
 413:Generated_Source\PSoC6\pdl\drivers/peripheral/scb/cy_scb_uart.h ****     */
 414:Generated_Source\PSoC6\pdl\drivers/peripheral/scb/cy_scb_uart.h ****     CY_SCB_UART_RECEIVE_BUSY = (CY_SCB_ID | CY_PDL_STATUS_ERROR | CY_SCB_UART_ID | 2U),
 415:Generated_Source\PSoC6\pdl\drivers/peripheral/scb/cy_scb_uart.h **** 
 416:Generated_Source\PSoC6\pdl\drivers/peripheral/scb/cy_scb_uart.h ****     /**
 417:Generated_Source\PSoC6\pdl\drivers/peripheral/scb/cy_scb_uart.h ****     * The UART is busy processing a transmit operation.
 418:Generated_Source\PSoC6\pdl\drivers/peripheral/scb/cy_scb_uart.h ****     */
 419:Generated_Source\PSoC6\pdl\drivers/peripheral/scb/cy_scb_uart.h ****     CY_SCB_UART_TRANSMIT_BUSY = (CY_SCB_ID | CY_PDL_STATUS_ERROR | CY_SCB_UART_ID | 3U)
 420:Generated_Source\PSoC6\pdl\drivers/peripheral/scb/cy_scb_uart.h **** } cy_en_scb_uart_status_t;
ARM GAS  C:\Users\15311\AppData\Local\Temp\cccFsPp9.s 			page 16


 421:Generated_Source\PSoC6\pdl\drivers/peripheral/scb/cy_scb_uart.h **** 
 422:Generated_Source\PSoC6\pdl\drivers/peripheral/scb/cy_scb_uart.h **** /** UART Mode */
 423:Generated_Source\PSoC6\pdl\drivers/peripheral/scb/cy_scb_uart.h **** typedef enum
 424:Generated_Source\PSoC6\pdl\drivers/peripheral/scb/cy_scb_uart.h **** {
 425:Generated_Source\PSoC6\pdl\drivers/peripheral/scb/cy_scb_uart.h ****     CY_SCB_UART_STANDARD  = 0U, /**< Configures the SCB for Standard UART operation */
 426:Generated_Source\PSoC6\pdl\drivers/peripheral/scb/cy_scb_uart.h ****     CY_SCB_UART_SMARTCARD = 1U, /**< Configures the SCB for SmartCard operation */
 427:Generated_Source\PSoC6\pdl\drivers/peripheral/scb/cy_scb_uart.h ****     CY_SCB_UART_IRDA      = 2U, /**< Configures the SCB for IrDA operation */
 428:Generated_Source\PSoC6\pdl\drivers/peripheral/scb/cy_scb_uart.h **** } cy_en_scb_uart_mode_t;
 429:Generated_Source\PSoC6\pdl\drivers/peripheral/scb/cy_scb_uart.h **** 
 430:Generated_Source\PSoC6\pdl\drivers/peripheral/scb/cy_scb_uart.h **** /** UART Stop Bits */
 431:Generated_Source\PSoC6\pdl\drivers/peripheral/scb/cy_scb_uart.h **** typedef enum
 432:Generated_Source\PSoC6\pdl\drivers/peripheral/scb/cy_scb_uart.h **** {
 433:Generated_Source\PSoC6\pdl\drivers/peripheral/scb/cy_scb_uart.h ****     CY_SCB_UART_STOP_BITS_1   = 2U,  /**< UART looks for 1 Stop Bit    */
 434:Generated_Source\PSoC6\pdl\drivers/peripheral/scb/cy_scb_uart.h ****     CY_SCB_UART_STOP_BITS_1_5 = 3U,  /**< UART looks for 1.5 Stop Bits */
 435:Generated_Source\PSoC6\pdl\drivers/peripheral/scb/cy_scb_uart.h ****     CY_SCB_UART_STOP_BITS_2   = 4U,  /**< UART looks for 2 Stop Bits   */
 436:Generated_Source\PSoC6\pdl\drivers/peripheral/scb/cy_scb_uart.h ****     CY_SCB_UART_STOP_BITS_2_5 = 5U,  /**< UART looks for 2.5 Stop Bits */
 437:Generated_Source\PSoC6\pdl\drivers/peripheral/scb/cy_scb_uart.h ****     CY_SCB_UART_STOP_BITS_3   = 6U,  /**< UART looks for 3 Stop Bits   */
 438:Generated_Source\PSoC6\pdl\drivers/peripheral/scb/cy_scb_uart.h ****     CY_SCB_UART_STOP_BITS_3_5 = 7U,  /**< UART looks for 3.5 Stop Bits */
 439:Generated_Source\PSoC6\pdl\drivers/peripheral/scb/cy_scb_uart.h ****     CY_SCB_UART_STOP_BITS_4   = 8U,  /**< UART looks for 4 Stop Bits   */
 440:Generated_Source\PSoC6\pdl\drivers/peripheral/scb/cy_scb_uart.h **** } cy_en_scb_uart_stop_bits_t;
 441:Generated_Source\PSoC6\pdl\drivers/peripheral/scb/cy_scb_uart.h **** 
 442:Generated_Source\PSoC6\pdl\drivers/peripheral/scb/cy_scb_uart.h **** /** UART Parity */
 443:Generated_Source\PSoC6\pdl\drivers/peripheral/scb/cy_scb_uart.h **** typedef enum
 444:Generated_Source\PSoC6\pdl\drivers/peripheral/scb/cy_scb_uart.h **** {
 445:Generated_Source\PSoC6\pdl\drivers/peripheral/scb/cy_scb_uart.h ****     CY_SCB_UART_PARITY_NONE = 0U,    /**< UART has no parity check   */
 446:Generated_Source\PSoC6\pdl\drivers/peripheral/scb/cy_scb_uart.h ****     CY_SCB_UART_PARITY_EVEN = 2U,    /**< UART has even parity check */
 447:Generated_Source\PSoC6\pdl\drivers/peripheral/scb/cy_scb_uart.h ****     CY_SCB_UART_PARITY_ODD  = 3U,    /**< UART has odd parity check  */
 448:Generated_Source\PSoC6\pdl\drivers/peripheral/scb/cy_scb_uart.h **** } cy_en_scb_uart_parity_t;
 449:Generated_Source\PSoC6\pdl\drivers/peripheral/scb/cy_scb_uart.h **** 
 450:Generated_Source\PSoC6\pdl\drivers/peripheral/scb/cy_scb_uart.h **** /** UART Polarity */
 451:Generated_Source\PSoC6\pdl\drivers/peripheral/scb/cy_scb_uart.h **** typedef enum
 452:Generated_Source\PSoC6\pdl\drivers/peripheral/scb/cy_scb_uart.h **** {
 453:Generated_Source\PSoC6\pdl\drivers/peripheral/scb/cy_scb_uart.h ****     CY_SCB_UART_ACTIVE_LOW  = 0U,   /**< Signal is active low */
 454:Generated_Source\PSoC6\pdl\drivers/peripheral/scb/cy_scb_uart.h ****     CY_SCB_UART_ACTIVE_HIGH = 1U,   /**< Signal is active high */
 455:Generated_Source\PSoC6\pdl\drivers/peripheral/scb/cy_scb_uart.h **** } cy_en_scb_uart_polarity_t;
 456:Generated_Source\PSoC6\pdl\drivers/peripheral/scb/cy_scb_uart.h **** /** \} group_scb_uart_enums */
 457:Generated_Source\PSoC6\pdl\drivers/peripheral/scb/cy_scb_uart.h **** 
 458:Generated_Source\PSoC6\pdl\drivers/peripheral/scb/cy_scb_uart.h **** 
 459:Generated_Source\PSoC6\pdl\drivers/peripheral/scb/cy_scb_uart.h **** /*******************************************************************************
 460:Generated_Source\PSoC6\pdl\drivers/peripheral/scb/cy_scb_uart.h **** *                           Type Definitions
 461:Generated_Source\PSoC6\pdl\drivers/peripheral/scb/cy_scb_uart.h **** *******************************************************************************/
 462:Generated_Source\PSoC6\pdl\drivers/peripheral/scb/cy_scb_uart.h **** 
 463:Generated_Source\PSoC6\pdl\drivers/peripheral/scb/cy_scb_uart.h **** /**
 464:Generated_Source\PSoC6\pdl\drivers/peripheral/scb/cy_scb_uart.h **** * \addtogroup group_scb_uart_data_structures
 465:Generated_Source\PSoC6\pdl\drivers/peripheral/scb/cy_scb_uart.h **** * \{
 466:Generated_Source\PSoC6\pdl\drivers/peripheral/scb/cy_scb_uart.h **** */
 467:Generated_Source\PSoC6\pdl\drivers/peripheral/scb/cy_scb_uart.h **** 
 468:Generated_Source\PSoC6\pdl\drivers/peripheral/scb/cy_scb_uart.h **** /**
 469:Generated_Source\PSoC6\pdl\drivers/peripheral/scb/cy_scb_uart.h **** * Provides the typedef for the callback function called in the
 470:Generated_Source\PSoC6\pdl\drivers/peripheral/scb/cy_scb_uart.h **** * \ref Cy_SCB_UART_Interrupt to notify the user about occurrences of
 471:Generated_Source\PSoC6\pdl\drivers/peripheral/scb/cy_scb_uart.h **** * \ref group_scb_uart_macros_callback_events.
 472:Generated_Source\PSoC6\pdl\drivers/peripheral/scb/cy_scb_uart.h **** */
 473:Generated_Source\PSoC6\pdl\drivers/peripheral/scb/cy_scb_uart.h **** typedef void (* cy_cb_scb_uart_handle_events_t)(uint32_t event);
 474:Generated_Source\PSoC6\pdl\drivers/peripheral/scb/cy_scb_uart.h **** 
 475:Generated_Source\PSoC6\pdl\drivers/peripheral/scb/cy_scb_uart.h **** /** UART configuration structure */
 476:Generated_Source\PSoC6\pdl\drivers/peripheral/scb/cy_scb_uart.h **** typedef struct stc_scb_uart_config
 477:Generated_Source\PSoC6\pdl\drivers/peripheral/scb/cy_scb_uart.h **** {
ARM GAS  C:\Users\15311\AppData\Local\Temp\cccFsPp9.s 			page 17


 478:Generated_Source\PSoC6\pdl\drivers/peripheral/scb/cy_scb_uart.h ****     /** Specifies the UART's mode of operation */
 479:Generated_Source\PSoC6\pdl\drivers/peripheral/scb/cy_scb_uart.h ****     cy_en_scb_uart_mode_t    uartMode;
 480:Generated_Source\PSoC6\pdl\drivers/peripheral/scb/cy_scb_uart.h **** 
 481:Generated_Source\PSoC6\pdl\drivers/peripheral/scb/cy_scb_uart.h ****     /**
 482:Generated_Source\PSoC6\pdl\drivers/peripheral/scb/cy_scb_uart.h ****     * Oversample factor for UART.
 483:Generated_Source\PSoC6\pdl\drivers/peripheral/scb/cy_scb_uart.h ****     * * The UART baud rate is the SCB Clock frequency / oversample
 484:Generated_Source\PSoC6\pdl\drivers/peripheral/scb/cy_scb_uart.h ****     *  (valid range is 8-16).
 485:Generated_Source\PSoC6\pdl\drivers/peripheral/scb/cy_scb_uart.h ****     * * For IrDA, the oversample is always 16, unless
 486:Generated_Source\PSoC6\pdl\drivers/peripheral/scb/cy_scb_uart.h ****     * \ref irdaEnableLowPowerReceiver is enabled. Then the oversample is
 487:Generated_Source\PSoC6\pdl\drivers/peripheral/scb/cy_scb_uart.h ****     * reduced to the \ref group_scb_uart_macros_irda_lp_ovs set.
 488:Generated_Source\PSoC6\pdl\drivers/peripheral/scb/cy_scb_uart.h ****     */
 489:Generated_Source\PSoC6\pdl\drivers/peripheral/scb/cy_scb_uart.h ****     uint32_t    oversample;
 490:Generated_Source\PSoC6\pdl\drivers/peripheral/scb/cy_scb_uart.h **** 
 491:Generated_Source\PSoC6\pdl\drivers/peripheral/scb/cy_scb_uart.h ****     /** The width of UART data (valid range is 5 to 9) */
 492:Generated_Source\PSoC6\pdl\drivers/peripheral/scb/cy_scb_uart.h ****     uint32_t    dataWidth;
 493:Generated_Source\PSoC6\pdl\drivers/peripheral/scb/cy_scb_uart.h **** 
 494:Generated_Source\PSoC6\pdl\drivers/peripheral/scb/cy_scb_uart.h ****     /**
 495:Generated_Source\PSoC6\pdl\drivers/peripheral/scb/cy_scb_uart.h ****     * Enables the hardware to shift out data element MSB first; otherwise,
 496:Generated_Source\PSoC6\pdl\drivers/peripheral/scb/cy_scb_uart.h ****     * LSB first
 497:Generated_Source\PSoC6\pdl\drivers/peripheral/scb/cy_scb_uart.h ****     */
 498:Generated_Source\PSoC6\pdl\drivers/peripheral/scb/cy_scb_uart.h ****     bool        enableMsbFirst;
 499:Generated_Source\PSoC6\pdl\drivers/peripheral/scb/cy_scb_uart.h **** 
 500:Generated_Source\PSoC6\pdl\drivers/peripheral/scb/cy_scb_uart.h ****     /**
 501:Generated_Source\PSoC6\pdl\drivers/peripheral/scb/cy_scb_uart.h ****     * Specifies the number of stop bits in the UART transaction, in half-bit
 502:Generated_Source\PSoC6\pdl\drivers/peripheral/scb/cy_scb_uart.h ****     * increments
 503:Generated_Source\PSoC6\pdl\drivers/peripheral/scb/cy_scb_uart.h ****     */
 504:Generated_Source\PSoC6\pdl\drivers/peripheral/scb/cy_scb_uart.h ****     cy_en_scb_uart_stop_bits_t    stopBits;
 505:Generated_Source\PSoC6\pdl\drivers/peripheral/scb/cy_scb_uart.h **** 
 506:Generated_Source\PSoC6\pdl\drivers/peripheral/scb/cy_scb_uart.h ****     /** Configures the UART parity */
 507:Generated_Source\PSoC6\pdl\drivers/peripheral/scb/cy_scb_uart.h ****     cy_en_scb_uart_parity_t    parity;
 508:Generated_Source\PSoC6\pdl\drivers/peripheral/scb/cy_scb_uart.h **** 
 509:Generated_Source\PSoC6\pdl\drivers/peripheral/scb/cy_scb_uart.h ****     /**
 510:Generated_Source\PSoC6\pdl\drivers/peripheral/scb/cy_scb_uart.h ****     * Enables a digital 3-tap median filter (2 out of 3 voting) to be applied
 511:Generated_Source\PSoC6\pdl\drivers/peripheral/scb/cy_scb_uart.h ****     * to the input of the RX FIFO to filter glitches on the line (for IrDA,
 512:Generated_Source\PSoC6\pdl\drivers/peripheral/scb/cy_scb_uart.h ****     * this parameter is ignored)
 513:Generated_Source\PSoC6\pdl\drivers/peripheral/scb/cy_scb_uart.h ****     *
 514:Generated_Source\PSoC6\pdl\drivers/peripheral/scb/cy_scb_uart.h ****     */
 515:Generated_Source\PSoC6\pdl\drivers/peripheral/scb/cy_scb_uart.h ****     bool        enableInputFilter;
 516:Generated_Source\PSoC6\pdl\drivers/peripheral/scb/cy_scb_uart.h **** 
 517:Generated_Source\PSoC6\pdl\drivers/peripheral/scb/cy_scb_uart.h ****     /**
 518:Generated_Source\PSoC6\pdl\drivers/peripheral/scb/cy_scb_uart.h ****     * Enables the hardware to drop data in the RX FIFO when a parity error is
 519:Generated_Source\PSoC6\pdl\drivers/peripheral/scb/cy_scb_uart.h ****     * detected
 520:Generated_Source\PSoC6\pdl\drivers/peripheral/scb/cy_scb_uart.h ****     */
 521:Generated_Source\PSoC6\pdl\drivers/peripheral/scb/cy_scb_uart.h ****     bool        dropOnParityError;
 522:Generated_Source\PSoC6\pdl\drivers/peripheral/scb/cy_scb_uart.h **** 
 523:Generated_Source\PSoC6\pdl\drivers/peripheral/scb/cy_scb_uart.h ****     /**
 524:Generated_Source\PSoC6\pdl\drivers/peripheral/scb/cy_scb_uart.h ****     * Enables the hardware to drop data in the RX FIFO when a frame error is
 525:Generated_Source\PSoC6\pdl\drivers/peripheral/scb/cy_scb_uart.h ****     * detected
 526:Generated_Source\PSoC6\pdl\drivers/peripheral/scb/cy_scb_uart.h ****     */
 527:Generated_Source\PSoC6\pdl\drivers/peripheral/scb/cy_scb_uart.h ****     bool        dropOnFrameError;
 528:Generated_Source\PSoC6\pdl\drivers/peripheral/scb/cy_scb_uart.h **** 
 529:Generated_Source\PSoC6\pdl\drivers/peripheral/scb/cy_scb_uart.h ****     /**
 530:Generated_Source\PSoC6\pdl\drivers/peripheral/scb/cy_scb_uart.h ****     * Enables the UART operation in Multi-Processor mode which requires
 531:Generated_Source\PSoC6\pdl\drivers/peripheral/scb/cy_scb_uart.h ****     * dataWidth to be 9 bits (the 9th bit is used to indicate address byte)
 532:Generated_Source\PSoC6\pdl\drivers/peripheral/scb/cy_scb_uart.h ****     */
 533:Generated_Source\PSoC6\pdl\drivers/peripheral/scb/cy_scb_uart.h ****     bool        enableMutliProcessorMode;
 534:Generated_Source\PSoC6\pdl\drivers/peripheral/scb/cy_scb_uart.h **** 
ARM GAS  C:\Users\15311\AppData\Local\Temp\cccFsPp9.s 			page 18


 535:Generated_Source\PSoC6\pdl\drivers/peripheral/scb/cy_scb_uart.h ****     /**
 536:Generated_Source\PSoC6\pdl\drivers/peripheral/scb/cy_scb_uart.h ****     * If Multi Processor mode is enabled, this is the address of the RX
 537:Generated_Source\PSoC6\pdl\drivers/peripheral/scb/cy_scb_uart.h ****     * FIFO. If the address matches, data is accepted into the FIFO. If
 538:Generated_Source\PSoC6\pdl\drivers/peripheral/scb/cy_scb_uart.h ****     * it does not match, the data is ignored.
 539:Generated_Source\PSoC6\pdl\drivers/peripheral/scb/cy_scb_uart.h ****     */
 540:Generated_Source\PSoC6\pdl\drivers/peripheral/scb/cy_scb_uart.h ****     uint32_t    receiverAddress;
 541:Generated_Source\PSoC6\pdl\drivers/peripheral/scb/cy_scb_uart.h **** 
 542:Generated_Source\PSoC6\pdl\drivers/peripheral/scb/cy_scb_uart.h ****     /**
 543:Generated_Source\PSoC6\pdl\drivers/peripheral/scb/cy_scb_uart.h ****     * This is the address mask for the Multi Processor address. 1 indicates
 544:Generated_Source\PSoC6\pdl\drivers/peripheral/scb/cy_scb_uart.h ****     * that the incoming address must match the corresponding bit in the slave
 545:Generated_Source\PSoC6\pdl\drivers/peripheral/scb/cy_scb_uart.h ****     * address. A 0 in the mask indicates that the incoming address does
 546:Generated_Source\PSoC6\pdl\drivers/peripheral/scb/cy_scb_uart.h ****     * not need to match.
 547:Generated_Source\PSoC6\pdl\drivers/peripheral/scb/cy_scb_uart.h ****     */
 548:Generated_Source\PSoC6\pdl\drivers/peripheral/scb/cy_scb_uart.h ****     uint32_t    receiverAddressMask;
 549:Generated_Source\PSoC6\pdl\drivers/peripheral/scb/cy_scb_uart.h **** 
 550:Generated_Source\PSoC6\pdl\drivers/peripheral/scb/cy_scb_uart.h ****     /**
 551:Generated_Source\PSoC6\pdl\drivers/peripheral/scb/cy_scb_uart.h ****     * Enables the hardware to accept the matching address in the RX FIFO.
 552:Generated_Source\PSoC6\pdl\drivers/peripheral/scb/cy_scb_uart.h ****     * This is useful when the device supports more than one address.
 553:Generated_Source\PSoC6\pdl\drivers/peripheral/scb/cy_scb_uart.h ****     */
 554:Generated_Source\PSoC6\pdl\drivers/peripheral/scb/cy_scb_uart.h ****     bool        acceptAddrInFifo;
 555:Generated_Source\PSoC6\pdl\drivers/peripheral/scb/cy_scb_uart.h **** 
 556:Generated_Source\PSoC6\pdl\drivers/peripheral/scb/cy_scb_uart.h ****     /** Inverts the IrDA RX input */
 557:Generated_Source\PSoC6\pdl\drivers/peripheral/scb/cy_scb_uart.h ****     bool        irdaInvertRx;
 558:Generated_Source\PSoC6\pdl\drivers/peripheral/scb/cy_scb_uart.h **** 
 559:Generated_Source\PSoC6\pdl\drivers/peripheral/scb/cy_scb_uart.h ****     /**
 560:Generated_Source\PSoC6\pdl\drivers/peripheral/scb/cy_scb_uart.h ****     * Enables the low-power receive for IrDA mode.
 561:Generated_Source\PSoC6\pdl\drivers/peripheral/scb/cy_scb_uart.h ****     * Note that the transmission must be disabled if this mode is enabled.
 562:Generated_Source\PSoC6\pdl\drivers/peripheral/scb/cy_scb_uart.h ****     */
 563:Generated_Source\PSoC6\pdl\drivers/peripheral/scb/cy_scb_uart.h ****     bool        irdaEnableLowPowerReceiver;
 564:Generated_Source\PSoC6\pdl\drivers/peripheral/scb/cy_scb_uart.h **** 
 565:Generated_Source\PSoC6\pdl\drivers/peripheral/scb/cy_scb_uart.h ****     /**
 566:Generated_Source\PSoC6\pdl\drivers/peripheral/scb/cy_scb_uart.h ****     * Enables retransmission of the frame placed in the TX FIFO when
 567:Generated_Source\PSoC6\pdl\drivers/peripheral/scb/cy_scb_uart.h ****     * NACK is received in SmartCard mode (for Standard and IrDA , this parameter
 568:Generated_Source\PSoC6\pdl\drivers/peripheral/scb/cy_scb_uart.h ****     * is ignored)
 569:Generated_Source\PSoC6\pdl\drivers/peripheral/scb/cy_scb_uart.h ****     */
 570:Generated_Source\PSoC6\pdl\drivers/peripheral/scb/cy_scb_uart.h ****     bool        smartCardRetryOnNack;
 571:Generated_Source\PSoC6\pdl\drivers/peripheral/scb/cy_scb_uart.h **** 
 572:Generated_Source\PSoC6\pdl\drivers/peripheral/scb/cy_scb_uart.h ****     /**
 573:Generated_Source\PSoC6\pdl\drivers/peripheral/scb/cy_scb_uart.h ****     * Enables the usage of the CTS input signal for the transmitter. The
 574:Generated_Source\PSoC6\pdl\drivers/peripheral/scb/cy_scb_uart.h ****     * transmitter waits for CTS to be active before sending data
 575:Generated_Source\PSoC6\pdl\drivers/peripheral/scb/cy_scb_uart.h ****     */
 576:Generated_Source\PSoC6\pdl\drivers/peripheral/scb/cy_scb_uart.h ****     bool        enableCts;
 577:Generated_Source\PSoC6\pdl\drivers/peripheral/scb/cy_scb_uart.h **** 
 578:Generated_Source\PSoC6\pdl\drivers/peripheral/scb/cy_scb_uart.h ****     /** Sets the CTS Polarity */
 579:Generated_Source\PSoC6\pdl\drivers/peripheral/scb/cy_scb_uart.h ****     cy_en_scb_uart_polarity_t    ctsPolarity;
 580:Generated_Source\PSoC6\pdl\drivers/peripheral/scb/cy_scb_uart.h **** 
 581:Generated_Source\PSoC6\pdl\drivers/peripheral/scb/cy_scb_uart.h ****     /**
 582:Generated_Source\PSoC6\pdl\drivers/peripheral/scb/cy_scb_uart.h ****     * When the RX FIFO has fewer entries than rtsRxFifoLevel, the
 583:Generated_Source\PSoC6\pdl\drivers/peripheral/scb/cy_scb_uart.h ****     * RTS signal is active (note to disable RTS, set this field to zero)
 584:Generated_Source\PSoC6\pdl\drivers/peripheral/scb/cy_scb_uart.h ****     */
 585:Generated_Source\PSoC6\pdl\drivers/peripheral/scb/cy_scb_uart.h ****     uint32_t    rtsRxFifoLevel;
 586:Generated_Source\PSoC6\pdl\drivers/peripheral/scb/cy_scb_uart.h **** 
 587:Generated_Source\PSoC6\pdl\drivers/peripheral/scb/cy_scb_uart.h ****     /** Sets the RTS Polarity */
 588:Generated_Source\PSoC6\pdl\drivers/peripheral/scb/cy_scb_uart.h ****     cy_en_scb_uart_polarity_t    rtsPolarity;
 589:Generated_Source\PSoC6\pdl\drivers/peripheral/scb/cy_scb_uart.h **** 
 590:Generated_Source\PSoC6\pdl\drivers/peripheral/scb/cy_scb_uart.h ****     /** Specifies the number of bits to detect a break condition */
 591:Generated_Source\PSoC6\pdl\drivers/peripheral/scb/cy_scb_uart.h ****     uint32_t    breakWidth;
ARM GAS  C:\Users\15311\AppData\Local\Temp\cccFsPp9.s 			page 19


 592:Generated_Source\PSoC6\pdl\drivers/peripheral/scb/cy_scb_uart.h **** 
 593:Generated_Source\PSoC6\pdl\drivers/peripheral/scb/cy_scb_uart.h ****     /**
 594:Generated_Source\PSoC6\pdl\drivers/peripheral/scb/cy_scb_uart.h ****     * When there are more entries in the RX FIFO than this level
 595:Generated_Source\PSoC6\pdl\drivers/peripheral/scb/cy_scb_uart.h ****     * the RX trigger output goes high. This output can be connected
 596:Generated_Source\PSoC6\pdl\drivers/peripheral/scb/cy_scb_uart.h ****     * to a DMA channel through a trigger mux.
 597:Generated_Source\PSoC6\pdl\drivers/peripheral/scb/cy_scb_uart.h ****     * Also, it controls the \ref CY_SCB_UART_RX_TRIGGER interrupt source.
 598:Generated_Source\PSoC6\pdl\drivers/peripheral/scb/cy_scb_uart.h ****     */
 599:Generated_Source\PSoC6\pdl\drivers/peripheral/scb/cy_scb_uart.h ****     uint32_t    rxFifoTriggerLevel;
 600:Generated_Source\PSoC6\pdl\drivers/peripheral/scb/cy_scb_uart.h **** 
 601:Generated_Source\PSoC6\pdl\drivers/peripheral/scb/cy_scb_uart.h ****     /**
 602:Generated_Source\PSoC6\pdl\drivers/peripheral/scb/cy_scb_uart.h ****     * The bits set in this mask allow the event to cause an interrupt
 603:Generated_Source\PSoC6\pdl\drivers/peripheral/scb/cy_scb_uart.h ****     * (See \ref group_scb_uart_macros_rx_fifo_status for the set of constants)
 604:Generated_Source\PSoC6\pdl\drivers/peripheral/scb/cy_scb_uart.h ****     */
 605:Generated_Source\PSoC6\pdl\drivers/peripheral/scb/cy_scb_uart.h ****     uint32_t    rxFifoIntEnableMask;
 606:Generated_Source\PSoC6\pdl\drivers/peripheral/scb/cy_scb_uart.h **** 
 607:Generated_Source\PSoC6\pdl\drivers/peripheral/scb/cy_scb_uart.h ****     /**
 608:Generated_Source\PSoC6\pdl\drivers/peripheral/scb/cy_scb_uart.h ****     * When there are fewer entries in the TX FIFO then this level
 609:Generated_Source\PSoC6\pdl\drivers/peripheral/scb/cy_scb_uart.h ****     * the TX trigger output goes high. This output can be connected
 610:Generated_Source\PSoC6\pdl\drivers/peripheral/scb/cy_scb_uart.h ****     * to a DMA channel through a trigger mux.
 611:Generated_Source\PSoC6\pdl\drivers/peripheral/scb/cy_scb_uart.h ****     * Also, it controls \ref CY_SCB_UART_TX_TRIGGER interrupt source.
 612:Generated_Source\PSoC6\pdl\drivers/peripheral/scb/cy_scb_uart.h ****     */
 613:Generated_Source\PSoC6\pdl\drivers/peripheral/scb/cy_scb_uart.h ****     uint32_t    txFifoTriggerLevel;
 614:Generated_Source\PSoC6\pdl\drivers/peripheral/scb/cy_scb_uart.h **** 
 615:Generated_Source\PSoC6\pdl\drivers/peripheral/scb/cy_scb_uart.h ****     /**
 616:Generated_Source\PSoC6\pdl\drivers/peripheral/scb/cy_scb_uart.h ****     * Bits set in this mask allows the event to cause an interrupt
 617:Generated_Source\PSoC6\pdl\drivers/peripheral/scb/cy_scb_uart.h ****     * (See \ref group_scb_uart_macros_tx_fifo_status for the set of constants)
 618:Generated_Source\PSoC6\pdl\drivers/peripheral/scb/cy_scb_uart.h ****     */
 619:Generated_Source\PSoC6\pdl\drivers/peripheral/scb/cy_scb_uart.h ****     uint32_t    txFifoIntEnableMask;
 620:Generated_Source\PSoC6\pdl\drivers/peripheral/scb/cy_scb_uart.h **** } cy_stc_scb_uart_config_t;
 621:Generated_Source\PSoC6\pdl\drivers/peripheral/scb/cy_scb_uart.h **** 
 622:Generated_Source\PSoC6\pdl\drivers/peripheral/scb/cy_scb_uart.h **** /** UART context structure.
 623:Generated_Source\PSoC6\pdl\drivers/peripheral/scb/cy_scb_uart.h **** * All fields for the context structure are internal. Firmware never reads or
 624:Generated_Source\PSoC6\pdl\drivers/peripheral/scb/cy_scb_uart.h **** * writes these values. Firmware allocates the structure and provides the
 625:Generated_Source\PSoC6\pdl\drivers/peripheral/scb/cy_scb_uart.h **** * address of the structure to the driver in function calls. Firmware must
 626:Generated_Source\PSoC6\pdl\drivers/peripheral/scb/cy_scb_uart.h **** * ensure that the defined instance of this structure remains in scope
 627:Generated_Source\PSoC6\pdl\drivers/peripheral/scb/cy_scb_uart.h **** * while the drive is in use.
 628:Generated_Source\PSoC6\pdl\drivers/peripheral/scb/cy_scb_uart.h **** */
 629:Generated_Source\PSoC6\pdl\drivers/peripheral/scb/cy_scb_uart.h **** typedef struct cy_stc_scb_uart_context
 630:Generated_Source\PSoC6\pdl\drivers/peripheral/scb/cy_scb_uart.h **** {
 631:Generated_Source\PSoC6\pdl\drivers/peripheral/scb/cy_scb_uart.h ****     /** \cond INTERNAL */
 632:Generated_Source\PSoC6\pdl\drivers/peripheral/scb/cy_scb_uart.h ****     uint32_t volatile txStatus;         /**< The transmit status */
 633:Generated_Source\PSoC6\pdl\drivers/peripheral/scb/cy_scb_uart.h ****     uint32_t volatile rxStatus;         /**< The receive status */
 634:Generated_Source\PSoC6\pdl\drivers/peripheral/scb/cy_scb_uart.h **** 
 635:Generated_Source\PSoC6\pdl\drivers/peripheral/scb/cy_scb_uart.h ****     void     *rxRingBuf;                /**< The pointer to the ring buffer */
 636:Generated_Source\PSoC6\pdl\drivers/peripheral/scb/cy_scb_uart.h ****     uint32_t  rxRingBufSize;            /**< The ring buffer size */
 637:Generated_Source\PSoC6\pdl\drivers/peripheral/scb/cy_scb_uart.h ****     uint32_t volatile rxRingBufHead;    /**< The ring buffer head index */
 638:Generated_Source\PSoC6\pdl\drivers/peripheral/scb/cy_scb_uart.h ****     uint32_t volatile rxRingBufTail;    /**< The ring buffer tail index */
 639:Generated_Source\PSoC6\pdl\drivers/peripheral/scb/cy_scb_uart.h **** 
 640:Generated_Source\PSoC6\pdl\drivers/peripheral/scb/cy_scb_uart.h ****     void     *rxBuf;                    /**< The pointer to the receive buffer */
 641:Generated_Source\PSoC6\pdl\drivers/peripheral/scb/cy_scb_uart.h ****     uint32_t  rxBufSize;                /**< The receive buffer size */
 642:Generated_Source\PSoC6\pdl\drivers/peripheral/scb/cy_scb_uart.h ****     uint32_t volatile rxBufIdx;         /**< The current location in the receive buffer */
 643:Generated_Source\PSoC6\pdl\drivers/peripheral/scb/cy_scb_uart.h **** 
 644:Generated_Source\PSoC6\pdl\drivers/peripheral/scb/cy_scb_uart.h ****     void     *txBuf;                    /**< The pointer to the transmit buffer */
 645:Generated_Source\PSoC6\pdl\drivers/peripheral/scb/cy_scb_uart.h ****     uint32_t  txBufSize;                /**< The transmit buffer size */
 646:Generated_Source\PSoC6\pdl\drivers/peripheral/scb/cy_scb_uart.h ****     uint32_t volatile txLeftToTransmit; /**< The number of data elements left to be transmitted */
 647:Generated_Source\PSoC6\pdl\drivers/peripheral/scb/cy_scb_uart.h **** 
 648:Generated_Source\PSoC6\pdl\drivers/peripheral/scb/cy_scb_uart.h ****     /** The pointer to an event callback that is called when any of
ARM GAS  C:\Users\15311\AppData\Local\Temp\cccFsPp9.s 			page 20


 649:Generated_Source\PSoC6\pdl\drivers/peripheral/scb/cy_scb_uart.h ****     * \ref group_scb_uart_macros_callback_events occurs
 650:Generated_Source\PSoC6\pdl\drivers/peripheral/scb/cy_scb_uart.h ****     */
 651:Generated_Source\PSoC6\pdl\drivers/peripheral/scb/cy_scb_uart.h ****     cy_cb_scb_uart_handle_events_t cbEvents;
 652:Generated_Source\PSoC6\pdl\drivers/peripheral/scb/cy_scb_uart.h **** 
 653:Generated_Source\PSoC6\pdl\drivers/peripheral/scb/cy_scb_uart.h **** #if !defined(NDEBUG)
 654:Generated_Source\PSoC6\pdl\drivers/peripheral/scb/cy_scb_uart.h ****     uint32_t initKey;               /**< Tracks the context initialization */
 655:Generated_Source\PSoC6\pdl\drivers/peripheral/scb/cy_scb_uart.h **** #endif /* !(NDEBUG) */
 656:Generated_Source\PSoC6\pdl\drivers/peripheral/scb/cy_scb_uart.h ****     /** \endcond */
 657:Generated_Source\PSoC6\pdl\drivers/peripheral/scb/cy_scb_uart.h **** } cy_stc_scb_uart_context_t;
 658:Generated_Source\PSoC6\pdl\drivers/peripheral/scb/cy_scb_uart.h **** /** \} group_scb_uart_data_structures */
 659:Generated_Source\PSoC6\pdl\drivers/peripheral/scb/cy_scb_uart.h **** 
 660:Generated_Source\PSoC6\pdl\drivers/peripheral/scb/cy_scb_uart.h **** 
 661:Generated_Source\PSoC6\pdl\drivers/peripheral/scb/cy_scb_uart.h **** /*******************************************************************************
 662:Generated_Source\PSoC6\pdl\drivers/peripheral/scb/cy_scb_uart.h **** *                           Function Prototypes
 663:Generated_Source\PSoC6\pdl\drivers/peripheral/scb/cy_scb_uart.h **** *******************************************************************************/
 664:Generated_Source\PSoC6\pdl\drivers/peripheral/scb/cy_scb_uart.h **** 
 665:Generated_Source\PSoC6\pdl\drivers/peripheral/scb/cy_scb_uart.h **** /**
 666:Generated_Source\PSoC6\pdl\drivers/peripheral/scb/cy_scb_uart.h **** * \addtogroup group_scb_uart_general_functions
 667:Generated_Source\PSoC6\pdl\drivers/peripheral/scb/cy_scb_uart.h **** * \{
 668:Generated_Source\PSoC6\pdl\drivers/peripheral/scb/cy_scb_uart.h **** */
 669:Generated_Source\PSoC6\pdl\drivers/peripheral/scb/cy_scb_uart.h **** cy_en_scb_uart_status_t Cy_SCB_UART_Init(CySCB_Type *base, cy_stc_scb_uart_config_t const *config,
 670:Generated_Source\PSoC6\pdl\drivers/peripheral/scb/cy_scb_uart.h ****                                          cy_stc_scb_uart_context_t *context);
 671:Generated_Source\PSoC6\pdl\drivers/peripheral/scb/cy_scb_uart.h **** void Cy_SCB_UART_DeInit (CySCB_Type *base);
 672:Generated_Source\PSoC6\pdl\drivers/peripheral/scb/cy_scb_uart.h **** __STATIC_INLINE void Cy_SCB_UART_Enable(CySCB_Type *base);
 673:Generated_Source\PSoC6\pdl\drivers/peripheral/scb/cy_scb_uart.h **** void Cy_SCB_UART_Disable(CySCB_Type *base, cy_stc_scb_uart_context_t *context);
 674:Generated_Source\PSoC6\pdl\drivers/peripheral/scb/cy_scb_uart.h **** 
 675:Generated_Source\PSoC6\pdl\drivers/peripheral/scb/cy_scb_uart.h **** __STATIC_INLINE void     Cy_SCB_UART_EnableCts      (CySCB_Type *base);
 676:Generated_Source\PSoC6\pdl\drivers/peripheral/scb/cy_scb_uart.h **** __STATIC_INLINE void     Cy_SCB_UART_DisableCts     (CySCB_Type *base);
 677:Generated_Source\PSoC6\pdl\drivers/peripheral/scb/cy_scb_uart.h **** __STATIC_INLINE void     Cy_SCB_UART_SetRtsFifoLevel(CySCB_Type *base, uint32_t level);
 678:Generated_Source\PSoC6\pdl\drivers/peripheral/scb/cy_scb_uart.h **** __STATIC_INLINE uint32_t Cy_SCB_UART_GetRtsFifoLevel(CySCB_Type const *base);
 679:Generated_Source\PSoC6\pdl\drivers/peripheral/scb/cy_scb_uart.h **** 
 680:Generated_Source\PSoC6\pdl\drivers/peripheral/scb/cy_scb_uart.h **** __STATIC_INLINE void Cy_SCB_UART_EnableSkipStart (CySCB_Type *base);
 681:Generated_Source\PSoC6\pdl\drivers/peripheral/scb/cy_scb_uart.h **** __STATIC_INLINE void Cy_SCB_UART_DisableSkipStart(CySCB_Type *base);
 682:Generated_Source\PSoC6\pdl\drivers/peripheral/scb/cy_scb_uart.h **** /** \} group_scb_uart_general_functions */
 683:Generated_Source\PSoC6\pdl\drivers/peripheral/scb/cy_scb_uart.h **** 
 684:Generated_Source\PSoC6\pdl\drivers/peripheral/scb/cy_scb_uart.h **** /**
 685:Generated_Source\PSoC6\pdl\drivers/peripheral/scb/cy_scb_uart.h **** * \addtogroup group_scb_uart_high_level_functions
 686:Generated_Source\PSoC6\pdl\drivers/peripheral/scb/cy_scb_uart.h **** * \{
 687:Generated_Source\PSoC6\pdl\drivers/peripheral/scb/cy_scb_uart.h **** */
 688:Generated_Source\PSoC6\pdl\drivers/peripheral/scb/cy_scb_uart.h **** void     Cy_SCB_UART_StartRingBuffer   (CySCB_Type *base, void *buffer, uint32_t size,
 689:Generated_Source\PSoC6\pdl\drivers/peripheral/scb/cy_scb_uart.h ****                                         cy_stc_scb_uart_context_t *context);
 690:Generated_Source\PSoC6\pdl\drivers/peripheral/scb/cy_scb_uart.h **** void     Cy_SCB_UART_StopRingBuffer    (CySCB_Type *base, cy_stc_scb_uart_context_t *context);
 691:Generated_Source\PSoC6\pdl\drivers/peripheral/scb/cy_scb_uart.h **** uint32_t Cy_SCB_UART_GetNumInRingBuffer(CySCB_Type const *base, cy_stc_scb_uart_context_t const *co
 692:Generated_Source\PSoC6\pdl\drivers/peripheral/scb/cy_scb_uart.h **** void     Cy_SCB_UART_ClearRingBuffer   (CySCB_Type const *base, cy_stc_scb_uart_context_t *context)
 693:Generated_Source\PSoC6\pdl\drivers/peripheral/scb/cy_scb_uart.h **** 
 694:Generated_Source\PSoC6\pdl\drivers/peripheral/scb/cy_scb_uart.h **** cy_en_scb_uart_status_t Cy_SCB_UART_Receive(CySCB_Type *base, void *buffer, uint32_t size,
 695:Generated_Source\PSoC6\pdl\drivers/peripheral/scb/cy_scb_uart.h ****                                             cy_stc_scb_uart_context_t *context);
 696:Generated_Source\PSoC6\pdl\drivers/peripheral/scb/cy_scb_uart.h **** void     Cy_SCB_UART_AbortReceive    (CySCB_Type *base, cy_stc_scb_uart_context_t *context);
 697:Generated_Source\PSoC6\pdl\drivers/peripheral/scb/cy_scb_uart.h **** uint32_t Cy_SCB_UART_GetReceiveStatus(CySCB_Type const *base, cy_stc_scb_uart_context_t const *cont
 698:Generated_Source\PSoC6\pdl\drivers/peripheral/scb/cy_scb_uart.h **** uint32_t Cy_SCB_UART_GetNumReceived  (CySCB_Type const *base, cy_stc_scb_uart_context_t const *cont
 699:Generated_Source\PSoC6\pdl\drivers/peripheral/scb/cy_scb_uart.h **** 
 700:Generated_Source\PSoC6\pdl\drivers/peripheral/scb/cy_scb_uart.h **** cy_en_scb_uart_status_t Cy_SCB_UART_Transmit(CySCB_Type *base, void *buffer, uint32_t size,
 701:Generated_Source\PSoC6\pdl\drivers/peripheral/scb/cy_scb_uart.h ****                                              cy_stc_scb_uart_context_t *context);
 702:Generated_Source\PSoC6\pdl\drivers/peripheral/scb/cy_scb_uart.h **** void     Cy_SCB_UART_AbortTransmit       (CySCB_Type *base, cy_stc_scb_uart_context_t *context);
 703:Generated_Source\PSoC6\pdl\drivers/peripheral/scb/cy_scb_uart.h **** uint32_t Cy_SCB_UART_GetTransmitStatus   (CySCB_Type const *base, cy_stc_scb_uart_context_t const *
 704:Generated_Source\PSoC6\pdl\drivers/peripheral/scb/cy_scb_uart.h **** uint32_t Cy_SCB_UART_GetNumLeftToTransmit(CySCB_Type const *base, cy_stc_scb_uart_context_t const *
 705:Generated_Source\PSoC6\pdl\drivers/peripheral/scb/cy_scb_uart.h **** /** \} group_scb_uart_high_level_functions */
ARM GAS  C:\Users\15311\AppData\Local\Temp\cccFsPp9.s 			page 21


 706:Generated_Source\PSoC6\pdl\drivers/peripheral/scb/cy_scb_uart.h **** 
 707:Generated_Source\PSoC6\pdl\drivers/peripheral/scb/cy_scb_uart.h **** /**
 708:Generated_Source\PSoC6\pdl\drivers/peripheral/scb/cy_scb_uart.h **** * \addtogroup group_scb_uart_low_level_functions
 709:Generated_Source\PSoC6\pdl\drivers/peripheral/scb/cy_scb_uart.h **** * \{
 710:Generated_Source\PSoC6\pdl\drivers/peripheral/scb/cy_scb_uart.h **** */
 711:Generated_Source\PSoC6\pdl\drivers/peripheral/scb/cy_scb_uart.h **** __STATIC_INLINE uint32_t Cy_SCB_UART_Put             (CySCB_Type *base, uint32_t data);
 712:Generated_Source\PSoC6\pdl\drivers/peripheral/scb/cy_scb_uart.h **** __STATIC_INLINE uint32_t Cy_SCB_UART_PutArray        (CySCB_Type *base, void *buffer, uint32_t size
 713:Generated_Source\PSoC6\pdl\drivers/peripheral/scb/cy_scb_uart.h **** __STATIC_INLINE void     Cy_SCB_UART_PutArrayBlocking(CySCB_Type *base, void *buffer, uint32_t size
 714:Generated_Source\PSoC6\pdl\drivers/peripheral/scb/cy_scb_uart.h **** __STATIC_INLINE void     Cy_SCB_UART_PutString       (CySCB_Type *base, char_t const string[]);
 715:Generated_Source\PSoC6\pdl\drivers/peripheral/scb/cy_scb_uart.h **** void Cy_SCB_UART_SendBreakBlocking(CySCB_Type *base, uint32_t breakWidth);
 716:Generated_Source\PSoC6\pdl\drivers/peripheral/scb/cy_scb_uart.h **** 
 717:Generated_Source\PSoC6\pdl\drivers/peripheral/scb/cy_scb_uart.h **** __STATIC_INLINE uint32_t Cy_SCB_UART_Get             (CySCB_Type const *base);
 718:Generated_Source\PSoC6\pdl\drivers/peripheral/scb/cy_scb_uart.h **** __STATIC_INLINE uint32_t Cy_SCB_UART_GetArray        (CySCB_Type const *base, void *buffer, uint32_
 719:Generated_Source\PSoC6\pdl\drivers/peripheral/scb/cy_scb_uart.h **** __STATIC_INLINE void     Cy_SCB_UART_GetArrayBlocking(CySCB_Type const *base, void *buffer, uint32_
 720:Generated_Source\PSoC6\pdl\drivers/peripheral/scb/cy_scb_uart.h **** 
 721:Generated_Source\PSoC6\pdl\drivers/peripheral/scb/cy_scb_uart.h **** __STATIC_INLINE uint32_t Cy_SCB_UART_GetTxFifoStatus  (CySCB_Type const *base);
 722:Generated_Source\PSoC6\pdl\drivers/peripheral/scb/cy_scb_uart.h **** __STATIC_INLINE void     Cy_SCB_UART_ClearTxFifoStatus(CySCB_Type *base, uint32_t clearMask);
 723:Generated_Source\PSoC6\pdl\drivers/peripheral/scb/cy_scb_uart.h **** 
 724:Generated_Source\PSoC6\pdl\drivers/peripheral/scb/cy_scb_uart.h **** __STATIC_INLINE uint32_t Cy_SCB_UART_GetRxFifoStatus  (CySCB_Type const *base);
 725:Generated_Source\PSoC6\pdl\drivers/peripheral/scb/cy_scb_uart.h **** __STATIC_INLINE void     Cy_SCB_UART_ClearRxFifoStatus(CySCB_Type *base, uint32_t clearMask);
 726:Generated_Source\PSoC6\pdl\drivers/peripheral/scb/cy_scb_uart.h **** 
 727:Generated_Source\PSoC6\pdl\drivers/peripheral/scb/cy_scb_uart.h **** __STATIC_INLINE uint32_t Cy_SCB_UART_GetNumInTxFifo   (CySCB_Type const *base);
 728:Generated_Source\PSoC6\pdl\drivers/peripheral/scb/cy_scb_uart.h **** __STATIC_INLINE bool     Cy_SCB_UART_IsTxComplete     (CySCB_Type const *base);
 729:Generated_Source\PSoC6\pdl\drivers/peripheral/scb/cy_scb_uart.h **** 
 730:Generated_Source\PSoC6\pdl\drivers/peripheral/scb/cy_scb_uart.h **** __STATIC_INLINE uint32_t Cy_SCB_UART_GetNumInRxFifo   (CySCB_Type const *base);
 731:Generated_Source\PSoC6\pdl\drivers/peripheral/scb/cy_scb_uart.h **** 
 732:Generated_Source\PSoC6\pdl\drivers/peripheral/scb/cy_scb_uart.h **** __STATIC_INLINE void     Cy_SCB_UART_ClearRxFifo      (CySCB_Type *base);
 733:Generated_Source\PSoC6\pdl\drivers/peripheral/scb/cy_scb_uart.h **** __STATIC_INLINE void     Cy_SCB_UART_ClearTxFifo      (CySCB_Type *base);
 734:Generated_Source\PSoC6\pdl\drivers/peripheral/scb/cy_scb_uart.h **** /** \} group_scb_uart_low_level_functions */
 735:Generated_Source\PSoC6\pdl\drivers/peripheral/scb/cy_scb_uart.h **** 
 736:Generated_Source\PSoC6\pdl\drivers/peripheral/scb/cy_scb_uart.h **** /**
 737:Generated_Source\PSoC6\pdl\drivers/peripheral/scb/cy_scb_uart.h **** * \addtogroup group_scb_uart_interrupt_functions
 738:Generated_Source\PSoC6\pdl\drivers/peripheral/scb/cy_scb_uart.h **** * \{
 739:Generated_Source\PSoC6\pdl\drivers/peripheral/scb/cy_scb_uart.h **** */
 740:Generated_Source\PSoC6\pdl\drivers/peripheral/scb/cy_scb_uart.h **** void Cy_SCB_UART_Interrupt(CySCB_Type *base, cy_stc_scb_uart_context_t *context);
 741:Generated_Source\PSoC6\pdl\drivers/peripheral/scb/cy_scb_uart.h **** 
 742:Generated_Source\PSoC6\pdl\drivers/peripheral/scb/cy_scb_uart.h **** __STATIC_INLINE void Cy_SCB_UART_RegisterCallback(CySCB_Type const *base, cy_cb_scb_uart_handle_eve
 743:Generated_Source\PSoC6\pdl\drivers/peripheral/scb/cy_scb_uart.h ****                                                   cy_stc_scb_uart_context_t *context);
 744:Generated_Source\PSoC6\pdl\drivers/peripheral/scb/cy_scb_uart.h **** /** \} group_scb_uart_interrupt_functions */
 745:Generated_Source\PSoC6\pdl\drivers/peripheral/scb/cy_scb_uart.h **** 
 746:Generated_Source\PSoC6\pdl\drivers/peripheral/scb/cy_scb_uart.h **** /**
 747:Generated_Source\PSoC6\pdl\drivers/peripheral/scb/cy_scb_uart.h **** * \addtogroup group_scb_uart_low_power_functions
 748:Generated_Source\PSoC6\pdl\drivers/peripheral/scb/cy_scb_uart.h **** * \{
 749:Generated_Source\PSoC6\pdl\drivers/peripheral/scb/cy_scb_uart.h **** */
 750:Generated_Source\PSoC6\pdl\drivers/peripheral/scb/cy_scb_uart.h **** cy_en_syspm_status_t Cy_SCB_UART_DeepSleepCallback(cy_stc_syspm_callback_params_t *callbackParams, 
 751:Generated_Source\PSoC6\pdl\drivers/peripheral/scb/cy_scb_uart.h **** cy_en_syspm_status_t Cy_SCB_UART_HibernateCallback(cy_stc_syspm_callback_params_t *callbackParams, 
 752:Generated_Source\PSoC6\pdl\drivers/peripheral/scb/cy_scb_uart.h **** /** \} group_scb_uart_low_power_functions */
 753:Generated_Source\PSoC6\pdl\drivers/peripheral/scb/cy_scb_uart.h **** 
 754:Generated_Source\PSoC6\pdl\drivers/peripheral/scb/cy_scb_uart.h **** 
 755:Generated_Source\PSoC6\pdl\drivers/peripheral/scb/cy_scb_uart.h **** /*******************************************************************************
 756:Generated_Source\PSoC6\pdl\drivers/peripheral/scb/cy_scb_uart.h **** *                               API Constants
 757:Generated_Source\PSoC6\pdl\drivers/peripheral/scb/cy_scb_uart.h **** *******************************************************************************/
 758:Generated_Source\PSoC6\pdl\drivers/peripheral/scb/cy_scb_uart.h **** 
 759:Generated_Source\PSoC6\pdl\drivers/peripheral/scb/cy_scb_uart.h **** /**
 760:Generated_Source\PSoC6\pdl\drivers/peripheral/scb/cy_scb_uart.h **** * \addtogroup group_scb_uart_macros
 761:Generated_Source\PSoC6\pdl\drivers/peripheral/scb/cy_scb_uart.h **** * \{
 762:Generated_Source\PSoC6\pdl\drivers/peripheral/scb/cy_scb_uart.h **** */
ARM GAS  C:\Users\15311\AppData\Local\Temp\cccFsPp9.s 			page 22


 763:Generated_Source\PSoC6\pdl\drivers/peripheral/scb/cy_scb_uart.h **** 
 764:Generated_Source\PSoC6\pdl\drivers/peripheral/scb/cy_scb_uart.h **** /**
 765:Generated_Source\PSoC6\pdl\drivers/peripheral/scb/cy_scb_uart.h **** * \defgroup group_scb_uart_macros_irda_lp_ovs UART IRDA Low Power Oversample factors
 766:Generated_Source\PSoC6\pdl\drivers/peripheral/scb/cy_scb_uart.h **** * \{
 767:Generated_Source\PSoC6\pdl\drivers/peripheral/scb/cy_scb_uart.h **** */
 768:Generated_Source\PSoC6\pdl\drivers/peripheral/scb/cy_scb_uart.h **** #define CY_SCB_UART_IRDA_LP_OVS16      (1UL)   /**< IrDA in low-power mode oversampled by 16   */
 769:Generated_Source\PSoC6\pdl\drivers/peripheral/scb/cy_scb_uart.h **** #define CY_SCB_UART_IRDA_LP_OVS32      (2UL)   /**< IrDA in low-power mode oversampled by 32   */
 770:Generated_Source\PSoC6\pdl\drivers/peripheral/scb/cy_scb_uart.h **** #define CY_SCB_UART_IRDA_LP_OVS48      (3UL)   /**< IrDA in low-power mode oversampled by 48   */
 771:Generated_Source\PSoC6\pdl\drivers/peripheral/scb/cy_scb_uart.h **** #define CY_SCB_UART_IRDA_LP_OVS96      (4UL)   /**< IrDA in low-power mode oversampled by 96   */
 772:Generated_Source\PSoC6\pdl\drivers/peripheral/scb/cy_scb_uart.h **** #define CY_SCB_UART_IRDA_LP_OVS192     (5UL)   /**< IrDA in low-power mode oversampled by 192  */
 773:Generated_Source\PSoC6\pdl\drivers/peripheral/scb/cy_scb_uart.h **** #define CY_SCB_UART_IRDA_LP_OVS768     (6UL)   /**< IrDA in low-power mode oversampled by 768  */
 774:Generated_Source\PSoC6\pdl\drivers/peripheral/scb/cy_scb_uart.h **** #define CY_SCB_UART_IRDA_LP_OVS1536    (7UL)   /**< IrDA in low-power mode oversampled by 1536 */
 775:Generated_Source\PSoC6\pdl\drivers/peripheral/scb/cy_scb_uart.h **** /** \} group_scb_uart_macros_irda_lp_ovs */
 776:Generated_Source\PSoC6\pdl\drivers/peripheral/scb/cy_scb_uart.h **** 
 777:Generated_Source\PSoC6\pdl\drivers/peripheral/scb/cy_scb_uart.h **** /**
 778:Generated_Source\PSoC6\pdl\drivers/peripheral/scb/cy_scb_uart.h **** * \defgroup group_scb_uart_macros_rx_fifo_status UART RX FIFO status.
 779:Generated_Source\PSoC6\pdl\drivers/peripheral/scb/cy_scb_uart.h **** * \{
 780:Generated_Source\PSoC6\pdl\drivers/peripheral/scb/cy_scb_uart.h **** * Macros to check UART RX FIFO status returned by \ref Cy_SCB_UART_GetRxFifoStatus
 781:Generated_Source\PSoC6\pdl\drivers/peripheral/scb/cy_scb_uart.h **** * function or assign mask for \ref Cy_SCB_UART_ClearRxFifoStatus function.
 782:Generated_Source\PSoC6\pdl\drivers/peripheral/scb/cy_scb_uart.h **** * Each UART RX FIFO status is encoded in a separate bit, therefore multiple
 783:Generated_Source\PSoC6\pdl\drivers/peripheral/scb/cy_scb_uart.h **** * bits may be set to indicate the current status.
 784:Generated_Source\PSoC6\pdl\drivers/peripheral/scb/cy_scb_uart.h **** */
 785:Generated_Source\PSoC6\pdl\drivers/peripheral/scb/cy_scb_uart.h **** 
 786:Generated_Source\PSoC6\pdl\drivers/peripheral/scb/cy_scb_uart.h **** /** The number of entries in the RX FIFO is more than the RX FIFO trigger level
 787:Generated_Source\PSoC6\pdl\drivers/peripheral/scb/cy_scb_uart.h **** * value
 788:Generated_Source\PSoC6\pdl\drivers/peripheral/scb/cy_scb_uart.h **** */
 789:Generated_Source\PSoC6\pdl\drivers/peripheral/scb/cy_scb_uart.h **** #define CY_SCB_UART_RX_TRIGGER         (SCB_INTR_RX_TRIGGER_Msk)
 790:Generated_Source\PSoC6\pdl\drivers/peripheral/scb/cy_scb_uart.h **** 
 791:Generated_Source\PSoC6\pdl\drivers/peripheral/scb/cy_scb_uart.h **** /** The RX FIFO is not empty, there is data to read */
 792:Generated_Source\PSoC6\pdl\drivers/peripheral/scb/cy_scb_uart.h **** #define CY_SCB_UART_RX_NOT_EMPTY       (SCB_INTR_RX_NOT_EMPTY_Msk)
 793:Generated_Source\PSoC6\pdl\drivers/peripheral/scb/cy_scb_uart.h **** 
 794:Generated_Source\PSoC6\pdl\drivers/peripheral/scb/cy_scb_uart.h **** /**
 795:Generated_Source\PSoC6\pdl\drivers/peripheral/scb/cy_scb_uart.h **** * The RX FIFO is full, there is no more space for additional data, and
 796:Generated_Source\PSoC6\pdl\drivers/peripheral/scb/cy_scb_uart.h **** * any additional data will be dropped
 797:Generated_Source\PSoC6\pdl\drivers/peripheral/scb/cy_scb_uart.h **** */
 798:Generated_Source\PSoC6\pdl\drivers/peripheral/scb/cy_scb_uart.h **** #define CY_SCB_UART_RX_FULL            (SCB_INTR_RX_FULL_Msk)
 799:Generated_Source\PSoC6\pdl\drivers/peripheral/scb/cy_scb_uart.h **** 
 800:Generated_Source\PSoC6\pdl\drivers/peripheral/scb/cy_scb_uart.h **** /**
 801:Generated_Source\PSoC6\pdl\drivers/peripheral/scb/cy_scb_uart.h **** * The RX FIFO was full and there was an attempt to write to it.
 802:Generated_Source\PSoC6\pdl\drivers/peripheral/scb/cy_scb_uart.h **** * That additional data was dropped.
 803:Generated_Source\PSoC6\pdl\drivers/peripheral/scb/cy_scb_uart.h **** */
 804:Generated_Source\PSoC6\pdl\drivers/peripheral/scb/cy_scb_uart.h **** #define CY_SCB_UART_RX_OVERFLOW        (SCB_INTR_RX_OVERFLOW_Msk)
 805:Generated_Source\PSoC6\pdl\drivers/peripheral/scb/cy_scb_uart.h **** 
 806:Generated_Source\PSoC6\pdl\drivers/peripheral/scb/cy_scb_uart.h **** /** An attempt to read from an empty RX FIFO */
 807:Generated_Source\PSoC6\pdl\drivers/peripheral/scb/cy_scb_uart.h **** #define CY_SCB_UART_RX_UNDERFLOW       (SCB_INTR_RX_UNDERFLOW_Msk)
 808:Generated_Source\PSoC6\pdl\drivers/peripheral/scb/cy_scb_uart.h **** 
 809:Generated_Source\PSoC6\pdl\drivers/peripheral/scb/cy_scb_uart.h **** /** The RX FIFO detected a frame error, either a stop or stop-bit error */
 810:Generated_Source\PSoC6\pdl\drivers/peripheral/scb/cy_scb_uart.h **** #define CY_SCB_UART_RX_ERR_FRAME       (SCB_INTR_RX_FRAME_ERROR_Msk)
 811:Generated_Source\PSoC6\pdl\drivers/peripheral/scb/cy_scb_uart.h **** 
 812:Generated_Source\PSoC6\pdl\drivers/peripheral/scb/cy_scb_uart.h **** /** The RX FIFO detected a parity error */
 813:Generated_Source\PSoC6\pdl\drivers/peripheral/scb/cy_scb_uart.h **** #define CY_SCB_UART_RX_ERR_PARITY      (SCB_INTR_RX_PARITY_ERROR_Msk)
 814:Generated_Source\PSoC6\pdl\drivers/peripheral/scb/cy_scb_uart.h **** 
 815:Generated_Source\PSoC6\pdl\drivers/peripheral/scb/cy_scb_uart.h **** /** The RX FIFO detected a break transmission from the transmitter */
 816:Generated_Source\PSoC6\pdl\drivers/peripheral/scb/cy_scb_uart.h **** #define CY_SCB_UART_RX_BREAK_DETECT    (SCB_INTR_RX_BREAK_DETECT_Msk)
 817:Generated_Source\PSoC6\pdl\drivers/peripheral/scb/cy_scb_uart.h **** /** \} group_scb_uart_macros_rx_fifo_status */
 818:Generated_Source\PSoC6\pdl\drivers/peripheral/scb/cy_scb_uart.h **** 
 819:Generated_Source\PSoC6\pdl\drivers/peripheral/scb/cy_scb_uart.h **** /**
ARM GAS  C:\Users\15311\AppData\Local\Temp\cccFsPp9.s 			page 23


 820:Generated_Source\PSoC6\pdl\drivers/peripheral/scb/cy_scb_uart.h **** * \defgroup group_scb_uart_macros_tx_fifo_status UART TX FIFO Statuses
 821:Generated_Source\PSoC6\pdl\drivers/peripheral/scb/cy_scb_uart.h **** * \{
 822:Generated_Source\PSoC6\pdl\drivers/peripheral/scb/cy_scb_uart.h **** * Macros to check UART TX FIFO status returned by \ref Cy_SCB_UART_GetTxFifoStatus
 823:Generated_Source\PSoC6\pdl\drivers/peripheral/scb/cy_scb_uart.h **** * function or assign mask for \ref Cy_SCB_UART_ClearTxFifoStatus function.
 824:Generated_Source\PSoC6\pdl\drivers/peripheral/scb/cy_scb_uart.h **** * Each UART TX FIFO status is encoded in a separate bit, therefore multiple bits
 825:Generated_Source\PSoC6\pdl\drivers/peripheral/scb/cy_scb_uart.h **** * may be set to indicate the current status.
 826:Generated_Source\PSoC6\pdl\drivers/peripheral/scb/cy_scb_uart.h **** */
 827:Generated_Source\PSoC6\pdl\drivers/peripheral/scb/cy_scb_uart.h **** 
 828:Generated_Source\PSoC6\pdl\drivers/peripheral/scb/cy_scb_uart.h **** /** The number of entries in the TX FIFO is less than the TX FIFO trigger level
 829:Generated_Source\PSoC6\pdl\drivers/peripheral/scb/cy_scb_uart.h **** * value
 830:Generated_Source\PSoC6\pdl\drivers/peripheral/scb/cy_scb_uart.h **** */
 831:Generated_Source\PSoC6\pdl\drivers/peripheral/scb/cy_scb_uart.h **** #define CY_SCB_UART_TX_TRIGGER     (SCB_INTR_TX_TRIGGER_Msk)
 832:Generated_Source\PSoC6\pdl\drivers/peripheral/scb/cy_scb_uart.h **** 
 833:Generated_Source\PSoC6\pdl\drivers/peripheral/scb/cy_scb_uart.h **** /** The TX FIFO is not full, there is a space for more data */
 834:Generated_Source\PSoC6\pdl\drivers/peripheral/scb/cy_scb_uart.h **** #define CY_SCB_UART_TX_NOT_FULL    (SCB_INTR_TX_NOT_FULL_Msk)
 835:Generated_Source\PSoC6\pdl\drivers/peripheral/scb/cy_scb_uart.h **** 
 836:Generated_Source\PSoC6\pdl\drivers/peripheral/scb/cy_scb_uart.h **** /** The TX FIFO is empty, note there may still be data in the shift register.*/
 837:Generated_Source\PSoC6\pdl\drivers/peripheral/scb/cy_scb_uart.h **** #define CY_SCB_UART_TX_EMPTY       (SCB_INTR_TX_EMPTY_Msk)
 838:Generated_Source\PSoC6\pdl\drivers/peripheral/scb/cy_scb_uart.h **** 
 839:Generated_Source\PSoC6\pdl\drivers/peripheral/scb/cy_scb_uart.h **** /** An attempt to write to the full TX FIFO */
 840:Generated_Source\PSoC6\pdl\drivers/peripheral/scb/cy_scb_uart.h **** #define CY_SCB_UART_TX_OVERFLOW    (SCB_INTR_TX_OVERFLOW_Msk)
 841:Generated_Source\PSoC6\pdl\drivers/peripheral/scb/cy_scb_uart.h **** 
 842:Generated_Source\PSoC6\pdl\drivers/peripheral/scb/cy_scb_uart.h **** /** An attempt to read from an empty transmitter FIFO (hardware reads). */
 843:Generated_Source\PSoC6\pdl\drivers/peripheral/scb/cy_scb_uart.h **** #define CY_SCB_UART_TX_UNDERFLOW (SCB_INTR_TX_UNDERFLOW_Msk)
 844:Generated_Source\PSoC6\pdl\drivers/peripheral/scb/cy_scb_uart.h **** 
 845:Generated_Source\PSoC6\pdl\drivers/peripheral/scb/cy_scb_uart.h **** /** All data has been transmitted out of the FIFO, including shifter */
 846:Generated_Source\PSoC6\pdl\drivers/peripheral/scb/cy_scb_uart.h **** #define CY_SCB_UART_TX_DONE        (SCB_INTR_TX_UART_DONE_Msk)
 847:Generated_Source\PSoC6\pdl\drivers/peripheral/scb/cy_scb_uart.h **** 
 848:Generated_Source\PSoC6\pdl\drivers/peripheral/scb/cy_scb_uart.h **** /** SmartCard only: the transmitter received a NACK */
 849:Generated_Source\PSoC6\pdl\drivers/peripheral/scb/cy_scb_uart.h **** #define CY_SCB_UART_TX_NACK        (SCB_INTR_TX_UART_NACK_Msk)
 850:Generated_Source\PSoC6\pdl\drivers/peripheral/scb/cy_scb_uart.h **** 
 851:Generated_Source\PSoC6\pdl\drivers/peripheral/scb/cy_scb_uart.h **** /** SmartCard only: the transmitter lost arbitration */
 852:Generated_Source\PSoC6\pdl\drivers/peripheral/scb/cy_scb_uart.h **** #define CY_SCB_UART_TX_ARB_LOST    (SCB_INTR_TX_UART_ARB_LOST_Msk)
 853:Generated_Source\PSoC6\pdl\drivers/peripheral/scb/cy_scb_uart.h **** /** \} group_scb_uart_macros_tx_fifo_status */
 854:Generated_Source\PSoC6\pdl\drivers/peripheral/scb/cy_scb_uart.h **** 
 855:Generated_Source\PSoC6\pdl\drivers/peripheral/scb/cy_scb_uart.h **** /**
 856:Generated_Source\PSoC6\pdl\drivers/peripheral/scb/cy_scb_uart.h **** * \defgroup group_scb_uart_macros_receive_status UART Receive Statuses
 857:Generated_Source\PSoC6\pdl\drivers/peripheral/scb/cy_scb_uart.h **** * \{
 858:Generated_Source\PSoC6\pdl\drivers/peripheral/scb/cy_scb_uart.h **** * Macros to check current UART receive status returned by
 859:Generated_Source\PSoC6\pdl\drivers/peripheral/scb/cy_scb_uart.h **** * \ref Cy_SCB_UART_GetReceiveStatus function.
 860:Generated_Source\PSoC6\pdl\drivers/peripheral/scb/cy_scb_uart.h **** * Each UART receive status is encoded in a separate bit, therefore multiple bits
 861:Generated_Source\PSoC6\pdl\drivers/peripheral/scb/cy_scb_uart.h **** * may be set to indicate the current status.
 862:Generated_Source\PSoC6\pdl\drivers/peripheral/scb/cy_scb_uart.h **** */
 863:Generated_Source\PSoC6\pdl\drivers/peripheral/scb/cy_scb_uart.h **** /** The receive operation started by \ref Cy_SCB_UART_Receive is in progress */
 864:Generated_Source\PSoC6\pdl\drivers/peripheral/scb/cy_scb_uart.h **** #define CY_SCB_UART_RECEIVE_ACTIVE         (0x01UL)
 865:Generated_Source\PSoC6\pdl\drivers/peripheral/scb/cy_scb_uart.h **** 
 866:Generated_Source\PSoC6\pdl\drivers/peripheral/scb/cy_scb_uart.h **** /**
 867:Generated_Source\PSoC6\pdl\drivers/peripheral/scb/cy_scb_uart.h **** * The hardware RX FIFO was full and there was an attempt to write to it.
 868:Generated_Source\PSoC6\pdl\drivers/peripheral/scb/cy_scb_uart.h **** * That additional data was dropped.
 869:Generated_Source\PSoC6\pdl\drivers/peripheral/scb/cy_scb_uart.h **** */
 870:Generated_Source\PSoC6\pdl\drivers/peripheral/scb/cy_scb_uart.h **** #define CY_SCB_UART_RECEIVE_OVERFLOW       (SCB_INTR_RX_OVERFLOW_Msk)
 871:Generated_Source\PSoC6\pdl\drivers/peripheral/scb/cy_scb_uart.h **** 
 872:Generated_Source\PSoC6\pdl\drivers/peripheral/scb/cy_scb_uart.h **** /** The receive hardware detected a frame error, either a start or
 873:Generated_Source\PSoC6\pdl\drivers/peripheral/scb/cy_scb_uart.h **** * stop bit error
 874:Generated_Source\PSoC6\pdl\drivers/peripheral/scb/cy_scb_uart.h **** */
 875:Generated_Source\PSoC6\pdl\drivers/peripheral/scb/cy_scb_uart.h **** #define CY_SCB_UART_RECEIVE_ERR_FRAME      (SCB_INTR_RX_FRAME_ERROR_Msk)
 876:Generated_Source\PSoC6\pdl\drivers/peripheral/scb/cy_scb_uart.h **** 
ARM GAS  C:\Users\15311\AppData\Local\Temp\cccFsPp9.s 			page 24


 877:Generated_Source\PSoC6\pdl\drivers/peripheral/scb/cy_scb_uart.h **** /** The receive hardware detected a parity error */
 878:Generated_Source\PSoC6\pdl\drivers/peripheral/scb/cy_scb_uart.h **** #define CY_SCB_UART_RECEIVE_ERR_PARITY     (SCB_INTR_RX_PARITY_ERROR_Msk)
 879:Generated_Source\PSoC6\pdl\drivers/peripheral/scb/cy_scb_uart.h **** 
 880:Generated_Source\PSoC6\pdl\drivers/peripheral/scb/cy_scb_uart.h **** /** The receive hardware detected a break transmission from transmitter */
 881:Generated_Source\PSoC6\pdl\drivers/peripheral/scb/cy_scb_uart.h **** #define CY_SCB_UART_RECEIVE_BREAK_DETECT   (SCB_INTR_RX_BREAK_DETECT_Msk)
 882:Generated_Source\PSoC6\pdl\drivers/peripheral/scb/cy_scb_uart.h **** /** \} group_scb_uart_macros_receive_status */
 883:Generated_Source\PSoC6\pdl\drivers/peripheral/scb/cy_scb_uart.h **** 
 884:Generated_Source\PSoC6\pdl\drivers/peripheral/scb/cy_scb_uart.h **** /**
 885:Generated_Source\PSoC6\pdl\drivers/peripheral/scb/cy_scb_uart.h **** * \defgroup group_scb_uart_macros_transmit_status UART Transmit Status
 886:Generated_Source\PSoC6\pdl\drivers/peripheral/scb/cy_scb_uart.h **** * \{
 887:Generated_Source\PSoC6\pdl\drivers/peripheral/scb/cy_scb_uart.h **** * Macros to check current UART transmit status returned by
 888:Generated_Source\PSoC6\pdl\drivers/peripheral/scb/cy_scb_uart.h **** * \ref Cy_SCB_UART_GetTransmitStatus function.
 889:Generated_Source\PSoC6\pdl\drivers/peripheral/scb/cy_scb_uart.h **** * Each UART transmit status is encoded in a separate bit, therefore multiple bits
 890:Generated_Source\PSoC6\pdl\drivers/peripheral/scb/cy_scb_uart.h **** * may be set to indicate the current status.
 891:Generated_Source\PSoC6\pdl\drivers/peripheral/scb/cy_scb_uart.h **** */
 892:Generated_Source\PSoC6\pdl\drivers/peripheral/scb/cy_scb_uart.h **** 
 893:Generated_Source\PSoC6\pdl\drivers/peripheral/scb/cy_scb_uart.h **** /** The transmit operation started by \ref Cy_SCB_UART_Transmit is in progress */
 894:Generated_Source\PSoC6\pdl\drivers/peripheral/scb/cy_scb_uart.h **** #define CY_SCB_UART_TRANSMIT_ACTIVE    (0x01UL)
 895:Generated_Source\PSoC6\pdl\drivers/peripheral/scb/cy_scb_uart.h **** 
 896:Generated_Source\PSoC6\pdl\drivers/peripheral/scb/cy_scb_uart.h **** /**
 897:Generated_Source\PSoC6\pdl\drivers/peripheral/scb/cy_scb_uart.h **** * All data elements specified by \ref Cy_SCB_UART_Transmit have been loaded
 898:Generated_Source\PSoC6\pdl\drivers/peripheral/scb/cy_scb_uart.h **** * into the TX FIFO
 899:Generated_Source\PSoC6\pdl\drivers/peripheral/scb/cy_scb_uart.h **** */
 900:Generated_Source\PSoC6\pdl\drivers/peripheral/scb/cy_scb_uart.h **** #define CY_SCB_UART_TRANSMIT_IN_FIFO   (0x02UL)
 901:Generated_Source\PSoC6\pdl\drivers/peripheral/scb/cy_scb_uart.h **** 
 902:Generated_Source\PSoC6\pdl\drivers/peripheral/scb/cy_scb_uart.h **** /** SmartCard only: the transmitter received a NACK */
 903:Generated_Source\PSoC6\pdl\drivers/peripheral/scb/cy_scb_uart.h **** #define CY_SCB_UART_TRANSMIT_NACK      (SCB_INTR_TX_UART_NACK_Msk)
 904:Generated_Source\PSoC6\pdl\drivers/peripheral/scb/cy_scb_uart.h **** 
 905:Generated_Source\PSoC6\pdl\drivers/peripheral/scb/cy_scb_uart.h **** /** SmartCard only: the transmitter lost arbitration */
 906:Generated_Source\PSoC6\pdl\drivers/peripheral/scb/cy_scb_uart.h **** #define CY_SCB_UART_TRANSMIT_ARB_LOST  (SCB_INTR_TX_UART_ARB_LOST_Msk)
 907:Generated_Source\PSoC6\pdl\drivers/peripheral/scb/cy_scb_uart.h **** /** \} group_scb_uart_macros_transmit_status */
 908:Generated_Source\PSoC6\pdl\drivers/peripheral/scb/cy_scb_uart.h **** 
 909:Generated_Source\PSoC6\pdl\drivers/peripheral/scb/cy_scb_uart.h **** /**
 910:Generated_Source\PSoC6\pdl\drivers/peripheral/scb/cy_scb_uart.h **** * \defgroup group_scb_uart_macros_callback_events UART Callback Events
 911:Generated_Source\PSoC6\pdl\drivers/peripheral/scb/cy_scb_uart.h **** * \{
 912:Generated_Source\PSoC6\pdl\drivers/peripheral/scb/cy_scb_uart.h **** * Macros to check UART events passed by \ref cy_cb_scb_uart_handle_events_t callback.
 913:Generated_Source\PSoC6\pdl\drivers/peripheral/scb/cy_scb_uart.h **** * Note that only single event is notified by the callback when it is called.
 914:Generated_Source\PSoC6\pdl\drivers/peripheral/scb/cy_scb_uart.h **** */
 915:Generated_Source\PSoC6\pdl\drivers/peripheral/scb/cy_scb_uart.h **** 
 916:Generated_Source\PSoC6\pdl\drivers/peripheral/scb/cy_scb_uart.h **** /**
 917:Generated_Source\PSoC6\pdl\drivers/peripheral/scb/cy_scb_uart.h **** * All data elements specified by \ref Cy_SCB_UART_Transmit have been loaded
 918:Generated_Source\PSoC6\pdl\drivers/peripheral/scb/cy_scb_uart.h **** * into the TX FIFO
 919:Generated_Source\PSoC6\pdl\drivers/peripheral/scb/cy_scb_uart.h **** */
 920:Generated_Source\PSoC6\pdl\drivers/peripheral/scb/cy_scb_uart.h **** #define CY_SCB_UART_TRANSMIT_IN_FIFO_EVENT (0x01UL)
 921:Generated_Source\PSoC6\pdl\drivers/peripheral/scb/cy_scb_uart.h **** 
 922:Generated_Source\PSoC6\pdl\drivers/peripheral/scb/cy_scb_uart.h **** /** The transmit operation started by \ref Cy_SCB_UART_Transmit is complete */
 923:Generated_Source\PSoC6\pdl\drivers/peripheral/scb/cy_scb_uart.h **** #define CY_SCB_UART_TRANSMIT_DONE_EVENT    (0x02UL)
 924:Generated_Source\PSoC6\pdl\drivers/peripheral/scb/cy_scb_uart.h **** 
 925:Generated_Source\PSoC6\pdl\drivers/peripheral/scb/cy_scb_uart.h **** /** The receive operation started by \ref Cy_SCB_UART_Receive is complete */
 926:Generated_Source\PSoC6\pdl\drivers/peripheral/scb/cy_scb_uart.h **** #define CY_SCB_UART_RECEIVE_DONE_EVENT     (0x04UL)
 927:Generated_Source\PSoC6\pdl\drivers/peripheral/scb/cy_scb_uart.h **** 
 928:Generated_Source\PSoC6\pdl\drivers/peripheral/scb/cy_scb_uart.h **** /**
 929:Generated_Source\PSoC6\pdl\drivers/peripheral/scb/cy_scb_uart.h **** * The ring buffer is full, there is no more space for additional data.
 930:Generated_Source\PSoC6\pdl\drivers/peripheral/scb/cy_scb_uart.h **** * Additional data is stored in the RX FIFO until it becomes full, at which
 931:Generated_Source\PSoC6\pdl\drivers/peripheral/scb/cy_scb_uart.h **** * point data is dropped.
 932:Generated_Source\PSoC6\pdl\drivers/peripheral/scb/cy_scb_uart.h **** */
 933:Generated_Source\PSoC6\pdl\drivers/peripheral/scb/cy_scb_uart.h **** #define CY_SCB_UART_RB_FULL_EVENT          (0x08UL)
ARM GAS  C:\Users\15311\AppData\Local\Temp\cccFsPp9.s 			page 25


 934:Generated_Source\PSoC6\pdl\drivers/peripheral/scb/cy_scb_uart.h **** 
 935:Generated_Source\PSoC6\pdl\drivers/peripheral/scb/cy_scb_uart.h **** /**
 936:Generated_Source\PSoC6\pdl\drivers/peripheral/scb/cy_scb_uart.h **** * An error was detected during the receive operation. This includes overflow,
 937:Generated_Source\PSoC6\pdl\drivers/peripheral/scb/cy_scb_uart.h **** * frame error, or parity error. Check \ref Cy_SCB_UART_GetReceiveStatus to
 938:Generated_Source\PSoC6\pdl\drivers/peripheral/scb/cy_scb_uart.h **** * determine the source of the error.
 939:Generated_Source\PSoC6\pdl\drivers/peripheral/scb/cy_scb_uart.h **** */
 940:Generated_Source\PSoC6\pdl\drivers/peripheral/scb/cy_scb_uart.h **** #define CY_SCB_UART_RECEIVE_ERR_EVENT      (0x10UL)
 941:Generated_Source\PSoC6\pdl\drivers/peripheral/scb/cy_scb_uart.h **** 
 942:Generated_Source\PSoC6\pdl\drivers/peripheral/scb/cy_scb_uart.h **** /**
 943:Generated_Source\PSoC6\pdl\drivers/peripheral/scb/cy_scb_uart.h **** * An error was detected during the transmit operation. This includes a NACK
 944:Generated_Source\PSoC6\pdl\drivers/peripheral/scb/cy_scb_uart.h **** * or lost arbitration. Check \ref Cy_SCB_UART_GetTransmitStatus to determine
 945:Generated_Source\PSoC6\pdl\drivers/peripheral/scb/cy_scb_uart.h **** * the source of the error
 946:Generated_Source\PSoC6\pdl\drivers/peripheral/scb/cy_scb_uart.h **** */
 947:Generated_Source\PSoC6\pdl\drivers/peripheral/scb/cy_scb_uart.h **** #define CY_SCB_UART_TRANSMIT_ERR_EVENT     (0x20UL)
 948:Generated_Source\PSoC6\pdl\drivers/peripheral/scb/cy_scb_uart.h **** /** \} group_scb_uart_macros_callback_events */
 949:Generated_Source\PSoC6\pdl\drivers/peripheral/scb/cy_scb_uart.h **** 
 950:Generated_Source\PSoC6\pdl\drivers/peripheral/scb/cy_scb_uart.h **** /** Data returned by the hardware when an empty RX FIFO is read */
 951:Generated_Source\PSoC6\pdl\drivers/peripheral/scb/cy_scb_uart.h **** #define CY_SCB_UART_RX_NO_DATA         (0xFFFFFFFFUL)
 952:Generated_Source\PSoC6\pdl\drivers/peripheral/scb/cy_scb_uart.h **** 
 953:Generated_Source\PSoC6\pdl\drivers/peripheral/scb/cy_scb_uart.h **** 
 954:Generated_Source\PSoC6\pdl\drivers/peripheral/scb/cy_scb_uart.h **** /*******************************************************************************
 955:Generated_Source\PSoC6\pdl\drivers/peripheral/scb/cy_scb_uart.h **** *                            Internal Constants
 956:Generated_Source\PSoC6\pdl\drivers/peripheral/scb/cy_scb_uart.h **** *******************************************************************************/
 957:Generated_Source\PSoC6\pdl\drivers/peripheral/scb/cy_scb_uart.h **** 
 958:Generated_Source\PSoC6\pdl\drivers/peripheral/scb/cy_scb_uart.h **** /** \cond INTERNAL */
 959:Generated_Source\PSoC6\pdl\drivers/peripheral/scb/cy_scb_uart.h **** #define CY_SCB_UART_TX_INTR_MASK    (CY_SCB_UART_TX_TRIGGER  | CY_SCB_UART_TX_NOT_FULL  | CY_SCB_UA
 960:Generated_Source\PSoC6\pdl\drivers/peripheral/scb/cy_scb_uart.h ****                                      CY_SCB_UART_TX_OVERFLOW | CY_SCB_UART_TX_UNDERFLOW | CY_SCB_UA
 961:Generated_Source\PSoC6\pdl\drivers/peripheral/scb/cy_scb_uart.h ****                                      CY_SCB_UART_TX_NACK     | CY_SCB_UART_TX_ARB_LOST)
 962:Generated_Source\PSoC6\pdl\drivers/peripheral/scb/cy_scb_uart.h **** 
 963:Generated_Source\PSoC6\pdl\drivers/peripheral/scb/cy_scb_uart.h **** #define CY_SCB_UART_RX_INTR_MASK    (CY_SCB_UART_RX_TRIGGER    | CY_SCB_UART_RX_NOT_EMPTY | CY_SCB_
 964:Generated_Source\PSoC6\pdl\drivers/peripheral/scb/cy_scb_uart.h ****                                      CY_SCB_UART_RX_OVERFLOW   | CY_SCB_UART_RX_UNDERFLOW | CY_SCB_
 965:Generated_Source\PSoC6\pdl\drivers/peripheral/scb/cy_scb_uart.h ****                                      CY_SCB_UART_RX_ERR_PARITY | CY_SCB_UART_RX_BREAK_DETECT)
 966:Generated_Source\PSoC6\pdl\drivers/peripheral/scb/cy_scb_uart.h **** 
 967:Generated_Source\PSoC6\pdl\drivers/peripheral/scb/cy_scb_uart.h **** #define CY_SCB_UART_TX_INTR        (CY_SCB_TX_INTR_LEVEL | CY_SCB_TX_INTR_UART_NACK | CY_SCB_TX_INT
 968:Generated_Source\PSoC6\pdl\drivers/peripheral/scb/cy_scb_uart.h **** 
 969:Generated_Source\PSoC6\pdl\drivers/peripheral/scb/cy_scb_uart.h **** #define CY_SCB_UART_RX_INTR        (CY_SCB_RX_INTR_LEVEL | CY_SCB_RX_INTR_OVERFLOW | CY_SCB_RX_INTR
 970:Generated_Source\PSoC6\pdl\drivers/peripheral/scb/cy_scb_uart.h ****                                     CY_SCB_RX_INTR_UART_PARITY_ERROR | CY_SCB_RX_INTR_UART_BREAK_DE
 971:Generated_Source\PSoC6\pdl\drivers/peripheral/scb/cy_scb_uart.h **** 
 972:Generated_Source\PSoC6\pdl\drivers/peripheral/scb/cy_scb_uart.h **** #define CY_SCB_UART_RECEIVE_ERR    (CY_SCB_RX_INTR_OVERFLOW | CY_SCB_RX_INTR_UART_FRAME_ERROR | \
 973:Generated_Source\PSoC6\pdl\drivers/peripheral/scb/cy_scb_uart.h ****                                     CY_SCB_RX_INTR_UART_PARITY_ERROR)
 974:Generated_Source\PSoC6\pdl\drivers/peripheral/scb/cy_scb_uart.h **** 
 975:Generated_Source\PSoC6\pdl\drivers/peripheral/scb/cy_scb_uart.h **** #define CY_SCB_UART_TRANSMIT_ERR   (CY_SCB_TX_INTR_UART_NACK | CY_SCB_TX_INTR_UART_ARB_LOST)
 976:Generated_Source\PSoC6\pdl\drivers/peripheral/scb/cy_scb_uart.h **** 
 977:Generated_Source\PSoC6\pdl\drivers/peripheral/scb/cy_scb_uart.h **** #define CY_SCB_UART_INIT_KEY       (0x00ABCDEFUL)
 978:Generated_Source\PSoC6\pdl\drivers/peripheral/scb/cy_scb_uart.h **** 
 979:Generated_Source\PSoC6\pdl\drivers/peripheral/scb/cy_scb_uart.h **** #define CY_SCB_UART_IS_MODE_VALID(mode)     ( (CY_SCB_UART_STANDARD  == (mode)) || \
 980:Generated_Source\PSoC6\pdl\drivers/peripheral/scb/cy_scb_uart.h ****                                               (CY_SCB_UART_SMARTCARD == (mode)) || \
 981:Generated_Source\PSoC6\pdl\drivers/peripheral/scb/cy_scb_uart.h ****                                               (CY_SCB_UART_IRDA      == (mode)) )
 982:Generated_Source\PSoC6\pdl\drivers/peripheral/scb/cy_scb_uart.h **** 
 983:Generated_Source\PSoC6\pdl\drivers/peripheral/scb/cy_scb_uart.h **** #define CY_SCB_UART_IS_STOP_BITS_VALID(stopBits)    ( (CY_SCB_UART_STOP_BITS_1   == (stopBits)) || 
 984:Generated_Source\PSoC6\pdl\drivers/peripheral/scb/cy_scb_uart.h ****                                                       (CY_SCB_UART_STOP_BITS_1_5 == (stopBits)) || 
 985:Generated_Source\PSoC6\pdl\drivers/peripheral/scb/cy_scb_uart.h ****                                                       (CY_SCB_UART_STOP_BITS_2   == (stopBits)) || 
 986:Generated_Source\PSoC6\pdl\drivers/peripheral/scb/cy_scb_uart.h ****                                                       (CY_SCB_UART_STOP_BITS_2_5 == (stopBits)) || 
 987:Generated_Source\PSoC6\pdl\drivers/peripheral/scb/cy_scb_uart.h ****                                                       (CY_SCB_UART_STOP_BITS_3   == (stopBits)) || 
 988:Generated_Source\PSoC6\pdl\drivers/peripheral/scb/cy_scb_uart.h ****                                                       (CY_SCB_UART_STOP_BITS_3_5 == (stopBits)) || 
 989:Generated_Source\PSoC6\pdl\drivers/peripheral/scb/cy_scb_uart.h ****                                                       (CY_SCB_UART_STOP_BITS_4   == (stopBits)) )
 990:Generated_Source\PSoC6\pdl\drivers/peripheral/scb/cy_scb_uart.h **** 
ARM GAS  C:\Users\15311\AppData\Local\Temp\cccFsPp9.s 			page 26


 991:Generated_Source\PSoC6\pdl\drivers/peripheral/scb/cy_scb_uart.h **** #define CY_SCB_UART_IS_PARITY_VALID(parity)         ( (CY_SCB_UART_PARITY_NONE == (parity)) || \
 992:Generated_Source\PSoC6\pdl\drivers/peripheral/scb/cy_scb_uart.h ****                                                       (CY_SCB_UART_PARITY_EVEN == (parity)) || \
 993:Generated_Source\PSoC6\pdl\drivers/peripheral/scb/cy_scb_uart.h ****                                                       (CY_SCB_UART_PARITY_ODD  == (parity)) )
 994:Generated_Source\PSoC6\pdl\drivers/peripheral/scb/cy_scb_uart.h **** 
 995:Generated_Source\PSoC6\pdl\drivers/peripheral/scb/cy_scb_uart.h **** #define CY_SCB_UART_IS_POLARITY_VALID(polarity)     ( (CY_SCB_UART_ACTIVE_LOW  == (polarity)) || \
 996:Generated_Source\PSoC6\pdl\drivers/peripheral/scb/cy_scb_uart.h ****                                                       (CY_SCB_UART_ACTIVE_HIGH == (polarity)) )
 997:Generated_Source\PSoC6\pdl\drivers/peripheral/scb/cy_scb_uart.h **** 
 998:Generated_Source\PSoC6\pdl\drivers/peripheral/scb/cy_scb_uart.h **** #define CY_SCB_UART_IS_IRDA_LP_OVS_VALID(ovs)       ( (CY_SCB_UART_IRDA_LP_OVS16   == (ovs)) || \
 999:Generated_Source\PSoC6\pdl\drivers/peripheral/scb/cy_scb_uart.h ****                                                       (CY_SCB_UART_IRDA_LP_OVS32   == (ovs)) || \
1000:Generated_Source\PSoC6\pdl\drivers/peripheral/scb/cy_scb_uart.h ****                                                       (CY_SCB_UART_IRDA_LP_OVS48   == (ovs)) || \
1001:Generated_Source\PSoC6\pdl\drivers/peripheral/scb/cy_scb_uart.h ****                                                       (CY_SCB_UART_IRDA_LP_OVS96   == (ovs)) || \
1002:Generated_Source\PSoC6\pdl\drivers/peripheral/scb/cy_scb_uart.h ****                                                       (CY_SCB_UART_IRDA_LP_OVS192  == (ovs)) || \
1003:Generated_Source\PSoC6\pdl\drivers/peripheral/scb/cy_scb_uart.h ****                                                       (CY_SCB_UART_IRDA_LP_OVS768  == (ovs)) || \
1004:Generated_Source\PSoC6\pdl\drivers/peripheral/scb/cy_scb_uart.h ****                                                       (CY_SCB_UART_IRDA_LP_OVS1536 == (ovs)) )
1005:Generated_Source\PSoC6\pdl\drivers/peripheral/scb/cy_scb_uart.h **** 
1006:Generated_Source\PSoC6\pdl\drivers/peripheral/scb/cy_scb_uart.h **** #define CY_SCB_UART_IS_ADDRESS_VALID(addr)          ((addr) <= 0xFFUL)
1007:Generated_Source\PSoC6\pdl\drivers/peripheral/scb/cy_scb_uart.h **** #define CY_SCB_UART_IS_ADDRESS_MASK_VALID(mask)     ((mask) <= 0xFFUL)
1008:Generated_Source\PSoC6\pdl\drivers/peripheral/scb/cy_scb_uart.h **** #define CY_SCB_UART_IS_DATA_WIDTH_VALID(width)      ( ((width) >= 5UL) && ((width) <= 9UL) )
1009:Generated_Source\PSoC6\pdl\drivers/peripheral/scb/cy_scb_uart.h **** #define CY_SCB_UART_IS_OVERSAMPLE_VALID(ovs, mode, lpRx)    ( ((CY_SCB_UART_STANDARD  == (mode)) ||
1010:Generated_Source\PSoC6\pdl\drivers/peripheral/scb/cy_scb_uart.h ****                                                               (((ovs) >= 8UL) && ((ovs) <= 16UL)) :
1011:Generated_Source\PSoC6\pdl\drivers/peripheral/scb/cy_scb_uart.h ****                                                               ((lpRx) ? CY_SCB_UART_IS_IRDA_LP_OVS_
1012:Generated_Source\PSoC6\pdl\drivers/peripheral/scb/cy_scb_uart.h **** 
1013:Generated_Source\PSoC6\pdl\drivers/peripheral/scb/cy_scb_uart.h **** #define CY_SCB_UART_IS_RX_BREAK_WIDTH_VALID(base, width)    ( ((width) >= (_FLD2VAL(SCB_RX_CTRL_DAT
1014:Generated_Source\PSoC6\pdl\drivers/peripheral/scb/cy_scb_uart.h ****                                                               ((width) <= 16UL) )
1015:Generated_Source\PSoC6\pdl\drivers/peripheral/scb/cy_scb_uart.h **** #define CY_SCB_UART_IS_TX_BREAK_WIDTH_VALID(width)          ( ((width) >= 4UL) && ((width) <= 16UL)
1016:Generated_Source\PSoC6\pdl\drivers/peripheral/scb/cy_scb_uart.h **** 
1017:Generated_Source\PSoC6\pdl\drivers/peripheral/scb/cy_scb_uart.h **** #define CY_SCB_UART_IS_MUTLI_PROC_VALID(mp, mode, width, parity)    ( (mp) ? ((CY_SCB_UART_STANDARD
1018:Generated_Source\PSoC6\pdl\drivers/peripheral/scb/cy_scb_uart.h ****                                                                               (CY_SCB_UART_PARITY_N
1019:Generated_Source\PSoC6\pdl\drivers/peripheral/scb/cy_scb_uart.h **** /** \endcond */
1020:Generated_Source\PSoC6\pdl\drivers/peripheral/scb/cy_scb_uart.h **** 
1021:Generated_Source\PSoC6\pdl\drivers/peripheral/scb/cy_scb_uart.h **** /** \} group_scb_uart_macros */
1022:Generated_Source\PSoC6\pdl\drivers/peripheral/scb/cy_scb_uart.h **** 
1023:Generated_Source\PSoC6\pdl\drivers/peripheral/scb/cy_scb_uart.h **** 
1024:Generated_Source\PSoC6\pdl\drivers/peripheral/scb/cy_scb_uart.h **** /*******************************************************************************
1025:Generated_Source\PSoC6\pdl\drivers/peripheral/scb/cy_scb_uart.h **** *                    In-line Function Implementation
1026:Generated_Source\PSoC6\pdl\drivers/peripheral/scb/cy_scb_uart.h **** *******************************************************************************/
1027:Generated_Source\PSoC6\pdl\drivers/peripheral/scb/cy_scb_uart.h **** 
1028:Generated_Source\PSoC6\pdl\drivers/peripheral/scb/cy_scb_uart.h **** /**
1029:Generated_Source\PSoC6\pdl\drivers/peripheral/scb/cy_scb_uart.h **** * \addtogroup group_scb_uart_general_functions
1030:Generated_Source\PSoC6\pdl\drivers/peripheral/scb/cy_scb_uart.h **** * \{
1031:Generated_Source\PSoC6\pdl\drivers/peripheral/scb/cy_scb_uart.h **** */
1032:Generated_Source\PSoC6\pdl\drivers/peripheral/scb/cy_scb_uart.h **** 
1033:Generated_Source\PSoC6\pdl\drivers/peripheral/scb/cy_scb_uart.h **** /*******************************************************************************
1034:Generated_Source\PSoC6\pdl\drivers/peripheral/scb/cy_scb_uart.h **** * Function Name: Cy_SCB_UART_Enable
1035:Generated_Source\PSoC6\pdl\drivers/peripheral/scb/cy_scb_uart.h **** ****************************************************************************//**
1036:Generated_Source\PSoC6\pdl\drivers/peripheral/scb/cy_scb_uart.h **** *
1037:Generated_Source\PSoC6\pdl\drivers/peripheral/scb/cy_scb_uart.h **** * Enables the SCB block for the UART operation.
1038:Generated_Source\PSoC6\pdl\drivers/peripheral/scb/cy_scb_uart.h **** *
1039:Generated_Source\PSoC6\pdl\drivers/peripheral/scb/cy_scb_uart.h **** * \param base
1040:Generated_Source\PSoC6\pdl\drivers/peripheral/scb/cy_scb_uart.h **** * The pointer to the UART SCB instance.
1041:Generated_Source\PSoC6\pdl\drivers/peripheral/scb/cy_scb_uart.h **** *
1042:Generated_Source\PSoC6\pdl\drivers/peripheral/scb/cy_scb_uart.h **** *******************************************************************************/
1043:Generated_Source\PSoC6\pdl\drivers/peripheral/scb/cy_scb_uart.h **** __STATIC_INLINE void Cy_SCB_UART_Enable(CySCB_Type *base)
1044:Generated_Source\PSoC6\pdl\drivers/peripheral/scb/cy_scb_uart.h **** {
1045:Generated_Source\PSoC6\pdl\drivers/peripheral/scb/cy_scb_uart.h ****     SCB_CTRL(base) |= SCB_CTRL_ENABLED_Msk;
1046:Generated_Source\PSoC6\pdl\drivers/peripheral/scb/cy_scb_uart.h **** }
1047:Generated_Source\PSoC6\pdl\drivers/peripheral/scb/cy_scb_uart.h **** 
ARM GAS  C:\Users\15311\AppData\Local\Temp\cccFsPp9.s 			page 27


1048:Generated_Source\PSoC6\pdl\drivers/peripheral/scb/cy_scb_uart.h **** 
1049:Generated_Source\PSoC6\pdl\drivers/peripheral/scb/cy_scb_uart.h **** /*******************************************************************************
1050:Generated_Source\PSoC6\pdl\drivers/peripheral/scb/cy_scb_uart.h **** * Function Name: Cy_SCB_UART_EnableCts
1051:Generated_Source\PSoC6\pdl\drivers/peripheral/scb/cy_scb_uart.h **** ****************************************************************************//**
1052:Generated_Source\PSoC6\pdl\drivers/peripheral/scb/cy_scb_uart.h **** *
1053:Generated_Source\PSoC6\pdl\drivers/peripheral/scb/cy_scb_uart.h **** * Enables the Clear to Send (CTS) input for the UART. The UART will not transmit
1054:Generated_Source\PSoC6\pdl\drivers/peripheral/scb/cy_scb_uart.h **** * data while this signal is inactive.
1055:Generated_Source\PSoC6\pdl\drivers/peripheral/scb/cy_scb_uart.h **** *
1056:Generated_Source\PSoC6\pdl\drivers/peripheral/scb/cy_scb_uart.h **** * \param base
1057:Generated_Source\PSoC6\pdl\drivers/peripheral/scb/cy_scb_uart.h **** * The pointer to the UART SCB instance.
1058:Generated_Source\PSoC6\pdl\drivers/peripheral/scb/cy_scb_uart.h **** *
1059:Generated_Source\PSoC6\pdl\drivers/peripheral/scb/cy_scb_uart.h **** *******************************************************************************/
1060:Generated_Source\PSoC6\pdl\drivers/peripheral/scb/cy_scb_uart.h **** __STATIC_INLINE void Cy_SCB_UART_EnableCts(CySCB_Type *base)
1061:Generated_Source\PSoC6\pdl\drivers/peripheral/scb/cy_scb_uart.h **** {
1062:Generated_Source\PSoC6\pdl\drivers/peripheral/scb/cy_scb_uart.h ****     SCB_UART_FLOW_CTRL(base) |= SCB_UART_FLOW_CTRL_CTS_ENABLED_Msk;
1063:Generated_Source\PSoC6\pdl\drivers/peripheral/scb/cy_scb_uart.h **** }
1064:Generated_Source\PSoC6\pdl\drivers/peripheral/scb/cy_scb_uart.h **** 
1065:Generated_Source\PSoC6\pdl\drivers/peripheral/scb/cy_scb_uart.h **** 
1066:Generated_Source\PSoC6\pdl\drivers/peripheral/scb/cy_scb_uart.h **** /*******************************************************************************
1067:Generated_Source\PSoC6\pdl\drivers/peripheral/scb/cy_scb_uart.h **** * Function Name: Cy_SCB_UART_DisableCts
1068:Generated_Source\PSoC6\pdl\drivers/peripheral/scb/cy_scb_uart.h **** ****************************************************************************//**
1069:Generated_Source\PSoC6\pdl\drivers/peripheral/scb/cy_scb_uart.h **** *
1070:Generated_Source\PSoC6\pdl\drivers/peripheral/scb/cy_scb_uart.h **** * Disables the Clear to Send (CTS) input for the UART.
1071:Generated_Source\PSoC6\pdl\drivers/peripheral/scb/cy_scb_uart.h **** * See \ref Cy_SCB_UART_EnableCts for the details.
1072:Generated_Source\PSoC6\pdl\drivers/peripheral/scb/cy_scb_uart.h **** *
1073:Generated_Source\PSoC6\pdl\drivers/peripheral/scb/cy_scb_uart.h **** * \param base
1074:Generated_Source\PSoC6\pdl\drivers/peripheral/scb/cy_scb_uart.h **** * The pointer to the UART SCB instance.
1075:Generated_Source\PSoC6\pdl\drivers/peripheral/scb/cy_scb_uart.h **** *
1076:Generated_Source\PSoC6\pdl\drivers/peripheral/scb/cy_scb_uart.h **** *******************************************************************************/
1077:Generated_Source\PSoC6\pdl\drivers/peripheral/scb/cy_scb_uart.h **** __STATIC_INLINE void Cy_SCB_UART_DisableCts(CySCB_Type *base)
1078:Generated_Source\PSoC6\pdl\drivers/peripheral/scb/cy_scb_uart.h **** {
1079:Generated_Source\PSoC6\pdl\drivers/peripheral/scb/cy_scb_uart.h ****     SCB_UART_FLOW_CTRL(base) &= (uint32_t) ~SCB_UART_FLOW_CTRL_CTS_ENABLED_Msk;
1080:Generated_Source\PSoC6\pdl\drivers/peripheral/scb/cy_scb_uart.h **** }
1081:Generated_Source\PSoC6\pdl\drivers/peripheral/scb/cy_scb_uart.h **** 
1082:Generated_Source\PSoC6\pdl\drivers/peripheral/scb/cy_scb_uart.h **** 
1083:Generated_Source\PSoC6\pdl\drivers/peripheral/scb/cy_scb_uart.h **** /*******************************************************************************
1084:Generated_Source\PSoC6\pdl\drivers/peripheral/scb/cy_scb_uart.h **** * Function Name: Cy_SCB_UART_SetRtsFifoLevel
1085:Generated_Source\PSoC6\pdl\drivers/peripheral/scb/cy_scb_uart.h **** ****************************************************************************//**
1086:Generated_Source\PSoC6\pdl\drivers/peripheral/scb/cy_scb_uart.h **** *
1087:Generated_Source\PSoC6\pdl\drivers/peripheral/scb/cy_scb_uart.h **** * Sets a level for the Ready To Send (RTS) signal activation.
1088:Generated_Source\PSoC6\pdl\drivers/peripheral/scb/cy_scb_uart.h **** * When the number of data elements in the receive FIFO is below this level,
1089:Generated_Source\PSoC6\pdl\drivers/peripheral/scb/cy_scb_uart.h **** * then the RTS output is active. Otherwise, the RTS signal is inactive.
1090:Generated_Source\PSoC6\pdl\drivers/peripheral/scb/cy_scb_uart.h **** * To disable the RTS signal generation, set this level to zero.
1091:Generated_Source\PSoC6\pdl\drivers/peripheral/scb/cy_scb_uart.h **** *
1092:Generated_Source\PSoC6\pdl\drivers/peripheral/scb/cy_scb_uart.h **** * \param base
1093:Generated_Source\PSoC6\pdl\drivers/peripheral/scb/cy_scb_uart.h **** * The pointer to the UART SCB instance.
1094:Generated_Source\PSoC6\pdl\drivers/peripheral/scb/cy_scb_uart.h **** *
1095:Generated_Source\PSoC6\pdl\drivers/peripheral/scb/cy_scb_uart.h **** * \param level
1096:Generated_Source\PSoC6\pdl\drivers/peripheral/scb/cy_scb_uart.h **** * The level in the RX FIFO for RTS signal activation.
1097:Generated_Source\PSoC6\pdl\drivers/peripheral/scb/cy_scb_uart.h **** *
1098:Generated_Source\PSoC6\pdl\drivers/peripheral/scb/cy_scb_uart.h **** *******************************************************************************/
1099:Generated_Source\PSoC6\pdl\drivers/peripheral/scb/cy_scb_uart.h **** __STATIC_INLINE void Cy_SCB_UART_SetRtsFifoLevel(CySCB_Type *base, uint32_t level)
1100:Generated_Source\PSoC6\pdl\drivers/peripheral/scb/cy_scb_uart.h **** {
1101:Generated_Source\PSoC6\pdl\drivers/peripheral/scb/cy_scb_uart.h ****     CY_ASSERT_L2(CY_SCB_IS_TRIGGER_LEVEL_VALID(base, level));
1102:Generated_Source\PSoC6\pdl\drivers/peripheral/scb/cy_scb_uart.h **** 
1103:Generated_Source\PSoC6\pdl\drivers/peripheral/scb/cy_scb_uart.h ****     CY_REG32_CLR_SET(SCB_UART_FLOW_CTRL(base), SCB_UART_FLOW_CTRL_TRIGGER_LEVEL, level);
1104:Generated_Source\PSoC6\pdl\drivers/peripheral/scb/cy_scb_uart.h **** }
ARM GAS  C:\Users\15311\AppData\Local\Temp\cccFsPp9.s 			page 28


1105:Generated_Source\PSoC6\pdl\drivers/peripheral/scb/cy_scb_uart.h **** 
1106:Generated_Source\PSoC6\pdl\drivers/peripheral/scb/cy_scb_uart.h **** 
1107:Generated_Source\PSoC6\pdl\drivers/peripheral/scb/cy_scb_uart.h **** /*******************************************************************************
1108:Generated_Source\PSoC6\pdl\drivers/peripheral/scb/cy_scb_uart.h **** * Function Name: Cy_SCB_UART_GetRtsFifoLevel
1109:Generated_Source\PSoC6\pdl\drivers/peripheral/scb/cy_scb_uart.h **** ****************************************************************************//**
1110:Generated_Source\PSoC6\pdl\drivers/peripheral/scb/cy_scb_uart.h **** *
1111:Generated_Source\PSoC6\pdl\drivers/peripheral/scb/cy_scb_uart.h **** * Returns the level in the RX FIFO for the RTS signal activation.
1112:Generated_Source\PSoC6\pdl\drivers/peripheral/scb/cy_scb_uart.h **** *
1113:Generated_Source\PSoC6\pdl\drivers/peripheral/scb/cy_scb_uart.h **** * \param base
1114:Generated_Source\PSoC6\pdl\drivers/peripheral/scb/cy_scb_uart.h **** * The pointer to the UART SCB instance.
1115:Generated_Source\PSoC6\pdl\drivers/peripheral/scb/cy_scb_uart.h **** *
1116:Generated_Source\PSoC6\pdl\drivers/peripheral/scb/cy_scb_uart.h **** * \return
1117:Generated_Source\PSoC6\pdl\drivers/peripheral/scb/cy_scb_uart.h **** * The level in the RX FIFO for RTS signal activation.
1118:Generated_Source\PSoC6\pdl\drivers/peripheral/scb/cy_scb_uart.h **** *
1119:Generated_Source\PSoC6\pdl\drivers/peripheral/scb/cy_scb_uart.h **** *******************************************************************************/
1120:Generated_Source\PSoC6\pdl\drivers/peripheral/scb/cy_scb_uart.h **** __STATIC_INLINE uint32_t Cy_SCB_UART_GetRtsFifoLevel(CySCB_Type const *base)
1121:Generated_Source\PSoC6\pdl\drivers/peripheral/scb/cy_scb_uart.h **** {
1122:Generated_Source\PSoC6\pdl\drivers/peripheral/scb/cy_scb_uart.h ****     return _FLD2VAL(SCB_UART_FLOW_CTRL_TRIGGER_LEVEL, SCB_UART_FLOW_CTRL(base));
1123:Generated_Source\PSoC6\pdl\drivers/peripheral/scb/cy_scb_uart.h **** }
1124:Generated_Source\PSoC6\pdl\drivers/peripheral/scb/cy_scb_uart.h **** 
1125:Generated_Source\PSoC6\pdl\drivers/peripheral/scb/cy_scb_uart.h **** 
1126:Generated_Source\PSoC6\pdl\drivers/peripheral/scb/cy_scb_uart.h **** /*******************************************************************************
1127:Generated_Source\PSoC6\pdl\drivers/peripheral/scb/cy_scb_uart.h **** * Function Name: Cy_SCB_UART_EnableSkipStart
1128:Generated_Source\PSoC6\pdl\drivers/peripheral/scb/cy_scb_uart.h **** ****************************************************************************//**
1129:Generated_Source\PSoC6\pdl\drivers/peripheral/scb/cy_scb_uart.h **** *
1130:Generated_Source\PSoC6\pdl\drivers/peripheral/scb/cy_scb_uart.h **** * Enables the skip start-bit functionality.
1131:Generated_Source\PSoC6\pdl\drivers/peripheral/scb/cy_scb_uart.h **** * When skip start is enabled the UART hardware does not synchronize to a
1132:Generated_Source\PSoC6\pdl\drivers/peripheral/scb/cy_scb_uart.h **** * start bit but synchronizes to the first rising edge. To create a rising edge,
1133:Generated_Source\PSoC6\pdl\drivers/peripheral/scb/cy_scb_uart.h **** * the first data bit must be a 1. This feature is useful when the start bit
1134:Generated_Source\PSoC6\pdl\drivers/peripheral/scb/cy_scb_uart.h **** * falling edge is used to wake the device through a GPIO interrupt.
1135:Generated_Source\PSoC6\pdl\drivers/peripheral/scb/cy_scb_uart.h **** *
1136:Generated_Source\PSoC6\pdl\drivers/peripheral/scb/cy_scb_uart.h **** * \param base
1137:Generated_Source\PSoC6\pdl\drivers/peripheral/scb/cy_scb_uart.h **** * The pointer to the UART SCB instance.
1138:Generated_Source\PSoC6\pdl\drivers/peripheral/scb/cy_scb_uart.h **** *
1139:Generated_Source\PSoC6\pdl\drivers/peripheral/scb/cy_scb_uart.h **** * \note
1140:Generated_Source\PSoC6\pdl\drivers/peripheral/scb/cy_scb_uart.h **** * When skip start-bit feature is enabled, it is applied (UART synchronizes
1141:Generated_Source\PSoC6\pdl\drivers/peripheral/scb/cy_scb_uart.h **** * to the first rising edge after start bit) whenever the SCB is enabled.
1142:Generated_Source\PSoC6\pdl\drivers/peripheral/scb/cy_scb_uart.h **** * This can cause incorrect UART synchronization and data reception when
1143:Generated_Source\PSoC6\pdl\drivers/peripheral/scb/cy_scb_uart.h **** * the first data bit is not a 1. Therefore, disable the skip start-bit
1144:Generated_Source\PSoC6\pdl\drivers/peripheral/scb/cy_scb_uart.h **** * when it should not be applied.
1145:Generated_Source\PSoC6\pdl\drivers/peripheral/scb/cy_scb_uart.h **** * Note that SCB is disabled before enter Deep Sleep mode or after calling
1146:Generated_Source\PSoC6\pdl\drivers/peripheral/scb/cy_scb_uart.h **** * \ref Cy_SCB_UART_Disable.
1147:Generated_Source\PSoC6\pdl\drivers/peripheral/scb/cy_scb_uart.h **** *
1148:Generated_Source\PSoC6\pdl\drivers/peripheral/scb/cy_scb_uart.h **** *******************************************************************************/
1149:Generated_Source\PSoC6\pdl\drivers/peripheral/scb/cy_scb_uart.h **** __STATIC_INLINE void Cy_SCB_UART_EnableSkipStart(CySCB_Type *base)
1150:Generated_Source\PSoC6\pdl\drivers/peripheral/scb/cy_scb_uart.h **** {
1151:Generated_Source\PSoC6\pdl\drivers/peripheral/scb/cy_scb_uart.h ****     SCB_UART_RX_CTRL(base) |= SCB_UART_RX_CTRL_SKIP_START_Msk;
1152:Generated_Source\PSoC6\pdl\drivers/peripheral/scb/cy_scb_uart.h **** }
1153:Generated_Source\PSoC6\pdl\drivers/peripheral/scb/cy_scb_uart.h **** 
1154:Generated_Source\PSoC6\pdl\drivers/peripheral/scb/cy_scb_uart.h **** 
1155:Generated_Source\PSoC6\pdl\drivers/peripheral/scb/cy_scb_uart.h **** /*******************************************************************************
1156:Generated_Source\PSoC6\pdl\drivers/peripheral/scb/cy_scb_uart.h **** * Function Name: Cy_SCB_UART_DisableSkipStart
1157:Generated_Source\PSoC6\pdl\drivers/peripheral/scb/cy_scb_uart.h **** ****************************************************************************//**
1158:Generated_Source\PSoC6\pdl\drivers/peripheral/scb/cy_scb_uart.h **** *
1159:Generated_Source\PSoC6\pdl\drivers/peripheral/scb/cy_scb_uart.h **** * Disable the skip start-bit functionality.
1160:Generated_Source\PSoC6\pdl\drivers/peripheral/scb/cy_scb_uart.h **** * See \ref Cy_SCB_UART_EnableSkipStart for the details.
1161:Generated_Source\PSoC6\pdl\drivers/peripheral/scb/cy_scb_uart.h **** *
ARM GAS  C:\Users\15311\AppData\Local\Temp\cccFsPp9.s 			page 29


1162:Generated_Source\PSoC6\pdl\drivers/peripheral/scb/cy_scb_uart.h **** * \param base
1163:Generated_Source\PSoC6\pdl\drivers/peripheral/scb/cy_scb_uart.h **** * The pointer to the UART SCB instance.
1164:Generated_Source\PSoC6\pdl\drivers/peripheral/scb/cy_scb_uart.h **** *
1165:Generated_Source\PSoC6\pdl\drivers/peripheral/scb/cy_scb_uart.h **** *******************************************************************************/
1166:Generated_Source\PSoC6\pdl\drivers/peripheral/scb/cy_scb_uart.h **** __STATIC_INLINE void Cy_SCB_UART_DisableSkipStart(CySCB_Type *base)
1167:Generated_Source\PSoC6\pdl\drivers/peripheral/scb/cy_scb_uart.h **** {
1168:Generated_Source\PSoC6\pdl\drivers/peripheral/scb/cy_scb_uart.h ****     SCB_UART_RX_CTRL(base) &= (uint32_t) ~SCB_UART_RX_CTRL_SKIP_START_Msk;
1169:Generated_Source\PSoC6\pdl\drivers/peripheral/scb/cy_scb_uart.h **** }
1170:Generated_Source\PSoC6\pdl\drivers/peripheral/scb/cy_scb_uart.h **** /** \} group_scb_uart_general_functions */
1171:Generated_Source\PSoC6\pdl\drivers/peripheral/scb/cy_scb_uart.h **** 
1172:Generated_Source\PSoC6\pdl\drivers/peripheral/scb/cy_scb_uart.h **** 
1173:Generated_Source\PSoC6\pdl\drivers/peripheral/scb/cy_scb_uart.h **** /**
1174:Generated_Source\PSoC6\pdl\drivers/peripheral/scb/cy_scb_uart.h **** * \addtogroup group_scb_uart_low_level_functions
1175:Generated_Source\PSoC6\pdl\drivers/peripheral/scb/cy_scb_uart.h **** * \{
1176:Generated_Source\PSoC6\pdl\drivers/peripheral/scb/cy_scb_uart.h **** */
1177:Generated_Source\PSoC6\pdl\drivers/peripheral/scb/cy_scb_uart.h **** /*******************************************************************************
1178:Generated_Source\PSoC6\pdl\drivers/peripheral/scb/cy_scb_uart.h **** * Function Name: Cy_SCB_UART_Get
1179:Generated_Source\PSoC6\pdl\drivers/peripheral/scb/cy_scb_uart.h **** ****************************************************************************//**
1180:Generated_Source\PSoC6\pdl\drivers/peripheral/scb/cy_scb_uart.h **** *
1181:Generated_Source\PSoC6\pdl\drivers/peripheral/scb/cy_scb_uart.h **** * Reads a single data element from the UART RX FIFO.
1182:Generated_Source\PSoC6\pdl\drivers/peripheral/scb/cy_scb_uart.h **** * This function does not check whether the RX FIFO has data before reading it.
1183:Generated_Source\PSoC6\pdl\drivers/peripheral/scb/cy_scb_uart.h **** * If the RX FIFO is empty, the function returns \ref CY_SCB_UART_RX_NO_DATA.
1184:Generated_Source\PSoC6\pdl\drivers/peripheral/scb/cy_scb_uart.h **** *
1185:Generated_Source\PSoC6\pdl\drivers/peripheral/scb/cy_scb_uart.h **** * \param base
1186:Generated_Source\PSoC6\pdl\drivers/peripheral/scb/cy_scb_uart.h **** * The pointer to the UART SCB instance.
1187:Generated_Source\PSoC6\pdl\drivers/peripheral/scb/cy_scb_uart.h **** *
1188:Generated_Source\PSoC6\pdl\drivers/peripheral/scb/cy_scb_uart.h **** * \return
1189:Generated_Source\PSoC6\pdl\drivers/peripheral/scb/cy_scb_uart.h **** * Data from the RX FIFO.
1190:Generated_Source\PSoC6\pdl\drivers/peripheral/scb/cy_scb_uart.h **** * The data element size is defined by the configured data width.
1191:Generated_Source\PSoC6\pdl\drivers/peripheral/scb/cy_scb_uart.h **** *
1192:Generated_Source\PSoC6\pdl\drivers/peripheral/scb/cy_scb_uart.h **** *******************************************************************************/
1193:Generated_Source\PSoC6\pdl\drivers/peripheral/scb/cy_scb_uart.h **** __STATIC_INLINE uint32_t Cy_SCB_UART_Get(CySCB_Type const *base)
1194:Generated_Source\PSoC6\pdl\drivers/peripheral/scb/cy_scb_uart.h **** {
1195:Generated_Source\PSoC6\pdl\drivers/peripheral/scb/cy_scb_uart.h ****     return Cy_SCB_ReadRxFifo(base);
1196:Generated_Source\PSoC6\pdl\drivers/peripheral/scb/cy_scb_uart.h **** }
1197:Generated_Source\PSoC6\pdl\drivers/peripheral/scb/cy_scb_uart.h **** 
1198:Generated_Source\PSoC6\pdl\drivers/peripheral/scb/cy_scb_uart.h **** 
1199:Generated_Source\PSoC6\pdl\drivers/peripheral/scb/cy_scb_uart.h **** /*******************************************************************************
1200:Generated_Source\PSoC6\pdl\drivers/peripheral/scb/cy_scb_uart.h **** * Function Name: Cy_SCB_UART_GetArray
1201:Generated_Source\PSoC6\pdl\drivers/peripheral/scb/cy_scb_uart.h **** ****************************************************************************//**
1202:Generated_Source\PSoC6\pdl\drivers/peripheral/scb/cy_scb_uart.h **** *
1203:Generated_Source\PSoC6\pdl\drivers/peripheral/scb/cy_scb_uart.h **** * Reads an array of data out of the UART RX FIFO.
1204:Generated_Source\PSoC6\pdl\drivers/peripheral/scb/cy_scb_uart.h **** * This function does not block. It returns how many data elements were read
1205:Generated_Source\PSoC6\pdl\drivers/peripheral/scb/cy_scb_uart.h **** * from the RX FIFO.
1206:Generated_Source\PSoC6\pdl\drivers/peripheral/scb/cy_scb_uart.h **** *
1207:Generated_Source\PSoC6\pdl\drivers/peripheral/scb/cy_scb_uart.h **** * \param base
1208:Generated_Source\PSoC6\pdl\drivers/peripheral/scb/cy_scb_uart.h **** * The pointer to the UART SCB instance.
1209:Generated_Source\PSoC6\pdl\drivers/peripheral/scb/cy_scb_uart.h **** *
1210:Generated_Source\PSoC6\pdl\drivers/peripheral/scb/cy_scb_uart.h **** * \param buffer
1211:Generated_Source\PSoC6\pdl\drivers/peripheral/scb/cy_scb_uart.h **** * The pointer to the location to place the data read from the RX FIFO.
1212:Generated_Source\PSoC6\pdl\drivers/peripheral/scb/cy_scb_uart.h **** * The element size is defined by the data type, which depends on the configured
1213:Generated_Source\PSoC6\pdl\drivers/peripheral/scb/cy_scb_uart.h **** * data width.
1214:Generated_Source\PSoC6\pdl\drivers/peripheral/scb/cy_scb_uart.h **** *
1215:Generated_Source\PSoC6\pdl\drivers/peripheral/scb/cy_scb_uart.h **** * \param size
1216:Generated_Source\PSoC6\pdl\drivers/peripheral/scb/cy_scb_uart.h **** * The number of data elements to read from the RX FIFO.
1217:Generated_Source\PSoC6\pdl\drivers/peripheral/scb/cy_scb_uart.h **** *
1218:Generated_Source\PSoC6\pdl\drivers/peripheral/scb/cy_scb_uart.h **** * \return
ARM GAS  C:\Users\15311\AppData\Local\Temp\cccFsPp9.s 			page 30


1219:Generated_Source\PSoC6\pdl\drivers/peripheral/scb/cy_scb_uart.h **** * The number of data elements read from the RX FIFO.
1220:Generated_Source\PSoC6\pdl\drivers/peripheral/scb/cy_scb_uart.h **** *
1221:Generated_Source\PSoC6\pdl\drivers/peripheral/scb/cy_scb_uart.h **** *******************************************************************************/
1222:Generated_Source\PSoC6\pdl\drivers/peripheral/scb/cy_scb_uart.h **** __STATIC_INLINE uint32_t Cy_SCB_UART_GetArray(CySCB_Type const *base, void *buffer, uint32_t size)
1223:Generated_Source\PSoC6\pdl\drivers/peripheral/scb/cy_scb_uart.h **** {
1224:Generated_Source\PSoC6\pdl\drivers/peripheral/scb/cy_scb_uart.h ****     CY_ASSERT_L1(CY_SCB_IS_BUFFER_VALID(buffer, size));
1225:Generated_Source\PSoC6\pdl\drivers/peripheral/scb/cy_scb_uart.h **** 
1226:Generated_Source\PSoC6\pdl\drivers/peripheral/scb/cy_scb_uart.h ****     return Cy_SCB_ReadArray(base, buffer, size);
1227:Generated_Source\PSoC6\pdl\drivers/peripheral/scb/cy_scb_uart.h **** }
1228:Generated_Source\PSoC6\pdl\drivers/peripheral/scb/cy_scb_uart.h **** 
1229:Generated_Source\PSoC6\pdl\drivers/peripheral/scb/cy_scb_uart.h **** 
1230:Generated_Source\PSoC6\pdl\drivers/peripheral/scb/cy_scb_uart.h **** /*******************************************************************************
1231:Generated_Source\PSoC6\pdl\drivers/peripheral/scb/cy_scb_uart.h **** * Function Name: Cy_SCB_UART_GetArrayBlocking
1232:Generated_Source\PSoC6\pdl\drivers/peripheral/scb/cy_scb_uart.h **** ****************************************************************************//**
1233:Generated_Source\PSoC6\pdl\drivers/peripheral/scb/cy_scb_uart.h **** *
1234:Generated_Source\PSoC6\pdl\drivers/peripheral/scb/cy_scb_uart.h **** * Reads an array of data out of the UART RX FIFO.
1235:Generated_Source\PSoC6\pdl\drivers/peripheral/scb/cy_scb_uart.h **** * This function blocks until the number of data elements specified by the
1236:Generated_Source\PSoC6\pdl\drivers/peripheral/scb/cy_scb_uart.h **** * size has been read from the RX FIFO.
1237:Generated_Source\PSoC6\pdl\drivers/peripheral/scb/cy_scb_uart.h **** *
1238:Generated_Source\PSoC6\pdl\drivers/peripheral/scb/cy_scb_uart.h **** * \param base
1239:Generated_Source\PSoC6\pdl\drivers/peripheral/scb/cy_scb_uart.h **** * The pointer to the UART SCB instance.
1240:Generated_Source\PSoC6\pdl\drivers/peripheral/scb/cy_scb_uart.h **** *
1241:Generated_Source\PSoC6\pdl\drivers/peripheral/scb/cy_scb_uart.h **** * \param buffer
1242:Generated_Source\PSoC6\pdl\drivers/peripheral/scb/cy_scb_uart.h **** * The pointer to the location to place the data read from the RX FIFO.
1243:Generated_Source\PSoC6\pdl\drivers/peripheral/scb/cy_scb_uart.h **** * The element size is defined by the data type, which depends on the configured
1244:Generated_Source\PSoC6\pdl\drivers/peripheral/scb/cy_scb_uart.h **** * data width.
1245:Generated_Source\PSoC6\pdl\drivers/peripheral/scb/cy_scb_uart.h **** *
1246:Generated_Source\PSoC6\pdl\drivers/peripheral/scb/cy_scb_uart.h **** * \param size
1247:Generated_Source\PSoC6\pdl\drivers/peripheral/scb/cy_scb_uart.h **** * The number of data elements to read from the RX FIFO.
1248:Generated_Source\PSoC6\pdl\drivers/peripheral/scb/cy_scb_uart.h **** *
1249:Generated_Source\PSoC6\pdl\drivers/peripheral/scb/cy_scb_uart.h **** *******************************************************************************/
1250:Generated_Source\PSoC6\pdl\drivers/peripheral/scb/cy_scb_uart.h **** __STATIC_INLINE void Cy_SCB_UART_GetArrayBlocking(CySCB_Type const *base, void *buffer, uint32_t si
1251:Generated_Source\PSoC6\pdl\drivers/peripheral/scb/cy_scb_uart.h **** {
1252:Generated_Source\PSoC6\pdl\drivers/peripheral/scb/cy_scb_uart.h ****     CY_ASSERT_L1(CY_SCB_IS_BUFFER_VALID(buffer, size));
1253:Generated_Source\PSoC6\pdl\drivers/peripheral/scb/cy_scb_uart.h **** 
1254:Generated_Source\PSoC6\pdl\drivers/peripheral/scb/cy_scb_uart.h ****     Cy_SCB_ReadArrayBlocking(base, buffer, size);
1255:Generated_Source\PSoC6\pdl\drivers/peripheral/scb/cy_scb_uart.h **** }
1256:Generated_Source\PSoC6\pdl\drivers/peripheral/scb/cy_scb_uart.h **** 
1257:Generated_Source\PSoC6\pdl\drivers/peripheral/scb/cy_scb_uart.h **** 
1258:Generated_Source\PSoC6\pdl\drivers/peripheral/scb/cy_scb_uart.h **** /*******************************************************************************
1259:Generated_Source\PSoC6\pdl\drivers/peripheral/scb/cy_scb_uart.h **** * Function Name: Cy_SCB_UART_GetRxFifoStatus
1260:Generated_Source\PSoC6\pdl\drivers/peripheral/scb/cy_scb_uart.h **** ****************************************************************************//**
1261:Generated_Source\PSoC6\pdl\drivers/peripheral/scb/cy_scb_uart.h **** *
1262:Generated_Source\PSoC6\pdl\drivers/peripheral/scb/cy_scb_uart.h **** * Returns the current status of the RX FIFO.
1263:Generated_Source\PSoC6\pdl\drivers/peripheral/scb/cy_scb_uart.h **** *
1264:Generated_Source\PSoC6\pdl\drivers/peripheral/scb/cy_scb_uart.h **** * \param base
1265:Generated_Source\PSoC6\pdl\drivers/peripheral/scb/cy_scb_uart.h **** * The pointer to the UART SCB instance.
1266:Generated_Source\PSoC6\pdl\drivers/peripheral/scb/cy_scb_uart.h **** *
1267:Generated_Source\PSoC6\pdl\drivers/peripheral/scb/cy_scb_uart.h **** * \return
1268:Generated_Source\PSoC6\pdl\drivers/peripheral/scb/cy_scb_uart.h **** * \ref group_scb_uart_macros_rx_fifo_status
1269:Generated_Source\PSoC6\pdl\drivers/peripheral/scb/cy_scb_uart.h **** *
1270:Generated_Source\PSoC6\pdl\drivers/peripheral/scb/cy_scb_uart.h **** *******************************************************************************/
1271:Generated_Source\PSoC6\pdl\drivers/peripheral/scb/cy_scb_uart.h **** __STATIC_INLINE uint32_t Cy_SCB_UART_GetRxFifoStatus(CySCB_Type const *base)
1272:Generated_Source\PSoC6\pdl\drivers/peripheral/scb/cy_scb_uart.h **** {
1273:Generated_Source\PSoC6\pdl\drivers/peripheral/scb/cy_scb_uart.h ****     return (Cy_SCB_GetRxInterruptStatus(base) & CY_SCB_UART_RX_INTR_MASK);
1274:Generated_Source\PSoC6\pdl\drivers/peripheral/scb/cy_scb_uart.h **** }
1275:Generated_Source\PSoC6\pdl\drivers/peripheral/scb/cy_scb_uart.h **** 
ARM GAS  C:\Users\15311\AppData\Local\Temp\cccFsPp9.s 			page 31


1276:Generated_Source\PSoC6\pdl\drivers/peripheral/scb/cy_scb_uart.h **** 
1277:Generated_Source\PSoC6\pdl\drivers/peripheral/scb/cy_scb_uart.h **** /*******************************************************************************
1278:Generated_Source\PSoC6\pdl\drivers/peripheral/scb/cy_scb_uart.h **** * Function Name: Cy_SCB_UART_ClearRxFifoStatus
1279:Generated_Source\PSoC6\pdl\drivers/peripheral/scb/cy_scb_uart.h **** ****************************************************************************//**
1280:Generated_Source\PSoC6\pdl\drivers/peripheral/scb/cy_scb_uart.h **** *
1281:Generated_Source\PSoC6\pdl\drivers/peripheral/scb/cy_scb_uart.h **** * Clears the selected statuses of the RX FIFO.
1282:Generated_Source\PSoC6\pdl\drivers/peripheral/scb/cy_scb_uart.h **** *
1283:Generated_Source\PSoC6\pdl\drivers/peripheral/scb/cy_scb_uart.h **** * \param base
1284:Generated_Source\PSoC6\pdl\drivers/peripheral/scb/cy_scb_uart.h **** * The pointer to the UART SCB instance.
1285:Generated_Source\PSoC6\pdl\drivers/peripheral/scb/cy_scb_uart.h **** *
1286:Generated_Source\PSoC6\pdl\drivers/peripheral/scb/cy_scb_uart.h **** * \param clearMask
1287:Generated_Source\PSoC6\pdl\drivers/peripheral/scb/cy_scb_uart.h **** * The mask whose statuses to clear.
1288:Generated_Source\PSoC6\pdl\drivers/peripheral/scb/cy_scb_uart.h **** * See \ref group_scb_uart_macros_rx_fifo_status for the set of constants.
1289:Generated_Source\PSoC6\pdl\drivers/peripheral/scb/cy_scb_uart.h **** *
1290:Generated_Source\PSoC6\pdl\drivers/peripheral/scb/cy_scb_uart.h **** * \note
1291:Generated_Source\PSoC6\pdl\drivers/peripheral/scb/cy_scb_uart.h **** * * This status is also used for interrupt generation, so clearing it also
1292:Generated_Source\PSoC6\pdl\drivers/peripheral/scb/cy_scb_uart.h **** *   clears the interrupt sources.
1293:Generated_Source\PSoC6\pdl\drivers/peripheral/scb/cy_scb_uart.h **** * * Level-sensitive statuses such as \ref CY_SCB_UART_RX_TRIGGER,
1294:Generated_Source\PSoC6\pdl\drivers/peripheral/scb/cy_scb_uart.h **** *   \ref CY_SCB_UART_RX_NOT_EMPTY and \ref CY_SCB_UART_RX_FULL are set high again after
1295:Generated_Source\PSoC6\pdl\drivers/peripheral/scb/cy_scb_uart.h **** *   being cleared if the condition remains true.
1296:Generated_Source\PSoC6\pdl\drivers/peripheral/scb/cy_scb_uart.h **** *
1297:Generated_Source\PSoC6\pdl\drivers/peripheral/scb/cy_scb_uart.h **** *******************************************************************************/
1298:Generated_Source\PSoC6\pdl\drivers/peripheral/scb/cy_scb_uart.h **** __STATIC_INLINE void Cy_SCB_UART_ClearRxFifoStatus(CySCB_Type *base, uint32_t clearMask)
1299:Generated_Source\PSoC6\pdl\drivers/peripheral/scb/cy_scb_uart.h **** {
1300:Generated_Source\PSoC6\pdl\drivers/peripheral/scb/cy_scb_uart.h ****     CY_ASSERT_L2(CY_SCB_IS_INTR_VALID(clearMask, CY_SCB_UART_RX_INTR_MASK));
1301:Generated_Source\PSoC6\pdl\drivers/peripheral/scb/cy_scb_uart.h **** 
1302:Generated_Source\PSoC6\pdl\drivers/peripheral/scb/cy_scb_uart.h ****     Cy_SCB_ClearRxInterrupt(base, clearMask);
1303:Generated_Source\PSoC6\pdl\drivers/peripheral/scb/cy_scb_uart.h **** }
1304:Generated_Source\PSoC6\pdl\drivers/peripheral/scb/cy_scb_uart.h **** 
1305:Generated_Source\PSoC6\pdl\drivers/peripheral/scb/cy_scb_uart.h **** 
1306:Generated_Source\PSoC6\pdl\drivers/peripheral/scb/cy_scb_uart.h **** /*******************************************************************************
1307:Generated_Source\PSoC6\pdl\drivers/peripheral/scb/cy_scb_uart.h **** * Function Name: Cy_SCB_UART_GetNumInRxFifo
1308:Generated_Source\PSoC6\pdl\drivers/peripheral/scb/cy_scb_uart.h **** ****************************************************************************//**
1309:Generated_Source\PSoC6\pdl\drivers/peripheral/scb/cy_scb_uart.h **** *
1310:Generated_Source\PSoC6\pdl\drivers/peripheral/scb/cy_scb_uart.h **** * Returns the number of data elements in the UART RX FIFO.
1311:Generated_Source\PSoC6\pdl\drivers/peripheral/scb/cy_scb_uart.h **** *
1312:Generated_Source\PSoC6\pdl\drivers/peripheral/scb/cy_scb_uart.h **** * \param base
1313:Generated_Source\PSoC6\pdl\drivers/peripheral/scb/cy_scb_uart.h **** * The pointer to the UART SCB instance.
1314:Generated_Source\PSoC6\pdl\drivers/peripheral/scb/cy_scb_uart.h **** *
1315:Generated_Source\PSoC6\pdl\drivers/peripheral/scb/cy_scb_uart.h **** * \return
1316:Generated_Source\PSoC6\pdl\drivers/peripheral/scb/cy_scb_uart.h **** * The number of data elements in the RX FIFO.
1317:Generated_Source\PSoC6\pdl\drivers/peripheral/scb/cy_scb_uart.h **** * The size of date element defined by the configured data width.
1318:Generated_Source\PSoC6\pdl\drivers/peripheral/scb/cy_scb_uart.h **** *
1319:Generated_Source\PSoC6\pdl\drivers/peripheral/scb/cy_scb_uart.h **** *******************************************************************************/
1320:Generated_Source\PSoC6\pdl\drivers/peripheral/scb/cy_scb_uart.h **** __STATIC_INLINE uint32_t Cy_SCB_UART_GetNumInRxFifo(CySCB_Type const *base)
1321:Generated_Source\PSoC6\pdl\drivers/peripheral/scb/cy_scb_uart.h **** {
1322:Generated_Source\PSoC6\pdl\drivers/peripheral/scb/cy_scb_uart.h ****     return Cy_SCB_GetNumInRxFifo(base);
1323:Generated_Source\PSoC6\pdl\drivers/peripheral/scb/cy_scb_uart.h **** }
1324:Generated_Source\PSoC6\pdl\drivers/peripheral/scb/cy_scb_uart.h **** 
1325:Generated_Source\PSoC6\pdl\drivers/peripheral/scb/cy_scb_uart.h **** /*******************************************************************************
1326:Generated_Source\PSoC6\pdl\drivers/peripheral/scb/cy_scb_uart.h **** * Function Name: Cy_SCB_UART_ClearRxFifo
1327:Generated_Source\PSoC6\pdl\drivers/peripheral/scb/cy_scb_uart.h **** ****************************************************************************//**
1328:Generated_Source\PSoC6\pdl\drivers/peripheral/scb/cy_scb_uart.h **** *
1329:Generated_Source\PSoC6\pdl\drivers/peripheral/scb/cy_scb_uart.h **** * Clears all data out of the UART RX FIFO.
1330:Generated_Source\PSoC6\pdl\drivers/peripheral/scb/cy_scb_uart.h **** *
1331:Generated_Source\PSoC6\pdl\drivers/peripheral/scb/cy_scb_uart.h **** * \param base
1332:Generated_Source\PSoC6\pdl\drivers/peripheral/scb/cy_scb_uart.h **** * The pointer to the UART SCB instance.
ARM GAS  C:\Users\15311\AppData\Local\Temp\cccFsPp9.s 			page 32


1333:Generated_Source\PSoC6\pdl\drivers/peripheral/scb/cy_scb_uart.h **** *
1334:Generated_Source\PSoC6\pdl\drivers/peripheral/scb/cy_scb_uart.h **** * \sideeffect
1335:Generated_Source\PSoC6\pdl\drivers/peripheral/scb/cy_scb_uart.h **** * Any data currently in the shifter is cleared and lost.
1336:Generated_Source\PSoC6\pdl\drivers/peripheral/scb/cy_scb_uart.h **** *
1337:Generated_Source\PSoC6\pdl\drivers/peripheral/scb/cy_scb_uart.h **** *******************************************************************************/
1338:Generated_Source\PSoC6\pdl\drivers/peripheral/scb/cy_scb_uart.h **** __STATIC_INLINE void Cy_SCB_UART_ClearRxFifo(CySCB_Type *base)
1339:Generated_Source\PSoC6\pdl\drivers/peripheral/scb/cy_scb_uart.h **** {
1340:Generated_Source\PSoC6\pdl\drivers/peripheral/scb/cy_scb_uart.h ****     Cy_SCB_ClearRxFifo(base);
1341:Generated_Source\PSoC6\pdl\drivers/peripheral/scb/cy_scb_uart.h **** }
1342:Generated_Source\PSoC6\pdl\drivers/peripheral/scb/cy_scb_uart.h **** 
1343:Generated_Source\PSoC6\pdl\drivers/peripheral/scb/cy_scb_uart.h **** 
1344:Generated_Source\PSoC6\pdl\drivers/peripheral/scb/cy_scb_uart.h **** /*******************************************************************************
1345:Generated_Source\PSoC6\pdl\drivers/peripheral/scb/cy_scb_uart.h **** * Function Name: Cy_SCB_UART_Put
1346:Generated_Source\PSoC6\pdl\drivers/peripheral/scb/cy_scb_uart.h **** ****************************************************************************//**
1347:Generated_Source\PSoC6\pdl\drivers/peripheral/scb/cy_scb_uart.h **** *
1348:Generated_Source\PSoC6\pdl\drivers/peripheral/scb/cy_scb_uart.h **** * Places a single data element in the UART TX FIFO.
1349:Generated_Source\PSoC6\pdl\drivers/peripheral/scb/cy_scb_uart.h **** * This function does not block and returns how many data elements were placed
1350:Generated_Source\PSoC6\pdl\drivers/peripheral/scb/cy_scb_uart.h **** * in the TX FIFO.
1351:Generated_Source\PSoC6\pdl\drivers/peripheral/scb/cy_scb_uart.h **** *
1352:Generated_Source\PSoC6\pdl\drivers/peripheral/scb/cy_scb_uart.h **** * \param base
1353:Generated_Source\PSoC6\pdl\drivers/peripheral/scb/cy_scb_uart.h **** * The pointer to the UART SCB instance.
1354:Generated_Source\PSoC6\pdl\drivers/peripheral/scb/cy_scb_uart.h **** *
1355:Generated_Source\PSoC6\pdl\drivers/peripheral/scb/cy_scb_uart.h **** * \param data
1356:Generated_Source\PSoC6\pdl\drivers/peripheral/scb/cy_scb_uart.h **** * Data to put in the TX FIFO.
1357:Generated_Source\PSoC6\pdl\drivers/peripheral/scb/cy_scb_uart.h **** * The element size is defined by the data type, which depends on the configured
1358:Generated_Source\PSoC6\pdl\drivers/peripheral/scb/cy_scb_uart.h **** * data width.
1359:Generated_Source\PSoC6\pdl\drivers/peripheral/scb/cy_scb_uart.h **** *
1360:Generated_Source\PSoC6\pdl\drivers/peripheral/scb/cy_scb_uart.h **** * \return
1361:Generated_Source\PSoC6\pdl\drivers/peripheral/scb/cy_scb_uart.h **** * The number of data elements placed in the TX FIFO: 0 or 1.
1362:Generated_Source\PSoC6\pdl\drivers/peripheral/scb/cy_scb_uart.h **** *
1363:Generated_Source\PSoC6\pdl\drivers/peripheral/scb/cy_scb_uart.h **** *******************************************************************************/
1364:Generated_Source\PSoC6\pdl\drivers/peripheral/scb/cy_scb_uart.h **** __STATIC_INLINE uint32_t Cy_SCB_UART_Put(CySCB_Type *base, uint32_t data)
1365:Generated_Source\PSoC6\pdl\drivers/peripheral/scb/cy_scb_uart.h **** {
1366:Generated_Source\PSoC6\pdl\drivers/peripheral/scb/cy_scb_uart.h ****     return Cy_SCB_Write(base, data);
1367:Generated_Source\PSoC6\pdl\drivers/peripheral/scb/cy_scb_uart.h **** }
1368:Generated_Source\PSoC6\pdl\drivers/peripheral/scb/cy_scb_uart.h **** 
1369:Generated_Source\PSoC6\pdl\drivers/peripheral/scb/cy_scb_uart.h **** 
1370:Generated_Source\PSoC6\pdl\drivers/peripheral/scb/cy_scb_uart.h **** /*******************************************************************************
1371:Generated_Source\PSoC6\pdl\drivers/peripheral/scb/cy_scb_uart.h **** * Function Name: Cy_SCB_UART_PutArray
1372:Generated_Source\PSoC6\pdl\drivers/peripheral/scb/cy_scb_uart.h **** ****************************************************************************//**
1373:Generated_Source\PSoC6\pdl\drivers/peripheral/scb/cy_scb_uart.h **** *
1374:Generated_Source\PSoC6\pdl\drivers/peripheral/scb/cy_scb_uart.h **** * Places an array of data in the UART TX FIFO.
1375:Generated_Source\PSoC6\pdl\drivers/peripheral/scb/cy_scb_uart.h **** * This function does not block. It returns how many data elements were
1376:Generated_Source\PSoC6\pdl\drivers/peripheral/scb/cy_scb_uart.h **** * placed in the TX FIFO.
1377:Generated_Source\PSoC6\pdl\drivers/peripheral/scb/cy_scb_uart.h **** *
1378:Generated_Source\PSoC6\pdl\drivers/peripheral/scb/cy_scb_uart.h **** * \param base
1379:Generated_Source\PSoC6\pdl\drivers/peripheral/scb/cy_scb_uart.h **** * The pointer to the UART SCB instance.
1380:Generated_Source\PSoC6\pdl\drivers/peripheral/scb/cy_scb_uart.h **** *
1381:Generated_Source\PSoC6\pdl\drivers/peripheral/scb/cy_scb_uart.h **** * \param buffer
1382:Generated_Source\PSoC6\pdl\drivers/peripheral/scb/cy_scb_uart.h **** * The pointer to data to place in the TX FIFO.
1383:Generated_Source\PSoC6\pdl\drivers/peripheral/scb/cy_scb_uart.h **** * The element size is defined by the data type, which depends on the configured
1384:Generated_Source\PSoC6\pdl\drivers/peripheral/scb/cy_scb_uart.h **** * TX data width.
1385:Generated_Source\PSoC6\pdl\drivers/peripheral/scb/cy_scb_uart.h **** *
1386:Generated_Source\PSoC6\pdl\drivers/peripheral/scb/cy_scb_uart.h **** * \param size
1387:Generated_Source\PSoC6\pdl\drivers/peripheral/scb/cy_scb_uart.h **** * The number of data elements to TX.
1388:Generated_Source\PSoC6\pdl\drivers/peripheral/scb/cy_scb_uart.h **** *
1389:Generated_Source\PSoC6\pdl\drivers/peripheral/scb/cy_scb_uart.h **** * \return
ARM GAS  C:\Users\15311\AppData\Local\Temp\cccFsPp9.s 			page 33


1390:Generated_Source\PSoC6\pdl\drivers/peripheral/scb/cy_scb_uart.h **** * The number of data elements placed in the TX FIFO.
1391:Generated_Source\PSoC6\pdl\drivers/peripheral/scb/cy_scb_uart.h **** *
1392:Generated_Source\PSoC6\pdl\drivers/peripheral/scb/cy_scb_uart.h **** *******************************************************************************/
1393:Generated_Source\PSoC6\pdl\drivers/peripheral/scb/cy_scb_uart.h **** __STATIC_INLINE uint32_t Cy_SCB_UART_PutArray(CySCB_Type *base, void *buffer, uint32_t size)
1394:Generated_Source\PSoC6\pdl\drivers/peripheral/scb/cy_scb_uart.h **** {
1395:Generated_Source\PSoC6\pdl\drivers/peripheral/scb/cy_scb_uart.h ****     CY_ASSERT_L1(CY_SCB_IS_BUFFER_VALID(buffer, size));
 215              		.loc 3 1395 0
 216 0032 25B9     		cbnz	r5, .L16
 217 0034 40F27351 		movw	r1, #1395
 218 0038 0448     		ldr	r0, .L18
 219 003a FFF7FEFF 		bl	Cy_SysLib_AssertFailed
 220              	.LVL25:
 221              	.L16:
1396:Generated_Source\PSoC6\pdl\drivers/peripheral/scb/cy_scb_uart.h **** 
1397:Generated_Source\PSoC6\pdl\drivers/peripheral/scb/cy_scb_uart.h ****     return Cy_SCB_WriteArray(base, buffer, size);
 222              		.loc 3 1397 0
 223 003e 2A46     		mov	r2, r5
 224 0040 2146     		mov	r1, r4
 225 0042 0348     		ldr	r0, .L18+4
 226 0044 FFF7FEFF 		bl	Cy_SCB_WriteArray
 227              	.LVL26:
 228              	.LBE12:
 229              	.LBE11:
  86:main_cm4.c    ****     Cy_SCB_UART_PutArray(UART_HW, packet, 2 + length + 1);
  87:main_cm4.c    **** }
 230              		.loc 1 87 0
 231 0048 BD46     		mov	sp, r7
 232              		.cfi_def_cfa_register 13
 233              		@ sp needed
 234 004a F8BD     		pop	{r3, r4, r5, r6, r7, pc}
 235              	.LVL27:
 236              	.L19:
 237              		.align	2
 238              	.L18:
 239 004c 0C000000 		.word	.LC1
 240 0050 00006640 		.word	1080426496
 241              		.cfi_endproc
 242              	.LFE487:
 243              		.size	wrap_data, .-wrap_data
 244              		.section	.text.send_data,"ax",%progbits
 245              		.align	2
 246              		.global	send_data
 247              		.thumb
 248              		.thumb_func
 249              		.type	send_data, %function
 250              	send_data:
 251              	.LFB488:
  88:main_cm4.c    **** 
  89:main_cm4.c    **** /*  send data 
  90:main_cm4.c    ****     adc_channel goes from 0 - 8 
  91:main_cm4.c    ****     0x0-0x7 are 8 ADC channels, 0x8 is the I2C ADPD readings*/
  92:main_cm4.c    **** void send_data(uint16_t adc_value, uint16_t adc_channel) {
 252              		.loc 1 92 0
 253              		.cfi_startproc
 254              		@ args = 0, pretend = 0, frame = 8
 255              		@ frame_needed = 0, uses_anonymous_args = 0
 256              	.LVL28:
ARM GAS  C:\Users\15311\AppData\Local\Temp\cccFsPp9.s 			page 34


 257 0000 00B5     		push	{lr}
 258              		.cfi_def_cfa_offset 4
 259              		.cfi_offset 14, -4
 260 0002 83B0     		sub	sp, sp, #12
 261              		.cfi_def_cfa_offset 16
  93:main_cm4.c    ****     uint8_t data[2];
  94:main_cm4.c    ****     data[0] = (adc_value >> 8) & 0xFF;
 262              		.loc 1 94 0
 263 0004 030A     		lsrs	r3, r0, #8
 264 0006 8DF80430 		strb	r3, [sp, #4]
  95:main_cm4.c    ****     data[1] = adc_value & 0xFF;
 265              		.loc 1 95 0
 266 000a 8DF80500 		strb	r0, [sp, #5]
  96:main_cm4.c    ****     wrap_data(OPCODE_ADC_0 + adc_channel, data, 2);
 267              		.loc 1 96 0
 268 000e 481C     		adds	r0, r1, #1
 269              	.LVL29:
 270 0010 0222     		movs	r2, #2
 271 0012 01A9     		add	r1, sp, #4
 272              	.LVL30:
 273 0014 C0B2     		uxtb	r0, r0
 274 0016 FFF7FEFF 		bl	wrap_data
 275              	.LVL31:
  97:main_cm4.c    **** }
 276              		.loc 1 97 0
 277 001a 03B0     		add	sp, sp, #12
 278              		.cfi_def_cfa_offset 4
 279              		@ sp needed
 280 001c 5DF804FB 		ldr	pc, [sp], #4
 281              		.cfi_endproc
 282              	.LFE488:
 283              		.size	send_data, .-send_data
 284              		.section	.text.send_task,"ax",%progbits
 285              		.align	2
 286              		.global	send_task
 287              		.thumb
 288              		.thumb_func
 289              		.type	send_task, %function
 290              	send_task:
 291              	.LFB489:
  98:main_cm4.c    **** 
  99:main_cm4.c    **** void send_task(void *pvParameters){
 292              		.loc 1 99 0
 293              		.cfi_startproc
 294              		@ args = 0, pretend = 0, frame = 0
 295              		@ frame_needed = 0, uses_anonymous_args = 0
 296              	.LVL32:
 297 0000 08B5     		push	{r3, lr}
 298              		.cfi_def_cfa_offset 8
 299              		.cfi_offset 3, -8
 300              		.cfi_offset 14, -4
 301              	.LVL33:
 302              	.L23:
 303              	.LBB13:
 100:main_cm4.c    ****     while(1){
 101:main_cm4.c    ****         uint16_t data = 0x1234;
 102:main_cm4.c    ****         send_data(data, 0x0);
ARM GAS  C:\Users\15311\AppData\Local\Temp\cccFsPp9.s 			page 35


 304              		.loc 1 102 0 discriminator 1
 305 0002 0021     		movs	r1, #0
 306 0004 41F23420 		movw	r0, #4660
 307 0008 FFF7FEFF 		bl	send_data
 308              	.LVL34:
 103:main_cm4.c    ****         vTaskDelay(pdMS_TO_TICKS(500));
 309              		.loc 1 103 0 discriminator 1
 310 000c 4FF4FA70 		mov	r0, #500
 311 0010 FFF7FEFF 		bl	vTaskDelay
 312              	.LVL35:
 313 0014 F5E7     		b	.L23
 314              	.LBE13:
 315              		.cfi_endproc
 316              	.LFE489:
 317              		.size	send_task, .-send_task
 318 0016 00BF     		.section	.rodata.str1.4,"aMS",%progbits,1
 319              		.align	2
 320              	.LC0:
 321 0000 73656E64 		.ascii	"send data\000"
 321      20646174 
 321      6100
 322 000a 0000     		.space	2
 323              	.LC1:
 324 000c 47656E65 		.ascii	"Generated_Source\\PSoC6\\pdl\\drivers/peripheral/sc"
 324      72617465 
 324      645F536F 
 324      75726365 
 324      5C50536F 
 325 003c 622F6379 		.ascii	"b/cy_scb_uart.h\000"
 325      5F736362 
 325      5F756172 
 325      742E6800 
 326              		.text
 327              	.Letext0:
 328              		.file 4 "c:\\program files (x86)\\cypress\\psoc creator\\4.4\\psoc creator\\import\\gnu\\arm\\5.4.
 329              		.file 5 "c:\\program files (x86)\\cypress\\psoc creator\\4.4\\psoc creator\\import\\gnu\\arm\\5.4.
 330              		.file 6 "Generated_Source\\PSoC6\\pdl\\devices/psoc6/include/ip/cyip_scb.h"
 331              		.file 7 "Generated_Source\\PSoC6\\pdl\\devices/psoc6/include/psoc6_01_config.h"
 332              		.file 8 "Generated_Source\\PSoC6\\pdl\\drivers/peripheral/device/cy_device.h"
 333              		.file 9 "Generated_Source\\PSoC6\\pdl\\drivers/peripheral/syslib/cy_syslib.h"
 334              		.file 10 "Generated_Source\\PSoC6\\pdl\\rtos/FreeRTOS/10.0.1/Source/portable/GCC/CM4F/portmacro.h"
 335              		.file 11 "Generated_Source\\PSoC6\\pdl\\cmsis/include/core_cm4.h"
 336              		.file 12 "Generated_Source\\PSoC6/UART.h"
 337              		.file 13 "Generated_Source\\PSoC6\\pdl\\rtos/FreeRTOS/10.0.1/Source/include/task.h"
 338              		.file 14 "Generated_Source\\PSoC6\\pdl\\drivers/peripheral/scb/cy_scb_common.h"
 339              		.section	.debug_info,"",%progbits
 340              	.Ldebug_info0:
 341 0000 9A0E0000 		.4byte	0xe9a
 342 0004 0400     		.2byte	0x4
 343 0006 00000000 		.4byte	.Ldebug_abbrev0
 344 000a 04       		.byte	0x4
 345 000b 01       		.uleb128 0x1
 346 000c 8E070000 		.4byte	.LASF223
 347 0010 0C       		.byte	0xc
 348 0011 9D0C0000 		.4byte	.LASF224
 349 0015 540A0000 		.4byte	.LASF225
 350 0019 18000000 		.4byte	.Ldebug_ranges0+0x18
ARM GAS  C:\Users\15311\AppData\Local\Temp\cccFsPp9.s 			page 36


 351 001d 00000000 		.4byte	0
 352 0021 00000000 		.4byte	.Ldebug_line0
 353 0025 02       		.uleb128 0x2
 354 0026 02       		.byte	0x2
 355 0027 05       		.byte	0x5
 356 0028 08090000 		.4byte	.LASF0
 357 002c 02       		.uleb128 0x2
 358 002d 01       		.byte	0x1
 359 002e 06       		.byte	0x6
 360 002f C7010000 		.4byte	.LASF1
 361 0033 03       		.uleb128 0x3
 362 0034 B5000000 		.4byte	.LASF3
 363 0038 04       		.byte	0x4
 364 0039 1D       		.byte	0x1d
 365 003a 3E000000 		.4byte	0x3e
 366 003e 02       		.uleb128 0x2
 367 003f 01       		.byte	0x1
 368 0040 08       		.byte	0x8
 369 0041 D7080000 		.4byte	.LASF2
 370 0045 03       		.uleb128 0x3
 371 0046 A8030000 		.4byte	.LASF4
 372 004a 04       		.byte	0x4
 373 004b 29       		.byte	0x29
 374 004c 25000000 		.4byte	0x25
 375 0050 03       		.uleb128 0x3
 376 0051 070A0000 		.4byte	.LASF5
 377 0055 04       		.byte	0x4
 378 0056 2B       		.byte	0x2b
 379 0057 5B000000 		.4byte	0x5b
 380 005b 02       		.uleb128 0x2
 381 005c 02       		.byte	0x2
 382 005d 07       		.byte	0x7
 383 005e 47030000 		.4byte	.LASF6
 384 0062 03       		.uleb128 0x3
 385 0063 2E0A0000 		.4byte	.LASF7
 386 0067 04       		.byte	0x4
 387 0068 3F       		.byte	0x3f
 388 0069 6D000000 		.4byte	0x6d
 389 006d 02       		.uleb128 0x2
 390 006e 04       		.byte	0x4
 391 006f 05       		.byte	0x5
 392 0070 85020000 		.4byte	.LASF8
 393 0074 03       		.uleb128 0x3
 394 0075 79030000 		.4byte	.LASF9
 395 0079 04       		.byte	0x4
 396 007a 41       		.byte	0x41
 397 007b 7F000000 		.4byte	0x7f
 398 007f 02       		.uleb128 0x2
 399 0080 04       		.byte	0x4
 400 0081 07       		.byte	0x7
 401 0082 7F040000 		.4byte	.LASF10
 402 0086 02       		.uleb128 0x2
 403 0087 08       		.byte	0x8
 404 0088 05       		.byte	0x5
 405 0089 B9010000 		.4byte	.LASF11
 406 008d 02       		.uleb128 0x2
 407 008e 08       		.byte	0x8
ARM GAS  C:\Users\15311\AppData\Local\Temp\cccFsPp9.s 			page 37


 408 008f 07       		.byte	0x7
 409 0090 2C010000 		.4byte	.LASF12
 410 0094 04       		.uleb128 0x4
 411 0095 04       		.byte	0x4
 412 0096 05       		.byte	0x5
 413 0097 696E7400 		.ascii	"int\000"
 414 009b 02       		.uleb128 0x2
 415 009c 04       		.byte	0x4
 416 009d 07       		.byte	0x7
 417 009e 2F040000 		.4byte	.LASF13
 418 00a2 03       		.uleb128 0x3
 419 00a3 B30B0000 		.4byte	.LASF14
 420 00a7 05       		.byte	0x5
 421 00a8 18       		.byte	0x18
 422 00a9 33000000 		.4byte	0x33
 423 00ad 03       		.uleb128 0x3
 424 00ae B1010000 		.4byte	.LASF15
 425 00b2 05       		.byte	0x5
 426 00b3 20       		.byte	0x20
 427 00b4 45000000 		.4byte	0x45
 428 00b8 03       		.uleb128 0x3
 429 00b9 06070000 		.4byte	.LASF16
 430 00bd 05       		.byte	0x5
 431 00be 24       		.byte	0x24
 432 00bf 50000000 		.4byte	0x50
 433 00c3 03       		.uleb128 0x3
 434 00c4 B7060000 		.4byte	.LASF17
 435 00c8 05       		.byte	0x5
 436 00c9 2C       		.byte	0x2c
 437 00ca 62000000 		.4byte	0x62
 438 00ce 03       		.uleb128 0x3
 439 00cf 8E090000 		.4byte	.LASF18
 440 00d3 05       		.byte	0x5
 441 00d4 30       		.byte	0x30
 442 00d5 74000000 		.4byte	0x74
 443 00d9 02       		.uleb128 0x2
 444 00da 04       		.byte	0x4
 445 00db 07       		.byte	0x7
 446 00dc BF060000 		.4byte	.LASF19
 447 00e0 05       		.uleb128 0x5
 448 00e1 CE000000 		.4byte	0xce
 449 00e5 06       		.uleb128 0x6
 450 00e6 E0000000 		.4byte	0xe0
 451 00ea 07       		.uleb128 0x7
 452 00eb E5000000 		.4byte	0xe5
 453 00ef FA000000 		.4byte	0xfa
 454 00f3 08       		.uleb128 0x8
 455 00f4 D9000000 		.4byte	0xd9
 456 00f8 03       		.byte	0x3
 457 00f9 00       		.byte	0
 458 00fa 07       		.uleb128 0x7
 459 00fb E5000000 		.4byte	0xe5
 460 00ff 0A010000 		.4byte	0x10a
 461 0103 08       		.uleb128 0x8
 462 0104 D9000000 		.4byte	0xd9
 463 0108 05       		.byte	0x5
 464 0109 00       		.byte	0
ARM GAS  C:\Users\15311\AppData\Local\Temp\cccFsPp9.s 			page 38


 465 010a 07       		.uleb128 0x7
 466 010b E5000000 		.4byte	0xe5
 467 010f 1A010000 		.4byte	0x11a
 468 0113 08       		.uleb128 0x8
 469 0114 D9000000 		.4byte	0xd9
 470 0118 7F       		.byte	0x7f
 471 0119 00       		.byte	0
 472 011a 07       		.uleb128 0x7
 473 011b E5000000 		.4byte	0xe5
 474 011f 2A010000 		.4byte	0x12a
 475 0123 08       		.uleb128 0x8
 476 0124 D9000000 		.4byte	0xd9
 477 0128 0C       		.byte	0xc
 478 0129 00       		.byte	0
 479 012a 07       		.uleb128 0x7
 480 012b E5000000 		.4byte	0xe5
 481 012f 3A010000 		.4byte	0x13a
 482 0133 08       		.uleb128 0x8
 483 0134 D9000000 		.4byte	0xd9
 484 0138 1E       		.byte	0x1e
 485 0139 00       		.byte	0
 486 013a 07       		.uleb128 0x7
 487 013b E5000000 		.4byte	0xe5
 488 013f 4A010000 		.4byte	0x14a
 489 0143 08       		.uleb128 0x8
 490 0144 D9000000 		.4byte	0xd9
 491 0148 02       		.byte	0x2
 492 0149 00       		.byte	0
 493 014a 07       		.uleb128 0x7
 494 014b E5000000 		.4byte	0xe5
 495 014f 5A010000 		.4byte	0x15a
 496 0153 08       		.uleb128 0x8
 497 0154 D9000000 		.4byte	0xd9
 498 0158 0B       		.byte	0xb
 499 0159 00       		.byte	0
 500 015a 07       		.uleb128 0x7
 501 015b A2000000 		.4byte	0xa2
 502 015f 6A010000 		.4byte	0x16a
 503 0163 08       		.uleb128 0x8
 504 0164 D9000000 		.4byte	0xd9
 505 0168 01       		.byte	0x1
 506 0169 00       		.byte	0
 507 016a 07       		.uleb128 0x7
 508 016b E5000000 		.4byte	0xe5
 509 016f 7A010000 		.4byte	0x17a
 510 0173 08       		.uleb128 0x8
 511 0174 D9000000 		.4byte	0xd9
 512 0178 0A       		.byte	0xa
 513 0179 00       		.byte	0
 514 017a 07       		.uleb128 0x7
 515 017b E5000000 		.4byte	0xe5
 516 017f 8A010000 		.4byte	0x18a
 517 0183 08       		.uleb128 0x8
 518 0184 D9000000 		.4byte	0xd9
 519 0188 2E       		.byte	0x2e
 520 0189 00       		.byte	0
 521 018a 07       		.uleb128 0x7
ARM GAS  C:\Users\15311\AppData\Local\Temp\cccFsPp9.s 			page 39


 522 018b E5000000 		.4byte	0xe5
 523 018f 9A010000 		.4byte	0x19a
 524 0193 08       		.uleb128 0x8
 525 0194 D9000000 		.4byte	0xd9
 526 0198 2D       		.byte	0x2d
 527 0199 00       		.byte	0
 528 019a 07       		.uleb128 0x7
 529 019b E0000000 		.4byte	0xe0
 530 019f AB010000 		.4byte	0x1ab
 531 01a3 09       		.uleb128 0x9
 532 01a4 D9000000 		.4byte	0xd9
 533 01a8 FF01     		.2byte	0x1ff
 534 01aa 00       		.byte	0
 535 01ab 07       		.uleb128 0x7
 536 01ac E5000000 		.4byte	0xe5
 537 01b0 BB010000 		.4byte	0x1bb
 538 01b4 08       		.uleb128 0x8
 539 01b5 D9000000 		.4byte	0xd9
 540 01b9 62       		.byte	0x62
 541 01ba 00       		.byte	0
 542 01bb 0A       		.uleb128 0xa
 543 01bc D00F     		.2byte	0xfd0
 544 01be 06       		.byte	0x6
 545 01bf 21       		.byte	0x21
 546 01c0 25050000 		.4byte	0x525
 547 01c4 0B       		.uleb128 0xb
 548 01c5 1D0B0000 		.4byte	.LASF20
 549 01c9 06       		.byte	0x6
 550 01ca 22       		.byte	0x22
 551 01cb E0000000 		.4byte	0xe0
 552 01cf 00       		.byte	0
 553 01d0 0B       		.uleb128 0xb
 554 01d1 5B0B0000 		.4byte	.LASF21
 555 01d5 06       		.byte	0x6
 556 01d6 23       		.byte	0x23
 557 01d7 E5000000 		.4byte	0xe5
 558 01db 04       		.byte	0x4
 559 01dc 0B       		.uleb128 0xb
 560 01dd 60060000 		.4byte	.LASF22
 561 01e1 06       		.byte	0x6
 562 01e2 24       		.byte	0x24
 563 01e3 E0000000 		.4byte	0xe0
 564 01e7 08       		.byte	0x8
 565 01e8 0B       		.uleb128 0xb
 566 01e9 91040000 		.4byte	.LASF23
 567 01ed 06       		.byte	0x6
 568 01ee 25       		.byte	0x25
 569 01ef E5000000 		.4byte	0xe5
 570 01f3 0C       		.byte	0xc
 571 01f4 0B       		.uleb128 0xb
 572 01f5 250A0000 		.4byte	.LASF24
 573 01f9 06       		.byte	0x6
 574 01fa 26       		.byte	0x26
 575 01fb 2A050000 		.4byte	0x52a
 576 01ff 10       		.byte	0x10
 577 0200 0B       		.uleb128 0xb
 578 0201 DF030000 		.4byte	.LASF25
ARM GAS  C:\Users\15311\AppData\Local\Temp\cccFsPp9.s 			page 40


 579 0205 06       		.byte	0x6
 580 0206 27       		.byte	0x27
 581 0207 E0000000 		.4byte	0xe0
 582 020b 20       		.byte	0x20
 583 020c 0B       		.uleb128 0xb
 584 020d A2090000 		.4byte	.LASF26
 585 0211 06       		.byte	0x6
 586 0212 28       		.byte	0x28
 587 0213 E5000000 		.4byte	0xe5
 588 0217 24       		.byte	0x24
 589 0218 0B       		.uleb128 0xb
 590 0219 64080000 		.4byte	.LASF27
 591 021d 06       		.byte	0x6
 592 021e 29       		.byte	0x29
 593 021f 34050000 		.4byte	0x534
 594 0223 28       		.byte	0x28
 595 0224 0B       		.uleb128 0xb
 596 0225 1D070000 		.4byte	.LASF28
 597 0229 06       		.byte	0x6
 598 022a 2A       		.byte	0x2a
 599 022b E0000000 		.4byte	0xe0
 600 022f 40       		.byte	0x40
 601 0230 0B       		.uleb128 0xb
 602 0231 07050000 		.4byte	.LASF29
 603 0235 06       		.byte	0x6
 604 0236 2B       		.byte	0x2b
 605 0237 E0000000 		.4byte	0xe0
 606 023b 44       		.byte	0x44
 607 023c 0B       		.uleb128 0xb
 608 023d 4F040000 		.4byte	.LASF30
 609 0241 06       		.byte	0x6
 610 0242 2C       		.byte	0x2c
 611 0243 E0000000 		.4byte	0xe0
 612 0247 48       		.byte	0x48
 613 0248 0B       		.uleb128 0xb
 614 0249 6B050000 		.4byte	.LASF31
 615 024d 06       		.byte	0x6
 616 024e 2D       		.byte	0x2d
 617 024f E5000000 		.4byte	0xe5
 618 0253 4C       		.byte	0x4c
 619 0254 0B       		.uleb128 0xb
 620 0255 6E060000 		.4byte	.LASF32
 621 0259 06       		.byte	0x6
 622 025a 2E       		.byte	0x2e
 623 025b E0000000 		.4byte	0xe0
 624 025f 50       		.byte	0x50
 625 0260 0B       		.uleb128 0xb
 626 0261 52090000 		.4byte	.LASF33
 627 0265 06       		.byte	0x6
 628 0266 2F       		.byte	0x2f
 629 0267 3E050000 		.4byte	0x53e
 630 026b 54       		.byte	0x54
 631 026c 0B       		.uleb128 0xb
 632 026d CE080000 		.4byte	.LASF34
 633 0271 06       		.byte	0x6
 634 0272 30       		.byte	0x30
 635 0273 E0000000 		.4byte	0xe0
ARM GAS  C:\Users\15311\AppData\Local\Temp\cccFsPp9.s 			page 41


 636 0277 60       		.byte	0x60
 637 0278 0B       		.uleb128 0xb
 638 0279 9C000000 		.4byte	.LASF35
 639 027d 06       		.byte	0x6
 640 027e 31       		.byte	0x31
 641 027f E5000000 		.4byte	0xe5
 642 0283 64       		.byte	0x64
 643 0284 0B       		.uleb128 0xb
 644 0285 BB0B0000 		.4byte	.LASF36
 645 0289 06       		.byte	0x6
 646 028a 32       		.byte	0x32
 647 028b E0000000 		.4byte	0xe0
 648 028f 68       		.byte	0x68
 649 0290 0B       		.uleb128 0xb
 650 0291 CA090000 		.4byte	.LASF37
 651 0295 06       		.byte	0x6
 652 0296 33       		.byte	0x33
 653 0297 E0000000 		.4byte	0xe0
 654 029b 6C       		.byte	0x6c
 655 029c 0B       		.uleb128 0xb
 656 029d 63050000 		.4byte	.LASF38
 657 02a1 06       		.byte	0x6
 658 02a2 34       		.byte	0x34
 659 02a3 E0000000 		.4byte	0xe0
 660 02a7 70       		.byte	0x70
 661 02a8 0B       		.uleb128 0xb
 662 02a9 78080000 		.4byte	.LASF39
 663 02ad 06       		.byte	0x6
 664 02ae 35       		.byte	0x35
 665 02af 48050000 		.4byte	0x548
 666 02b3 74       		.byte	0x74
 667 02b4 0C       		.uleb128 0xc
 668 02b5 FC0A0000 		.4byte	.LASF40
 669 02b9 06       		.byte	0x6
 670 02ba 36       		.byte	0x36
 671 02bb E0000000 		.4byte	0xe0
 672 02bf 0002     		.2byte	0x200
 673 02c1 0C       		.uleb128 0xc
 674 02c2 E3050000 		.4byte	.LASF41
 675 02c6 06       		.byte	0x6
 676 02c7 37       		.byte	0x37
 677 02c8 E0000000 		.4byte	0xe0
 678 02cc 0402     		.2byte	0x204
 679 02ce 0C       		.uleb128 0xc
 680 02cf F8000000 		.4byte	.LASF42
 681 02d3 06       		.byte	0x6
 682 02d4 38       		.byte	0x38
 683 02d5 E5000000 		.4byte	0xe5
 684 02d9 0802     		.2byte	0x208
 685 02db 0C       		.uleb128 0xc
 686 02dc 6A090000 		.4byte	.LASF43
 687 02e0 06       		.byte	0x6
 688 02e1 39       		.byte	0x39
 689 02e2 52050000 		.4byte	0x552
 690 02e6 0C02     		.2byte	0x20c
 691 02e8 0C       		.uleb128 0xc
 692 02e9 DE020000 		.4byte	.LASF44
ARM GAS  C:\Users\15311\AppData\Local\Temp\cccFsPp9.s 			page 42


 693 02ed 06       		.byte	0x6
 694 02ee 3A       		.byte	0x3a
 695 02ef E0000000 		.4byte	0xe0
 696 02f3 4002     		.2byte	0x240
 697 02f5 0C       		.uleb128 0xc
 698 02f6 8E080000 		.4byte	.LASF45
 699 02fa 06       		.byte	0x6
 700 02fb 3B       		.byte	0x3b
 701 02fc 5C050000 		.4byte	0x55c
 702 0300 4402     		.2byte	0x244
 703 0302 0C       		.uleb128 0xc
 704 0303 720C0000 		.4byte	.LASF46
 705 0307 06       		.byte	0x6
 706 0308 3C       		.byte	0x3c
 707 0309 E0000000 		.4byte	0xe0
 708 030d 0003     		.2byte	0x300
 709 030f 0C       		.uleb128 0xc
 710 0310 9C0B0000 		.4byte	.LASF47
 711 0314 06       		.byte	0x6
 712 0315 3D       		.byte	0x3d
 713 0316 E0000000 		.4byte	0xe0
 714 031a 0403     		.2byte	0x304
 715 031c 0C       		.uleb128 0xc
 716 031d 380A0000 		.4byte	.LASF48
 717 0321 06       		.byte	0x6
 718 0322 3E       		.byte	0x3e
 719 0323 E5000000 		.4byte	0xe5
 720 0327 0803     		.2byte	0x308
 721 0329 0C       		.uleb128 0xc
 722 032a 98080000 		.4byte	.LASF49
 723 032e 06       		.byte	0x6
 724 032f 3F       		.byte	0x3f
 725 0330 E5000000 		.4byte	0xe5
 726 0334 0C03     		.2byte	0x30c
 727 0336 0C       		.uleb128 0xc
 728 0337 D0050000 		.4byte	.LASF50
 729 033b 06       		.byte	0x6
 730 033c 40       		.byte	0x40
 731 033d E0000000 		.4byte	0xe0
 732 0341 1003     		.2byte	0x310
 733 0343 0C       		.uleb128 0xc
 734 0344 A2080000 		.4byte	.LASF51
 735 0348 06       		.byte	0x6
 736 0349 41       		.byte	0x41
 737 034a 66050000 		.4byte	0x566
 738 034e 1403     		.2byte	0x314
 739 0350 0C       		.uleb128 0xc
 740 0351 AA0A0000 		.4byte	.LASF52
 741 0355 06       		.byte	0x6
 742 0356 42       		.byte	0x42
 743 0357 E5000000 		.4byte	0xe5
 744 035b 4003     		.2byte	0x340
 745 035d 0C       		.uleb128 0xc
 746 035e B3040000 		.4byte	.LASF53
 747 0362 06       		.byte	0x6
 748 0363 43       		.byte	0x43
 749 0364 E5000000 		.4byte	0xe5
ARM GAS  C:\Users\15311\AppData\Local\Temp\cccFsPp9.s 			page 43


 750 0368 4403     		.2byte	0x344
 751 036a 0C       		.uleb128 0xc
 752 036b AC080000 		.4byte	.LASF54
 753 036f 06       		.byte	0x6
 754 0370 44       		.byte	0x44
 755 0371 70050000 		.4byte	0x570
 756 0375 4803     		.2byte	0x348
 757 0377 0C       		.uleb128 0xc
 758 0378 8A050000 		.4byte	.LASF55
 759 037c 06       		.byte	0x6
 760 037d 45       		.byte	0x45
 761 037e 75050000 		.4byte	0x575
 762 0382 0004     		.2byte	0x400
 763 0384 0C       		.uleb128 0xc
 764 0385 B6080000 		.4byte	.LASF56
 765 0389 06       		.byte	0x6
 766 038a 46       		.byte	0x46
 767 038b 7F050000 		.4byte	0x57f
 768 038f 000C     		.2byte	0xc00
 769 0391 0C       		.uleb128 0xc
 770 0392 8E020000 		.4byte	.LASF57
 771 0396 06       		.byte	0x6
 772 0397 47       		.byte	0x47
 773 0398 E5000000 		.4byte	0xe5
 774 039c 000E     		.2byte	0xe00
 775 039e 0C       		.uleb128 0xc
 776 039f 2D020000 		.4byte	.LASF58
 777 03a3 06       		.byte	0x6
 778 03a4 48       		.byte	0x48
 779 03a5 89050000 		.4byte	0x589
 780 03a9 040E     		.2byte	0xe04
 781 03ab 0C       		.uleb128 0xc
 782 03ac 99020000 		.4byte	.LASF59
 783 03b0 06       		.byte	0x6
 784 03b1 49       		.byte	0x49
 785 03b2 E0000000 		.4byte	0xe0
 786 03b6 800E     		.2byte	0xe80
 787 03b8 0C       		.uleb128 0xc
 788 03b9 38020000 		.4byte	.LASF60
 789 03bd 06       		.byte	0x6
 790 03be 4A       		.byte	0x4a
 791 03bf E5000000 		.4byte	0xe5
 792 03c3 840E     		.2byte	0xe84
 793 03c5 0C       		.uleb128 0xc
 794 03c6 1A0C0000 		.4byte	.LASF61
 795 03ca 06       		.byte	0x6
 796 03cb 4B       		.byte	0x4b
 797 03cc E0000000 		.4byte	0xe0
 798 03d0 880E     		.2byte	0xe88
 799 03d2 0C       		.uleb128 0xc
 800 03d3 92060000 		.4byte	.LASF62
 801 03d7 06       		.byte	0x6
 802 03d8 4C       		.byte	0x4c
 803 03d9 E5000000 		.4byte	0xe5
 804 03dd 8C0E     		.2byte	0xe8c
 805 03df 0C       		.uleb128 0xc
 806 03e0 43020000 		.4byte	.LASF63
ARM GAS  C:\Users\15311\AppData\Local\Temp\cccFsPp9.s 			page 44


 807 03e4 06       		.byte	0x6
 808 03e5 4D       		.byte	0x4d
 809 03e6 93050000 		.4byte	0x593
 810 03ea 900E     		.2byte	0xe90
 811 03ec 0C       		.uleb128 0xc
 812 03ed 040B0000 		.4byte	.LASF64
 813 03f1 06       		.byte	0x6
 814 03f2 4E       		.byte	0x4e
 815 03f3 E0000000 		.4byte	0xe0
 816 03f7 C00E     		.2byte	0xec0
 817 03f9 0C       		.uleb128 0xc
 818 03fa 4E020000 		.4byte	.LASF65
 819 03fe 06       		.byte	0x6
 820 03ff 4F       		.byte	0x4f
 821 0400 E5000000 		.4byte	0xe5
 822 0404 C40E     		.2byte	0xec4
 823 0406 0C       		.uleb128 0xc
 824 0407 CE030000 		.4byte	.LASF66
 825 040b 06       		.byte	0x6
 826 040c 50       		.byte	0x50
 827 040d E0000000 		.4byte	0xe0
 828 0411 C80E     		.2byte	0xec8
 829 0413 0C       		.uleb128 0xc
 830 0414 BB030000 		.4byte	.LASF67
 831 0418 06       		.byte	0x6
 832 0419 51       		.byte	0x51
 833 041a E5000000 		.4byte	0xe5
 834 041e CC0E     		.2byte	0xecc
 835 0420 0C       		.uleb128 0xc
 836 0421 59020000 		.4byte	.LASF68
 837 0425 06       		.byte	0x6
 838 0426 52       		.byte	0x52
 839 0427 9D050000 		.4byte	0x59d
 840 042b D00E     		.2byte	0xed0
 841 042d 0C       		.uleb128 0xc
 842 042e 27070000 		.4byte	.LASF69
 843 0432 06       		.byte	0x6
 844 0433 53       		.byte	0x53
 845 0434 E0000000 		.4byte	0xe0
 846 0438 000F     		.2byte	0xf00
 847 043a 0C       		.uleb128 0xc
 848 043b 97090000 		.4byte	.LASF70
 849 043f 06       		.byte	0x6
 850 0440 54       		.byte	0x54
 851 0441 E0000000 		.4byte	0xe0
 852 0445 040F     		.2byte	0xf04
 853 0447 0C       		.uleb128 0xc
 854 0448 FB090000 		.4byte	.LASF71
 855 044c 06       		.byte	0x6
 856 044d 55       		.byte	0x55
 857 044e E0000000 		.4byte	0xe0
 858 0452 080F     		.2byte	0xf08
 859 0454 0C       		.uleb128 0xc
 860 0455 52060000 		.4byte	.LASF72
 861 0459 06       		.byte	0x6
 862 045a 56       		.byte	0x56
 863 045b E5000000 		.4byte	0xe5
ARM GAS  C:\Users\15311\AppData\Local\Temp\cccFsPp9.s 			page 45


 864 045f 0C0F     		.2byte	0xf0c
 865 0461 0C       		.uleb128 0xc
 866 0462 64020000 		.4byte	.LASF73
 867 0466 06       		.byte	0x6
 868 0467 57       		.byte	0x57
 869 0468 A7050000 		.4byte	0x5a7
 870 046c 100F     		.2byte	0xf10
 871 046e 0C       		.uleb128 0xc
 872 046f 4A070000 		.4byte	.LASF74
 873 0473 06       		.byte	0x6
 874 0474 58       		.byte	0x58
 875 0475 E0000000 		.4byte	0xe0
 876 0479 400F     		.2byte	0xf40
 877 047b 0C       		.uleb128 0xc
 878 047c 920C0000 		.4byte	.LASF75
 879 0480 06       		.byte	0x6
 880 0481 59       		.byte	0x59
 881 0482 E0000000 		.4byte	0xe0
 882 0486 440F     		.2byte	0xf44
 883 0488 0C       		.uleb128 0xc
 884 0489 07010000 		.4byte	.LASF76
 885 048d 06       		.byte	0x6
 886 048e 5A       		.byte	0x5a
 887 048f E0000000 		.4byte	0xe0
 888 0493 480F     		.2byte	0xf48
 889 0495 0C       		.uleb128 0xc
 890 0496 44090000 		.4byte	.LASF77
 891 049a 06       		.byte	0x6
 892 049b 5B       		.byte	0x5b
 893 049c E5000000 		.4byte	0xe5
 894 04a0 4C0F     		.2byte	0xf4c
 895 04a2 0C       		.uleb128 0xc
 896 04a3 6F020000 		.4byte	.LASF78
 897 04a7 06       		.byte	0x6
 898 04a8 5C       		.byte	0x5c
 899 04a9 B1050000 		.4byte	0x5b1
 900 04ad 500F     		.2byte	0xf50
 901 04af 0C       		.uleb128 0xc
 902 04b0 E8030000 		.4byte	.LASF79
 903 04b4 06       		.byte	0x6
 904 04b5 5D       		.byte	0x5d
 905 04b6 E0000000 		.4byte	0xe0
 906 04ba 800F     		.2byte	0xf80
 907 04bc 0C       		.uleb128 0xc
 908 04bd EF090000 		.4byte	.LASF80
 909 04c1 06       		.byte	0x6
 910 04c2 5E       		.byte	0x5e
 911 04c3 E0000000 		.4byte	0xe0
 912 04c7 840F     		.2byte	0xf84
 913 04c9 0C       		.uleb128 0xc
 914 04ca 470A0000 		.4byte	.LASF81
 915 04ce 06       		.byte	0x6
 916 04cf 5F       		.byte	0x5f
 917 04d0 E0000000 		.4byte	0xe0
 918 04d4 880F     		.2byte	0xf88
 919 04d6 0C       		.uleb128 0xc
 920 04d7 E5080000 		.4byte	.LASF82
ARM GAS  C:\Users\15311\AppData\Local\Temp\cccFsPp9.s 			page 46


 921 04db 06       		.byte	0x6
 922 04dc 60       		.byte	0x60
 923 04dd E5000000 		.4byte	0xe5
 924 04e1 8C0F     		.2byte	0xf8c
 925 04e3 0C       		.uleb128 0xc
 926 04e4 7A020000 		.4byte	.LASF83
 927 04e8 06       		.byte	0x6
 928 04e9 61       		.byte	0x61
 929 04ea BB050000 		.4byte	0x5bb
 930 04ee 900F     		.2byte	0xf90
 931 04f0 0C       		.uleb128 0xc
 932 04f1 B1020000 		.4byte	.LASF84
 933 04f5 06       		.byte	0x6
 934 04f6 62       		.byte	0x62
 935 04f7 E0000000 		.4byte	0xe0
 936 04fb C00F     		.2byte	0xfc0
 937 04fd 0C       		.uleb128 0xc
 938 04fe 3C040000 		.4byte	.LASF85
 939 0502 06       		.byte	0x6
 940 0503 63       		.byte	0x63
 941 0504 E0000000 		.4byte	0xe0
 942 0508 C40F     		.2byte	0xfc4
 943 050a 0C       		.uleb128 0xc
 944 050b E2090000 		.4byte	.LASF86
 945 050f 06       		.byte	0x6
 946 0510 64       		.byte	0x64
 947 0511 E0000000 		.4byte	0xe0
 948 0515 C80F     		.2byte	0xfc8
 949 0517 0C       		.uleb128 0xc
 950 0518 70040000 		.4byte	.LASF87
 951 051c 06       		.byte	0x6
 952 051d 65       		.byte	0x65
 953 051e E5000000 		.4byte	0xe5
 954 0522 CC0F     		.2byte	0xfcc
 955 0524 00       		.byte	0
 956 0525 05       		.uleb128 0x5
 957 0526 EA000000 		.4byte	0xea
 958 052a 06       		.uleb128 0x6
 959 052b 25050000 		.4byte	0x525
 960 052f 05       		.uleb128 0x5
 961 0530 FA000000 		.4byte	0xfa
 962 0534 06       		.uleb128 0x6
 963 0535 2F050000 		.4byte	0x52f
 964 0539 05       		.uleb128 0x5
 965 053a 3A010000 		.4byte	0x13a
 966 053e 06       		.uleb128 0x6
 967 053f 39050000 		.4byte	0x539
 968 0543 05       		.uleb128 0x5
 969 0544 AB010000 		.4byte	0x1ab
 970 0548 06       		.uleb128 0x6
 971 0549 43050000 		.4byte	0x543
 972 054d 05       		.uleb128 0x5
 973 054e 1A010000 		.4byte	0x11a
 974 0552 06       		.uleb128 0x6
 975 0553 4D050000 		.4byte	0x54d
 976 0557 05       		.uleb128 0x5
 977 0558 7A010000 		.4byte	0x17a
ARM GAS  C:\Users\15311\AppData\Local\Temp\cccFsPp9.s 			page 47


 978 055c 06       		.uleb128 0x6
 979 055d 57050000 		.4byte	0x557
 980 0561 05       		.uleb128 0x5
 981 0562 6A010000 		.4byte	0x16a
 982 0566 06       		.uleb128 0x6
 983 0567 61050000 		.4byte	0x561
 984 056b 05       		.uleb128 0x5
 985 056c 8A010000 		.4byte	0x18a
 986 0570 06       		.uleb128 0x6
 987 0571 6B050000 		.4byte	0x56b
 988 0575 05       		.uleb128 0x5
 989 0576 9A010000 		.4byte	0x19a
 990 057a 05       		.uleb128 0x5
 991 057b 0A010000 		.4byte	0x10a
 992 057f 06       		.uleb128 0x6
 993 0580 7A050000 		.4byte	0x57a
 994 0584 05       		.uleb128 0x5
 995 0585 2A010000 		.4byte	0x12a
 996 0589 06       		.uleb128 0x6
 997 058a 84050000 		.4byte	0x584
 998 058e 05       		.uleb128 0x5
 999 058f 4A010000 		.4byte	0x14a
 1000 0593 06       		.uleb128 0x6
 1001 0594 8E050000 		.4byte	0x58e
 1002 0598 05       		.uleb128 0x5
 1003 0599 4A010000 		.4byte	0x14a
 1004 059d 06       		.uleb128 0x6
 1005 059e 98050000 		.4byte	0x598
 1006 05a2 05       		.uleb128 0x5
 1007 05a3 4A010000 		.4byte	0x14a
 1008 05a7 06       		.uleb128 0x6
 1009 05a8 A2050000 		.4byte	0x5a2
 1010 05ac 05       		.uleb128 0x5
 1011 05ad 4A010000 		.4byte	0x14a
 1012 05b1 06       		.uleb128 0x6
 1013 05b2 AC050000 		.4byte	0x5ac
 1014 05b6 05       		.uleb128 0x5
 1015 05b7 4A010000 		.4byte	0x14a
 1016 05bb 06       		.uleb128 0x6
 1017 05bc B6050000 		.4byte	0x5b6
 1018 05c0 03       		.uleb128 0x3
 1019 05c1 55050000 		.4byte	.LASF88
 1020 05c5 06       		.byte	0x6
 1021 05c6 66       		.byte	0x66
 1022 05c7 BB010000 		.4byte	0x1bb
 1023 05cb 0D       		.uleb128 0xd
 1024 05cc D3060000 		.4byte	.LASF89
 1025 05d0 07       		.byte	0x7
 1026 05d1 4F06     		.2byte	0x64f
 1027 05d3 C0050000 		.4byte	0x5c0
 1028 05d7 02       		.uleb128 0x2
 1029 05d8 08       		.byte	0x8
 1030 05d9 04       		.byte	0x4
 1031 05da AD090000 		.4byte	.LASF90
 1032 05de 0E       		.uleb128 0xe
 1033 05df B8       		.byte	0xb8
 1034 05e0 08       		.byte	0x8
ARM GAS  C:\Users\15311\AppData\Local\Temp\cccFsPp9.s 			page 48


 1035 05e1 34       		.byte	0x34
 1036 05e2 EF090000 		.4byte	0x9ef
 1037 05e6 0B       		.uleb128 0xb
 1038 05e7 13010000 		.4byte	.LASF91
 1039 05eb 08       		.byte	0x8
 1040 05ec 37       		.byte	0x37
 1041 05ed CE000000 		.4byte	0xce
 1042 05f1 00       		.byte	0
 1043 05f2 0B       		.uleb128 0xb
 1044 05f3 6E030000 		.4byte	.LASF92
 1045 05f7 08       		.byte	0x8
 1046 05f8 38       		.byte	0x38
 1047 05f9 CE000000 		.4byte	0xce
 1048 05fd 04       		.byte	0x4
 1049 05fe 0B       		.uleb128 0xb
 1050 05ff B9020000 		.4byte	.LASF93
 1051 0603 08       		.byte	0x8
 1052 0604 39       		.byte	0x39
 1053 0605 CE000000 		.4byte	0xce
 1054 0609 08       		.byte	0x8
 1055 060a 0B       		.uleb128 0xb
 1056 060b C0080000 		.4byte	.LASF94
 1057 060f 08       		.byte	0x8
 1058 0610 3A       		.byte	0x3a
 1059 0611 CE000000 		.4byte	0xce
 1060 0615 0C       		.byte	0xc
 1061 0616 0B       		.uleb128 0xb
 1062 0617 04020000 		.4byte	.LASF95
 1063 061b 08       		.byte	0x8
 1064 061c 3B       		.byte	0x3b
 1065 061d CE000000 		.4byte	0xce
 1066 0621 10       		.byte	0x10
 1067 0622 0B       		.uleb128 0xb
 1068 0623 12090000 		.4byte	.LASF96
 1069 0627 08       		.byte	0x8
 1070 0628 3C       		.byte	0x3c
 1071 0629 CE000000 		.4byte	0xce
 1072 062d 14       		.byte	0x14
 1073 062e 0B       		.uleb128 0xb
 1074 062f FE040000 		.4byte	.LASF97
 1075 0633 08       		.byte	0x8
 1076 0634 3D       		.byte	0x3d
 1077 0635 CE000000 		.4byte	0xce
 1078 0639 18       		.byte	0x18
 1079 063a 0B       		.uleb128 0xb
 1080 063b 93000000 		.4byte	.LASF98
 1081 063f 08       		.byte	0x8
 1082 0640 3E       		.byte	0x3e
 1083 0641 CE000000 		.4byte	0xce
 1084 0645 1C       		.byte	0x1c
 1085 0646 0B       		.uleb128 0xb
 1086 0647 540C0000 		.4byte	.LASF99
 1087 064b 08       		.byte	0x8
 1088 064c 3F       		.byte	0x3f
 1089 064d CE000000 		.4byte	0xce
 1090 0651 20       		.byte	0x20
 1091 0652 0B       		.uleb128 0xb
ARM GAS  C:\Users\15311\AppData\Local\Temp\cccFsPp9.s 			page 49


 1092 0653 68070000 		.4byte	.LASF100
 1093 0657 08       		.byte	0x8
 1094 0658 40       		.byte	0x40
 1095 0659 CE000000 		.4byte	0xce
 1096 065d 24       		.byte	0x24
 1097 065e 0B       		.uleb128 0xb
 1098 065f 40060000 		.4byte	.LASF101
 1099 0663 08       		.byte	0x8
 1100 0664 43       		.byte	0x43
 1101 0665 A2000000 		.4byte	0xa2
 1102 0669 28       		.byte	0x28
 1103 066a 0B       		.uleb128 0xb
 1104 066b 79000000 		.4byte	.LASF102
 1105 066f 08       		.byte	0x8
 1106 0670 44       		.byte	0x44
 1107 0671 A2000000 		.4byte	0xa2
 1108 0675 29       		.byte	0x29
 1109 0676 0B       		.uleb128 0xb
 1110 0677 4A0C0000 		.4byte	.LASF103
 1111 067b 08       		.byte	0x8
 1112 067c 45       		.byte	0x45
 1113 067d A2000000 		.4byte	0xa2
 1114 0681 2A       		.byte	0x2a
 1115 0682 0B       		.uleb128 0xb
 1116 0683 5A070000 		.4byte	.LASF104
 1117 0687 08       		.byte	0x8
 1118 0688 46       		.byte	0x46
 1119 0689 A2000000 		.4byte	0xa2
 1120 068d 2B       		.byte	0x2b
 1121 068e 0B       		.uleb128 0xb
 1122 068f 9F050000 		.4byte	.LASF105
 1123 0693 08       		.byte	0x8
 1124 0694 47       		.byte	0x47
 1125 0695 A2000000 		.4byte	0xa2
 1126 0699 2C       		.byte	0x2c
 1127 069a 0B       		.uleb128 0xb
 1128 069b 9D0A0000 		.4byte	.LASF106
 1129 069f 08       		.byte	0x8
 1130 06a0 48       		.byte	0x48
 1131 06a1 A2000000 		.4byte	0xa2
 1132 06a5 2D       		.byte	0x2d
 1133 06a6 0B       		.uleb128 0xb
 1134 06a7 0D020000 		.4byte	.LASF107
 1135 06ab 08       		.byte	0x8
 1136 06ac 49       		.byte	0x49
 1137 06ad A2000000 		.4byte	0xa2
 1138 06b1 2E       		.byte	0x2e
 1139 06b2 0B       		.uleb128 0xb
 1140 06b3 41080000 		.4byte	.LASF108
 1141 06b7 08       		.byte	0x8
 1142 06b8 4A       		.byte	0x4a
 1143 06b9 A2000000 		.4byte	0xa2
 1144 06bd 2F       		.byte	0x2f
 1145 06be 0B       		.uleb128 0xb
 1146 06bf BE090000 		.4byte	.LASF109
 1147 06c3 08       		.byte	0x8
 1148 06c4 4B       		.byte	0x4b
ARM GAS  C:\Users\15311\AppData\Local\Temp\cccFsPp9.s 			page 50


 1149 06c5 A2000000 		.4byte	0xa2
 1150 06c9 30       		.byte	0x30
 1151 06ca 0B       		.uleb128 0xb
 1152 06cb 14050000 		.4byte	.LASF110
 1153 06cf 08       		.byte	0x8
 1154 06d0 4E       		.byte	0x4e
 1155 06d1 A2000000 		.4byte	0xa2
 1156 06d5 31       		.byte	0x31
 1157 06d6 0B       		.uleb128 0xb
 1158 06d7 A7000000 		.4byte	.LASF111
 1159 06db 08       		.byte	0x8
 1160 06dc 4F       		.byte	0x4f
 1161 06dd A2000000 		.4byte	0xa2
 1162 06e1 32       		.byte	0x32
 1163 06e2 0B       		.uleb128 0xb
 1164 06e3 23040000 		.4byte	.LASF112
 1165 06e7 08       		.byte	0x8
 1166 06e8 50       		.byte	0x50
 1167 06e9 A2000000 		.4byte	0xa2
 1168 06ed 33       		.byte	0x33
 1169 06ee 0B       		.uleb128 0xb
 1170 06ef DE060000 		.4byte	.LASF113
 1171 06f3 08       		.byte	0x8
 1172 06f4 51       		.byte	0x51
 1173 06f5 A2000000 		.4byte	0xa2
 1174 06f9 34       		.byte	0x34
 1175 06fa 0B       		.uleb128 0xb
 1176 06fb 100B0000 		.4byte	.LASF114
 1177 06ff 08       		.byte	0x8
 1178 0700 52       		.byte	0x52
 1179 0701 AD000000 		.4byte	0xad
 1180 0705 36       		.byte	0x36
 1181 0706 0B       		.uleb128 0xb
 1182 0707 E9020000 		.4byte	.LASF115
 1183 070b 08       		.byte	0x8
 1184 070c 53       		.byte	0x53
 1185 070d AD000000 		.4byte	0xad
 1186 0711 38       		.byte	0x38
 1187 0712 0B       		.uleb128 0xb
 1188 0713 620B0000 		.4byte	.LASF116
 1189 0717 08       		.byte	0x8
 1190 0718 54       		.byte	0x54
 1191 0719 AD000000 		.4byte	0xad
 1192 071d 3A       		.byte	0x3a
 1193 071e 0B       		.uleb128 0xb
 1194 071f 38050000 		.4byte	.LASF117
 1195 0723 08       		.byte	0x8
 1196 0724 55       		.byte	0x55
 1197 0725 A2000000 		.4byte	0xa2
 1198 0729 3C       		.byte	0x3c
 1199 072a 0B       		.uleb128 0xb
 1200 072b 10030000 		.4byte	.LASF118
 1201 072f 08       		.byte	0x8
 1202 0730 56       		.byte	0x56
 1203 0731 A2000000 		.4byte	0xa2
 1204 0735 3D       		.byte	0x3d
 1205 0736 0B       		.uleb128 0xb
ARM GAS  C:\Users\15311\AppData\Local\Temp\cccFsPp9.s 			page 51


 1206 0737 5C090000 		.4byte	.LASF119
 1207 073b 08       		.byte	0x8
 1208 073c 57       		.byte	0x57
 1209 073d A2000000 		.4byte	0xa2
 1210 0741 3E       		.byte	0x3e
 1211 0742 0B       		.uleb128 0xb
 1212 0743 87000000 		.4byte	.LASF120
 1213 0747 08       		.byte	0x8
 1214 0748 58       		.byte	0x58
 1215 0749 A2000000 		.4byte	0xa2
 1216 074d 3F       		.byte	0x3f
 1217 074e 0B       		.uleb128 0xb
 1218 074f 73070000 		.4byte	.LASF121
 1219 0753 08       		.byte	0x8
 1220 0754 59       		.byte	0x59
 1221 0755 A2000000 		.4byte	0xa2
 1222 0759 40       		.byte	0x40
 1223 075a 0B       		.uleb128 0xb
 1224 075b 84030000 		.4byte	.LASF122
 1225 075f 08       		.byte	0x8
 1226 0760 5A       		.byte	0x5a
 1227 0761 A2000000 		.4byte	0xa2
 1228 0765 41       		.byte	0x41
 1229 0766 0B       		.uleb128 0xb
 1230 0767 A5020000 		.4byte	.LASF123
 1231 076b 08       		.byte	0x8
 1232 076c 5B       		.byte	0x5b
 1233 076d A2000000 		.4byte	0xa2
 1234 0771 42       		.byte	0x42
 1235 0772 0B       		.uleb128 0xb
 1236 0773 3F070000 		.4byte	.LASF124
 1237 0777 08       		.byte	0x8
 1238 0778 5C       		.byte	0x5c
 1239 0779 A2000000 		.4byte	0xa2
 1240 077d 43       		.byte	0x43
 1241 077e 0B       		.uleb128 0xb
 1242 077f CD020000 		.4byte	.LASF125
 1243 0783 08       		.byte	0x8
 1244 0784 5D       		.byte	0x5d
 1245 0785 A2000000 		.4byte	0xa2
 1246 0789 44       		.byte	0x44
 1247 078a 0B       		.uleb128 0xb
 1248 078b 0A000000 		.4byte	.LASF126
 1249 078f 08       		.byte	0x8
 1250 0790 5E       		.byte	0x5e
 1251 0791 CE000000 		.4byte	0xce
 1252 0795 48       		.byte	0x48
 1253 0796 0B       		.uleb128 0xb
 1254 0797 27030000 		.4byte	.LASF127
 1255 079b 08       		.byte	0x8
 1256 079c 5F       		.byte	0x5f
 1257 079d CE000000 		.4byte	0xce
 1258 07a1 4C       		.byte	0x4c
 1259 07a2 0B       		.uleb128 0xb
 1260 07a3 A80C0000 		.4byte	.LASF128
 1261 07a7 08       		.byte	0x8
 1262 07a8 60       		.byte	0x60
ARM GAS  C:\Users\15311\AppData\Local\Temp\cccFsPp9.s 			page 52


 1263 07a9 A2000000 		.4byte	0xa2
 1264 07ad 50       		.byte	0x50
 1265 07ae 0B       		.uleb128 0xb
 1266 07af 8B010000 		.4byte	.LASF129
 1267 07b3 08       		.byte	0x8
 1268 07b4 61       		.byte	0x61
 1269 07b5 A2000000 		.4byte	0xa2
 1270 07b9 51       		.byte	0x51
 1271 07ba 0B       		.uleb128 0xb
 1272 07bb 8C0B0000 		.4byte	.LASF130
 1273 07bf 08       		.byte	0x8
 1274 07c0 62       		.byte	0x62
 1275 07c1 A2000000 		.4byte	0xa2
 1276 07c5 52       		.byte	0x52
 1277 07c6 0B       		.uleb128 0xb
 1278 07c7 B50A0000 		.4byte	.LASF131
 1279 07cb 08       		.byte	0x8
 1280 07cc 63       		.byte	0x63
 1281 07cd A2000000 		.4byte	0xa2
 1282 07d1 53       		.byte	0x53
 1283 07d2 0B       		.uleb128 0xb
 1284 07d3 74090000 		.4byte	.LASF132
 1285 07d7 08       		.byte	0x8
 1286 07d8 64       		.byte	0x64
 1287 07d9 A2000000 		.4byte	0xa2
 1288 07dd 54       		.byte	0x54
 1289 07de 0B       		.uleb128 0xb
 1290 07df 9D010000 		.4byte	.LASF133
 1291 07e3 08       		.byte	0x8
 1292 07e4 65       		.byte	0x65
 1293 07e5 A2000000 		.4byte	0xa2
 1294 07e9 55       		.byte	0x55
 1295 07ea 0B       		.uleb128 0xb
 1296 07eb 5C040000 		.4byte	.LASF134
 1297 07ef 08       		.byte	0x8
 1298 07f0 66       		.byte	0x66
 1299 07f1 A2000000 		.4byte	0xa2
 1300 07f5 56       		.byte	0x56
 1301 07f6 0B       		.uleb128 0xb
 1302 07f7 30090000 		.4byte	.LASF135
 1303 07fb 08       		.byte	0x8
 1304 07fc 67       		.byte	0x67
 1305 07fd A2000000 		.4byte	0xa2
 1306 0801 57       		.byte	0x57
 1307 0802 0B       		.uleb128 0xb
 1308 0803 26000000 		.4byte	.LASF136
 1309 0807 08       		.byte	0x8
 1310 0808 68       		.byte	0x68
 1311 0809 A2000000 		.4byte	0xa2
 1312 080d 58       		.byte	0x58
 1313 080e 0B       		.uleb128 0xb
 1314 080f F4080000 		.4byte	.LASF137
 1315 0813 08       		.byte	0x8
 1316 0814 69       		.byte	0x69
 1317 0815 A2000000 		.4byte	0xa2
 1318 0819 59       		.byte	0x59
 1319 081a 0B       		.uleb128 0xb
ARM GAS  C:\Users\15311\AppData\Local\Temp\cccFsPp9.s 			page 53


 1320 081b C8060000 		.4byte	.LASF138
 1321 081f 08       		.byte	0x8
 1322 0820 6E       		.byte	0x6e
 1323 0821 B8000000 		.4byte	0xb8
 1324 0825 5A       		.byte	0x5a
 1325 0826 0B       		.uleb128 0xb
 1326 0827 F30A0000 		.4byte	.LASF139
 1327 082b 08       		.byte	0x8
 1328 082c 6F       		.byte	0x6f
 1329 082d B8000000 		.4byte	0xb8
 1330 0831 5C       		.byte	0x5c
 1331 0832 0B       		.uleb128 0xb
 1332 0833 1D010000 		.4byte	.LASF140
 1333 0837 08       		.byte	0x8
 1334 0838 70       		.byte	0x70
 1335 0839 A2000000 		.4byte	0xa2
 1336 083d 5E       		.byte	0x5e
 1337 083e 0B       		.uleb128 0xb
 1338 083f F60B0000 		.4byte	.LASF141
 1339 0843 08       		.byte	0x8
 1340 0844 71       		.byte	0x71
 1341 0845 A2000000 		.4byte	0xa2
 1342 0849 5F       		.byte	0x5f
 1343 084a 0B       		.uleb128 0xb
 1344 084b 2E070000 		.4byte	.LASF142
 1345 084f 08       		.byte	0x8
 1346 0850 72       		.byte	0x72
 1347 0851 A2000000 		.4byte	0xa2
 1348 0855 60       		.byte	0x60
 1349 0856 0B       		.uleb128 0xb
 1350 0857 53080000 		.4byte	.LASF143
 1351 085b 08       		.byte	0x8
 1352 085c 73       		.byte	0x73
 1353 085d CE000000 		.4byte	0xce
 1354 0861 64       		.byte	0x64
 1355 0862 0B       		.uleb128 0xb
 1356 0863 4E010000 		.4byte	.LASF144
 1357 0867 08       		.byte	0x8
 1358 0868 76       		.byte	0x76
 1359 0869 B8000000 		.4byte	0xb8
 1360 086d 68       		.byte	0x68
 1361 086e 0B       		.uleb128 0xb
 1362 086f A5060000 		.4byte	.LASF145
 1363 0873 08       		.byte	0x8
 1364 0874 77       		.byte	0x77
 1365 0875 B8000000 		.4byte	0xb8
 1366 0879 6A       		.byte	0x6a
 1367 087a 0B       		.uleb128 0xb
 1368 087b 29050000 		.4byte	.LASF146
 1369 087f 08       		.byte	0x8
 1370 0880 78       		.byte	0x78
 1371 0881 B8000000 		.4byte	0xb8
 1372 0885 6C       		.byte	0x6c
 1373 0886 0B       		.uleb128 0xb
 1374 0887 92050000 		.4byte	.LASF147
 1375 088b 08       		.byte	0x8
 1376 088c 79       		.byte	0x79
ARM GAS  C:\Users\15311\AppData\Local\Temp\cccFsPp9.s 			page 54


 1377 088d B8000000 		.4byte	0xb8
 1378 0891 6E       		.byte	0x6e
 1379 0892 0B       		.uleb128 0xb
 1380 0893 1C090000 		.4byte	.LASF148
 1381 0897 08       		.byte	0x8
 1382 0898 7B       		.byte	0x7b
 1383 0899 A2000000 		.4byte	0xa2
 1384 089d 70       		.byte	0x70
 1385 089e 0B       		.uleb128 0xb
 1386 089f D3010000 		.4byte	.LASF149
 1387 08a3 08       		.byte	0x8
 1388 08a4 7C       		.byte	0x7c
 1389 08a5 A2000000 		.4byte	0xa2
 1390 08a9 71       		.byte	0x71
 1391 08aa 0B       		.uleb128 0xb
 1392 08ab 5C0C0000 		.4byte	.LASF150
 1393 08af 08       		.byte	0x8
 1394 08b0 7D       		.byte	0x7d
 1395 08b1 A2000000 		.4byte	0xa2
 1396 08b5 72       		.byte	0x72
 1397 08b6 0B       		.uleb128 0xb
 1398 08b7 EF060000 		.4byte	.LASF151
 1399 08bb 08       		.byte	0x8
 1400 08bc 7E       		.byte	0x7e
 1401 08bd A2000000 		.4byte	0xa2
 1402 08c1 73       		.byte	0x73
 1403 08c2 0B       		.uleb128 0xb
 1404 08c3 35030000 		.4byte	.LASF152
 1405 08c7 08       		.byte	0x8
 1406 08c8 80       		.byte	0x80
 1407 08c9 B8000000 		.4byte	0xb8
 1408 08cd 74       		.byte	0x74
 1409 08ce 0B       		.uleb128 0xb
 1410 08cf 120A0000 		.4byte	.LASF153
 1411 08d3 08       		.byte	0x8
 1412 08d4 81       		.byte	0x81
 1413 08d5 B8000000 		.4byte	0xb8
 1414 08d9 76       		.byte	0x76
 1415 08da 0B       		.uleb128 0xb
 1416 08db FB020000 		.4byte	.LASF154
 1417 08df 08       		.byte	0x8
 1418 08e0 82       		.byte	0x82
 1419 08e1 B8000000 		.4byte	0xb8
 1420 08e5 78       		.byte	0x78
 1421 08e6 0B       		.uleb128 0xb
 1422 08e7 BF000000 		.4byte	.LASF155
 1423 08eb 08       		.byte	0x8
 1424 08ec 83       		.byte	0x83
 1425 08ed B8000000 		.4byte	0xb8
 1426 08f1 7A       		.byte	0x7a
 1427 08f2 0B       		.uleb128 0xb
 1428 08f3 DA0B0000 		.4byte	.LASF156
 1429 08f7 08       		.byte	0x8
 1430 08f8 86       		.byte	0x86
 1431 08f9 A2000000 		.4byte	0xa2
 1432 08fd 7C       		.byte	0x7c
 1433 08fe 0B       		.uleb128 0xb
ARM GAS  C:\Users\15311\AppData\Local\Temp\cccFsPp9.s 			page 55


 1434 08ff 220B0000 		.4byte	.LASF157
 1435 0903 08       		.byte	0x8
 1436 0904 87       		.byte	0x87
 1437 0905 A2000000 		.4byte	0xa2
 1438 0909 7D       		.byte	0x7d
 1439 090a 0B       		.uleb128 0xb
 1440 090b 3A000000 		.4byte	.LASF158
 1441 090f 08       		.byte	0x8
 1442 0910 88       		.byte	0x88
 1443 0911 A2000000 		.4byte	0xa2
 1444 0915 7E       		.byte	0x7e
 1445 0916 0B       		.uleb128 0xb
 1446 0917 5A030000 		.4byte	.LASF159
 1447 091b 08       		.byte	0x8
 1448 091c 89       		.byte	0x89
 1449 091d A2000000 		.4byte	0xa2
 1450 0921 7F       		.byte	0x7f
 1451 0922 0B       		.uleb128 0xb
 1452 0923 0F040000 		.4byte	.LASF160
 1453 0927 08       		.byte	0x8
 1454 0928 8A       		.byte	0x8a
 1455 0929 A2000000 		.4byte	0xa2
 1456 092d 80       		.byte	0x80
 1457 092e 0B       		.uleb128 0xb
 1458 092f 29060000 		.4byte	.LASF161
 1459 0933 08       		.byte	0x8
 1460 0934 8D       		.byte	0x8d
 1461 0935 CE000000 		.4byte	0xce
 1462 0939 84       		.byte	0x84
 1463 093a 0B       		.uleb128 0xb
 1464 093b D4000000 		.4byte	.LASF162
 1465 093f 08       		.byte	0x8
 1466 0940 8E       		.byte	0x8e
 1467 0941 CE000000 		.4byte	0xce
 1468 0945 88       		.byte	0x88
 1469 0946 0B       		.uleb128 0xb
 1470 0947 C50B0000 		.4byte	.LASF163
 1471 094b 08       		.byte	0x8
 1472 094c 8F       		.byte	0x8f
 1473 094d CE000000 		.4byte	0xce
 1474 0951 8C       		.byte	0x8c
 1475 0952 0B       		.uleb128 0xb
 1476 0953 7D060000 		.4byte	.LASF164
 1477 0957 08       		.byte	0x8
 1478 0958 90       		.byte	0x90
 1479 0959 CE000000 		.4byte	0xce
 1480 095d 90       		.byte	0x90
 1481 095e 0B       		.uleb128 0xb
 1482 095f F0030000 		.4byte	.LASF165
 1483 0963 08       		.byte	0x8
 1484 0964 91       		.byte	0x91
 1485 0965 CE000000 		.4byte	0xce
 1486 0969 94       		.byte	0x94
 1487 096a 0B       		.uleb128 0xb
 1488 096b 13060000 		.4byte	.LASF166
 1489 096f 08       		.byte	0x8
 1490 0970 92       		.byte	0x92
ARM GAS  C:\Users\15311\AppData\Local\Temp\cccFsPp9.s 			page 56


 1491 0971 CE000000 		.4byte	0xce
 1492 0975 98       		.byte	0x98
 1493 0976 0B       		.uleb128 0xb
 1494 0977 2B0C0000 		.4byte	.LASF167
 1495 097b 08       		.byte	0x8
 1496 097c 93       		.byte	0x93
 1497 097d CE000000 		.4byte	0xce
 1498 0981 9C       		.byte	0x9c
 1499 0982 0B       		.uleb128 0xb
 1500 0983 68010000 		.4byte	.LASF168
 1501 0987 08       		.byte	0x8
 1502 0988 94       		.byte	0x94
 1503 0989 CE000000 		.4byte	0xce
 1504 098d A0       		.byte	0xa0
 1505 098e 0B       		.uleb128 0xb
 1506 098f 18020000 		.4byte	.LASF169
 1507 0993 08       		.byte	0x8
 1508 0994 95       		.byte	0x95
 1509 0995 B8000000 		.4byte	0xb8
 1510 0999 A4       		.byte	0xa4
 1511 099a 0B       		.uleb128 0xb
 1512 099b 770B0000 		.4byte	.LASF170
 1513 099f 08       		.byte	0x8
 1514 09a0 96       		.byte	0x96
 1515 09a1 B8000000 		.4byte	0xb8
 1516 09a5 A6       		.byte	0xa6
 1517 09a6 0B       		.uleb128 0xb
 1518 09a7 82080000 		.4byte	.LASF171
 1519 09ab 08       		.byte	0x8
 1520 09ac 97       		.byte	0x97
 1521 09ad B8000000 		.4byte	0xb8
 1522 09b1 A8       		.byte	0xa8
 1523 09b2 0B       		.uleb128 0xb
 1524 09b3 D4090000 		.4byte	.LASF172
 1525 09b7 08       		.byte	0x8
 1526 09b8 98       		.byte	0x98
 1527 09b9 B8000000 		.4byte	0xb8
 1528 09bd AA       		.byte	0xaa
 1529 09be 0B       		.uleb128 0xb
 1530 09bf 47050000 		.4byte	.LASF173
 1531 09c3 08       		.byte	0x8
 1532 09c4 99       		.byte	0x99
 1533 09c5 B8000000 		.4byte	0xb8
 1534 09c9 AC       		.byte	0xac
 1535 09ca 0B       		.uleb128 0xb
 1536 09cb 0F070000 		.4byte	.LASF174
 1537 09cf 08       		.byte	0x8
 1538 09d0 9A       		.byte	0x9a
 1539 09d1 B8000000 		.4byte	0xb8
 1540 09d5 AE       		.byte	0xae
 1541 09d6 0B       		.uleb128 0xb
 1542 09d7 80070000 		.4byte	.LASF175
 1543 09db 08       		.byte	0x8
 1544 09dc 9D       		.byte	0x9d
 1545 09dd B8000000 		.4byte	0xb8
 1546 09e1 B0       		.byte	0xb0
 1547 09e2 0B       		.uleb128 0xb
ARM GAS  C:\Users\15311\AppData\Local\Temp\cccFsPp9.s 			page 57


 1548 09e3 59000000 		.4byte	.LASF176
 1549 09e7 08       		.byte	0x8
 1550 09e8 9E       		.byte	0x9e
 1551 09e9 CE000000 		.4byte	0xce
 1552 09ed B4       		.byte	0xb4
 1553 09ee 00       		.byte	0
 1554 09ef 03       		.uleb128 0x3
 1555 09f0 C0050000 		.4byte	.LASF177
 1556 09f4 08       		.byte	0x8
 1557 09f5 9F       		.byte	0x9f
 1558 09f6 DE050000 		.4byte	0x5de
 1559 09fa 0D       		.uleb128 0xd
 1560 09fb 48040000 		.4byte	.LASF178
 1561 09ff 09       		.byte	0x9
 1562 0a00 F601     		.2byte	0x1f6
 1563 0a02 060A0000 		.4byte	0xa06
 1564 0a06 02       		.uleb128 0x2
 1565 0a07 01       		.byte	0x1
 1566 0a08 08       		.byte	0x8
 1567 0a09 B9090000 		.4byte	.LASF179
 1568 0a0d 02       		.uleb128 0x2
 1569 0a0e 04       		.byte	0x4
 1570 0a0f 04       		.byte	0x4
 1571 0a10 4D080000 		.4byte	.LASF180
 1572 0a14 02       		.uleb128 0x2
 1573 0a15 08       		.byte	0x8
 1574 0a16 04       		.byte	0x4
 1575 0a17 F4020000 		.4byte	.LASF181
 1576 0a1b 0F       		.uleb128 0xf
 1577 0a1c 04       		.byte	0x4
 1578 0a1d 02       		.uleb128 0x2
 1579 0a1e 01       		.byte	0x1
 1580 0a1f 02       		.byte	0x2
 1581 0a20 C8080000 		.4byte	.LASF182
 1582 0a24 10       		.uleb128 0x10
 1583 0a25 04       		.byte	0x4
 1584 0a26 2A0A0000 		.4byte	0xa2a
 1585 0a2a 11       		.uleb128 0x11
 1586 0a2b 350A0000 		.4byte	0xa35
 1587 0a2f 12       		.uleb128 0x12
 1588 0a30 CE000000 		.4byte	0xce
 1589 0a34 00       		.byte	0
 1590 0a35 10       		.uleb128 0x10
 1591 0a36 04       		.byte	0x4
 1592 0a37 A2000000 		.4byte	0xa2
 1593 0a3b 0D       		.uleb128 0xd
 1594 0a3c C5040000 		.4byte	.LASF183
 1595 0a40 03       		.byte	0x3
 1596 0a41 D901     		.2byte	0x1d9
 1597 0a43 240A0000 		.4byte	0xa24
 1598 0a47 13       		.uleb128 0x13
 1599 0a48 7A0C0000 		.4byte	.LASF226
 1600 0a4c 38       		.byte	0x38
 1601 0a4d 03       		.byte	0x3
 1602 0a4e 7502     		.2byte	0x275
 1603 0a50 0B0B0000 		.4byte	0xb0b
 1604 0a54 14       		.uleb128 0x14
ARM GAS  C:\Users\15311\AppData\Local\Temp\cccFsPp9.s 			page 58


 1605 0a55 410C0000 		.4byte	.LASF184
 1606 0a59 03       		.byte	0x3
 1607 0a5a 7802     		.2byte	0x278
 1608 0a5c E0000000 		.4byte	0xe0
 1609 0a60 00       		.byte	0
 1610 0a61 14       		.uleb128 0x14
 1611 0a62 51070000 		.4byte	.LASF185
 1612 0a66 03       		.byte	0x3
 1613 0a67 7902     		.2byte	0x279
 1614 0a69 E0000000 		.4byte	0xe0
 1615 0a6d 04       		.byte	0x4
 1616 0a6e 14       		.uleb128 0x14
 1617 0a6f 5E010000 		.4byte	.LASF186
 1618 0a73 03       		.byte	0x3
 1619 0a74 7B02     		.2byte	0x27b
 1620 0a76 1B0A0000 		.4byte	0xa1b
 1621 0a7a 08       		.byte	0x8
 1622 0a7b 14       		.uleb128 0x14
 1623 0a7c C70A0000 		.4byte	.LASF187
 1624 0a80 03       		.byte	0x3
 1625 0a81 7C02     		.2byte	0x27c
 1626 0a83 CE000000 		.4byte	0xce
 1627 0a87 0C       		.byte	0xc
 1628 0a88 14       		.uleb128 0x14
 1629 0a89 05060000 		.4byte	.LASF188
 1630 0a8d 03       		.byte	0x3
 1631 0a8e 7D02     		.2byte	0x27d
 1632 0a90 E0000000 		.4byte	0xe0
 1633 0a94 10       		.byte	0x10
 1634 0a95 14       		.uleb128 0x14
 1635 0a96 0C0C0000 		.4byte	.LASF189
 1636 0a9a 03       		.byte	0x3
 1637 0a9b 7E02     		.2byte	0x27e
 1638 0a9d E0000000 		.4byte	0xe0
 1639 0aa1 14       		.byte	0x14
 1640 0aa2 14       		.uleb128 0x14
 1641 0aa3 3B0B0000 		.4byte	.LASF190
 1642 0aa7 03       		.byte	0x3
 1643 0aa8 8002     		.2byte	0x280
 1644 0aaa 1B0A0000 		.4byte	0xa1b
 1645 0aae 18       		.byte	0x18
 1646 0aaf 14       		.uleb128 0x14
 1647 0ab0 1C000000 		.4byte	.LASF191
 1648 0ab4 03       		.byte	0x3
 1649 0ab5 8102     		.2byte	0x281
 1650 0ab7 CE000000 		.4byte	0xce
 1651 0abb 1C       		.byte	0x1c
 1652 0abc 14       		.uleb128 0x14
 1653 0abd B2030000 		.4byte	.LASF192
 1654 0ac1 03       		.byte	0x3
 1655 0ac2 8202     		.2byte	0x282
 1656 0ac4 E0000000 		.4byte	0xe0
 1657 0ac8 20       		.byte	0x20
 1658 0ac9 14       		.uleb128 0x14
 1659 0aca AB050000 		.4byte	.LASF193
 1660 0ace 03       		.byte	0x3
 1661 0acf 8402     		.2byte	0x284
ARM GAS  C:\Users\15311\AppData\Local\Temp\cccFsPp9.s 			page 59


 1662 0ad1 1B0A0000 		.4byte	0xa1b
 1663 0ad5 24       		.byte	0x24
 1664 0ad6 14       		.uleb128 0x14
 1665 0ad7 05040000 		.4byte	.LASF194
 1666 0adb 03       		.byte	0x3
 1667 0adc 8502     		.2byte	0x285
 1668 0ade CE000000 		.4byte	0xce
 1669 0ae2 28       		.byte	0x28
 1670 0ae3 14       		.uleb128 0x14
 1671 0ae4 E8010000 		.4byte	.LASF195
 1672 0ae8 03       		.byte	0x3
 1673 0ae9 8602     		.2byte	0x286
 1674 0aeb E0000000 		.4byte	0xe0
 1675 0aef 2C       		.byte	0x2c
 1676 0af0 14       		.uleb128 0x14
 1677 0af1 7A050000 		.4byte	.LASF196
 1678 0af5 03       		.byte	0x3
 1679 0af6 8B02     		.2byte	0x28b
 1680 0af8 3B0A0000 		.4byte	0xa3b
 1681 0afc 30       		.byte	0x30
 1682 0afd 14       		.uleb128 0x14
 1683 0afe 330B0000 		.4byte	.LASF197
 1684 0b02 03       		.byte	0x3
 1685 0b03 8E02     		.2byte	0x28e
 1686 0b05 CE000000 		.4byte	0xce
 1687 0b09 34       		.byte	0x34
 1688 0b0a 00       		.byte	0
 1689 0b0b 0D       		.uleb128 0xd
 1690 0b0c 410B0000 		.4byte	.LASF198
 1691 0b10 03       		.byte	0x3
 1692 0b11 9102     		.2byte	0x291
 1693 0b13 470A0000 		.4byte	0xa47
 1694 0b17 03       		.uleb128 0x3
 1695 0b18 C2020000 		.4byte	.LASF199
 1696 0b1c 0A       		.byte	0xa
 1697 0b1d 3F       		.byte	0x3f
 1698 0b1e CE000000 		.4byte	0xce
 1699 0b22 15       		.uleb128 0x15
 1700 0b23 EB000000 		.4byte	.LASF227
 1701 0b27 02       		.byte	0x2
 1702 0b28 81       		.byte	0x81
 1703 0b29 03       		.byte	0x3
 1704 0b2a 16       		.uleb128 0x16
 1705 0b2b 22030000 		.4byte	.LASF228
 1706 0b2f 01       		.byte	0x1
 1707 0b30 1F       		.byte	0x1f
 1708 0b31 94000000 		.4byte	0x94
 1709 0b35 00000000 		.4byte	.LFB485
 1710 0b39 2C000000 		.4byte	.LFE485-.LFB485
 1711 0b3d 01       		.uleb128 0x1
 1712 0b3e 9C       		.byte	0x9c
 1713 0b3f 9D0B0000 		.4byte	0xb9d
 1714 0b43 17       		.uleb128 0x17
 1715 0b44 220B0000 		.4byte	0xb22
 1716 0b48 08000000 		.4byte	.LBB4
 1717 0b4c 02000000 		.4byte	.LBE4-.LBB4
 1718 0b50 01       		.byte	0x1
ARM GAS  C:\Users\15311\AppData\Local\Temp\cccFsPp9.s 			page 60


 1719 0b51 2A       		.byte	0x2a
 1720 0b52 18       		.uleb128 0x18
 1721 0b53 08000000 		.4byte	.LVL0
 1722 0b57 4E0E0000 		.4byte	0xe4e
 1723 0b5b 19       		.uleb128 0x19
 1724 0b5c 1E000000 		.4byte	.LVL1
 1725 0b60 590E0000 		.4byte	0xe59
 1726 0b64 930B0000 		.4byte	0xb93
 1727 0b68 1A       		.uleb128 0x1a
 1728 0b69 01       		.uleb128 0x1
 1729 0b6a 50       		.byte	0x50
 1730 0b6b 05       		.uleb128 0x5
 1731 0b6c 03       		.byte	0x3
 1732 0b6d 00000000 		.4byte	send_task
 1733 0b71 1A       		.uleb128 0x1a
 1734 0b72 01       		.uleb128 0x1
 1735 0b73 51       		.byte	0x51
 1736 0b74 05       		.uleb128 0x5
 1737 0b75 03       		.byte	0x3
 1738 0b76 00000000 		.4byte	.LC0
 1739 0b7a 1A       		.uleb128 0x1a
 1740 0b7b 01       		.uleb128 0x1
 1741 0b7c 52       		.byte	0x52
 1742 0b7d 03       		.uleb128 0x3
 1743 0b7e 0A       		.byte	0xa
 1744 0b7f 0004     		.2byte	0x400
 1745 0b81 1A       		.uleb128 0x1a
 1746 0b82 01       		.uleb128 0x1
 1747 0b83 53       		.byte	0x53
 1748 0b84 01       		.uleb128 0x1
 1749 0b85 30       		.byte	0x30
 1750 0b86 1A       		.uleb128 0x1a
 1751 0b87 02       		.uleb128 0x2
 1752 0b88 7D       		.byte	0x7d
 1753 0b89 00       		.sleb128 0
 1754 0b8a 01       		.uleb128 0x1
 1755 0b8b 32       		.byte	0x32
 1756 0b8c 1A       		.uleb128 0x1a
 1757 0b8d 02       		.uleb128 0x2
 1758 0b8e 7D       		.byte	0x7d
 1759 0b8f 04       		.sleb128 4
 1760 0b90 01       		.uleb128 0x1
 1761 0b91 30       		.byte	0x30
 1762 0b92 00       		.byte	0
 1763 0b93 18       		.uleb128 0x18
 1764 0b94 22000000 		.4byte	.LVL2
 1765 0b98 650E0000 		.4byte	0xe65
 1766 0b9c 00       		.byte	0
 1767 0b9d 1B       		.uleb128 0x1b
 1768 0b9e B1050000 		.4byte	.LASF211
 1769 0ba2 01       		.byte	0x1
 1770 0ba3 42       		.byte	0x42
 1771 0ba4 A2000000 		.4byte	0xa2
 1772 0ba8 00000000 		.4byte	.LFB486
 1773 0bac 3C000000 		.4byte	.LFE486-.LFB486
 1774 0bb0 01       		.uleb128 0x1
 1775 0bb1 9C       		.byte	0x9c
ARM GAS  C:\Users\15311\AppData\Local\Temp\cccFsPp9.s 			page 61


 1776 0bb2 0C0C0000 		.4byte	0xc0c
 1777 0bb6 1C       		.uleb128 0x1c
 1778 0bb7 1F050000 		.4byte	.LASF200
 1779 0bbb 01       		.byte	0x1
 1780 0bbc 42       		.byte	0x42
 1781 0bbd 350A0000 		.4byte	0xa35
 1782 0bc1 00000000 		.4byte	.LLST0
 1783 0bc5 1D       		.uleb128 0x1d
 1784 0bc6 EF0B0000 		.4byte	.LASF201
 1785 0bca 01       		.byte	0x1
 1786 0bcb 42       		.byte	0x42
 1787 0bcc A2000000 		.4byte	0xa2
 1788 0bd0 01       		.uleb128 0x1
 1789 0bd1 51       		.byte	0x51
 1790 0bd2 1E       		.uleb128 0x1e
 1791 0bd3 63726300 		.ascii	"crc\000"
 1792 0bd7 01       		.byte	0x1
 1793 0bd8 43       		.byte	0x43
 1794 0bd9 A2000000 		.4byte	0xa2
 1795 0bdd 2C000000 		.4byte	.LLST1
 1796 0be1 1F       		.uleb128 0x1f
 1797 0be2 00000000 		.4byte	.Ldebug_ranges0+0
 1798 0be6 1E       		.uleb128 0x1e
 1799 0be7 6900     		.ascii	"i\000"
 1800 0be9 01       		.byte	0x1
 1801 0bea 44       		.byte	0x44
 1802 0beb A2000000 		.4byte	0xa2
 1803 0bef 61000000 		.4byte	.LLST2
 1804 0bf3 20       		.uleb128 0x20
 1805 0bf4 0E000000 		.4byte	.LBB7
 1806 0bf8 20000000 		.4byte	.LBE7-.LBB7
 1807 0bfc 1E       		.uleb128 0x1e
 1808 0bfd 6A00     		.ascii	"j\000"
 1809 0bff 01       		.byte	0x1
 1810 0c00 46       		.byte	0x46
 1811 0c01 A2000000 		.4byte	0xa2
 1812 0c05 8B000000 		.4byte	.LLST3
 1813 0c09 00       		.byte	0
 1814 0c0a 00       		.byte	0
 1815 0c0b 00       		.byte	0
 1816 0c0c 21       		.uleb128 0x21
 1817 0c0d F0050000 		.4byte	.LASF229
 1818 0c11 03       		.byte	0x3
 1819 0c12 7105     		.2byte	0x571
 1820 0c14 CE000000 		.4byte	0xce
 1821 0c18 03       		.byte	0x3
 1822 0c19 420C0000 		.4byte	0xc42
 1823 0c1d 22       		.uleb128 0x22
 1824 0c1e 4D060000 		.4byte	.LASF202
 1825 0c22 03       		.byte	0x3
 1826 0c23 7105     		.2byte	0x571
 1827 0c25 420C0000 		.4byte	0xc42
 1828 0c29 22       		.uleb128 0x22
 1829 0c2a 1B030000 		.4byte	.LASF203
 1830 0c2e 03       		.byte	0x3
 1831 0c2f 7105     		.2byte	0x571
 1832 0c31 1B0A0000 		.4byte	0xa1b
ARM GAS  C:\Users\15311\AppData\Local\Temp\cccFsPp9.s 			page 62


 1833 0c35 22       		.uleb128 0x22
 1834 0c36 24050000 		.4byte	.LASF204
 1835 0c3a 03       		.byte	0x3
 1836 0c3b 7105     		.2byte	0x571
 1837 0c3d CE000000 		.4byte	0xce
 1838 0c41 00       		.byte	0
 1839 0c42 10       		.uleb128 0x10
 1840 0c43 04       		.byte	0x4
 1841 0c44 CB050000 		.4byte	0x5cb
 1842 0c48 23       		.uleb128 0x23
 1843 0c49 00000000 		.4byte	.LASF207
 1844 0c4d 01       		.byte	0x1
 1845 0c4e 50       		.byte	0x50
 1846 0c4f 00000000 		.4byte	.LFB487
 1847 0c53 54000000 		.4byte	.LFE487-.LFB487
 1848 0c57 01       		.uleb128 0x1
 1849 0c58 9C       		.byte	0x9c
 1850 0c59 460D0000 		.4byte	0xd46
 1851 0c5d 1C       		.uleb128 0x1c
 1852 0c5e B90C0000 		.4byte	.LASF205
 1853 0c62 01       		.byte	0x1
 1854 0c63 50       		.byte	0x50
 1855 0c64 A2000000 		.4byte	0xa2
 1856 0c68 B5000000 		.4byte	.LLST4
 1857 0c6c 1C       		.uleb128 0x1c
 1858 0c6d 1F050000 		.4byte	.LASF200
 1859 0c71 01       		.byte	0x1
 1860 0c72 50       		.byte	0x50
 1861 0c73 350A0000 		.4byte	0xa35
 1862 0c77 E2000000 		.4byte	.LLST5
 1863 0c7b 1C       		.uleb128 0x1c
 1864 0c7c EF0B0000 		.4byte	.LASF201
 1865 0c80 01       		.byte	0x1
 1866 0c81 50       		.byte	0x50
 1867 0c82 A2000000 		.4byte	0xa2
 1868 0c86 03010000 		.4byte	.LLST6
 1869 0c8a 24       		.uleb128 0x24
 1870 0c8b 590D0000 		.4byte	0xd59
 1871 0c8f 24010000 		.4byte	.LLST7
 1872 0c93 25       		.uleb128 0x25
 1873 0c94 D50A0000 		.4byte	.LASF206
 1874 0c98 01       		.byte	0x1
 1875 0c99 51       		.byte	0x51
 1876 0c9a 460D0000 		.4byte	0xd46
 1877 0c9e 37010000 		.4byte	.LLST8
 1878 0ca2 26       		.uleb128 0x26
 1879 0ca3 0C0C0000 		.4byte	0xc0c
 1880 0ca7 32000000 		.4byte	.LBB11
 1881 0cab 16000000 		.4byte	.LBE11-.LBB11
 1882 0caf 01       		.byte	0x1
 1883 0cb0 56       		.byte	0x56
 1884 0cb1 0E0D0000 		.4byte	0xd0e
 1885 0cb5 27       		.uleb128 0x27
 1886 0cb6 350C0000 		.4byte	0xc35
 1887 0cba 4B010000 		.4byte	.LLST9
 1888 0cbe 27       		.uleb128 0x27
 1889 0cbf 290C0000 		.4byte	0xc29
ARM GAS  C:\Users\15311\AppData\Local\Temp\cccFsPp9.s 			page 63


 1890 0cc3 5E010000 		.4byte	.LLST10
 1891 0cc7 27       		.uleb128 0x27
 1892 0cc8 1D0C0000 		.4byte	0xc1d
 1893 0ccc 71010000 		.4byte	.LLST11
 1894 0cd0 19       		.uleb128 0x19
 1895 0cd1 3E000000 		.4byte	.LVL25
 1896 0cd5 710E0000 		.4byte	0xe71
 1897 0cd9 EE0C0000 		.4byte	0xcee
 1898 0cdd 1A       		.uleb128 0x1a
 1899 0cde 01       		.uleb128 0x1
 1900 0cdf 50       		.byte	0x50
 1901 0ce0 05       		.uleb128 0x5
 1902 0ce1 03       		.byte	0x3
 1903 0ce2 0C000000 		.4byte	.LC1
 1904 0ce6 1A       		.uleb128 0x1a
 1905 0ce7 01       		.uleb128 0x1
 1906 0ce8 51       		.byte	0x51
 1907 0ce9 03       		.uleb128 0x3
 1908 0cea 0A       		.byte	0xa
 1909 0ceb 7305     		.2byte	0x573
 1910 0ced 00       		.byte	0
 1911 0cee 28       		.uleb128 0x28
 1912 0cef 48000000 		.4byte	.LVL26
 1913 0cf3 7D0E0000 		.4byte	0xe7d
 1914 0cf7 1A       		.uleb128 0x1a
 1915 0cf8 01       		.uleb128 0x1
 1916 0cf9 50       		.byte	0x50
 1917 0cfa 05       		.uleb128 0x5
 1918 0cfb 0C       		.byte	0xc
 1919 0cfc 00006640 		.4byte	0x40660000
 1920 0d00 1A       		.uleb128 0x1a
 1921 0d01 01       		.uleb128 0x1
 1922 0d02 51       		.byte	0x51
 1923 0d03 02       		.uleb128 0x2
 1924 0d04 74       		.byte	0x74
 1925 0d05 00       		.sleb128 0
 1926 0d06 1A       		.uleb128 0x1a
 1927 0d07 01       		.uleb128 0x1
 1928 0d08 52       		.byte	0x52
 1929 0d09 02       		.uleb128 0x2
 1930 0d0a 75       		.byte	0x75
 1931 0d0b 00       		.sleb128 0
 1932 0d0c 00       		.byte	0
 1933 0d0d 00       		.byte	0
 1934 0d0e 19       		.uleb128 0x19
 1935 0d0f 26000000 		.4byte	.LVL22
 1936 0d13 880E0000 		.4byte	0xe88
 1937 0d17 2F0D0000 		.4byte	0xd2f
 1938 0d1b 1A       		.uleb128 0x1a
 1939 0d1c 01       		.uleb128 0x1
 1940 0d1d 50       		.byte	0x50
 1941 0d1e 02       		.uleb128 0x2
 1942 0d1f 74       		.byte	0x74
 1943 0d20 02       		.sleb128 2
 1944 0d21 1A       		.uleb128 0x1a
 1945 0d22 01       		.uleb128 0x1
 1946 0d23 51       		.byte	0x51
ARM GAS  C:\Users\15311\AppData\Local\Temp\cccFsPp9.s 			page 64


 1947 0d24 03       		.uleb128 0x3
 1948 0d25 F3       		.byte	0xf3
 1949 0d26 01       		.uleb128 0x1
 1950 0d27 51       		.byte	0x51
 1951 0d28 1A       		.uleb128 0x1a
 1952 0d29 01       		.uleb128 0x1
 1953 0d2a 52       		.byte	0x52
 1954 0d2b 02       		.uleb128 0x2
 1955 0d2c 76       		.byte	0x76
 1956 0d2d 7E       		.sleb128 -2
 1957 0d2e 00       		.byte	0
 1958 0d2f 28       		.uleb128 0x28
 1959 0d30 2E000000 		.4byte	.LVL23
 1960 0d34 9D0B0000 		.4byte	0xb9d
 1961 0d38 1A       		.uleb128 0x1a
 1962 0d39 01       		.uleb128 0x1
 1963 0d3a 50       		.byte	0x50
 1964 0d3b 02       		.uleb128 0x2
 1965 0d3c 74       		.byte	0x74
 1966 0d3d 00       		.sleb128 0
 1967 0d3e 1A       		.uleb128 0x1a
 1968 0d3f 01       		.uleb128 0x1
 1969 0d40 51       		.byte	0x51
 1970 0d41 02       		.uleb128 0x2
 1971 0d42 76       		.byte	0x76
 1972 0d43 00       		.sleb128 0
 1973 0d44 00       		.byte	0
 1974 0d45 00       		.byte	0
 1975 0d46 07       		.uleb128 0x7
 1976 0d47 A2000000 		.4byte	0xa2
 1977 0d4b 590D0000 		.4byte	0xd59
 1978 0d4f 29       		.uleb128 0x29
 1979 0d50 D9000000 		.4byte	0xd9
 1980 0d54 8A0C0000 		.4byte	0xc8a
 1981 0d58 00       		.byte	0
 1982 0d59 06       		.uleb128 0x6
 1983 0d5a D9000000 		.4byte	0xd9
 1984 0d5e 23       		.uleb128 0x23
 1985 0d5f A90B0000 		.4byte	.LASF208
 1986 0d63 01       		.byte	0x1
 1987 0d64 5C       		.byte	0x5c
 1988 0d65 00000000 		.4byte	.LFB488
 1989 0d69 20000000 		.4byte	.LFE488-.LFB488
 1990 0d6d 01       		.uleb128 0x1
 1991 0d6e 9C       		.byte	0x9c
 1992 0d6f B50D0000 		.4byte	0xdb5
 1993 0d73 1C       		.uleb128 0x1c
 1994 0d74 84090000 		.4byte	.LASF209
 1995 0d78 01       		.byte	0x1
 1996 0d79 5C       		.byte	0x5c
 1997 0d7a B8000000 		.4byte	0xb8
 1998 0d7e 89010000 		.4byte	.LLST12
 1999 0d82 1C       		.uleb128 0x1c
 2000 0d83 6D000000 		.4byte	.LASF210
 2001 0d87 01       		.byte	0x1
 2002 0d88 5C       		.byte	0x5c
 2003 0d89 B8000000 		.4byte	0xb8
ARM GAS  C:\Users\15311\AppData\Local\Temp\cccFsPp9.s 			page 65


 2004 0d8d AA010000 		.4byte	.LLST13
 2005 0d91 2A       		.uleb128 0x2a
 2006 0d92 1F050000 		.4byte	.LASF200
 2007 0d96 01       		.byte	0x1
 2008 0d97 5D       		.byte	0x5d
 2009 0d98 5A010000 		.4byte	0x15a
 2010 0d9c 02       		.uleb128 0x2
 2011 0d9d 91       		.byte	0x91
 2012 0d9e 74       		.sleb128 -12
 2013 0d9f 28       		.uleb128 0x28
 2014 0da0 1A000000 		.4byte	.LVL31
 2015 0da4 480C0000 		.4byte	0xc48
 2016 0da8 1A       		.uleb128 0x1a
 2017 0da9 01       		.uleb128 0x1
 2018 0daa 51       		.byte	0x51
 2019 0dab 02       		.uleb128 0x2
 2020 0dac 91       		.byte	0x91
 2021 0dad 74       		.sleb128 -12
 2022 0dae 1A       		.uleb128 0x1a
 2023 0daf 01       		.uleb128 0x1
 2024 0db0 52       		.byte	0x52
 2025 0db1 01       		.uleb128 0x1
 2026 0db2 32       		.byte	0x32
 2027 0db3 00       		.byte	0
 2028 0db4 00       		.byte	0
 2029 0db5 2B       		.uleb128 0x2b
 2030 0db6 D9050000 		.4byte	.LASF212
 2031 0dba 01       		.byte	0x1
 2032 0dbb 63       		.byte	0x63
 2033 0dbc 00000000 		.4byte	.LFB489
 2034 0dc0 16000000 		.4byte	.LFE489-.LFB489
 2035 0dc4 01       		.uleb128 0x1
 2036 0dc5 9C       		.byte	0x9c
 2037 0dc6 1C0E0000 		.4byte	0xe1c
 2038 0dca 1C       		.uleb128 0x1c
 2039 0dcb F1040000 		.4byte	.LASF213
 2040 0dcf 01       		.byte	0x1
 2041 0dd0 63       		.byte	0x63
 2042 0dd1 1B0A0000 		.4byte	0xa1b
 2043 0dd5 CB010000 		.4byte	.LLST14
 2044 0dd9 20       		.uleb128 0x20
 2045 0dda 02000000 		.4byte	.LBB13
 2046 0dde 14000000 		.4byte	.LBE13-.LBB13
 2047 0de2 2C       		.uleb128 0x2c
 2048 0de3 1F050000 		.4byte	.LASF200
 2049 0de7 01       		.byte	0x1
 2050 0de8 65       		.byte	0x65
 2051 0de9 B8000000 		.4byte	0xb8
 2052 0ded 3412     		.2byte	0x1234
 2053 0def 19       		.uleb128 0x19
 2054 0df0 0C000000 		.4byte	.LVL34
 2055 0df4 5E0D0000 		.4byte	0xd5e
 2056 0df8 090E0000 		.4byte	0xe09
 2057 0dfc 1A       		.uleb128 0x1a
 2058 0dfd 01       		.uleb128 0x1
 2059 0dfe 50       		.byte	0x50
 2060 0dff 03       		.uleb128 0x3
ARM GAS  C:\Users\15311\AppData\Local\Temp\cccFsPp9.s 			page 66


 2061 0e00 0A       		.byte	0xa
 2062 0e01 3412     		.2byte	0x1234
 2063 0e03 1A       		.uleb128 0x1a
 2064 0e04 01       		.uleb128 0x1
 2065 0e05 51       		.byte	0x51
 2066 0e06 01       		.uleb128 0x1
 2067 0e07 30       		.byte	0x30
 2068 0e08 00       		.byte	0
 2069 0e09 28       		.uleb128 0x28
 2070 0e0a 14000000 		.4byte	.LVL35
 2071 0e0e 910E0000 		.4byte	0xe91
 2072 0e12 1A       		.uleb128 0x1a
 2073 0e13 01       		.uleb128 0x1
 2074 0e14 50       		.byte	0x50
 2075 0e15 03       		.uleb128 0x3
 2076 0e16 0A       		.byte	0xa
 2077 0e17 F401     		.2byte	0x1f4
 2078 0e19 00       		.byte	0
 2079 0e1a 00       		.byte	0
 2080 0e1b 00       		.byte	0
 2081 0e1c 2D       		.uleb128 0x2d
 2082 0e1d 7E010000 		.4byte	.LASF214
 2083 0e21 0B       		.byte	0xb
 2084 0e22 F907     		.2byte	0x7f9
 2085 0e24 280E0000 		.4byte	0xe28
 2086 0e28 05       		.uleb128 0x5
 2087 0e29 C3000000 		.4byte	0xc3
 2088 0e2d 2E       		.uleb128 0x2e
 2089 0e2e 6E080000 		.4byte	.LASF215
 2090 0e32 08       		.byte	0x8
 2091 0e33 A7       		.byte	0xa7
 2092 0e34 380E0000 		.4byte	0xe38
 2093 0e38 10       		.uleb128 0x10
 2094 0e39 04       		.byte	0x4
 2095 0e3a 3E0E0000 		.4byte	0xe3e
 2096 0e3e 06       		.uleb128 0x6
 2097 0e3f EF090000 		.4byte	0x9ef
 2098 0e43 2E       		.uleb128 0x2e
 2099 0e44 E4040000 		.4byte	.LASF216
 2100 0e48 0C       		.byte	0xc
 2101 0e49 87       		.byte	0x87
 2102 0e4a 0B0B0000 		.4byte	0xb0b
 2103 0e4e 2F       		.uleb128 0x2f
 2104 0e4f 43010000 		.4byte	.LASF217
 2105 0e53 43010000 		.4byte	.LASF217
 2106 0e57 0C       		.byte	0xc
 2107 0e58 31       		.byte	0x31
 2108 0e59 30       		.uleb128 0x30
 2109 0e5a 4D000000 		.4byte	.LASF218
 2110 0e5e 4D000000 		.4byte	.LASF218
 2111 0e62 0D       		.byte	0xd
 2112 0e63 4101     		.2byte	0x141
 2113 0e65 30       		.uleb128 0x30
 2114 0e66 94030000 		.4byte	.LASF219
 2115 0e6a 94030000 		.4byte	.LASF219
 2116 0e6e 0D       		.byte	0xd
 2117 0e6f 8E04     		.2byte	0x48e
ARM GAS  C:\Users\15311\AppData\Local\Temp\cccFsPp9.s 			page 67


 2118 0e71 30       		.uleb128 0x30
 2119 0e72 DC0A0000 		.4byte	.LASF220
 2120 0e76 DC0A0000 		.4byte	.LASF220
 2121 0e7a 09       		.byte	0x9
 2122 0e7b 9203     		.2byte	0x392
 2123 0e7d 2F       		.uleb128 0x2f
 2124 0e7e A1040000 		.4byte	.LASF221
 2125 0e82 A1040000 		.4byte	.LASF221
 2126 0e86 0E       		.byte	0xe
 2127 0e87 ED       		.byte	0xed
 2128 0e88 31       		.uleb128 0x31
 2129 0e89 83050000 		.4byte	.LASF230
 2130 0e8d 83050000 		.4byte	.LASF230
 2131 0e91 30       		.uleb128 0x30
 2132 0e92 F9010000 		.4byte	.LASF222
 2133 0e96 F9010000 		.4byte	.LASF222
 2134 0e9a 0D       		.byte	0xd
 2135 0e9b ED02     		.2byte	0x2ed
 2136 0e9d 00       		.byte	0
 2137              		.section	.debug_abbrev,"",%progbits
 2138              	.Ldebug_abbrev0:
 2139 0000 01       		.uleb128 0x1
 2140 0001 11       		.uleb128 0x11
 2141 0002 01       		.byte	0x1
 2142 0003 25       		.uleb128 0x25
 2143 0004 0E       		.uleb128 0xe
 2144 0005 13       		.uleb128 0x13
 2145 0006 0B       		.uleb128 0xb
 2146 0007 03       		.uleb128 0x3
 2147 0008 0E       		.uleb128 0xe
 2148 0009 1B       		.uleb128 0x1b
 2149 000a 0E       		.uleb128 0xe
 2150 000b 55       		.uleb128 0x55
 2151 000c 17       		.uleb128 0x17
 2152 000d 11       		.uleb128 0x11
 2153 000e 01       		.uleb128 0x1
 2154 000f 10       		.uleb128 0x10
 2155 0010 17       		.uleb128 0x17
 2156 0011 00       		.byte	0
 2157 0012 00       		.byte	0
 2158 0013 02       		.uleb128 0x2
 2159 0014 24       		.uleb128 0x24
 2160 0015 00       		.byte	0
 2161 0016 0B       		.uleb128 0xb
 2162 0017 0B       		.uleb128 0xb
 2163 0018 3E       		.uleb128 0x3e
 2164 0019 0B       		.uleb128 0xb
 2165 001a 03       		.uleb128 0x3
 2166 001b 0E       		.uleb128 0xe
 2167 001c 00       		.byte	0
 2168 001d 00       		.byte	0
 2169 001e 03       		.uleb128 0x3
 2170 001f 16       		.uleb128 0x16
 2171 0020 00       		.byte	0
 2172 0021 03       		.uleb128 0x3
 2173 0022 0E       		.uleb128 0xe
 2174 0023 3A       		.uleb128 0x3a
ARM GAS  C:\Users\15311\AppData\Local\Temp\cccFsPp9.s 			page 68


 2175 0024 0B       		.uleb128 0xb
 2176 0025 3B       		.uleb128 0x3b
 2177 0026 0B       		.uleb128 0xb
 2178 0027 49       		.uleb128 0x49
 2179 0028 13       		.uleb128 0x13
 2180 0029 00       		.byte	0
 2181 002a 00       		.byte	0
 2182 002b 04       		.uleb128 0x4
 2183 002c 24       		.uleb128 0x24
 2184 002d 00       		.byte	0
 2185 002e 0B       		.uleb128 0xb
 2186 002f 0B       		.uleb128 0xb
 2187 0030 3E       		.uleb128 0x3e
 2188 0031 0B       		.uleb128 0xb
 2189 0032 03       		.uleb128 0x3
 2190 0033 08       		.uleb128 0x8
 2191 0034 00       		.byte	0
 2192 0035 00       		.byte	0
 2193 0036 05       		.uleb128 0x5
 2194 0037 35       		.uleb128 0x35
 2195 0038 00       		.byte	0
 2196 0039 49       		.uleb128 0x49
 2197 003a 13       		.uleb128 0x13
 2198 003b 00       		.byte	0
 2199 003c 00       		.byte	0
 2200 003d 06       		.uleb128 0x6
 2201 003e 26       		.uleb128 0x26
 2202 003f 00       		.byte	0
 2203 0040 49       		.uleb128 0x49
 2204 0041 13       		.uleb128 0x13
 2205 0042 00       		.byte	0
 2206 0043 00       		.byte	0
 2207 0044 07       		.uleb128 0x7
 2208 0045 01       		.uleb128 0x1
 2209 0046 01       		.byte	0x1
 2210 0047 49       		.uleb128 0x49
 2211 0048 13       		.uleb128 0x13
 2212 0049 01       		.uleb128 0x1
 2213 004a 13       		.uleb128 0x13
 2214 004b 00       		.byte	0
 2215 004c 00       		.byte	0
 2216 004d 08       		.uleb128 0x8
 2217 004e 21       		.uleb128 0x21
 2218 004f 00       		.byte	0
 2219 0050 49       		.uleb128 0x49
 2220 0051 13       		.uleb128 0x13
 2221 0052 2F       		.uleb128 0x2f
 2222 0053 0B       		.uleb128 0xb
 2223 0054 00       		.byte	0
 2224 0055 00       		.byte	0
 2225 0056 09       		.uleb128 0x9
 2226 0057 21       		.uleb128 0x21
 2227 0058 00       		.byte	0
 2228 0059 49       		.uleb128 0x49
 2229 005a 13       		.uleb128 0x13
 2230 005b 2F       		.uleb128 0x2f
 2231 005c 05       		.uleb128 0x5
ARM GAS  C:\Users\15311\AppData\Local\Temp\cccFsPp9.s 			page 69


 2232 005d 00       		.byte	0
 2233 005e 00       		.byte	0
 2234 005f 0A       		.uleb128 0xa
 2235 0060 13       		.uleb128 0x13
 2236 0061 01       		.byte	0x1
 2237 0062 0B       		.uleb128 0xb
 2238 0063 05       		.uleb128 0x5
 2239 0064 3A       		.uleb128 0x3a
 2240 0065 0B       		.uleb128 0xb
 2241 0066 3B       		.uleb128 0x3b
 2242 0067 0B       		.uleb128 0xb
 2243 0068 01       		.uleb128 0x1
 2244 0069 13       		.uleb128 0x13
 2245 006a 00       		.byte	0
 2246 006b 00       		.byte	0
 2247 006c 0B       		.uleb128 0xb
 2248 006d 0D       		.uleb128 0xd
 2249 006e 00       		.byte	0
 2250 006f 03       		.uleb128 0x3
 2251 0070 0E       		.uleb128 0xe
 2252 0071 3A       		.uleb128 0x3a
 2253 0072 0B       		.uleb128 0xb
 2254 0073 3B       		.uleb128 0x3b
 2255 0074 0B       		.uleb128 0xb
 2256 0075 49       		.uleb128 0x49
 2257 0076 13       		.uleb128 0x13
 2258 0077 38       		.uleb128 0x38
 2259 0078 0B       		.uleb128 0xb
 2260 0079 00       		.byte	0
 2261 007a 00       		.byte	0
 2262 007b 0C       		.uleb128 0xc
 2263 007c 0D       		.uleb128 0xd
 2264 007d 00       		.byte	0
 2265 007e 03       		.uleb128 0x3
 2266 007f 0E       		.uleb128 0xe
 2267 0080 3A       		.uleb128 0x3a
 2268 0081 0B       		.uleb128 0xb
 2269 0082 3B       		.uleb128 0x3b
 2270 0083 0B       		.uleb128 0xb
 2271 0084 49       		.uleb128 0x49
 2272 0085 13       		.uleb128 0x13
 2273 0086 38       		.uleb128 0x38
 2274 0087 05       		.uleb128 0x5
 2275 0088 00       		.byte	0
 2276 0089 00       		.byte	0
 2277 008a 0D       		.uleb128 0xd
 2278 008b 16       		.uleb128 0x16
 2279 008c 00       		.byte	0
 2280 008d 03       		.uleb128 0x3
 2281 008e 0E       		.uleb128 0xe
 2282 008f 3A       		.uleb128 0x3a
 2283 0090 0B       		.uleb128 0xb
 2284 0091 3B       		.uleb128 0x3b
 2285 0092 05       		.uleb128 0x5
 2286 0093 49       		.uleb128 0x49
 2287 0094 13       		.uleb128 0x13
 2288 0095 00       		.byte	0
ARM GAS  C:\Users\15311\AppData\Local\Temp\cccFsPp9.s 			page 70


 2289 0096 00       		.byte	0
 2290 0097 0E       		.uleb128 0xe
 2291 0098 13       		.uleb128 0x13
 2292 0099 01       		.byte	0x1
 2293 009a 0B       		.uleb128 0xb
 2294 009b 0B       		.uleb128 0xb
 2295 009c 3A       		.uleb128 0x3a
 2296 009d 0B       		.uleb128 0xb
 2297 009e 3B       		.uleb128 0x3b
 2298 009f 0B       		.uleb128 0xb
 2299 00a0 01       		.uleb128 0x1
 2300 00a1 13       		.uleb128 0x13
 2301 00a2 00       		.byte	0
 2302 00a3 00       		.byte	0
 2303 00a4 0F       		.uleb128 0xf
 2304 00a5 0F       		.uleb128 0xf
 2305 00a6 00       		.byte	0
 2306 00a7 0B       		.uleb128 0xb
 2307 00a8 0B       		.uleb128 0xb
 2308 00a9 00       		.byte	0
 2309 00aa 00       		.byte	0
 2310 00ab 10       		.uleb128 0x10
 2311 00ac 0F       		.uleb128 0xf
 2312 00ad 00       		.byte	0
 2313 00ae 0B       		.uleb128 0xb
 2314 00af 0B       		.uleb128 0xb
 2315 00b0 49       		.uleb128 0x49
 2316 00b1 13       		.uleb128 0x13
 2317 00b2 00       		.byte	0
 2318 00b3 00       		.byte	0
 2319 00b4 11       		.uleb128 0x11
 2320 00b5 15       		.uleb128 0x15
 2321 00b6 01       		.byte	0x1
 2322 00b7 27       		.uleb128 0x27
 2323 00b8 19       		.uleb128 0x19
 2324 00b9 01       		.uleb128 0x1
 2325 00ba 13       		.uleb128 0x13
 2326 00bb 00       		.byte	0
 2327 00bc 00       		.byte	0
 2328 00bd 12       		.uleb128 0x12
 2329 00be 05       		.uleb128 0x5
 2330 00bf 00       		.byte	0
 2331 00c0 49       		.uleb128 0x49
 2332 00c1 13       		.uleb128 0x13
 2333 00c2 00       		.byte	0
 2334 00c3 00       		.byte	0
 2335 00c4 13       		.uleb128 0x13
 2336 00c5 13       		.uleb128 0x13
 2337 00c6 01       		.byte	0x1
 2338 00c7 03       		.uleb128 0x3
 2339 00c8 0E       		.uleb128 0xe
 2340 00c9 0B       		.uleb128 0xb
 2341 00ca 0B       		.uleb128 0xb
 2342 00cb 3A       		.uleb128 0x3a
 2343 00cc 0B       		.uleb128 0xb
 2344 00cd 3B       		.uleb128 0x3b
 2345 00ce 05       		.uleb128 0x5
ARM GAS  C:\Users\15311\AppData\Local\Temp\cccFsPp9.s 			page 71


 2346 00cf 01       		.uleb128 0x1
 2347 00d0 13       		.uleb128 0x13
 2348 00d1 00       		.byte	0
 2349 00d2 00       		.byte	0
 2350 00d3 14       		.uleb128 0x14
 2351 00d4 0D       		.uleb128 0xd
 2352 00d5 00       		.byte	0
 2353 00d6 03       		.uleb128 0x3
 2354 00d7 0E       		.uleb128 0xe
 2355 00d8 3A       		.uleb128 0x3a
 2356 00d9 0B       		.uleb128 0xb
 2357 00da 3B       		.uleb128 0x3b
 2358 00db 05       		.uleb128 0x5
 2359 00dc 49       		.uleb128 0x49
 2360 00dd 13       		.uleb128 0x13
 2361 00de 38       		.uleb128 0x38
 2362 00df 0B       		.uleb128 0xb
 2363 00e0 00       		.byte	0
 2364 00e1 00       		.byte	0
 2365 00e2 15       		.uleb128 0x15
 2366 00e3 2E       		.uleb128 0x2e
 2367 00e4 00       		.byte	0
 2368 00e5 03       		.uleb128 0x3
 2369 00e6 0E       		.uleb128 0xe
 2370 00e7 3A       		.uleb128 0x3a
 2371 00e8 0B       		.uleb128 0xb
 2372 00e9 3B       		.uleb128 0x3b
 2373 00ea 0B       		.uleb128 0xb
 2374 00eb 27       		.uleb128 0x27
 2375 00ec 19       		.uleb128 0x19
 2376 00ed 20       		.uleb128 0x20
 2377 00ee 0B       		.uleb128 0xb
 2378 00ef 00       		.byte	0
 2379 00f0 00       		.byte	0
 2380 00f1 16       		.uleb128 0x16
 2381 00f2 2E       		.uleb128 0x2e
 2382 00f3 01       		.byte	0x1
 2383 00f4 3F       		.uleb128 0x3f
 2384 00f5 19       		.uleb128 0x19
 2385 00f6 03       		.uleb128 0x3
 2386 00f7 0E       		.uleb128 0xe
 2387 00f8 3A       		.uleb128 0x3a
 2388 00f9 0B       		.uleb128 0xb
 2389 00fa 3B       		.uleb128 0x3b
 2390 00fb 0B       		.uleb128 0xb
 2391 00fc 27       		.uleb128 0x27
 2392 00fd 19       		.uleb128 0x19
 2393 00fe 49       		.uleb128 0x49
 2394 00ff 13       		.uleb128 0x13
 2395 0100 8701     		.uleb128 0x87
 2396 0102 19       		.uleb128 0x19
 2397 0103 11       		.uleb128 0x11
 2398 0104 01       		.uleb128 0x1
 2399 0105 12       		.uleb128 0x12
 2400 0106 06       		.uleb128 0x6
 2401 0107 40       		.uleb128 0x40
 2402 0108 18       		.uleb128 0x18
ARM GAS  C:\Users\15311\AppData\Local\Temp\cccFsPp9.s 			page 72


 2403 0109 9742     		.uleb128 0x2117
 2404 010b 19       		.uleb128 0x19
 2405 010c 01       		.uleb128 0x1
 2406 010d 13       		.uleb128 0x13
 2407 010e 00       		.byte	0
 2408 010f 00       		.byte	0
 2409 0110 17       		.uleb128 0x17
 2410 0111 1D       		.uleb128 0x1d
 2411 0112 00       		.byte	0
 2412 0113 31       		.uleb128 0x31
 2413 0114 13       		.uleb128 0x13
 2414 0115 11       		.uleb128 0x11
 2415 0116 01       		.uleb128 0x1
 2416 0117 12       		.uleb128 0x12
 2417 0118 06       		.uleb128 0x6
 2418 0119 58       		.uleb128 0x58
 2419 011a 0B       		.uleb128 0xb
 2420 011b 59       		.uleb128 0x59
 2421 011c 0B       		.uleb128 0xb
 2422 011d 00       		.byte	0
 2423 011e 00       		.byte	0
 2424 011f 18       		.uleb128 0x18
 2425 0120 898201   		.uleb128 0x4109
 2426 0123 00       		.byte	0
 2427 0124 11       		.uleb128 0x11
 2428 0125 01       		.uleb128 0x1
 2429 0126 31       		.uleb128 0x31
 2430 0127 13       		.uleb128 0x13
 2431 0128 00       		.byte	0
 2432 0129 00       		.byte	0
 2433 012a 19       		.uleb128 0x19
 2434 012b 898201   		.uleb128 0x4109
 2435 012e 01       		.byte	0x1
 2436 012f 11       		.uleb128 0x11
 2437 0130 01       		.uleb128 0x1
 2438 0131 31       		.uleb128 0x31
 2439 0132 13       		.uleb128 0x13
 2440 0133 01       		.uleb128 0x1
 2441 0134 13       		.uleb128 0x13
 2442 0135 00       		.byte	0
 2443 0136 00       		.byte	0
 2444 0137 1A       		.uleb128 0x1a
 2445 0138 8A8201   		.uleb128 0x410a
 2446 013b 00       		.byte	0
 2447 013c 02       		.uleb128 0x2
 2448 013d 18       		.uleb128 0x18
 2449 013e 9142     		.uleb128 0x2111
 2450 0140 18       		.uleb128 0x18
 2451 0141 00       		.byte	0
 2452 0142 00       		.byte	0
 2453 0143 1B       		.uleb128 0x1b
 2454 0144 2E       		.uleb128 0x2e
 2455 0145 01       		.byte	0x1
 2456 0146 3F       		.uleb128 0x3f
 2457 0147 19       		.uleb128 0x19
 2458 0148 03       		.uleb128 0x3
 2459 0149 0E       		.uleb128 0xe
ARM GAS  C:\Users\15311\AppData\Local\Temp\cccFsPp9.s 			page 73


 2460 014a 3A       		.uleb128 0x3a
 2461 014b 0B       		.uleb128 0xb
 2462 014c 3B       		.uleb128 0x3b
 2463 014d 0B       		.uleb128 0xb
 2464 014e 27       		.uleb128 0x27
 2465 014f 19       		.uleb128 0x19
 2466 0150 49       		.uleb128 0x49
 2467 0151 13       		.uleb128 0x13
 2468 0152 11       		.uleb128 0x11
 2469 0153 01       		.uleb128 0x1
 2470 0154 12       		.uleb128 0x12
 2471 0155 06       		.uleb128 0x6
 2472 0156 40       		.uleb128 0x40
 2473 0157 18       		.uleb128 0x18
 2474 0158 9742     		.uleb128 0x2117
 2475 015a 19       		.uleb128 0x19
 2476 015b 01       		.uleb128 0x1
 2477 015c 13       		.uleb128 0x13
 2478 015d 00       		.byte	0
 2479 015e 00       		.byte	0
 2480 015f 1C       		.uleb128 0x1c
 2481 0160 05       		.uleb128 0x5
 2482 0161 00       		.byte	0
 2483 0162 03       		.uleb128 0x3
 2484 0163 0E       		.uleb128 0xe
 2485 0164 3A       		.uleb128 0x3a
 2486 0165 0B       		.uleb128 0xb
 2487 0166 3B       		.uleb128 0x3b
 2488 0167 0B       		.uleb128 0xb
 2489 0168 49       		.uleb128 0x49
 2490 0169 13       		.uleb128 0x13
 2491 016a 02       		.uleb128 0x2
 2492 016b 17       		.uleb128 0x17
 2493 016c 00       		.byte	0
 2494 016d 00       		.byte	0
 2495 016e 1D       		.uleb128 0x1d
 2496 016f 05       		.uleb128 0x5
 2497 0170 00       		.byte	0
 2498 0171 03       		.uleb128 0x3
 2499 0172 0E       		.uleb128 0xe
 2500 0173 3A       		.uleb128 0x3a
 2501 0174 0B       		.uleb128 0xb
 2502 0175 3B       		.uleb128 0x3b
 2503 0176 0B       		.uleb128 0xb
 2504 0177 49       		.uleb128 0x49
 2505 0178 13       		.uleb128 0x13
 2506 0179 02       		.uleb128 0x2
 2507 017a 18       		.uleb128 0x18
 2508 017b 00       		.byte	0
 2509 017c 00       		.byte	0
 2510 017d 1E       		.uleb128 0x1e
 2511 017e 34       		.uleb128 0x34
 2512 017f 00       		.byte	0
 2513 0180 03       		.uleb128 0x3
 2514 0181 08       		.uleb128 0x8
 2515 0182 3A       		.uleb128 0x3a
 2516 0183 0B       		.uleb128 0xb
ARM GAS  C:\Users\15311\AppData\Local\Temp\cccFsPp9.s 			page 74


 2517 0184 3B       		.uleb128 0x3b
 2518 0185 0B       		.uleb128 0xb
 2519 0186 49       		.uleb128 0x49
 2520 0187 13       		.uleb128 0x13
 2521 0188 02       		.uleb128 0x2
 2522 0189 17       		.uleb128 0x17
 2523 018a 00       		.byte	0
 2524 018b 00       		.byte	0
 2525 018c 1F       		.uleb128 0x1f
 2526 018d 0B       		.uleb128 0xb
 2527 018e 01       		.byte	0x1
 2528 018f 55       		.uleb128 0x55
 2529 0190 17       		.uleb128 0x17
 2530 0191 00       		.byte	0
 2531 0192 00       		.byte	0
 2532 0193 20       		.uleb128 0x20
 2533 0194 0B       		.uleb128 0xb
 2534 0195 01       		.byte	0x1
 2535 0196 11       		.uleb128 0x11
 2536 0197 01       		.uleb128 0x1
 2537 0198 12       		.uleb128 0x12
 2538 0199 06       		.uleb128 0x6
 2539 019a 00       		.byte	0
 2540 019b 00       		.byte	0
 2541 019c 21       		.uleb128 0x21
 2542 019d 2E       		.uleb128 0x2e
 2543 019e 01       		.byte	0x1
 2544 019f 03       		.uleb128 0x3
 2545 01a0 0E       		.uleb128 0xe
 2546 01a1 3A       		.uleb128 0x3a
 2547 01a2 0B       		.uleb128 0xb
 2548 01a3 3B       		.uleb128 0x3b
 2549 01a4 05       		.uleb128 0x5
 2550 01a5 27       		.uleb128 0x27
 2551 01a6 19       		.uleb128 0x19
 2552 01a7 49       		.uleb128 0x49
 2553 01a8 13       		.uleb128 0x13
 2554 01a9 20       		.uleb128 0x20
 2555 01aa 0B       		.uleb128 0xb
 2556 01ab 01       		.uleb128 0x1
 2557 01ac 13       		.uleb128 0x13
 2558 01ad 00       		.byte	0
 2559 01ae 00       		.byte	0
 2560 01af 22       		.uleb128 0x22
 2561 01b0 05       		.uleb128 0x5
 2562 01b1 00       		.byte	0
 2563 01b2 03       		.uleb128 0x3
 2564 01b3 0E       		.uleb128 0xe
 2565 01b4 3A       		.uleb128 0x3a
 2566 01b5 0B       		.uleb128 0xb
 2567 01b6 3B       		.uleb128 0x3b
 2568 01b7 05       		.uleb128 0x5
 2569 01b8 49       		.uleb128 0x49
 2570 01b9 13       		.uleb128 0x13
 2571 01ba 00       		.byte	0
 2572 01bb 00       		.byte	0
 2573 01bc 23       		.uleb128 0x23
ARM GAS  C:\Users\15311\AppData\Local\Temp\cccFsPp9.s 			page 75


 2574 01bd 2E       		.uleb128 0x2e
 2575 01be 01       		.byte	0x1
 2576 01bf 3F       		.uleb128 0x3f
 2577 01c0 19       		.uleb128 0x19
 2578 01c1 03       		.uleb128 0x3
 2579 01c2 0E       		.uleb128 0xe
 2580 01c3 3A       		.uleb128 0x3a
 2581 01c4 0B       		.uleb128 0xb
 2582 01c5 3B       		.uleb128 0x3b
 2583 01c6 0B       		.uleb128 0xb
 2584 01c7 27       		.uleb128 0x27
 2585 01c8 19       		.uleb128 0x19
 2586 01c9 11       		.uleb128 0x11
 2587 01ca 01       		.uleb128 0x1
 2588 01cb 12       		.uleb128 0x12
 2589 01cc 06       		.uleb128 0x6
 2590 01cd 40       		.uleb128 0x40
 2591 01ce 18       		.uleb128 0x18
 2592 01cf 9742     		.uleb128 0x2117
 2593 01d1 19       		.uleb128 0x19
 2594 01d2 01       		.uleb128 0x1
 2595 01d3 13       		.uleb128 0x13
 2596 01d4 00       		.byte	0
 2597 01d5 00       		.byte	0
 2598 01d6 24       		.uleb128 0x24
 2599 01d7 34       		.uleb128 0x34
 2600 01d8 00       		.byte	0
 2601 01d9 34       		.uleb128 0x34
 2602 01da 19       		.uleb128 0x19
 2603 01db 49       		.uleb128 0x49
 2604 01dc 13       		.uleb128 0x13
 2605 01dd 02       		.uleb128 0x2
 2606 01de 17       		.uleb128 0x17
 2607 01df 00       		.byte	0
 2608 01e0 00       		.byte	0
 2609 01e1 25       		.uleb128 0x25
 2610 01e2 34       		.uleb128 0x34
 2611 01e3 00       		.byte	0
 2612 01e4 03       		.uleb128 0x3
 2613 01e5 0E       		.uleb128 0xe
 2614 01e6 3A       		.uleb128 0x3a
 2615 01e7 0B       		.uleb128 0xb
 2616 01e8 3B       		.uleb128 0x3b
 2617 01e9 0B       		.uleb128 0xb
 2618 01ea 49       		.uleb128 0x49
 2619 01eb 13       		.uleb128 0x13
 2620 01ec 02       		.uleb128 0x2
 2621 01ed 17       		.uleb128 0x17
 2622 01ee 00       		.byte	0
 2623 01ef 00       		.byte	0
 2624 01f0 26       		.uleb128 0x26
 2625 01f1 1D       		.uleb128 0x1d
 2626 01f2 01       		.byte	0x1
 2627 01f3 31       		.uleb128 0x31
 2628 01f4 13       		.uleb128 0x13
 2629 01f5 11       		.uleb128 0x11
 2630 01f6 01       		.uleb128 0x1
ARM GAS  C:\Users\15311\AppData\Local\Temp\cccFsPp9.s 			page 76


 2631 01f7 12       		.uleb128 0x12
 2632 01f8 06       		.uleb128 0x6
 2633 01f9 58       		.uleb128 0x58
 2634 01fa 0B       		.uleb128 0xb
 2635 01fb 59       		.uleb128 0x59
 2636 01fc 0B       		.uleb128 0xb
 2637 01fd 01       		.uleb128 0x1
 2638 01fe 13       		.uleb128 0x13
 2639 01ff 00       		.byte	0
 2640 0200 00       		.byte	0
 2641 0201 27       		.uleb128 0x27
 2642 0202 05       		.uleb128 0x5
 2643 0203 00       		.byte	0
 2644 0204 31       		.uleb128 0x31
 2645 0205 13       		.uleb128 0x13
 2646 0206 02       		.uleb128 0x2
 2647 0207 17       		.uleb128 0x17
 2648 0208 00       		.byte	0
 2649 0209 00       		.byte	0
 2650 020a 28       		.uleb128 0x28
 2651 020b 898201   		.uleb128 0x4109
 2652 020e 01       		.byte	0x1
 2653 020f 11       		.uleb128 0x11
 2654 0210 01       		.uleb128 0x1
 2655 0211 31       		.uleb128 0x31
 2656 0212 13       		.uleb128 0x13
 2657 0213 00       		.byte	0
 2658 0214 00       		.byte	0
 2659 0215 29       		.uleb128 0x29
 2660 0216 21       		.uleb128 0x21
 2661 0217 00       		.byte	0
 2662 0218 49       		.uleb128 0x49
 2663 0219 13       		.uleb128 0x13
 2664 021a 2F       		.uleb128 0x2f
 2665 021b 13       		.uleb128 0x13
 2666 021c 00       		.byte	0
 2667 021d 00       		.byte	0
 2668 021e 2A       		.uleb128 0x2a
 2669 021f 34       		.uleb128 0x34
 2670 0220 00       		.byte	0
 2671 0221 03       		.uleb128 0x3
 2672 0222 0E       		.uleb128 0xe
 2673 0223 3A       		.uleb128 0x3a
 2674 0224 0B       		.uleb128 0xb
 2675 0225 3B       		.uleb128 0x3b
 2676 0226 0B       		.uleb128 0xb
 2677 0227 49       		.uleb128 0x49
 2678 0228 13       		.uleb128 0x13
 2679 0229 02       		.uleb128 0x2
 2680 022a 18       		.uleb128 0x18
 2681 022b 00       		.byte	0
 2682 022c 00       		.byte	0
 2683 022d 2B       		.uleb128 0x2b
 2684 022e 2E       		.uleb128 0x2e
 2685 022f 01       		.byte	0x1
 2686 0230 3F       		.uleb128 0x3f
 2687 0231 19       		.uleb128 0x19
ARM GAS  C:\Users\15311\AppData\Local\Temp\cccFsPp9.s 			page 77


 2688 0232 03       		.uleb128 0x3
 2689 0233 0E       		.uleb128 0xe
 2690 0234 3A       		.uleb128 0x3a
 2691 0235 0B       		.uleb128 0xb
 2692 0236 3B       		.uleb128 0x3b
 2693 0237 0B       		.uleb128 0xb
 2694 0238 27       		.uleb128 0x27
 2695 0239 19       		.uleb128 0x19
 2696 023a 8701     		.uleb128 0x87
 2697 023c 19       		.uleb128 0x19
 2698 023d 11       		.uleb128 0x11
 2699 023e 01       		.uleb128 0x1
 2700 023f 12       		.uleb128 0x12
 2701 0240 06       		.uleb128 0x6
 2702 0241 40       		.uleb128 0x40
 2703 0242 18       		.uleb128 0x18
 2704 0243 9742     		.uleb128 0x2117
 2705 0245 19       		.uleb128 0x19
 2706 0246 01       		.uleb128 0x1
 2707 0247 13       		.uleb128 0x13
 2708 0248 00       		.byte	0
 2709 0249 00       		.byte	0
 2710 024a 2C       		.uleb128 0x2c
 2711 024b 34       		.uleb128 0x34
 2712 024c 00       		.byte	0
 2713 024d 03       		.uleb128 0x3
 2714 024e 0E       		.uleb128 0xe
 2715 024f 3A       		.uleb128 0x3a
 2716 0250 0B       		.uleb128 0xb
 2717 0251 3B       		.uleb128 0x3b
 2718 0252 0B       		.uleb128 0xb
 2719 0253 49       		.uleb128 0x49
 2720 0254 13       		.uleb128 0x13
 2721 0255 1C       		.uleb128 0x1c
 2722 0256 05       		.uleb128 0x5
 2723 0257 00       		.byte	0
 2724 0258 00       		.byte	0
 2725 0259 2D       		.uleb128 0x2d
 2726 025a 34       		.uleb128 0x34
 2727 025b 00       		.byte	0
 2728 025c 03       		.uleb128 0x3
 2729 025d 0E       		.uleb128 0xe
 2730 025e 3A       		.uleb128 0x3a
 2731 025f 0B       		.uleb128 0xb
 2732 0260 3B       		.uleb128 0x3b
 2733 0261 05       		.uleb128 0x5
 2734 0262 49       		.uleb128 0x49
 2735 0263 13       		.uleb128 0x13
 2736 0264 3F       		.uleb128 0x3f
 2737 0265 19       		.uleb128 0x19
 2738 0266 3C       		.uleb128 0x3c
 2739 0267 19       		.uleb128 0x19
 2740 0268 00       		.byte	0
 2741 0269 00       		.byte	0
 2742 026a 2E       		.uleb128 0x2e
 2743 026b 34       		.uleb128 0x34
 2744 026c 00       		.byte	0
ARM GAS  C:\Users\15311\AppData\Local\Temp\cccFsPp9.s 			page 78


 2745 026d 03       		.uleb128 0x3
 2746 026e 0E       		.uleb128 0xe
 2747 026f 3A       		.uleb128 0x3a
 2748 0270 0B       		.uleb128 0xb
 2749 0271 3B       		.uleb128 0x3b
 2750 0272 0B       		.uleb128 0xb
 2751 0273 49       		.uleb128 0x49
 2752 0274 13       		.uleb128 0x13
 2753 0275 3F       		.uleb128 0x3f
 2754 0276 19       		.uleb128 0x19
 2755 0277 3C       		.uleb128 0x3c
 2756 0278 19       		.uleb128 0x19
 2757 0279 00       		.byte	0
 2758 027a 00       		.byte	0
 2759 027b 2F       		.uleb128 0x2f
 2760 027c 2E       		.uleb128 0x2e
 2761 027d 00       		.byte	0
 2762 027e 3F       		.uleb128 0x3f
 2763 027f 19       		.uleb128 0x19
 2764 0280 3C       		.uleb128 0x3c
 2765 0281 19       		.uleb128 0x19
 2766 0282 6E       		.uleb128 0x6e
 2767 0283 0E       		.uleb128 0xe
 2768 0284 03       		.uleb128 0x3
 2769 0285 0E       		.uleb128 0xe
 2770 0286 3A       		.uleb128 0x3a
 2771 0287 0B       		.uleb128 0xb
 2772 0288 3B       		.uleb128 0x3b
 2773 0289 0B       		.uleb128 0xb
 2774 028a 00       		.byte	0
 2775 028b 00       		.byte	0
 2776 028c 30       		.uleb128 0x30
 2777 028d 2E       		.uleb128 0x2e
 2778 028e 00       		.byte	0
 2779 028f 3F       		.uleb128 0x3f
 2780 0290 19       		.uleb128 0x19
 2781 0291 3C       		.uleb128 0x3c
 2782 0292 19       		.uleb128 0x19
 2783 0293 6E       		.uleb128 0x6e
 2784 0294 0E       		.uleb128 0xe
 2785 0295 03       		.uleb128 0x3
 2786 0296 0E       		.uleb128 0xe
 2787 0297 3A       		.uleb128 0x3a
 2788 0298 0B       		.uleb128 0xb
 2789 0299 3B       		.uleb128 0x3b
 2790 029a 05       		.uleb128 0x5
 2791 029b 00       		.byte	0
 2792 029c 00       		.byte	0
 2793 029d 31       		.uleb128 0x31
 2794 029e 2E       		.uleb128 0x2e
 2795 029f 00       		.byte	0
 2796 02a0 3F       		.uleb128 0x3f
 2797 02a1 19       		.uleb128 0x19
 2798 02a2 3C       		.uleb128 0x3c
 2799 02a3 19       		.uleb128 0x19
 2800 02a4 6E       		.uleb128 0x6e
 2801 02a5 0E       		.uleb128 0xe
ARM GAS  C:\Users\15311\AppData\Local\Temp\cccFsPp9.s 			page 79


 2802 02a6 03       		.uleb128 0x3
 2803 02a7 0E       		.uleb128 0xe
 2804 02a8 00       		.byte	0
 2805 02a9 00       		.byte	0
 2806 02aa 00       		.byte	0
 2807              		.section	.debug_loc,"",%progbits
 2808              	.Ldebug_loc0:
 2809              	.LLST0:
 2810 0000 00000000 		.4byte	.LVL3
 2811 0004 08000000 		.4byte	.LVL5
 2812 0008 0100     		.2byte	0x1
 2813 000a 50       		.byte	0x50
 2814 000b 08000000 		.4byte	.LVL5
 2815 000f 3A000000 		.4byte	.LVL17
 2816 0013 0100     		.2byte	0x1
 2817 0015 54       		.byte	0x54
 2818 0016 3A000000 		.4byte	.LVL17
 2819 001a 3C000000 		.4byte	.LFE486
 2820 001e 0400     		.2byte	0x4
 2821 0020 F3       		.byte	0xf3
 2822 0021 01       		.uleb128 0x1
 2823 0022 50       		.byte	0x50
 2824 0023 9F       		.byte	0x9f
 2825 0024 00000000 		.4byte	0
 2826 0028 00000000 		.4byte	0
 2827              	.LLST1:
 2828 002c 04000000 		.4byte	.LVL4
 2829 0030 0A000000 		.4byte	.LVL6
 2830 0034 0200     		.2byte	0x2
 2831 0036 30       		.byte	0x30
 2832 0037 9F       		.byte	0x9f
 2833 0038 0A000000 		.4byte	.LVL6
 2834 003c 1A000000 		.4byte	.LVL9
 2835 0040 0100     		.2byte	0x1
 2836 0042 50       		.byte	0x50
 2837 0043 20000000 		.4byte	.LVL10
 2838 0047 24000000 		.4byte	.LVL11
 2839 004b 0100     		.2byte	0x1
 2840 004d 50       		.byte	0x50
 2841 004e 26000000 		.4byte	.LVL12
 2842 0052 3C000000 		.4byte	.LFE486
 2843 0056 0100     		.2byte	0x1
 2844 0058 50       		.byte	0x50
 2845 0059 00000000 		.4byte	0
 2846 005d 00000000 		.4byte	0
 2847              	.LLST2:
 2848 0061 04000000 		.4byte	.LVL4
 2849 0065 0A000000 		.4byte	.LVL6
 2850 0069 0200     		.2byte	0x2
 2851 006b 30       		.byte	0x30
 2852 006c 9F       		.byte	0x9f
 2853 006d 0A000000 		.4byte	.LVL6
 2854 0071 30000000 		.4byte	.LVL15
 2855 0075 0100     		.2byte	0x1
 2856 0077 52       		.byte	0x52
 2857 0078 32000000 		.4byte	.LVL16
 2858 007c 3C000000 		.4byte	.LFE486
ARM GAS  C:\Users\15311\AppData\Local\Temp\cccFsPp9.s 			page 80


 2859 0080 0100     		.2byte	0x1
 2860 0082 52       		.byte	0x52
 2861 0083 00000000 		.4byte	0
 2862 0087 00000000 		.4byte	0
 2863              	.LLST3:
 2864 008b 0E000000 		.4byte	.LVL7
 2865 008f 12000000 		.4byte	.LVL8
 2866 0093 0200     		.2byte	0x2
 2867 0095 30       		.byte	0x30
 2868 0096 9F       		.byte	0x9f
 2869 0097 12000000 		.4byte	.LVL8
 2870 009b 28000000 		.4byte	.LVL13
 2871 009f 0100     		.2byte	0x1
 2872 00a1 53       		.byte	0x53
 2873 00a2 2A000000 		.4byte	.LVL14
 2874 00a6 32000000 		.4byte	.LVL16
 2875 00aa 0100     		.2byte	0x1
 2876 00ac 53       		.byte	0x53
 2877 00ad 00000000 		.4byte	0
 2878 00b1 00000000 		.4byte	0
 2879              	.LLST4:
 2880 00b5 00000000 		.4byte	.LVL18
 2881 00b9 22000000 		.4byte	.LVL21
 2882 00bd 0100     		.2byte	0x1
 2883 00bf 50       		.byte	0x50
 2884 00c0 22000000 		.4byte	.LVL21
 2885 00c4 25000000 		.4byte	.LVL22-1
 2886 00c8 0200     		.2byte	0x2
 2887 00ca 74       		.byte	0x74
 2888 00cb 00       		.sleb128 0
 2889 00cc 25000000 		.4byte	.LVL22-1
 2890 00d0 54000000 		.4byte	.LFE487
 2891 00d4 0400     		.2byte	0x4
 2892 00d6 F3       		.byte	0xf3
 2893 00d7 01       		.uleb128 0x1
 2894 00d8 50       		.byte	0x50
 2895 00d9 9F       		.byte	0x9f
 2896 00da 00000000 		.4byte	0
 2897 00de 00000000 		.4byte	0
 2898              	.LLST5:
 2899 00e2 00000000 		.4byte	.LVL18
 2900 00e6 25000000 		.4byte	.LVL22-1
 2901 00ea 0100     		.2byte	0x1
 2902 00ec 51       		.byte	0x51
 2903 00ed 25000000 		.4byte	.LVL22-1
 2904 00f1 54000000 		.4byte	.LFE487
 2905 00f5 0400     		.2byte	0x4
 2906 00f7 F3       		.byte	0xf3
 2907 00f8 01       		.uleb128 0x1
 2908 00f9 51       		.byte	0x51
 2909 00fa 9F       		.byte	0x9f
 2910 00fb 00000000 		.4byte	0
 2911 00ff 00000000 		.4byte	0
 2912              	.LLST6:
 2913 0103 00000000 		.4byte	.LVL18
 2914 0107 25000000 		.4byte	.LVL22-1
 2915 010b 0100     		.2byte	0x1
ARM GAS  C:\Users\15311\AppData\Local\Temp\cccFsPp9.s 			page 81


 2916 010d 52       		.byte	0x52
 2917 010e 25000000 		.4byte	.LVL22-1
 2918 0112 54000000 		.4byte	.LFE487
 2919 0116 0400     		.2byte	0x4
 2920 0118 F3       		.byte	0xf3
 2921 0119 01       		.uleb128 0x1
 2922 011a 52       		.byte	0x52
 2923 011b 9F       		.byte	0x9f
 2924 011c 00000000 		.4byte	0
 2925 0120 00000000 		.4byte	0
 2926              	.LLST7:
 2927 0124 08000000 		.4byte	.LVL19
 2928 0128 4C000000 		.4byte	.LVL27
 2929 012c 0100     		.2byte	0x1
 2930 012e 56       		.byte	0x56
 2931 012f 00000000 		.4byte	0
 2932 0133 00000000 		.4byte	0
 2933              	.LLST8:
 2934 0137 16000000 		.4byte	.LVL20
 2935 013b 4C000000 		.4byte	.LVL27
 2936 013f 0200     		.2byte	0x2
 2937 0141 74       		.byte	0x74
 2938 0142 00       		.sleb128 0
 2939 0143 00000000 		.4byte	0
 2940 0147 00000000 		.4byte	0
 2941              	.LLST9:
 2942 014b 32000000 		.4byte	.LVL24
 2943 014f 48000000 		.4byte	.LVL26
 2944 0153 0100     		.2byte	0x1
 2945 0155 55       		.byte	0x55
 2946 0156 00000000 		.4byte	0
 2947 015a 00000000 		.4byte	0
 2948              	.LLST10:
 2949 015e 32000000 		.4byte	.LVL24
 2950 0162 48000000 		.4byte	.LVL26
 2951 0166 0100     		.2byte	0x1
 2952 0168 54       		.byte	0x54
 2953 0169 00000000 		.4byte	0
 2954 016d 00000000 		.4byte	0
 2955              	.LLST11:
 2956 0171 32000000 		.4byte	.LVL24
 2957 0175 48000000 		.4byte	.LVL26
 2958 0179 0600     		.2byte	0x6
 2959 017b 0C       		.byte	0xc
 2960 017c 00006640 		.4byte	0x40660000
 2961 0180 9F       		.byte	0x9f
 2962 0181 00000000 		.4byte	0
 2963 0185 00000000 		.4byte	0
 2964              	.LLST12:
 2965 0189 00000000 		.4byte	.LVL28
 2966 018d 10000000 		.4byte	.LVL29
 2967 0191 0100     		.2byte	0x1
 2968 0193 50       		.byte	0x50
 2969 0194 10000000 		.4byte	.LVL29
 2970 0198 20000000 		.4byte	.LFE488
 2971 019c 0400     		.2byte	0x4
 2972 019e F3       		.byte	0xf3
ARM GAS  C:\Users\15311\AppData\Local\Temp\cccFsPp9.s 			page 82


 2973 019f 01       		.uleb128 0x1
 2974 01a0 50       		.byte	0x50
 2975 01a1 9F       		.byte	0x9f
 2976 01a2 00000000 		.4byte	0
 2977 01a6 00000000 		.4byte	0
 2978              	.LLST13:
 2979 01aa 00000000 		.4byte	.LVL28
 2980 01ae 14000000 		.4byte	.LVL30
 2981 01b2 0100     		.2byte	0x1
 2982 01b4 51       		.byte	0x51
 2983 01b5 14000000 		.4byte	.LVL30
 2984 01b9 20000000 		.4byte	.LFE488
 2985 01bd 0400     		.2byte	0x4
 2986 01bf F3       		.byte	0xf3
 2987 01c0 01       		.uleb128 0x1
 2988 01c1 51       		.byte	0x51
 2989 01c2 9F       		.byte	0x9f
 2990 01c3 00000000 		.4byte	0
 2991 01c7 00000000 		.4byte	0
 2992              	.LLST14:
 2993 01cb 00000000 		.4byte	.LVL32
 2994 01cf 02000000 		.4byte	.LVL33
 2995 01d3 0100     		.2byte	0x1
 2996 01d5 50       		.byte	0x50
 2997 01d6 02000000 		.4byte	.LVL33
 2998 01da 16000000 		.4byte	.LFE489
 2999 01de 0400     		.2byte	0x4
 3000 01e0 F3       		.byte	0xf3
 3001 01e1 01       		.uleb128 0x1
 3002 01e2 50       		.byte	0x50
 3003 01e3 9F       		.byte	0x9f
 3004 01e4 00000000 		.4byte	0
 3005 01e8 00000000 		.4byte	0
 3006              		.section	.debug_aranges,"",%progbits
 3007 0000 3C000000 		.4byte	0x3c
 3008 0004 0200     		.2byte	0x2
 3009 0006 00000000 		.4byte	.Ldebug_info0
 3010 000a 04       		.byte	0x4
 3011 000b 00       		.byte	0
 3012 000c 0000     		.2byte	0
 3013 000e 0000     		.2byte	0
 3014 0010 00000000 		.4byte	.LFB485
 3015 0014 2C000000 		.4byte	.LFE485-.LFB485
 3016 0018 00000000 		.4byte	.LFB486
 3017 001c 3C000000 		.4byte	.LFE486-.LFB486
 3018 0020 00000000 		.4byte	.LFB487
 3019 0024 54000000 		.4byte	.LFE487-.LFB487
 3020 0028 00000000 		.4byte	.LFB488
 3021 002c 20000000 		.4byte	.LFE488-.LFB488
 3022 0030 00000000 		.4byte	.LFB489
 3023 0034 16000000 		.4byte	.LFE489-.LFB489
 3024 0038 00000000 		.4byte	0
 3025 003c 00000000 		.4byte	0
 3026              		.section	.debug_ranges,"",%progbits
 3027              	.Ldebug_ranges0:
 3028 0000 04000000 		.4byte	.LBB6
 3029 0004 06000000 		.4byte	.LBE6
ARM GAS  C:\Users\15311\AppData\Local\Temp\cccFsPp9.s 			page 83


 3030 0008 08000000 		.4byte	.LBB8
 3031 000c 36000000 		.4byte	.LBE8
 3032 0010 00000000 		.4byte	0
 3033 0014 00000000 		.4byte	0
 3034 0018 00000000 		.4byte	.LFB485
 3035 001c 2C000000 		.4byte	.LFE485
 3036 0020 00000000 		.4byte	.LFB486
 3037 0024 3C000000 		.4byte	.LFE486
 3038 0028 00000000 		.4byte	.LFB487
 3039 002c 54000000 		.4byte	.LFE487
 3040 0030 00000000 		.4byte	.LFB488
 3041 0034 20000000 		.4byte	.LFE488
 3042 0038 00000000 		.4byte	.LFB489
 3043 003c 16000000 		.4byte	.LFE489
 3044 0040 00000000 		.4byte	0
 3045 0044 00000000 		.4byte	0
 3046              		.section	.debug_line,"",%progbits
 3047              	.Ldebug_line0:
 3048 0000 32040000 		.section	.debug_str,"MS",%progbits,1
 3048      02008C03 
 3048      00000201 
 3048      FB0E0D00 
 3048      01010101 
 3049              	.LASF207:
 3050 0000 77726170 		.ascii	"wrap_data\000"
 3050      5F646174 
 3050      6100
 3051              	.LASF126:
 3052 000a 70726F74 		.ascii	"protBusMasterMask\000"
 3052      4275734D 
 3052      61737465 
 3052      724D6173 
 3052      6B00
 3053              	.LASF191:
 3054 001c 72784275 		.ascii	"rxBufSize\000"
 3054      6653697A 
 3054      6500
 3055              	.LASF136:
 3056 0026 666C6173 		.ascii	"flashCtlMainWs3Freq\000"
 3056      6843746C 
 3056      4D61696E 
 3056      57733346 
 3056      72657100 
 3057              	.LASF158:
 3058 003a 6770696F 		.ascii	"gpioPrtCfgInOffset\000"
 3058      50727443 
 3058      6667496E 
 3058      4F666673 
 3058      657400
 3059              	.LASF218:
 3060 004d 78546173 		.ascii	"xTaskCreate\000"
 3060      6B437265 
 3060      61746500 
 3061              	.LASF176:
 3062 0059 6970634C 		.ascii	"ipcLockStatusOffset\000"
 3062      6F636B53 
 3062      74617475 
ARM GAS  C:\Users\15311\AppData\Local\Temp\cccFsPp9.s 			page 84


 3062      734F6666 
 3062      73657400 
 3063              	.LASF210:
 3064 006d 6164635F 		.ascii	"adc_channel\000"
 3064      6368616E 
 3064      6E656C00 
 3065              	.LASF102:
 3066 0079 63727970 		.ascii	"cryptoVersion\000"
 3066      746F5665 
 3066      7273696F 
 3066      6E00
 3067              	.LASF120:
 3068 0087 70657269 		.ascii	"periClockNr\000"
 3068      436C6F63 
 3068      6B4E7200 
 3069              	.LASF98:
 3070 0093 70617373 		.ascii	"passBase\000"
 3070      42617365 
 3070      00
 3071              	.LASF35:
 3072 009c 4932435F 		.ascii	"I2C_STATUS\000"
 3072      53544154 
 3072      555300
 3073              	.LASF111:
 3074 00a7 63707573 		.ascii	"cpussIpcIrqNr\000"
 3074      73497063 
 3074      4972714E 
 3074      7200
 3075              	.LASF3:
 3076 00b5 5F5F7569 		.ascii	"__uint8_t\000"
 3076      6E74385F 
 3076      7400
 3077              	.LASF155:
 3078 00bf 70657269 		.ascii	"periDiv24_5CtlOffset\000"
 3078      44697632 
 3078      345F3543 
 3078      746C4F66 
 3078      66736574 
 3079              	.LASF162:
 3080 00d4 63707573 		.ascii	"cpussCm4ClockCtlOffset\000"
 3080      73436D34 
 3080      436C6F63 
 3080      6B43746C 
 3080      4F666673 
 3081              	.LASF227:
 3082 00eb 5F5F656E 		.ascii	"__enable_irq\000"
 3082      61626C65 
 3082      5F697271 
 3082      00
 3083              	.LASF42:
 3084 00f8 54585F46 		.ascii	"TX_FIFO_STATUS\000"
 3084      49464F5F 
 3084      53544154 
 3084      555300
 3085              	.LASF76:
 3086 0107 494E5452 		.ascii	"INTR_S_MASK\000"
 3086      5F535F4D 
ARM GAS  C:\Users\15311\AppData\Local\Temp\cccFsPp9.s 			page 85


 3086      41534B00 
 3087              	.LASF91:
 3088 0113 63707573 		.ascii	"cpussBase\000"
 3088      73426173 
 3088      6500
 3089              	.LASF140:
 3090 011d 64774368 		.ascii	"dwChCtlPrioPos\000"
 3090      43746C50 
 3090      72696F50 
 3090      6F7300
 3091              	.LASF12:
 3092 012c 6C6F6E67 		.ascii	"long long unsigned int\000"
 3092      206C6F6E 
 3092      6720756E 
 3092      7369676E 
 3092      65642069 
 3093              	.LASF217:
 3094 0143 55415254 		.ascii	"UART_Start\000"
 3094      5F537461 
 3094      727400
 3095              	.LASF144:
 3096 014e 70657269 		.ascii	"periTrCmdOffset\000"
 3096      5472436D 
 3096      644F6666 
 3096      73657400 
 3097              	.LASF186:
 3098 015e 72785269 		.ascii	"rxRingBuf\000"
 3098      6E674275 
 3098      6600
 3099              	.LASF168:
 3100 0168 63707573 		.ascii	"cpussSysTickCtlOffset\000"
 3100      73537973 
 3100      5469636B 
 3100      43746C4F 
 3100      66667365 
 3101              	.LASF214:
 3102 017e 49544D5F 		.ascii	"ITM_RxBuffer\000"
 3102      52784275 
 3102      66666572 
 3102      00
 3103              	.LASF129:
 3104 018b 666C6173 		.ascii	"flashPipeRequired\000"
 3104      68506970 
 3104      65526571 
 3104      75697265 
 3104      6400
 3105              	.LASF133:
 3106 019d 666C6173 		.ascii	"flashCtlMainWs0Freq\000"
 3106      6843746C 
 3106      4D61696E 
 3106      57733046 
 3106      72657100 
 3107              	.LASF15:
 3108 01b1 696E7431 		.ascii	"int16_t\000"
 3108      365F7400 
 3109              	.LASF11:
 3110 01b9 6C6F6E67 		.ascii	"long long int\000"
ARM GAS  C:\Users\15311\AppData\Local\Temp\cccFsPp9.s 			page 86


 3110      206C6F6E 
 3110      6720696E 
 3110      7400
 3111              	.LASF1:
 3112 01c7 7369676E 		.ascii	"signed char\000"
 3112      65642063 
 3112      68617200 
 3113              	.LASF149:
 3114 01d3 70657269 		.ascii	"periDivCmdTypeSelPos\000"
 3114      44697643 
 3114      6D645479 
 3114      70655365 
 3114      6C506F73 
 3115              	.LASF195:
 3116 01e8 74784C65 		.ascii	"txLeftToTransmit\000"
 3116      6674546F 
 3116      5472616E 
 3116      736D6974 
 3116      00
 3117              	.LASF222:
 3118 01f9 76546173 		.ascii	"vTaskDelay\000"
 3118      6B44656C 
 3118      617900
 3119              	.LASF95:
 3120 0204 70726F74 		.ascii	"protBase\000"
 3120      42617365 
 3120      00
 3121              	.LASF107:
 3122 020d 69706356 		.ascii	"ipcVersion\000"
 3122      65727369 
 3122      6F6E00
 3123              	.LASF169:
 3124 0218 63707573 		.ascii	"cpussCm0NmiCtlOffset\000"
 3124      73436D30 
 3124      4E6D6943 
 3124      746C4F66 
 3124      66736574 
 3125              	.LASF58:
 3126 022d 52455345 		.ascii	"RESERVED10\000"
 3126      52564544 
 3126      313000
 3127              	.LASF60:
 3128 0238 52455345 		.ascii	"RESERVED11\000"
 3128      52564544 
 3128      313100
 3129              	.LASF63:
 3130 0243 52455345 		.ascii	"RESERVED12\000"
 3130      52564544 
 3130      313200
 3131              	.LASF65:
 3132 024e 52455345 		.ascii	"RESERVED13\000"
 3132      52564544 
 3132      313300
 3133              	.LASF68:
 3134 0259 52455345 		.ascii	"RESERVED14\000"
 3134      52564544 
 3134      313400
ARM GAS  C:\Users\15311\AppData\Local\Temp\cccFsPp9.s 			page 87


 3135              	.LASF73:
 3136 0264 52455345 		.ascii	"RESERVED15\000"
 3136      52564544 
 3136      313500
 3137              	.LASF78:
 3138 026f 52455345 		.ascii	"RESERVED16\000"
 3138      52564544 
 3138      313600
 3139              	.LASF83:
 3140 027a 52455345 		.ascii	"RESERVED17\000"
 3140      52564544 
 3140      313700
 3141              	.LASF8:
 3142 0285 6C6F6E67 		.ascii	"long int\000"
 3142      20696E74 
 3142      00
 3143              	.LASF57:
 3144 028e 494E5452 		.ascii	"INTR_CAUSE\000"
 3144      5F434155 
 3144      534500
 3145              	.LASF59:
 3146 0299 494E5452 		.ascii	"INTR_I2C_EC\000"
 3146      5F493243 
 3146      5F454300 
 3147              	.LASF123:
 3148 02a5 65704D6F 		.ascii	"epMonitorNr\000"
 3148      6E69746F 
 3148      724E7200 
 3149              	.LASF84:
 3150 02b1 494E5452 		.ascii	"INTR_RX\000"
 3150      5F525800 
 3151              	.LASF93:
 3152 02b9 70657269 		.ascii	"periBase\000"
 3152      42617365 
 3152      00
 3153              	.LASF199:
 3154 02c2 5469636B 		.ascii	"TickType_t\000"
 3154      54797065 
 3154      5F7400
 3155              	.LASF125:
 3156 02cd 73797350 		.ascii	"sysPmSimoPresent\000"
 3156      6D53696D 
 3156      6F507265 
 3156      73656E74 
 3156      00
 3157              	.LASF44:
 3158 02de 54585F46 		.ascii	"TX_FIFO_WR\000"
 3158      49464F5F 
 3158      575200
 3159              	.LASF115:
 3160 02e9 63707573 		.ascii	"cpussFmIrq\000"
 3160      73466D49 
 3160      727100
 3161              	.LASF181:
 3162 02f4 646F7562 		.ascii	"double\000"
 3162      6C6500
 3163              	.LASF154:
ARM GAS  C:\Users\15311\AppData\Local\Temp\cccFsPp9.s 			page 88


 3164 02fb 70657269 		.ascii	"periDiv16_5CtlOffset\000"
 3164      44697631 
 3164      365F3543 
 3164      746C4F66 
 3164      66736574 
 3165              	.LASF118:
 3166 0310 73727373 		.ascii	"srssNumPll\000"
 3166      4E756D50 
 3166      6C6C00
 3167              	.LASF203:
 3168 031b 62756666 		.ascii	"buffer\000"
 3168      657200
 3169              	.LASF228:
 3170 0322 6D61696E 		.ascii	"main\000"
 3170      00
 3171              	.LASF127:
 3172 0327 63727970 		.ascii	"cryptoMemSize\000"
 3172      746F4D65 
 3172      6D53697A 
 3172      6500
 3173              	.LASF152:
 3174 0335 70657269 		.ascii	"periDiv8CtlOffset\000"
 3174      44697638 
 3174      43746C4F 
 3174      66667365 
 3174      7400
 3175              	.LASF6:
 3176 0347 73686F72 		.ascii	"short unsigned int\000"
 3176      7420756E 
 3176      7369676E 
 3176      65642069 
 3176      6E7400
 3177              	.LASF159:
 3178 035a 6770696F 		.ascii	"gpioPrtCfgOutOffset\000"
 3178      50727443 
 3178      66674F75 
 3178      744F6666 
 3178      73657400 
 3179              	.LASF92:
 3180 036e 666C6173 		.ascii	"flashcBase\000"
 3180      68634261 
 3180      736500
 3181              	.LASF9:
 3182 0379 5F5F7569 		.ascii	"__uint32_t\000"
 3182      6E743332 
 3182      5F7400
 3183              	.LASF122:
 3184 0384 70617373 		.ascii	"passSarChannels\000"
 3184      53617243 
 3184      68616E6E 
 3184      656C7300 
 3185              	.LASF219:
 3186 0394 76546173 		.ascii	"vTaskStartScheduler\000"
 3186      6B537461 
 3186      72745363 
 3186      68656475 
 3186      6C657200 
ARM GAS  C:\Users\15311\AppData\Local\Temp\cccFsPp9.s 			page 89


 3187              	.LASF4:
 3188 03a8 5F5F696E 		.ascii	"__int16_t\000"
 3188      7431365F 
 3188      7400
 3189              	.LASF192:
 3190 03b2 72784275 		.ascii	"rxBufIdx\000"
 3190      66496478 
 3190      00
 3191              	.LASF67:
 3192 03bb 494E5452 		.ascii	"INTR_SPI_EC_MASKED\000"
 3192      5F535049 
 3192      5F45435F 
 3192      4D41534B 
 3192      454400
 3193              	.LASF66:
 3194 03ce 494E5452 		.ascii	"INTR_SPI_EC_MASK\000"
 3194      5F535049 
 3194      5F45435F 
 3194      4D41534B 
 3194      00
 3195              	.LASF25:
 3196 03df 5350495F 		.ascii	"SPI_CTRL\000"
 3196      4354524C 
 3196      00
 3197              	.LASF79:
 3198 03e8 494E5452 		.ascii	"INTR_TX\000"
 3198      5F545800 
 3199              	.LASF165:
 3200 03f0 63707573 		.ascii	"cpussCm4PwrCtlOffset\000"
 3200      73436D34 
 3200      50777243 
 3200      746C4F66 
 3200      66736574 
 3201              	.LASF194:
 3202 0405 74784275 		.ascii	"txBufSize\000"
 3202      6653697A 
 3202      6500
 3203              	.LASF160:
 3204 040f 6770696F 		.ascii	"gpioPrtCfgSioOffset\000"
 3204      50727443 
 3204      66675369 
 3204      6F4F6666 
 3204      73657400 
 3205              	.LASF112:
 3206 0423 63707573 		.ascii	"cpussDwChNr\000"
 3206      73447743 
 3206      684E7200 
 3207              	.LASF13:
 3208 042f 756E7369 		.ascii	"unsigned int\000"
 3208      676E6564 
 3208      20696E74 
 3208      00
 3209              	.LASF85:
 3210 043c 494E5452 		.ascii	"INTR_RX_SET\000"
 3210      5F52585F 
 3210      53455400 
 3211              	.LASF178:
ARM GAS  C:\Users\15311\AppData\Local\Temp\cccFsPp9.s 			page 90


 3212 0448 63686172 		.ascii	"char_t\000"
 3212      5F7400
 3213              	.LASF30:
 3214 044f 55415254 		.ascii	"UART_RX_CTRL\000"
 3214      5F52585F 
 3214      4354524C 
 3214      00
 3215              	.LASF134:
 3216 045c 666C6173 		.ascii	"flashCtlMainWs1Freq\000"
 3216      6843746C 
 3216      4D61696E 
 3216      57733146 
 3216      72657100 
 3217              	.LASF87:
 3218 0470 494E5452 		.ascii	"INTR_RX_MASKED\000"
 3218      5F52585F 
 3218      4D41534B 
 3218      454400
 3219              	.LASF10:
 3220 047f 6C6F6E67 		.ascii	"long unsigned int\000"
 3220      20756E73 
 3220      69676E65 
 3220      6420696E 
 3220      7400
 3221              	.LASF23:
 3222 0491 434D445F 		.ascii	"CMD_RESP_STATUS\000"
 3222      52455350 
 3222      5F535441 
 3222      54555300 
 3223              	.LASF221:
 3224 04a1 43795F53 		.ascii	"Cy_SCB_WriteArray\000"
 3224      43425F57 
 3224      72697465 
 3224      41727261 
 3224      7900
 3225              	.LASF53:
 3226 04b3 52585F46 		.ascii	"RX_FIFO_RD_SILENT\000"
 3226      49464F5F 
 3226      52445F53 
 3226      494C454E 
 3226      5400
 3227              	.LASF183:
 3228 04c5 63795F63 		.ascii	"cy_cb_scb_uart_handle_events_t\000"
 3228      625F7363 
 3228      625F7561 
 3228      72745F68 
 3228      616E646C 
 3229              	.LASF216:
 3230 04e4 55415254 		.ascii	"UART_context\000"
 3230      5F636F6E 
 3230      74657874 
 3230      00
 3231              	.LASF213:
 3232 04f1 70765061 		.ascii	"pvParameters\000"
 3232      72616D65 
 3232      74657273 
 3232      00
ARM GAS  C:\Users\15311\AppData\Local\Temp\cccFsPp9.s 			page 91


 3233              	.LASF97:
 3234 04fe 6770696F 		.ascii	"gpioBase\000"
 3234      42617365 
 3234      00
 3235              	.LASF29:
 3236 0507 55415254 		.ascii	"UART_TX_CTRL\000"
 3236      5F54585F 
 3236      4354524C 
 3236      00
 3237              	.LASF110:
 3238 0514 63707573 		.ascii	"cpussIpcNr\000"
 3238      73497063 
 3238      4E7200
 3239              	.LASF200:
 3240 051f 64617461 		.ascii	"data\000"
 3240      00
 3241              	.LASF204:
 3242 0524 73697A65 		.ascii	"size\000"
 3242      00
 3243              	.LASF146:
 3244 0529 70657269 		.ascii	"periTrGrOffset\000"
 3244      54724772 
 3244      4F666673 
 3244      657400
 3245              	.LASF117:
 3246 0538 73727373 		.ascii	"srssNumClkpath\000"
 3246      4E756D43 
 3246      6C6B7061 
 3246      746800
 3247              	.LASF173:
 3248 0547 63707573 		.ascii	"cpussRam1Ctl0\000"
 3248      7352616D 
 3248      3143746C 
 3248      3000
 3249              	.LASF88:
 3250 0555 43795343 		.ascii	"CySCB_V1_Type\000"
 3250      425F5631 
 3250      5F547970 
 3250      6500
 3251              	.LASF38:
 3252 0563 4932435F 		.ascii	"I2C_CFG\000"
 3252      43464700 
 3253              	.LASF31:
 3254 056b 55415254 		.ascii	"UART_RX_STATUS\000"
 3254      5F52585F 
 3254      53544154 
 3254      555300
 3255              	.LASF196:
 3256 057a 63624576 		.ascii	"cbEvents\000"
 3256      656E7473 
 3256      00
 3257              	.LASF230:
 3258 0583 6D656D63 		.ascii	"memcpy\000"
 3258      707900
 3259              	.LASF55:
 3260 058a 455A5F44 		.ascii	"EZ_DATA\000"
 3260      41544100 
ARM GAS  C:\Users\15311\AppData\Local\Temp\cccFsPp9.s 			page 92


 3261              	.LASF147:
 3262 0592 70657269 		.ascii	"periTrGrSize\000"
 3262      54724772 
 3262      53697A65 
 3262      00
 3263              	.LASF105:
 3264 059f 6770696F 		.ascii	"gpioVersion\000"
 3264      56657273 
 3264      696F6E00 
 3265              	.LASF193:
 3266 05ab 74784275 		.ascii	"txBuf\000"
 3266      6600
 3267              	.LASF211:
 3268 05b1 63616C63 		.ascii	"calculate_crc8\000"
 3268      756C6174 
 3268      655F6372 
 3268      633800
 3269              	.LASF177:
 3270 05c0 63795F73 		.ascii	"cy_stc_device_t\000"
 3270      74635F64 
 3270      65766963 
 3270      655F7400 
 3271              	.LASF50:
 3272 05d0 52585F4D 		.ascii	"RX_MATCH\000"
 3272      41544348 
 3272      00
 3273              	.LASF212:
 3274 05d9 73656E64 		.ascii	"send_task\000"
 3274      5F746173 
 3274      6B00
 3275              	.LASF41:
 3276 05e3 54585F46 		.ascii	"TX_FIFO_CTRL\000"
 3276      49464F5F 
 3276      4354524C 
 3276      00
 3277              	.LASF229:
 3278 05f0 43795F53 		.ascii	"Cy_SCB_UART_PutArray\000"
 3278      43425F55 
 3278      4152545F 
 3278      50757441 
 3278      72726179 
 3279              	.LASF188:
 3280 0605 72785269 		.ascii	"rxRingBufHead\000"
 3280      6E674275 
 3280      66486561 
 3280      6400
 3281              	.LASF166:
 3282 0613 63707573 		.ascii	"cpussTrimRamCtlOffset\000"
 3282      73547269 
 3282      6D52616D 
 3282      43746C4F 
 3282      66667365 
 3283              	.LASF161:
 3284 0629 63707573 		.ascii	"cpussCm0ClockCtlOffset\000"
 3284      73436D30 
 3284      436C6F63 
 3284      6B43746C 
ARM GAS  C:\Users\15311\AppData\Local\Temp\cccFsPp9.s 			page 93


 3284      4F666673 
 3285              	.LASF101:
 3286 0640 63707573 		.ascii	"cpussVersion\000"
 3286      73566572 
 3286      73696F6E 
 3286      00
 3287              	.LASF202:
 3288 064d 62617365 		.ascii	"base\000"
 3288      00
 3289              	.LASF72:
 3290 0652 494E5452 		.ascii	"INTR_M_MASKED\000"
 3290      5F4D5F4D 
 3290      41534B45 
 3290      4400
 3291              	.LASF22:
 3292 0660 434D445F 		.ascii	"CMD_RESP_CTRL\000"
 3292      52455350 
 3292      5F435452 
 3292      4C00
 3293              	.LASF32:
 3294 066e 55415254 		.ascii	"UART_FLOW_CTRL\000"
 3294      5F464C4F 
 3294      575F4354 
 3294      524C00
 3295              	.LASF164:
 3296 067d 63707573 		.ascii	"cpussCm0StatusOffset\000"
 3296      73436D30 
 3296      53746174 
 3296      75734F66 
 3296      66736574 
 3297              	.LASF62:
 3298 0692 494E5452 		.ascii	"INTR_I2C_EC_MASKED\000"
 3298      5F493243 
 3298      5F45435F 
 3298      4D41534B 
 3298      454400
 3299              	.LASF145:
 3300 06a5 70657269 		.ascii	"periTrCmdGrSelMsk\000"
 3300      5472436D 
 3300      64477253 
 3300      656C4D73 
 3300      6B00
 3301              	.LASF17:
 3302 06b7 696E7433 		.ascii	"int32_t\000"
 3302      325F7400 
 3303              	.LASF19:
 3304 06bf 73697A65 		.ascii	"sizetype\000"
 3304      74797065 
 3304      00
 3305              	.LASF138:
 3306 06c8 64774368 		.ascii	"dwChOffset\000"
 3306      4F666673 
 3306      657400
 3307              	.LASF89:
 3308 06d3 43795343 		.ascii	"CySCB_Type\000"
 3308      425F5479 
 3308      706500
ARM GAS  C:\Users\15311\AppData\Local\Temp\cccFsPp9.s 			page 94


 3309              	.LASF113:
 3310 06de 63707573 		.ascii	"cpussFlashPaSize\000"
 3310      73466C61 
 3310      73685061 
 3310      53697A65 
 3310      00
 3311              	.LASF151:
 3312 06ef 70657269 		.ascii	"periDivCmdPaTypeSelPos\000"
 3312      44697643 
 3312      6D645061 
 3312      54797065 
 3312      53656C50 
 3313              	.LASF16:
 3314 0706 75696E74 		.ascii	"uint16_t\000"
 3314      31365F74 
 3314      00
 3315              	.LASF174:
 3316 070f 63707573 		.ascii	"cpussRam2Ctl0\000"
 3316      7352616D 
 3316      3243746C 
 3316      3000
 3317              	.LASF28:
 3318 071d 55415254 		.ascii	"UART_CTRL\000"
 3318      5F435452 
 3318      4C00
 3319              	.LASF69:
 3320 0727 494E5452 		.ascii	"INTR_M\000"
 3320      5F4D00
 3321              	.LASF142:
 3322 072e 64775374 		.ascii	"dwStatusChIdxPos\000"
 3322      61747573 
 3322      43684964 
 3322      78506F73 
 3322      00
 3323              	.LASF124:
 3324 073f 75646250 		.ascii	"udbPresent\000"
 3324      72657365 
 3324      6E7400
 3325              	.LASF74:
 3326 074a 494E5452 		.ascii	"INTR_S\000"
 3326      5F5300
 3327              	.LASF185:
 3328 0751 72785374 		.ascii	"rxStatus\000"
 3328      61747573 
 3328      00
 3329              	.LASF104:
 3330 075a 666C6173 		.ascii	"flashcVersion\000"
 3330      68635665 
 3330      7273696F 
 3330      6E00
 3331              	.LASF100:
 3332 0768 63727970 		.ascii	"cryptoBase\000"
 3332      746F4261 
 3332      736500
 3333              	.LASF121:
 3334 0773 736D6966 		.ascii	"smifDeviceNr\000"
 3334      44657669 
ARM GAS  C:\Users\15311\AppData\Local\Temp\cccFsPp9.s 			page 95


 3334      63654E72 
 3334      00
 3335              	.LASF175:
 3336 0780 69706353 		.ascii	"ipcStructSize\000"
 3336      74727563 
 3336      7453697A 
 3336      6500
 3337              	.LASF223:
 3338 078e 474E5520 		.ascii	"GNU C11 5.4.1 20160609 (release) [ARM/embedded-5-br"
 3338      43313120 
 3338      352E342E 
 3338      31203230 
 3338      31363036 
 3339 07c1 616E6368 		.ascii	"anch revision 237715] -mcpu=cortex-m4 -mfloat-abi=s"
 3339      20726576 
 3339      6973696F 
 3339      6E203233 
 3339      37373135 
 3340 07f4 6F667466 		.ascii	"oftfp -mfpu=fpv4-sp-d16 -mthumb -g -Og -ffunction-s"
 3340      70202D6D 
 3340      6670753D 
 3340      66707634 
 3340      2D73702D 
 3341 0827 65637469 		.ascii	"ections -ffat-lto-objects\000"
 3341      6F6E7320 
 3341      2D666661 
 3341      742D6C74 
 3341      6F2D6F62 
 3342              	.LASF108:
 3343 0841 70657269 		.ascii	"periVersion\000"
 3343      56657273 
 3343      696F6E00 
 3344              	.LASF180:
 3345 084d 666C6F61 		.ascii	"float\000"
 3345      7400
 3346              	.LASF143:
 3347 0853 64775374 		.ascii	"dwStatusChIdxMsk\000"
 3347      61747573 
 3347      43684964 
 3347      784D736B 
 3347      00
 3348              	.LASF27:
 3349 0864 52455345 		.ascii	"RESERVED1\000"
 3349      52564544 
 3349      3100
 3350              	.LASF215:
 3351 086e 63795F64 		.ascii	"cy_device\000"
 3351      65766963 
 3351      6500
 3352              	.LASF39:
 3353 0878 52455345 		.ascii	"RESERVED3\000"
 3353      52564544 
 3353      3300
 3354              	.LASF171:
 3355 0882 63707573 		.ascii	"cpussRomCtl\000"
 3355      73526F6D 
 3355      43746C00 
ARM GAS  C:\Users\15311\AppData\Local\Temp\cccFsPp9.s 			page 96


 3356              	.LASF45:
 3357 088e 52455345 		.ascii	"RESERVED5\000"
 3357      52564544 
 3357      3500
 3358              	.LASF49:
 3359 0898 52455345 		.ascii	"RESERVED6\000"
 3359      52564544 
 3359      3600
 3360              	.LASF51:
 3361 08a2 52455345 		.ascii	"RESERVED7\000"
 3361      52564544 
 3361      3700
 3362              	.LASF54:
 3363 08ac 52455345 		.ascii	"RESERVED8\000"
 3363      52564544 
 3363      3800
 3364              	.LASF56:
 3365 08b6 52455345 		.ascii	"RESERVED9\000"
 3365      52564544 
 3365      3900
 3366              	.LASF94:
 3367 08c0 75646242 		.ascii	"udbBase\000"
 3367      61736500 
 3368              	.LASF182:
 3369 08c8 5F426F6F 		.ascii	"_Bool\000"
 3369      6C00
 3370              	.LASF34:
 3371 08ce 4932435F 		.ascii	"I2C_CTRL\000"
 3371      4354524C 
 3371      00
 3372              	.LASF2:
 3373 08d7 756E7369 		.ascii	"unsigned char\000"
 3373      676E6564 
 3373      20636861 
 3373      7200
 3374              	.LASF82:
 3375 08e5 494E5452 		.ascii	"INTR_TX_MASKED\000"
 3375      5F54585F 
 3375      4D41534B 
 3375      454400
 3376              	.LASF137:
 3377 08f4 666C6173 		.ascii	"flashCtlMainWs4Freq\000"
 3377      6843746C 
 3377      4D61696E 
 3377      57733446 
 3377      72657100 
 3378              	.LASF0:
 3379 0908 73686F72 		.ascii	"short int\000"
 3379      7420696E 
 3379      7400
 3380              	.LASF96:
 3381 0912 6873696F 		.ascii	"hsiomBase\000"
 3381      6D426173 
 3381      6500
 3382              	.LASF148:
 3383 091c 70657269 		.ascii	"periDivCmdDivSelMsk\000"
 3383      44697643 
ARM GAS  C:\Users\15311\AppData\Local\Temp\cccFsPp9.s 			page 97


 3383      6D644469 
 3383      7653656C 
 3383      4D736B00 
 3384              	.LASF135:
 3385 0930 666C6173 		.ascii	"flashCtlMainWs2Freq\000"
 3385      6843746C 
 3385      4D61696E 
 3385      57733246 
 3385      72657100 
 3386              	.LASF77:
 3387 0944 494E5452 		.ascii	"INTR_S_MASKED\000"
 3387      5F535F4D 
 3387      41534B45 
 3387      4400
 3388              	.LASF33:
 3389 0952 52455345 		.ascii	"RESERVED2\000"
 3389      52564544 
 3389      3200
 3390              	.LASF119:
 3391 095c 73727373 		.ascii	"srssNumHfroot\000"
 3391      4E756D48 
 3391      66726F6F 
 3391      7400
 3392              	.LASF43:
 3393 096a 52455345 		.ascii	"RESERVED4\000"
 3393      52564544 
 3393      3400
 3394              	.LASF132:
 3395 0974 666C6173 		.ascii	"flashEraseDelay\000"
 3395      68457261 
 3395      73654465 
 3395      6C617900 
 3396              	.LASF209:
 3397 0984 6164635F 		.ascii	"adc_value\000"
 3397      76616C75 
 3397      6500
 3398              	.LASF18:
 3399 098e 75696E74 		.ascii	"uint32_t\000"
 3399      33325F74 
 3399      00
 3400              	.LASF70:
 3401 0997 494E5452 		.ascii	"INTR_M_SET\000"
 3401      5F4D5F53 
 3401      455400
 3402              	.LASF26:
 3403 09a2 5350495F 		.ascii	"SPI_STATUS\000"
 3403      53544154 
 3403      555300
 3404              	.LASF90:
 3405 09ad 6C6F6E67 		.ascii	"long double\000"
 3405      20646F75 
 3405      626C6500 
 3406              	.LASF179:
 3407 09b9 63686172 		.ascii	"char\000"
 3407      00
 3408              	.LASF109:
 3409 09be 70726F74 		.ascii	"protVersion\000"
ARM GAS  C:\Users\15311\AppData\Local\Temp\cccFsPp9.s 			page 98


 3409      56657273 
 3409      696F6E00 
 3410              	.LASF37:
 3411 09ca 4932435F 		.ascii	"I2C_S_CMD\000"
 3411      535F434D 
 3411      4400
 3412              	.LASF172:
 3413 09d4 63707573 		.ascii	"cpussRam0Ctl0\000"
 3413      7352616D 
 3413      3043746C 
 3413      3000
 3414              	.LASF86:
 3415 09e2 494E5452 		.ascii	"INTR_RX_MASK\000"
 3415      5F52585F 
 3415      4D41534B 
 3415      00
 3416              	.LASF80:
 3417 09ef 494E5452 		.ascii	"INTR_TX_SET\000"
 3417      5F54585F 
 3417      53455400 
 3418              	.LASF71:
 3419 09fb 494E5452 		.ascii	"INTR_M_MASK\000"
 3419      5F4D5F4D 
 3419      41534B00 
 3420              	.LASF5:
 3421 0a07 5F5F7569 		.ascii	"__uint16_t\000"
 3421      6E743136 
 3421      5F7400
 3422              	.LASF153:
 3423 0a12 70657269 		.ascii	"periDiv16CtlOffset\000"
 3423      44697631 
 3423      3643746C 
 3423      4F666673 
 3423      657400
 3424              	.LASF24:
 3425 0a25 52455345 		.ascii	"RESERVED\000"
 3425      52564544 
 3425      00
 3426              	.LASF7:
 3427 0a2e 5F5F696E 		.ascii	"__int32_t\000"
 3427      7433325F 
 3427      7400
 3428              	.LASF48:
 3429 0a38 52585F46 		.ascii	"RX_FIFO_STATUS\000"
 3429      49464F5F 
 3429      53544154 
 3429      555300
 3430              	.LASF81:
 3431 0a47 494E5452 		.ascii	"INTR_TX_MASK\000"
 3431      5F54585F 
 3431      4D41534B 
 3431      00
 3432              	.LASF225:
 3433 0a54 433A5C55 		.ascii	"C:\\Users\\15311\\Desktop\\PSoC_project\\PSoC6_UDB_"
 3433      73657273 
 3433      5C313533 
 3433      31315C44 
ARM GAS  C:\Users\15311\AppData\Local\Temp\cccFsPp9.s 			page 99


 3433      65736B74 
 3434 0a82 4932435F 		.ascii	"I2C_Master\\uart_test.cydsn\000"
 3434      4D617374 
 3434      65725C75 
 3434      6172745F 
 3434      74657374 
 3435              	.LASF106:
 3436 0a9d 6873696F 		.ascii	"hsiomVersion\000"
 3436      6D566572 
 3436      73696F6E 
 3436      00
 3437              	.LASF52:
 3438 0aaa 52585F46 		.ascii	"RX_FIFO_RD\000"
 3438      49464F5F 
 3438      524400
 3439              	.LASF131:
 3440 0ab5 666C6173 		.ascii	"flashProgramDelay\000"
 3440      6850726F 
 3440      6772616D 
 3440      44656C61 
 3440      7900
 3441              	.LASF187:
 3442 0ac7 72785269 		.ascii	"rxRingBufSize\000"
 3442      6E674275 
 3442      6653697A 
 3442      6500
 3443              	.LASF206:
 3444 0ad5 7061636B 		.ascii	"packet\000"
 3444      657400
 3445              	.LASF220:
 3446 0adc 43795F53 		.ascii	"Cy_SysLib_AssertFailed\000"
 3446      79734C69 
 3446      625F4173 
 3446      73657274 
 3446      4661696C 
 3447              	.LASF139:
 3448 0af3 64774368 		.ascii	"dwChSize\000"
 3448      53697A65 
 3448      00
 3449              	.LASF40:
 3450 0afc 54585F43 		.ascii	"TX_CTRL\000"
 3450      54524C00 
 3451              	.LASF64:
 3452 0b04 494E5452 		.ascii	"INTR_SPI_EC\000"
 3452      5F535049 
 3452      5F454300 
 3453              	.LASF114:
 3454 0b10 63707573 		.ascii	"cpussIpc0Irq\000"
 3454      73497063 
 3454      30497271 
 3454      00
 3455              	.LASF20:
 3456 0b1d 4354524C 		.ascii	"CTRL\000"
 3456      00
 3457              	.LASF157:
 3458 0b22 6770696F 		.ascii	"gpioPrtCfgOffset\000"
 3458      50727443 
ARM GAS  C:\Users\15311\AppData\Local\Temp\cccFsPp9.s 			page 100


 3458      66674F66 
 3458      66736574 
 3458      00
 3459              	.LASF197:
 3460 0b33 696E6974 		.ascii	"initKey\000"
 3460      4B657900 
 3461              	.LASF190:
 3462 0b3b 72784275 		.ascii	"rxBuf\000"
 3462      6600
 3463              	.LASF198:
 3464 0b41 63795F73 		.ascii	"cy_stc_scb_uart_context_t\000"
 3464      74635F73 
 3464      63625F75 
 3464      6172745F 
 3464      636F6E74 
 3465              	.LASF21:
 3466 0b5b 53544154 		.ascii	"STATUS\000"
 3466      555300
 3467              	.LASF116:
 3468 0b62 63707573 		.ascii	"cpussNotConnectedIrq\000"
 3468      734E6F74 
 3468      436F6E6E 
 3468      65637465 
 3468      64497271 
 3469              	.LASF170:
 3470 0b77 63707573 		.ascii	"cpussCm4NmiCtlOffset\000"
 3470      73436D34 
 3470      4E6D6943 
 3470      746C4F66 
 3470      66736574 
 3471              	.LASF130:
 3472 0b8c 666C6173 		.ascii	"flashWriteDelay\000"
 3472      68577269 
 3472      74654465 
 3472      6C617900 
 3473              	.LASF47:
 3474 0b9c 52585F46 		.ascii	"RX_FIFO_CTRL\000"
 3474      49464F5F 
 3474      4354524C 
 3474      00
 3475              	.LASF208:
 3476 0ba9 73656E64 		.ascii	"send_data\000"
 3476      5F646174 
 3476      6100
 3477              	.LASF14:
 3478 0bb3 75696E74 		.ascii	"uint8_t\000"
 3478      385F7400 
 3479              	.LASF36:
 3480 0bbb 4932435F 		.ascii	"I2C_M_CMD\000"
 3480      4D5F434D 
 3480      4400
 3481              	.LASF163:
 3482 0bc5 63707573 		.ascii	"cpussCm4StatusOffset\000"
 3482      73436D34 
 3482      53746174 
 3482      75734F66 
 3482      66736574 
ARM GAS  C:\Users\15311\AppData\Local\Temp\cccFsPp9.s 			page 101


 3483              	.LASF156:
 3484 0bda 6770696F 		.ascii	"gpioPrtIntrCfgOffset\000"
 3484      50727449 
 3484      6E747243 
 3484      66674F66 
 3484      66736574 
 3485              	.LASF201:
 3486 0bef 6C656E67 		.ascii	"length\000"
 3486      746800
 3487              	.LASF141:
 3488 0bf6 64774368 		.ascii	"dwChCtlPreemptablePos\000"
 3488      43746C50 
 3488      7265656D 
 3488      70746162 
 3488      6C65506F 
 3489              	.LASF189:
 3490 0c0c 72785269 		.ascii	"rxRingBufTail\000"
 3490      6E674275 
 3490      66546169 
 3490      6C00
 3491              	.LASF61:
 3492 0c1a 494E5452 		.ascii	"INTR_I2C_EC_MASK\000"
 3492      5F493243 
 3492      5F45435F 
 3492      4D41534B 
 3492      00
 3493              	.LASF167:
 3494 0c2b 63707573 		.ascii	"cpussTrimRomCtlOffset\000"
 3494      73547269 
 3494      6D526F6D 
 3494      43746C4F 
 3494      66667365 
 3495              	.LASF184:
 3496 0c41 74785374 		.ascii	"txStatus\000"
 3496      61747573 
 3496      00
 3497              	.LASF103:
 3498 0c4a 64775665 		.ascii	"dwVersion\000"
 3498      7273696F 
 3498      6E00
 3499              	.LASF99:
 3500 0c54 69706342 		.ascii	"ipcBase\000"
 3500      61736500 
 3501              	.LASF150:
 3502 0c5c 70657269 		.ascii	"periDivCmdPaDivSelPos\000"
 3502      44697643 
 3502      6D645061 
 3502      44697653 
 3502      656C506F 
 3503              	.LASF46:
 3504 0c72 52585F43 		.ascii	"RX_CTRL\000"
 3504      54524C00 
 3505              	.LASF226:
 3506 0c7a 63795F73 		.ascii	"cy_stc_scb_uart_context\000"
 3506      74635F73 
 3506      63625F75 
 3506      6172745F 
ARM GAS  C:\Users\15311\AppData\Local\Temp\cccFsPp9.s 			page 102


 3506      636F6E74 
 3507              	.LASF75:
 3508 0c92 494E5452 		.ascii	"INTR_S_SET\000"
 3508      5F535F53 
 3508      455400
 3509              	.LASF224:
 3510 0c9d 6D61696E 		.ascii	"main_cm4.c\000"
 3510      5F636D34 
 3510      2E6300
 3511              	.LASF128:
 3512 0ca8 666C6173 		.ascii	"flashRwwRequired\000"
 3512      68527777 
 3512      52657175 
 3512      69726564 
 3512      00
 3513              	.LASF205:
 3514 0cb9 6F70636F 		.ascii	"opcode\000"
 3514      646500
 3515              		.ident	"GCC: (GNU Tools for ARM Embedded Processors) 5.4.1 20160609 (release) [ARM/embedded-5-bran
