ARM GAS  C:\Users\thoma\AppData\Local\Temp\cceCswqS.s 			page 1


   1              		.syntax unified
   2              		.cpu cortex-m4
   3              		.eabi_attribute 27, 1
   4              		.fpu fpv4-sp-d16
   5              		.eabi_attribute 20, 1
   6              		.eabi_attribute 21, 1
   7              		.eabi_attribute 23, 3
   8              		.eabi_attribute 24, 1
   9              		.eabi_attribute 25, 1
  10              		.eabi_attribute 26, 1
  11              		.eabi_attribute 30, 1
  12              		.eabi_attribute 34, 1
  13              		.eabi_attribute 18, 4
  14              		.thumb
  15              		.syntax unified
  16              		.file	"ADPD1080.c"
  17              		.text
  18              	.Ltext0:
  19              		.cfi_sections	.debug_frame
  20              		.section	.text.ADPD1080_WriteReg,"ax",%progbits
  21              		.align	2
  22              		.global	ADPD1080_WriteReg
  23              		.thumb
  24              		.thumb_func
  25              		.type	ADPD1080_WriteReg, %function
  26              	ADPD1080_WriteReg:
  27              	.LFB536:
  28              		.file 1 "ADPD1080.c"
   1:ADPD1080.c    **** /* ADPD1080.c */
   2:ADPD1080.c    **** 
   3:ADPD1080.c    **** /* Include Files */
   4:ADPD1080.c    **** #include "project.h"  // Include PSoC project header for PSoC-specific functions
   5:ADPD1080.c    **** #include "ADPD1080.h"
   6:ADPD1080.c    **** #include <stdio.h>
   7:ADPD1080.c    **** 
   8:ADPD1080.c    **** /* Initialize data slot arrays */
   9:ADPD1080.c    **** volatile uint16_t au16DataSlotA[4] = {0,0,0,0};
  10:ADPD1080.c    **** volatile uint16_t au16DataSlotB[4] = {0,0,0,0};
  11:ADPD1080.c    **** 
  12:ADPD1080.c    **** /* Sensor Function Definitions */
  13:ADPD1080.c    **** /**
  14:ADPD1080.c    ****  *    @brief  Sets up the hardware and initializes I2C
  15:ADPD1080.c    ****  *    @param  i2cAddr
  16:ADPD1080.c    ****  *            The I2C address to be used.
  17:ADPD1080.c    ****  *    @param  sensorId
  18:ADPD1080.c    ****  *            The unique ID to differentiate the sensors from others
  19:ADPD1080.c    ****  *    @return True if initialization was successful, otherwise false.
  20:ADPD1080.c    ****  */
  21:ADPD1080.c    **** bool ADPD1080_Begin(uint8_t i2cAddr, int32_t sensorId) {
  22:ADPD1080.c    ****     (void) i2cAddr;
  23:ADPD1080.c    ****     (void) sensorId;
  24:ADPD1080.c    ****     
  25:ADPD1080.c    ****     uint16_t regValue = ADPD1080_ReadReg(ADPD1080_DEVID);  // Device ID register
  26:ADPD1080.c    ****     uint8_t deviceID = (uint8_t) regValue;
  27:ADPD1080.c    ****     printf("Device ID is 0x%x\r\n", deviceID);
  28:ADPD1080.c    ****     return deviceID == ADPD1080_CHIP_ID;
  29:ADPD1080.c    **** }
ARM GAS  C:\Users\thoma\AppData\Local\Temp\cceCswqS.s 			page 2


  30:ADPD1080.c    **** 
  31:ADPD1080.c    **** /**
  32:ADPD1080.c    ****  * @brief Writes a register from the ADPD1080 using I2C bus.
  33:ADPD1080.c    ****  * 
  34:ADPD1080.c    ****  * @param regAddr - register address
  35:ADPD1080.c    ****  * @param regValue - register data to write
  36:ADPD1080.c    ****  * 
  37:ADPD1080.c    ****  * @return true if successful - false if failure 
  38:ADPD1080.c    ****  */
  39:ADPD1080.c    **** bool ADPD1080_WriteReg(uint8_t regAddr, uint16_t regValue) {
  29              		.loc 1 39 0
  30              		.cfi_startproc
  31              		@ args = 0, pretend = 0, frame = 0
  32              		@ frame_needed = 0, uses_anonymous_args = 0
  33              	.LVL0:
  34 0000 38B5     		push	{r3, r4, r5, lr}
  35              		.cfi_def_cfa_offset 16
  36              		.cfi_offset 3, -16
  37              		.cfi_offset 4, -12
  38              		.cfi_offset 5, -8
  39              		.cfi_offset 14, -4
  40 0002 0546     		mov	r5, r0
  41 0004 0C46     		mov	r4, r1
  40:ADPD1080.c    ****     //uint8_t err;
  41:ADPD1080.c    ****     I2C_MasterSendStart(ADPD1080_ADDRESS, I2C_WRITE_XFER_MODE);
  42              		.loc 1 41 0
  43 0006 0021     		movs	r1, #0
  44              	.LVL1:
  45 0008 6420     		movs	r0, #100
  46              	.LVL2:
  47 000a FFF7FEFF 		bl	I2C_MasterSendStart
  48              	.LVL3:
  42:ADPD1080.c    ****     I2C_MasterWriteByte(regAddr);
  49              		.loc 1 42 0
  50 000e 2846     		mov	r0, r5
  51 0010 FFF7FEFF 		bl	I2C_MasterWriteByte
  52              	.LVL4:
  43:ADPD1080.c    ****     I2C_MasterWriteByte((regValue >> 8) & 0xFF);
  53              		.loc 1 43 0
  54 0014 200A     		lsrs	r0, r4, #8
  55 0016 FFF7FEFF 		bl	I2C_MasterWriteByte
  56              	.LVL5:
  44:ADPD1080.c    ****     I2C_MasterWriteByte(regValue & 0xFF);
  57              		.loc 1 44 0
  58 001a E0B2     		uxtb	r0, r4
  59 001c FFF7FEFF 		bl	I2C_MasterWriteByte
  60              	.LVL6:
  45:ADPD1080.c    ****     I2C_MasterSendStop();
  61              		.loc 1 45 0
  62 0020 FFF7FEFF 		bl	I2C_MasterSendStop
  63              	.LVL7:
  46:ADPD1080.c    ****     return true;
  47:ADPD1080.c    **** }
  64              		.loc 1 47 0
  65 0024 0120     		movs	r0, #1
  66 0026 38BD     		pop	{r3, r4, r5, pc}
  67              		.cfi_endproc
ARM GAS  C:\Users\thoma\AppData\Local\Temp\cceCswqS.s 			page 3


  68              	.LFE536:
  69              		.size	ADPD1080_WriteReg, .-ADPD1080_WriteReg
  70              		.section	.text.ADPD1080_ReadReg,"ax",%progbits
  71              		.align	2
  72              		.global	ADPD1080_ReadReg
  73              		.thumb
  74              		.thumb_func
  75              		.type	ADPD1080_ReadReg, %function
  76              	ADPD1080_ReadReg:
  77              	.LFB537:
  48:ADPD1080.c    **** 
  49:ADPD1080.c    **** /**
  50:ADPD1080.c    ****  * @brief Reads a register from the ADPD1080 using I2C bus.
  51:ADPD1080.c    ****  * 
  52:ADPD1080.c    ****  * @param regAddr - register address
  53:ADPD1080.c    ****  * 
  54:ADPD1080.c    ****  * @return uint16_t - register value
  55:ADPD1080.c    ****  */
  56:ADPD1080.c    **** uint16_t ADPD1080_ReadReg(uint8_t regAddr) {
  78              		.loc 1 56 0
  79              		.cfi_startproc
  80              		@ args = 0, pretend = 0, frame = 0
  81              		@ frame_needed = 0, uses_anonymous_args = 0
  82              	.LVL8:
  83 0000 38B5     		push	{r3, r4, r5, lr}
  84              		.cfi_def_cfa_offset 16
  85              		.cfi_offset 3, -16
  86              		.cfi_offset 4, -12
  87              		.cfi_offset 5, -8
  88              		.cfi_offset 14, -4
  89 0002 0446     		mov	r4, r0
  57:ADPD1080.c    ****     uint8_t buffer[2] = {0};
  58:ADPD1080.c    ****     I2C_MasterSendStart(ADPD1080_ADDRESS, I2C_WRITE_XFER_MODE);
  90              		.loc 1 58 0
  91 0004 0021     		movs	r1, #0
  92 0006 6420     		movs	r0, #100
  93              	.LVL9:
  94 0008 FFF7FEFF 		bl	I2C_MasterSendStart
  95              	.LVL10:
  59:ADPD1080.c    ****     I2C_MasterWriteByte(regAddr);
  96              		.loc 1 59 0
  97 000c 2046     		mov	r0, r4
  98 000e FFF7FEFF 		bl	I2C_MasterWriteByte
  99              	.LVL11:
  60:ADPD1080.c    ****     I2C_MasterSendRestart(ADPD1080_ADDRESS, I2C_READ_XFER_MODE);
 100              		.loc 1 60 0
 101 0012 0121     		movs	r1, #1
 102 0014 6420     		movs	r0, #100
 103 0016 FFF7FEFF 		bl	I2C_MasterSendRestart
 104              	.LVL12:
  61:ADPD1080.c    ****     buffer[0] = I2C_MasterReadByte(I2C_ACK_DATA);
 105              		.loc 1 61 0
 106 001a 0120     		movs	r0, #1
 107 001c FFF7FEFF 		bl	I2C_MasterReadByte
 108              	.LVL13:
 109 0020 0546     		mov	r5, r0
  62:ADPD1080.c    ****     buffer[1] = I2C_MasterReadByte(I2C_NAK_DATA);
ARM GAS  C:\Users\thoma\AppData\Local\Temp\cceCswqS.s 			page 4


 110              		.loc 1 62 0
 111 0022 0020     		movs	r0, #0
 112 0024 FFF7FEFF 		bl	I2C_MasterReadByte
 113              	.LVL14:
 114 0028 0446     		mov	r4, r0
  63:ADPD1080.c    ****     I2C_MasterSendStop();
 115              		.loc 1 63 0
 116 002a FFF7FEFF 		bl	I2C_MasterSendStop
 117              	.LVL15:
  64:ADPD1080.c    ****     return (buffer[0] << 8) | buffer[1];
 118              		.loc 1 64 0
 119 002e 44EA0520 		orr	r0, r4, r5, lsl #8
  65:ADPD1080.c    ****     /*
  66:ADPD1080.c    ****     uint8_t regByte[2];
  67:ADPD1080.c    ****     uint8_t wrBuf[1] = {regAddr};
  68:ADPD1080.c    ****     I2C_MasterWriteBuf(ADPD1080_ADDRESS, wrBuf, 1, I2C_MODE_NO_STOP);
  69:ADPD1080.c    ****     I2C_MasterReadBuf(ADPD1080_ADDRESS, regByte, 2, I2C_MODE_REPEAT_START | I2C_MODE_NO_STOP);
  70:ADPD1080.c    ****     I2C_MasterSendStop();
  71:ADPD1080.c    ****     uint16_t regValue = ((uint16_t)regByte[0] << 8) | ((uint16_t)regByte[1]);
  72:ADPD1080.c    ****     return regValue
  73:ADPD1080.c    ****     */
  74:ADPD1080.c    **** }
 120              		.loc 1 74 0
 121 0032 80B2     		uxth	r0, r0
 122 0034 38BD     		pop	{r3, r4, r5, pc}
 123              		.cfi_endproc
 124              	.LFE537:
 125              		.size	ADPD1080_ReadReg, .-ADPD1080_ReadReg
 126 0036 00BF     		.section	.text.ADPD1080_Begin,"ax",%progbits
 127              		.align	2
 128              		.global	ADPD1080_Begin
 129              		.thumb
 130              		.thumb_func
 131              		.type	ADPD1080_Begin, %function
 132              	ADPD1080_Begin:
 133              	.LFB535:
  21:ADPD1080.c    ****     (void) i2cAddr;
 134              		.loc 1 21 0
 135              		.cfi_startproc
 136              		@ args = 0, pretend = 0, frame = 0
 137              		@ frame_needed = 0, uses_anonymous_args = 0
 138              	.LVL16:
 139 0000 10B5     		push	{r4, lr}
 140              		.cfi_def_cfa_offset 8
 141              		.cfi_offset 4, -8
 142              		.cfi_offset 14, -4
  25:ADPD1080.c    ****     uint8_t deviceID = (uint8_t) regValue;
 143              		.loc 1 25 0
 144 0002 0820     		movs	r0, #8
 145              	.LVL17:
 146 0004 FFF7FEFF 		bl	ADPD1080_ReadReg
 147              	.LVL18:
  26:ADPD1080.c    ****     printf("Device ID is 0x%x\r\n", deviceID);
 148              		.loc 1 26 0
 149 0008 C4B2     		uxtb	r4, r0
 150              	.LVL19:
  27:ADPD1080.c    ****     return deviceID == ADPD1080_CHIP_ID;
ARM GAS  C:\Users\thoma\AppData\Local\Temp\cceCswqS.s 			page 5


 151              		.loc 1 27 0
 152 000a 2146     		mov	r1, r4
 153 000c 0348     		ldr	r0, .L7
 154              	.LVL20:
 155 000e FFF7FEFF 		bl	printf
 156              	.LVL21:
  29:ADPD1080.c    **** 
 157              		.loc 1 29 0
 158 0012 162C     		cmp	r4, #22
 159 0014 14BF     		ite	ne
 160 0016 0020     		movne	r0, #0
 161 0018 0120     		moveq	r0, #1
 162 001a 10BD     		pop	{r4, pc}
 163              	.LVL22:
 164              	.L8:
 165              		.align	2
 166              	.L7:
 167 001c 00000000 		.word	.LC0
 168              		.cfi_endproc
 169              	.LFE535:
 170              		.size	ADPD1080_Begin, .-ADPD1080_Begin
 171              		.section	.text.ADPD1080_SetOperationMode,"ax",%progbits
 172              		.align	2
 173              		.global	ADPD1080_SetOperationMode
 174              		.thumb
 175              		.thumb_func
 176              		.type	ADPD1080_SetOperationMode, %function
 177              	ADPD1080_SetOperationMode:
 178              	.LFB538:
  75:ADPD1080.c    **** 
  76:ADPD1080.c    **** /**
  77:ADPD1080.c    ****  * @brief Sets the operation mode of the ADPD1080
  78:ADPD1080.c    ****  * 
  79:ADPD1080.c    ****  * @param enMode = STANDBY, PROGRAM or NORMAL_OPERATION.
  80:ADPD1080.c    ****  * 
  81:ADPD1080.c    ****  * @return true if successful - false if failure
  82:ADPD1080.c    ****  */
  83:ADPD1080.c    **** bool ADPD1080_SetOperationMode(ADPD1080_OperationMode enMode) {
 179              		.loc 1 83 0
 180              		.cfi_startproc
 181              		@ args = 0, pretend = 0, frame = 0
 182              		@ frame_needed = 0, uses_anonymous_args = 0
 183              	.LVL23:
 184 0000 10B5     		push	{r4, lr}
 185              		.cfi_def_cfa_offset 8
 186              		.cfi_offset 4, -8
 187              		.cfi_offset 14, -4
 188 0002 0446     		mov	r4, r0
  84:ADPD1080.c    ****     uint16_t regValue = ADPD1080_ReadReg(ADPD1080_MODE);
 189              		.loc 1 84 0
 190 0004 1020     		movs	r0, #16
 191              	.LVL24:
 192 0006 FFF7FEFF 		bl	ADPD1080_ReadReg
 193              	.LVL25:
  85:ADPD1080.c    ****     regValue &= ~(0x3 << 0);
 194              		.loc 1 85 0
 195 000a 20F00300 		bic	r0, r0, #3
ARM GAS  C:\Users\thoma\AppData\Local\Temp\cceCswqS.s 			page 6


 196              	.LVL26:
 197 000e 81B2     		uxth	r1, r0
 198              	.LVL27:
  86:ADPD1080.c    ****     regValue |= (enMode << 0);
  87:ADPD1080.c    ****     return ADPD1080_WriteReg(ADPD1080_MODE, regValue);
 199              		.loc 1 87 0
 200 0010 2143     		orrs	r1, r1, r4
 201              	.LVL28:
 202 0012 1020     		movs	r0, #16
 203              	.LVL29:
 204 0014 FFF7FEFF 		bl	ADPD1080_WriteReg
 205              	.LVL30:
  88:ADPD1080.c    **** }
 206              		.loc 1 88 0
 207 0018 10BD     		pop	{r4, pc}
 208              		.cfi_endproc
 209              	.LFE538:
 210              		.size	ADPD1080_SetOperationMode, .-ADPD1080_SetOperationMode
 211 001a 00BF     		.section	.text.ADPD1080_SetTimeSlotSwitch,"ax",%progbits
 212              		.align	2
 213              		.global	ADPD1080_SetTimeSlotSwitch
 214              		.thumb
 215              		.thumb_func
 216              		.type	ADPD1080_SetTimeSlotSwitch, %function
 217              	ADPD1080_SetTimeSlotSwitch:
 218              	.LFB539:
  89:ADPD1080.c    **** /**
  90:ADPD1080.c    ****  * @brief Configure the Time Slot Switch register.
  91:ADPD1080.c    ****  *
  92:ADPD1080.c    ****  * @param u8SlotASel - SlotA input
  93:ADPD1080.c    ****  * 
  94:ADPD1080.c    ****  * @param u8SlotBSel - SlotB input
  95:ADPD1080.c    ****  * 
  96:ADPD1080.c    ****  * @return true if successful - false if failure 
  97:ADPD1080.c    ****  */
  98:ADPD1080.c    **** bool ADPD1080_SetTimeSlotSwitch(ADPD1080_TimeSlotPD u8SlotASel, ADPD1080_TimeSlotPD u8SlotBSel){
 219              		.loc 1 98 0
 220              		.cfi_startproc
 221              		@ args = 0, pretend = 0, frame = 0
 222              		@ frame_needed = 0, uses_anonymous_args = 0
 223              	.LVL31:
 224 0000 38B5     		push	{r3, r4, r5, lr}
 225              		.cfi_def_cfa_offset 16
 226              		.cfi_offset 3, -16
 227              		.cfi_offset 4, -12
 228              		.cfi_offset 5, -8
 229              		.cfi_offset 14, -4
 230 0002 0546     		mov	r5, r0
 231 0004 0C46     		mov	r4, r1
  99:ADPD1080.c    ****     uint16_t regValue = ADPD1080_ReadReg(ADPD1080_PD_LED_SELECT);
 232              		.loc 1 99 0
 233 0006 1420     		movs	r0, #20
 234              	.LVL32:
 235 0008 FFF7FEFF 		bl	ADPD1080_ReadReg
 236              	.LVL33:
 100:ADPD1080.c    ****     regValue &= ~(0x0F << 4);        // Clear bits 4-7
 237              		.loc 1 100 0
ARM GAS  C:\Users\thoma\AppData\Local\Temp\cceCswqS.s 			page 7


 238 000c 20F0F000 		bic	r0, r0, #240
 239              	.LVL34:
 240 0010 81B2     		uxth	r1, r0
 241              	.LVL35:
 101:ADPD1080.c    ****     regValue |= (u8SlotASel << 4); // Set the new value for bits 4-7
 242              		.loc 1 101 0
 243 0012 41EA0511 		orr	r1, r1, r5, lsl #4
 244              	.LVL36:
 102:ADPD1080.c    ****     regValue &= ~(0x0F << 8);        // Clear bits 8-11
 245              		.loc 1 102 0
 246 0016 21F47061 		bic	r1, r1, #3840
 247              	.LVL37:
 103:ADPD1080.c    ****     regValue |= (u8SlotBSel << 8); // Set the new value for bits 8-11
 104:ADPD1080.c    ****     
 105:ADPD1080.c    ****     // Write the updated value back to the ADPD1080_PD_LED_SELECT register
 106:ADPD1080.c    ****     return ADPD1080_WriteReg(ADPD1080_PD_LED_SELECT, regValue);
 248              		.loc 1 106 0
 249 001a 41EA0421 		orr	r1, r1, r4, lsl #8
 250              	.LVL38:
 251 001e 1420     		movs	r0, #20
 252              	.LVL39:
 253 0020 FFF7FEFF 		bl	ADPD1080_WriteReg
 254              	.LVL40:
 107:ADPD1080.c    **** }
 255              		.loc 1 107 0
 256 0024 38BD     		pop	{r3, r4, r5, pc}
 257              		.cfi_endproc
 258              	.LFE539:
 259              		.size	ADPD1080_SetTimeSlotSwitch, .-ADPD1080_SetTimeSlotSwitch
 260 0026 00BF     		.section	.text.ADPD1080_Set32KCLK,"ax",%progbits
 261              		.align	2
 262              		.global	ADPD1080_Set32KCLK
 263              		.thumb
 264              		.thumb_func
 265              		.type	ADPD1080_Set32KCLK, %function
 266              	ADPD1080_Set32KCLK:
 267              	.LFB540:
 108:ADPD1080.c    **** 
 109:ADPD1080.c    **** /**
 110:ADPD1080.c    ****  * @brief Enable the internal 32kHz internal clock from ADPD105 via I2C.
 111:ADPD1080.c    ****  * 
 112:ADPD1080.c    ****  * @param enableSampleClk - enables/disables 32kHz clock
 113:ADPD1080.c    ****  *  
 114:ADPD1080.c    ****  * @return true if successful - false if failure 
 115:ADPD1080.c    ****  */
 116:ADPD1080.c    **** bool ADPD1080_Set32KCLK(bool enableSampleClk){
 268              		.loc 1 116 0
 269              		.cfi_startproc
 270              		@ args = 0, pretend = 0, frame = 0
 271              		@ frame_needed = 0, uses_anonymous_args = 0
 272              	.LVL41:
 273 0000 10B5     		push	{r4, lr}
 274              		.cfi_def_cfa_offset 8
 275              		.cfi_offset 4, -8
 276              		.cfi_offset 14, -4
 277 0002 0446     		mov	r4, r0
 117:ADPD1080.c    ****     uint16_t regValue = ADPD1080_ReadReg(ADPD1080_SAMPLE_CLK);
ARM GAS  C:\Users\thoma\AppData\Local\Temp\cceCswqS.s 			page 8


 278              		.loc 1 117 0
 279 0004 4B20     		movs	r0, #75
 280              	.LVL42:
 281 0006 FFF7FEFF 		bl	ADPD1080_ReadReg
 282              	.LVL43:
 118:ADPD1080.c    ****     regValue &= ~(0x01 << 7);
 283              		.loc 1 118 0
 284 000a 20F08000 		bic	r0, r0, #128
 285              	.LVL44:
 286 000e 81B2     		uxth	r1, r0
 287              	.LVL45:
 119:ADPD1080.c    ****     regValue |= (enableSampleClk << 7);
 120:ADPD1080.c    ****     return ADPD1080_WriteReg(ADPD1080_SAMPLE_CLK, regValue);
 288              		.loc 1 120 0
 289 0010 41EAC411 		orr	r1, r1, r4, lsl #7
 290              	.LVL46:
 291 0014 4B20     		movs	r0, #75
 292              	.LVL47:
 293 0016 FFF7FEFF 		bl	ADPD1080_WriteReg
 294              	.LVL48:
 121:ADPD1080.c    **** }
 295              		.loc 1 121 0
 296 001a 10BD     		pop	{r4, pc}
 297              		.cfi_endproc
 298              	.LFE540:
 299              		.size	ADPD1080_Set32KCLK, .-ADPD1080_Set32KCLK
 300              		.section	.text.ADPD1080_SetFIFO,"ax",%progbits
 301              		.align	2
 302              		.global	ADPD1080_SetFIFO
 303              		.thumb
 304              		.thumb_func
 305              		.type	ADPD1080_SetFIFO, %function
 306              	ADPD1080_SetFIFO:
 307              	.LFB541:
 122:ADPD1080.c    **** 
 123:ADPD1080.c    **** /**
 124:ADPD1080.c    ****  * @brief Setup FIFO for data reading
 125:ADPD1080.c    ****  * 
 126:ADPD1080.c    ****  * @param 
 127:ADPD1080.c    ****  *  
 128:ADPD1080.c    ****  * @return none
 129:ADPD1080.c    ****  * 
 130:ADPD1080.c    ****  * @remarks INT_MASK settings are a bit weird ... (see ADPD_1    ADPD1080_ino code)
 131:ADPD1080.c    ****  */
 132:ADPD1080.c    **** void ADPD1080_SetFIFO(void) {
 308              		.loc 1 132 0
 309              		.cfi_startproc
 310              		@ args = 0, pretend = 0, frame = 0
 311              		@ frame_needed = 0, uses_anonymous_args = 0
 312 0000 08B5     		push	{r3, lr}
 313              		.cfi_def_cfa_offset 8
 314              		.cfi_offset 3, -8
 315              		.cfi_offset 14, -4
 133:ADPD1080.c    ****     ADPD1080_SetOperationMode(PROGRAM);
 316              		.loc 1 133 0
 317 0002 0120     		movs	r0, #1
 318 0004 FFF7FEFF 		bl	ADPD1080_SetOperationMode
ARM GAS  C:\Users\thoma\AppData\Local\Temp\cceCswqS.s 			page 9


 319              	.LVL49:
 134:ADPD1080.c    ****     // Slot A enable and 32 bit extend sample data to FIFO
 135:ADPD1080.c    ****     ADPD1080_WriteReg(ADPD1080_SLOT_EN, 0x3131); // Slot A and Slot B enabled
 320              		.loc 1 135 0
 321 0008 43F23111 		movw	r1, #12593
 322 000c 1120     		movs	r0, #17
 323 000e FFF7FEFF 		bl	ADPD1080_WriteReg
 324              	.LVL50:
 136:ADPD1080.c    ****     ADPD1080_WriteReg(ADPD1080_FIFO_THRESH, 0x1F00); // set FIFO threshold to 8 words data
 325              		.loc 1 136 0
 326 0012 4FF4F851 		mov	r1, #7936
 327 0016 0620     		movs	r0, #6
 328 0018 FFF7FEFF 		bl	ADPD1080_WriteReg
 329              	.LVL51:
 137:ADPD1080.c    ****     ADPD1080_WriteReg(ADPD1080_INT_MASK, 0x1DF); // Sends an interrupt on the Time Slot A sample 
 330              		.loc 1 137 0
 331 001c 40F2DF11 		movw	r1, #479
 332 0020 0120     		movs	r0, #1
 333 0022 FFF7FEFF 		bl	ADPD1080_WriteReg
 334              	.LVL52:
 138:ADPD1080.c    ****     ADPD1080_WriteReg(ADPD1080_GPIO_CTRL, 0x101); // interrupt function provided on GPIO0, as defin
 335              		.loc 1 138 0
 336 0026 40F20111 		movw	r1, #257
 337 002a 0B20     		movs	r0, #11
 338 002c FFF7FEFF 		bl	ADPD1080_WriteReg
 339              	.LVL53:
 139:ADPD1080.c    ****                                                   // GPIO1 set to 0
 140:ADPD1080.c    ****     ADPD1080_WriteReg(ADPD1080_GPIO_DRV, 0x05); // GPIO0 pin enabled, always driven, active high.
 340              		.loc 1 140 0
 341 0030 0521     		movs	r1, #5
 342 0032 0220     		movs	r0, #2
 343 0034 FFF7FEFF 		bl	ADPD1080_WriteReg
 344              	.LVL54:
 345 0038 08BD     		pop	{r3, pc}
 346              		.cfi_endproc
 347              	.LFE541:
 348              		.size	ADPD1080_SetFIFO, .-ADPD1080_SetFIFO
 349 003a 00BF     		.section	.text.ADPD1080_SelectLED,"ax",%progbits
 350              		.align	2
 351              		.global	ADPD1080_SelectLED
 352              		.thumb
 353              		.thumb_func
 354              		.type	ADPD1080_SelectLED, %function
 355              	ADPD1080_SelectLED:
 356              	.LFB542:
 141:ADPD1080.c    **** }
 142:ADPD1080.c    **** 
 143:ADPD1080.c    **** /**
 144:ADPD1080.c    ****  * @brief Select the LED to be used for a time slot
 145:ADPD1080.c    ****  * 
 146:ADPD1080.c    ****  * @param enLEDNumber - specifies the LED to be used.
 147:ADPD1080.c    ****  * 
 148:ADPD1080.c    ****  * @param enSlot - time slot to be used (SlotA or SlotB)
 149:ADPD1080.c    ****  *  
 150:ADPD1080.c    ****  * @return true if successful - false if failure 
 151:ADPD1080.c    ****  */
 152:ADPD1080.c    **** bool ADPD1080_SelectLED(ADPD1080_LED enLEDNumber, ADPD1080_TimeSlot enSlot) {
ARM GAS  C:\Users\thoma\AppData\Local\Temp\cceCswqS.s 			page 10


 357              		.loc 1 152 0
 358              		.cfi_startproc
 359              		@ args = 0, pretend = 0, frame = 0
 360              		@ frame_needed = 0, uses_anonymous_args = 0
 361              	.LVL55:
 362 0000 38B5     		push	{r3, r4, r5, lr}
 363              		.cfi_def_cfa_offset 16
 364              		.cfi_offset 3, -16
 365              		.cfi_offset 4, -12
 366              		.cfi_offset 5, -8
 367              		.cfi_offset 14, -4
 368 0002 0446     		mov	r4, r0
 369 0004 0D46     		mov	r5, r1
 153:ADPD1080.c    ****     uint16_t regValue = ADPD1080_ReadReg(ADPD1080_PD_LED_SELECT);
 370              		.loc 1 153 0
 371 0006 1420     		movs	r0, #20
 372              	.LVL56:
 373 0008 FFF7FEFF 		bl	ADPD1080_ReadReg
 374              	.LVL57:
 154:ADPD1080.c    ****     if (enSlot == SLOTA) {
 375              		.loc 1 154 0
 376 000c 2DB9     		cbnz	r5, .L18
 155:ADPD1080.c    ****         regValue &= ~(0x03 << 0);
 377              		.loc 1 155 0
 378 000e 20F00300 		bic	r0, r0, #3
 379              	.LVL58:
 380 0012 80B2     		uxth	r0, r0
 381              	.LVL59:
 156:ADPD1080.c    ****         regValue |= (enLEDNumber << 0);
 382              		.loc 1 156 0
 383 0014 40EA0401 		orr	r1, r0, r4
 384              	.LVL60:
 385 0018 04E0     		b	.L19
 386              	.LVL61:
 387              	.L18:
 157:ADPD1080.c    ****     } else { // SLOTB
 158:ADPD1080.c    ****         regValue &= ~(0x03 << 2);
 388              		.loc 1 158 0
 389 001a 20F00C00 		bic	r0, r0, #12
 390              	.LVL62:
 391 001e 80B2     		uxth	r0, r0
 392              	.LVL63:
 159:ADPD1080.c    ****         regValue |= (enLEDNumber << 2);
 393              		.loc 1 159 0
 394 0020 40EA8401 		orr	r1, r0, r4, lsl #2
 395              	.LVL64:
 396              	.L19:
 160:ADPD1080.c    ****     }
 161:ADPD1080.c    ****     return ADPD1080_WriteReg(ADPD1080_PD_LED_SELECT, regValue);
 397              		.loc 1 161 0
 398 0024 1420     		movs	r0, #20
 399 0026 FFF7FEFF 		bl	ADPD1080_WriteReg
 400              	.LVL65:
 162:ADPD1080.c    **** }
 401              		.loc 1 162 0
 402 002a 38BD     		pop	{r3, r4, r5, pc}
 403              		.cfi_endproc
ARM GAS  C:\Users\thoma\AppData\Local\Temp\cceCswqS.s 			page 11


 404              	.LFE542:
 405              		.size	ADPD1080_SelectLED, .-ADPD1080_SelectLED
 406              		.section	.text.ADPD1080_DeselectLEDs,"ax",%progbits
 407              		.align	2
 408              		.global	ADPD1080_DeselectLEDs
 409              		.thumb
 410              		.thumb_func
 411              		.type	ADPD1080_DeselectLEDs, %function
 412              	ADPD1080_DeselectLEDs:
 413              	.LFB543:
 163:ADPD1080.c    **** 
 164:ADPD1080.c    **** /**
 165:ADPD1080.c    ****  * @brief Unselect the LEDs for each time slot.
 166:ADPD1080.c    ****  * 
 167:ADPD1080.c    ****  * @param 
 168:ADPD1080.c    ****  *  
 169:ADPD1080.c    ****  * @return true if successful - false if failure 
 170:ADPD1080.c    ****  */
 171:ADPD1080.c    **** bool ADPD1080_DeselectLEDs(void){
 414              		.loc 1 171 0
 415              		.cfi_startproc
 416              		@ args = 0, pretend = 0, frame = 0
 417              		@ frame_needed = 0, uses_anonymous_args = 0
 418 0000 08B5     		push	{r3, lr}
 419              		.cfi_def_cfa_offset 8
 420              		.cfi_offset 3, -8
 421              		.cfi_offset 14, -4
 172:ADPD1080.c    ****     return ADPD1080_WriteReg(ADPD1080_PD_LED_SELECT, 0xFFF0);
 422              		.loc 1 172 0
 423 0002 4FF6F071 		movw	r1, #65520
 424 0006 1420     		movs	r0, #20
 425 0008 FFF7FEFF 		bl	ADPD1080_WriteReg
 426              	.LVL66:
 173:ADPD1080.c    **** }
 427              		.loc 1 173 0
 428 000c 08BD     		pop	{r3, pc}
 429              		.cfi_endproc
 430              	.LFE543:
 431              		.size	ADPD1080_DeselectLEDs, .-ADPD1080_DeselectLEDs
 432 000e 00BF     		.section	.text.ADPD1080_ReadDataRegs,"ax",%progbits
 433              		.align	2
 434              		.global	ADPD1080_ReadDataRegs
 435              		.thumb
 436              		.thumb_func
 437              		.type	ADPD1080_ReadDataRegs, %function
 438              	ADPD1080_ReadDataRegs:
 439              	.LFB544:
 174:ADPD1080.c    **** 
 175:ADPD1080.c    **** /**
 176:ADPD1080.c    ****  * @brief Reads the data register for each time slot
 177:ADPD1080.c    ****  * 
 178:ADPD1080.c    ****  * @param *dataSlotA - 
 179:ADPD1080.c    ****  * 
 180:ADPD1080.c    ****  * @param *dataSlotB - 
 181:ADPD1080.c    ****  * 
 182:ADPD1080.c    ****  * @param count - 
 183:ADPD1080.c    ****  *  
ARM GAS  C:\Users\thoma\AppData\Local\Temp\cceCswqS.s 			page 12


 184:ADPD1080.c    ****  * @return none
 185:ADPD1080.c    ****  * 
 186:ADPD1080.c    ****  * @remarks timer_sleep has been commented but it may be required ...
 187:ADPD1080.c    ****  */
 188:ADPD1080.c    **** void ADPD1080_ReadDataRegs(volatile uint16_t *dataSlotA, volatile uint16_t *dataSlotB, uint8_t coun
 440              		.loc 1 188 0
 441              		.cfi_startproc
 442              		@ args = 0, pretend = 0, frame = 0
 443              		@ frame_needed = 0, uses_anonymous_args = 0
 444              	.LVL67:
 445 0000 F8B5     		push	{r3, r4, r5, r6, r7, lr}
 446              		.cfi_def_cfa_offset 24
 447              		.cfi_offset 3, -24
 448              		.cfi_offset 4, -20
 449              		.cfi_offset 5, -16
 450              		.cfi_offset 6, -12
 451              		.cfi_offset 7, -8
 452              		.cfi_offset 14, -4
 453 0002 0746     		mov	r7, r0
 454 0004 0E46     		mov	r6, r1
 455 0006 1546     		mov	r5, r2
 456              	.LVL68:
 457              	.LBB2:
 189:ADPD1080.c    ****     for (uint8_t i = 0; i < count; i++) {
 458              		.loc 1 189 0
 459 0008 0024     		movs	r4, #0
 460 000a 0FE0     		b	.L24
 461              	.LVL69:
 462              	.L25:
 190:ADPD1080.c    ****         dataSlotA[i] = ADPD1080_ReadReg(ADPD1080_SLOTA_PD1_16BIT + i);
 463              		.loc 1 190 0 discriminator 3
 464 000c 04F16400 		add	r0, r4, #100
 465 0010 C0B2     		uxtb	r0, r0
 466 0012 FFF7FEFF 		bl	ADPD1080_ReadReg
 467              	.LVL70:
 468 0016 27F81400 		strh	r0, [r7, r4, lsl #1]	@ movhi
 191:ADPD1080.c    ****         dataSlotB[i] = ADPD1080_ReadReg(ADPD1080_SLOTB_PD1_16BIT + i);
 469              		.loc 1 191 0 discriminator 3
 470 001a 04F16800 		add	r0, r4, #104
 471 001e C0B2     		uxtb	r0, r0
 472 0020 FFF7FEFF 		bl	ADPD1080_ReadReg
 473              	.LVL71:
 474 0024 26F81400 		strh	r0, [r6, r4, lsl #1]	@ movhi
 189:ADPD1080.c    ****     for (uint8_t i = 0; i < count; i++) {
 475              		.loc 1 189 0 discriminator 3
 476 0028 0134     		adds	r4, r4, #1
 477              	.LVL72:
 478 002a E4B2     		uxtb	r4, r4
 479              	.LVL73:
 480              	.L24:
 189:ADPD1080.c    ****     for (uint8_t i = 0; i < count; i++) {
 481              		.loc 1 189 0 is_stmt 0 discriminator 1
 482 002c AC42     		cmp	r4, r5
 483 002e EDD3     		bcc	.L25
 484              	.LBE2:
 192:ADPD1080.c    ****     }
 193:ADPD1080.c    **** }
ARM GAS  C:\Users\thoma\AppData\Local\Temp\cceCswqS.s 			page 13


 485              		.loc 1 193 0 is_stmt 1
 486 0030 F8BD     		pop	{r3, r4, r5, r6, r7, pc}
 487              		.cfi_endproc
 488              	.LFE544:
 489              		.size	ADPD1080_ReadDataRegs, .-ADPD1080_ReadDataRegs
 490 0032 00BF     		.section	.text.ADPD1080_SetLEDWidthOffset,"ax",%progbits
 491              		.align	2
 492              		.global	ADPD1080_SetLEDWidthOffset
 493              		.thumb
 494              		.thumb_func
 495              		.type	ADPD1080_SetLEDWidthOffset, %function
 496              	ADPD1080_SetLEDWidthOffset:
 497              	.LFB545:
 194:ADPD1080.c    **** 
 195:ADPD1080.c    **** /**
 196:ADPD1080.c    ****  * @brief Set the width and offset for led pulse.
 197:ADPD1080.c    ****  * 
 198:ADPD1080.c    ****  * @param enSlot - time slot (SlotA or SlotB)
 199:ADPD1080.c    ****  * @param u8Width - the width of the led pulse (1us step)
 200:ADPD1080.c    ****  * @param u8Offset - the offset of the led pulse (1us step)
 201:ADPD1080.c    ****  * 
 202:ADPD1080.c    ****  * @return true if successful - false if failure 
 203:ADPD1080.c    ****  */
 204:ADPD1080.c    **** bool ADPD1080_SetLEDWidthOffset(ADPD1080_TimeSlot enSlot, uint8_t width, uint8_t offset) {
 498              		.loc 1 204 0
 499              		.cfi_startproc
 500              		@ args = 0, pretend = 0, frame = 0
 501              		@ frame_needed = 0, uses_anonymous_args = 0
 502              	.LVL74:
 503 0000 08B5     		push	{r3, lr}
 504              		.cfi_def_cfa_offset 8
 505              		.cfi_offset 3, -8
 506              		.cfi_offset 14, -4
 205:ADPD1080.c    ****     uint16_t regValue = offset + ((width & 0x1F) << 8);
 507              		.loc 1 205 0
 508 0002 0902     		lsls	r1, r1, #8
 509              	.LVL75:
 510 0004 01F4F851 		and	r1, r1, #7936
 511 0008 1144     		add	r1, r1, r2
 512              	.LVL76:
 206:ADPD1080.c    ****     if (enSlot == SLOTA) {
 513              		.loc 1 206 0
 514 000a 18B9     		cbnz	r0, .L28
 207:ADPD1080.c    ****         return ADPD1080_WriteReg(ADPD1080_SLOTA_LED_PULSE, regValue);
 515              		.loc 1 207 0
 516 000c 3020     		movs	r0, #48
 517              	.LVL77:
 518 000e FFF7FEFF 		bl	ADPD1080_WriteReg
 519              	.LVL78:
 520 0012 08BD     		pop	{r3, pc}
 521              	.LVL79:
 522              	.L28:
 208:ADPD1080.c    ****     } 
 209:ADPD1080.c    ****     else { // SLOTB
 210:ADPD1080.c    ****         return ADPD1080_WriteReg(ADPD1080_SLOTB_LED_PULSE, regValue);
 523              		.loc 1 210 0
 524 0014 3520     		movs	r0, #53
ARM GAS  C:\Users\thoma\AppData\Local\Temp\cceCswqS.s 			page 14


 525              	.LVL80:
 526 0016 FFF7FEFF 		bl	ADPD1080_WriteReg
 527              	.LVL81:
 211:ADPD1080.c    ****     }
 212:ADPD1080.c    **** }
 528              		.loc 1 212 0
 529 001a 08BD     		pop	{r3, pc}
 530              		.cfi_endproc
 531              	.LFE545:
 532              		.size	ADPD1080_SetLEDWidthOffset, .-ADPD1080_SetLEDWidthOffset
 533              		.section	.text.ADPD1080_SetAFEWidthOffset,"ax",%progbits
 534              		.align	2
 535              		.global	ADPD1080_SetAFEWidthOffset
 536              		.thumb
 537              		.thumb_func
 538              		.type	ADPD1080_SetAFEWidthOffset, %function
 539              	ADPD1080_SetAFEWidthOffset:
 540              	.LFB546:
 213:ADPD1080.c    **** 
 214:ADPD1080.c    **** /**
 215:ADPD1080.c    ****  * @brief Set the width and offset for AFE integration.
 216:ADPD1080.c    ****  * 
 217:ADPD1080.c    ****  * @param enSlot - time slot (SlotA or SlotB)
 218:ADPD1080.c    ****  * @param u8Width - the width of the AFE integration window (1us step)
 219:ADPD1080.c    ****  * @param u8Offset - the offset of the AFE integration window (1us step)
 220:ADPD1080.c    ****  * @param u8FineOffset - the fine offset of the AFE integration window (31.25 ns step)
 221:ADPD1080.c    ****  * 
 222:ADPD1080.c    ****  * @return true if successful - false if failure 
 223:ADPD1080.c    ****  */
 224:ADPD1080.c    **** bool ADPD1080_SetAFEWidthOffset(ADPD1080_TimeSlot enSlot, uint8_t width, uint8_t offset, uint8_t fi
 541              		.loc 1 224 0
 542              		.cfi_startproc
 543              		@ args = 0, pretend = 0, frame = 0
 544              		@ frame_needed = 0, uses_anonymous_args = 0
 545              	.LVL82:
 546 0000 10B5     		push	{r4, lr}
 547              		.cfi_def_cfa_offset 8
 548              		.cfi_offset 4, -8
 549              		.cfi_offset 14, -4
 550              	.LVL83:
 225:ADPD1080.c    ****     uint16_t regValue = 0;
 226:ADPD1080.c    **** 
 227:ADPD1080.c    ****     if (enSlot == SLOTA) {
 551              		.loc 1 227 0
 552 0002 68B9     		cbnz	r0, .L32
 228:ADPD1080.c    ****         regValue = (uint16_t)(fineOffset & 0x1F) + 
 229:ADPD1080.c    ****             (uint16_t)((offset & 0x3F) << 5) +
 230:ADPD1080.c    ****             (uint16_t)((width & 0x1F) << 11);
 553              		.loc 1 230 0
 554 0004 C902     		lsls	r1, r1, #11
 555              	.LVL84:
 556 0006 8CB2     		uxth	r4, r1
 228:ADPD1080.c    ****         regValue = (uint16_t)(fineOffset & 0x1F) + 
 557              		.loc 1 228 0
 558 0008 5201     		lsls	r2, r2, #5
 559              	.LVL85:
 560 000a 02F4FC60 		and	r0, r2, #2016
ARM GAS  C:\Users\thoma\AppData\Local\Temp\cceCswqS.s 			page 15


 561              	.LVL86:
 562 000e 03F01F01 		and	r1, r3, #31
 563 0012 0A18     		adds	r2, r1, r0
 564 0014 A118     		adds	r1, r4, r2
 565              	.LVL87:
 231:ADPD1080.c    ****         return ADPD1080_WriteReg(ADPD1080_SLOTA_AFE_WINDOW, regValue);        
 566              		.loc 1 231 0
 567 0016 89B2     		uxth	r1, r1
 568 0018 3920     		movs	r0, #57
 569 001a FFF7FEFF 		bl	ADPD1080_WriteReg
 570              	.LVL88:
 571 001e 10BD     		pop	{r4, pc}
 572              	.LVL89:
 573              	.L32:
 232:ADPD1080.c    ****     } 
 233:ADPD1080.c    ****     else { // SLOTB
 234:ADPD1080.c    ****         regValue = (uint16_t)(fineOffset & 0x1F) +
 235:ADPD1080.c    ****             (uint16_t)((offset & 0x3F) << 5) +
 236:ADPD1080.c    ****             (uint16_t)((width & 0x1F) << 11);
 574              		.loc 1 236 0
 575 0020 C902     		lsls	r1, r1, #11
 576              	.LVL90:
 577 0022 88B2     		uxth	r0, r1
 578              	.LVL91:
 234:ADPD1080.c    ****             (uint16_t)((offset & 0x3F) << 5) +
 579              		.loc 1 234 0
 580 0024 5201     		lsls	r2, r2, #5
 581              	.LVL92:
 582 0026 02F4FC62 		and	r2, r2, #2016
 583 002a 03F01F01 		and	r1, r3, #31
 584 002e 0A44     		add	r2, r2, r1
 585 0030 8118     		adds	r1, r0, r2
 586              	.LVL93:
 237:ADPD1080.c    ****         return ADPD1080_WriteReg(ADPD1080_SLOTB_AFE_WINDOW, regValue);        
 587              		.loc 1 237 0
 588 0032 89B2     		uxth	r1, r1
 589 0034 3B20     		movs	r0, #59
 590 0036 FFF7FEFF 		bl	ADPD1080_WriteReg
 591              	.LVL94:
 238:ADPD1080.c    ****     }
 239:ADPD1080.c    **** }
 592              		.loc 1 239 0
 593 003a 10BD     		pop	{r4, pc}
 594              		.cfi_endproc
 595              	.LFE546:
 596              		.size	ADPD1080_SetAFEWidthOffset, .-ADPD1080_SetAFEWidthOffset
 597              		.section	.text.ADPD1080_SetTIAGain,"ax",%progbits
 598              		.align	2
 599              		.global	ADPD1080_SetTIAGain
 600              		.thumb
 601              		.thumb_func
 602              		.type	ADPD1080_SetTIAGain, %function
 603              	ADPD1080_SetTIAGain:
 604              	.LFB547:
 240:ADPD1080.c    **** 
 241:ADPD1080.c    **** /**
 242:ADPD1080.c    ****  * @brief Set the transimpendance amplifier gain.
ARM GAS  C:\Users\thoma\AppData\Local\Temp\cceCswqS.s 			page 16


 243:ADPD1080.c    ****  * 
 244:ADPD1080.c    ****  * @param enSlot - time slot (SlotA or SlotB)
 245:ADPD1080.c    ****  * @param enTIAGain - TIA gain value
 246:ADPD1080.c    ****  * 
 247:ADPD1080.c    ****  * @return true if successful - false if failure 
 248:ADPD1080.c    ****  */
 249:ADPD1080.c    **** bool ADPD1080_SetTIAGain(uint8_t enSlot, ADPD1080_TIAGain enTIAGain) {
 605              		.loc 1 249 0
 606              		.cfi_startproc
 607              		@ args = 0, pretend = 0, frame = 0
 608              		@ frame_needed = 0, uses_anonymous_args = 0
 609              	.LVL95:
 610 0000 08B5     		push	{r3, lr}
 611              		.cfi_def_cfa_offset 8
 612              		.cfi_offset 3, -8
 613              		.cfi_offset 14, -4
 250:ADPD1080.c    ****     if (enSlot == SLOTA) {
 614              		.loc 1 250 0
 615 0002 18B9     		cbnz	r0, .L36
 251:ADPD1080.c    ****         return ADPD1080_WriteReg(ADPD1080_SLOTA_TIA_CFG, enTIAGain);
 616              		.loc 1 251 0
 617 0004 4220     		movs	r0, #66
 618              	.LVL96:
 619 0006 FFF7FEFF 		bl	ADPD1080_WriteReg
 620              	.LVL97:
 621 000a 08BD     		pop	{r3, pc}
 622              	.LVL98:
 623              	.L36:
 252:ADPD1080.c    ****     } 
 253:ADPD1080.c    ****     else { // SLOTB
 254:ADPD1080.c    ****         return ADPD1080_WriteReg(ADPD1080_SLOTB_TIA_CFG, enTIAGain);
 624              		.loc 1 254 0
 625 000c 4420     		movs	r0, #68
 626              	.LVL99:
 627 000e FFF7FEFF 		bl	ADPD1080_WriteReg
 628              	.LVL100:
 255:ADPD1080.c    ****     }
 256:ADPD1080.c    **** }
 629              		.loc 1 256 0
 630 0012 08BD     		pop	{r3, pc}
 631              		.cfi_endproc
 632              	.LFE547:
 633              		.size	ADPD1080_SetTIAGain, .-ADPD1080_SetTIAGain
 634              		.section	.text.ADPD1080_SetSamplingFrequency,"ax",%progbits
 635              		.align	2
 636              		.global	ADPD1080_SetSamplingFrequency
 637              		.thumb
 638              		.thumb_func
 639              		.type	ADPD1080_SetSamplingFrequency, %function
 640              	ADPD1080_SetSamplingFrequency:
 641              	.LFB548:
 257:ADPD1080.c    **** 
 258:ADPD1080.c    **** /**
 259:ADPD1080.c    ****  * @brief Set the sampling frequency value.
 260:ADPD1080.c    ****  * 
 261:ADPD1080.c    ****  * @param u16Frequency - sampling frequency value
 262:ADPD1080.c    ****  * 
ARM GAS  C:\Users\thoma\AppData\Local\Temp\cceCswqS.s 			page 17


 263:ADPD1080.c    ****  * @return true if successful - false if failure 
 264:ADPD1080.c    ****  */
 265:ADPD1080.c    **** bool ADPD1080_SetSamplingFrequency(uint16_t frequency) {
 642              		.loc 1 265 0
 643              		.cfi_startproc
 644              		@ args = 0, pretend = 0, frame = 0
 645              		@ frame_needed = 0, uses_anonymous_args = 0
 646              	.LVL101:
 647 0000 08B5     		push	{r3, lr}
 648              		.cfi_def_cfa_offset 8
 649              		.cfi_offset 3, -8
 650              		.cfi_offset 14, -4
 651              	.LVL102:
 266:ADPD1080.c    ****     uint16_t regValue = 32000 / frequency / 4;
 267:ADPD1080.c    **** 
 268:ADPD1080.c    ****     return ADPD1080_WriteReg(ADPD1080_FSAMPLE, regValue);
 652              		.loc 1 268 0
 653 0002 4FF4FA51 		mov	r1, #8000
 654 0006 91FBF0F1 		sdiv	r1, r1, r0
 655 000a 1220     		movs	r0, #18
 656              	.LVL103:
 657 000c FFF7FEFF 		bl	ADPD1080_WriteReg
 658              	.LVL104:
 269:ADPD1080.c    **** }
 659              		.loc 1 269 0
 660 0010 08BD     		pop	{r3, pc}
 661              		.cfi_endproc
 662              	.LFE548:
 663              		.size	ADPD1080_SetSamplingFrequency, .-ADPD1080_SetSamplingFrequency
 664 0012 00BF     		.section	.text.ADPD1080_SetAverageFactor,"ax",%progbits
 665              		.align	2
 666              		.global	ADPD1080_SetAverageFactor
 667              		.thumb
 668              		.thumb_func
 669              		.type	ADPD1080_SetAverageFactor, %function
 670              	ADPD1080_SetAverageFactor:
 671              	.LFB549:
 270:ADPD1080.c    **** 
 271:ADPD1080.c    **** /**
 272:ADPD1080.c    ****  * @brief Set the value of the average factor N.
 273:ADPD1080.c    ****  * 
 274:ADPD1080.c    ****  * @param enAverage - average factor value
 275:ADPD1080.c    ****  * 
 276:ADPD1080.c    ****  * @return true if successful - false if failure 
 277:ADPD1080.c    ****  */
 278:ADPD1080.c    **** bool ADPD1080_SetAverageFactor(ADPD1080_AverageN enAverage) {
 672              		.loc 1 278 0
 673              		.cfi_startproc
 674              		@ args = 0, pretend = 0, frame = 0
 675              		@ frame_needed = 0, uses_anonymous_args = 0
 676              	.LVL105:
 677 0000 08B5     		push	{r3, lr}
 678              		.cfi_def_cfa_offset 8
 679              		.cfi_offset 3, -8
 680              		.cfi_offset 14, -4
 279:ADPD1080.c    ****     uint16_t regValue = (enAverage << 4) | (enAverage << 8);
 681              		.loc 1 279 0
ARM GAS  C:\Users\thoma\AppData\Local\Temp\cceCswqS.s 			page 18


 682 0002 0102     		lsls	r1, r0, #8
 683              	.LVL106:
 280:ADPD1080.c    **** 
 281:ADPD1080.c    ****     return ADPD1080_WriteReg(ADPD1080_NUM_AVG, regValue);
 684              		.loc 1 281 0
 685 0004 41EA0011 		orr	r1, r1, r0, lsl #4
 686              	.LVL107:
 687 0008 1520     		movs	r0, #21
 688              	.LVL108:
 689 000a FFF7FEFF 		bl	ADPD1080_WriteReg
 690              	.LVL109:
 282:ADPD1080.c    **** }
 691              		.loc 1 282 0
 692 000e 08BD     		pop	{r3, pc}
 693              		.cfi_endproc
 694              	.LFE549:
 695              		.size	ADPD1080_SetAverageFactor, .-ADPD1080_SetAverageFactor
 696              		.section	.text.ADPD1080_SetADCClock,"ax",%progbits
 697              		.align	2
 698              		.global	ADPD1080_SetADCClock
 699              		.thumb
 700              		.thumb_func
 701              		.type	ADPD1080_SetADCClock, %function
 702              	ADPD1080_SetADCClock:
 703              	.LFB550:
 283:ADPD1080.c    **** 
 284:ADPD1080.c    **** /**
 285:ADPD1080.c    ****  * @brief Set the ADC clock speed.
 286:ADPD1080.c    ****  * 
 287:ADPD1080.c    ****  * @param enADCClock - ADC clock speed value
 288:ADPD1080.c    ****  * 
 289:ADPD1080.c    ****  * @return true if successful - false if failure 
 290:ADPD1080.c    ****  */
 291:ADPD1080.c    **** bool ADPD1080_SetADCClock(ADPD1080_ADCClockSpeed enADCClock){
 704              		.loc 1 291 0
 705              		.cfi_startproc
 706              		@ args = 0, pretend = 0, frame = 0
 707              		@ frame_needed = 0, uses_anonymous_args = 0
 708              	.LVL110:
 709 0000 08B5     		push	{r3, lr}
 710              		.cfi_def_cfa_offset 8
 711              		.cfi_offset 3, -8
 712              		.cfi_offset 14, -4
 292:ADPD1080.c    ****   return ADPD1080_WriteReg(ADPD1080_ADC_CLOCK, enADCClock);
 713              		.loc 1 292 0
 714 0002 0146     		mov	r1, r0
 715 0004 4E20     		movs	r0, #78
 716              	.LVL111:
 717 0006 FFF7FEFF 		bl	ADPD1080_WriteReg
 718              	.LVL112:
 293:ADPD1080.c    **** }
 719              		.loc 1 293 0
 720 000a 08BD     		pop	{r3, pc}
 721              		.cfi_endproc
 722              	.LFE550:
 723              		.size	ADPD1080_SetADCClock, .-ADPD1080_SetADCClock
 724              		.section	.text.ADPD1080_SetDigitalClock,"ax",%progbits
ARM GAS  C:\Users\thoma\AppData\Local\Temp\cceCswqS.s 			page 19


 725              		.align	2
 726              		.global	ADPD1080_SetDigitalClock
 727              		.thumb
 728              		.thumb_func
 729              		.type	ADPD1080_SetDigitalClock, %function
 730              	ADPD1080_SetDigitalClock:
 731              	.LFB551:
 294:ADPD1080.c    **** 
 295:ADPD1080.c    **** /**
 296:ADPD1080.c    ****  * @brief Enable the digital clock.
 297:ADPD1080.c    ****  * 
 298:ADPD1080.c    ****  * @return true if successful - false if failure 
 299:ADPD1080.c    ****  */
 300:ADPD1080.c    **** bool ADPD1080_SetDigitalClock(void) {
 732              		.loc 1 300 0
 733              		.cfi_startproc
 734              		@ args = 0, pretend = 0, frame = 0
 735              		@ frame_needed = 0, uses_anonymous_args = 0
 736 0000 08B5     		push	{r3, lr}
 737              		.cfi_def_cfa_offset 8
 738              		.cfi_offset 3, -8
 739              		.cfi_offset 14, -4
 301:ADPD1080.c    ****     uint16_t origin = ADPD1080_ReadReg(ADPD1080_DATA_ACCESS_CTL);
 740              		.loc 1 301 0
 741 0002 5F20     		movs	r0, #95
 742 0004 FFF7FEFF 		bl	ADPD1080_ReadReg
 743              	.LVL113:
 302:ADPD1080.c    ****     uint16_t new = origin | 0x1;
 744              		.loc 1 302 0
 745 0008 40F00101 		orr	r1, r0, #1
 746              	.LVL114:
 303:ADPD1080.c    ****     return ADPD1080_WriteReg(ADPD1080_DATA_ACCESS_CTL, new);
 747              		.loc 1 303 0
 748 000c 89B2     		uxth	r1, r1
 749 000e 5F20     		movs	r0, #95
 750              	.LVL115:
 751 0010 FFF7FEFF 		bl	ADPD1080_WriteReg
 752              	.LVL116:
 304:ADPD1080.c    **** }
 753              		.loc 1 304 0
 754 0014 08BD     		pop	{r3, pc}
 755              		.cfi_endproc
 756              	.LFE551:
 757              		.size	ADPD1080_SetDigitalClock, .-ADPD1080_SetDigitalClock
 758 0016 00BF     		.section	.text.ADPD1080_Reset,"ax",%progbits
 759              		.align	2
 760              		.global	ADPD1080_Reset
 761              		.thumb
 762              		.thumb_func
 763              		.type	ADPD1080_Reset, %function
 764              	ADPD1080_Reset:
 765              	.LFB552:
 305:ADPD1080.c    **** 
 306:ADPD1080.c    **** /**
 307:ADPD1080.c    ****  * @brief Software reset of the ADPD1080
 308:ADPD1080.c    ****  * 
 309:ADPD1080.c    ****  * @return true if successful - false if failure 
ARM GAS  C:\Users\thoma\AppData\Local\Temp\cceCswqS.s 			page 20


 310:ADPD1080.c    ****  */
 311:ADPD1080.c    **** bool ADPD1080_Reset(void) {
 766              		.loc 1 311 0
 767              		.cfi_startproc
 768              		@ args = 0, pretend = 0, frame = 0
 769              		@ frame_needed = 0, uses_anonymous_args = 0
 770 0000 08B5     		push	{r3, lr}
 771              		.cfi_def_cfa_offset 8
 772              		.cfi_offset 3, -8
 773              		.cfi_offset 14, -4
 312:ADPD1080.c    ****     return ADPD1080_WriteReg(ADPD1080_SW_RESET, 1); // write 0x0001; see datasheet p.68
 774              		.loc 1 312 0
 775 0002 0121     		movs	r1, #1
 776 0004 0F20     		movs	r0, #15
 777 0006 FFF7FEFF 		bl	ADPD1080_WriteReg
 778              	.LVL117:
 313:ADPD1080.c    **** }
 779              		.loc 1 313 0
 780 000a 08BD     		pop	{r3, pc}
 781              		.cfi_endproc
 782              	.LFE552:
 783              		.size	ADPD1080_Reset, .-ADPD1080_Reset
 784              		.section	.text.ADPD1080_SetOffset,"ax",%progbits
 785              		.align	2
 786              		.global	ADPD1080_SetOffset
 787              		.thumb
 788              		.thumb_func
 789              		.type	ADPD1080_SetOffset, %function
 790              	ADPD1080_SetOffset:
 791              	.LFB553:
 314:ADPD1080.c    **** 
 315:ADPD1080.c    **** /**
 316:ADPD1080.c    ****  * @brief Set channel offset.
 317:ADPD1080.c    ****  * 
 318:ADPD1080.c    ****  * @param enSlot - time slot (SlotA or SlotB)
 319:ADPD1080.c    ****  * @param stOffset - offset value
 320:ADPD1080.c    ****  * 
 321:ADPD1080.c    ****  * @return true if successful - false if failure
 322:ADPD1080.c    ****  */
 323:ADPD1080.c    **** void ADPD1080_SetOffset(ADPD1080_TimeSlot enSlot, struct ADPD1080_ChannelOffset stOffset) {
 792              		.loc 1 323 0
 793              		.cfi_startproc
 794              		@ args = 0, pretend = 0, frame = 8
 795              		@ frame_needed = 0, uses_anonymous_args = 0
 796              	.LVL118:
 797 0000 00B5     		push	{lr}
 798              		.cfi_def_cfa_offset 4
 799              		.cfi_offset 14, -4
 800 0002 83B0     		sub	sp, sp, #12
 801              		.cfi_def_cfa_offset 16
 802 0004 02AB     		add	r3, sp, #8
 803 0006 03E90600 		stmdb	r3, {r1, r2}
 324:ADPD1080.c    ****     if (enSlot == SLOTA) {
 804              		.loc 1 324 0
 805 000a A0B9     		cbnz	r0, .L50
 325:ADPD1080.c    ****         ADPD1080_WriteReg(ADPD1080_SLOTA_CH1_OFFSET, stOffset.CH1Offset);
 806              		.loc 1 325 0
ARM GAS  C:\Users\thoma\AppData\Local\Temp\cceCswqS.s 			page 21


 807 000c BDF80010 		ldrh	r1, [sp]
 808 0010 1820     		movs	r0, #24
 809              	.LVL119:
 810 0012 FFF7FEFF 		bl	ADPD1080_WriteReg
 811              	.LVL120:
 326:ADPD1080.c    ****         ADPD1080_WriteReg(ADPD1080_SLOTA_CH2_OFFSET, stOffset.CH2Offset);
 812              		.loc 1 326 0
 813 0016 BDF80210 		ldrh	r1, [sp, #2]
 814 001a 1920     		movs	r0, #25
 815 001c FFF7FEFF 		bl	ADPD1080_WriteReg
 816              	.LVL121:
 327:ADPD1080.c    ****         ADPD1080_WriteReg(ADPD1080_SLOTA_CH3_OFFSET, stOffset.CH3Offset);
 817              		.loc 1 327 0
 818 0020 BDF80410 		ldrh	r1, [sp, #4]
 819 0024 1A20     		movs	r0, #26
 820 0026 FFF7FEFF 		bl	ADPD1080_WriteReg
 821              	.LVL122:
 328:ADPD1080.c    ****         ADPD1080_WriteReg(ADPD1080_SLOTA_CH4_OFFSET, stOffset.CH4Offset);
 822              		.loc 1 328 0
 823 002a BDF80610 		ldrh	r1, [sp, #6]
 824 002e 1B20     		movs	r0, #27
 825 0030 FFF7FEFF 		bl	ADPD1080_WriteReg
 826              	.LVL123:
 827 0034 13E0     		b	.L49
 828              	.LVL124:
 829              	.L50:
 329:ADPD1080.c    ****     } else { // SLOTB
 330:ADPD1080.c    ****         ADPD1080_WriteReg(ADPD1080_SLOTB_CH1_OFFSET, stOffset.CH1Offset);
 830              		.loc 1 330 0
 831 0036 BDF80010 		ldrh	r1, [sp]
 832 003a 1E20     		movs	r0, #30
 833              	.LVL125:
 834 003c FFF7FEFF 		bl	ADPD1080_WriteReg
 835              	.LVL126:
 331:ADPD1080.c    ****         ADPD1080_WriteReg(ADPD1080_SLOTB_CH2_OFFSET, stOffset.CH2Offset);
 836              		.loc 1 331 0
 837 0040 BDF80210 		ldrh	r1, [sp, #2]
 838 0044 1F20     		movs	r0, #31
 839 0046 FFF7FEFF 		bl	ADPD1080_WriteReg
 840              	.LVL127:
 332:ADPD1080.c    ****         ADPD1080_WriteReg(ADPD1080_SLOTB_CH3_OFFSET, stOffset.CH3Offset);
 841              		.loc 1 332 0
 842 004a BDF80410 		ldrh	r1, [sp, #4]
 843 004e 2020     		movs	r0, #32
 844 0050 FFF7FEFF 		bl	ADPD1080_WriteReg
 845              	.LVL128:
 333:ADPD1080.c    ****         ADPD1080_WriteReg(ADPD1080_SLOTB_CH4_OFFSET, stOffset.CH4Offset);
 846              		.loc 1 333 0
 847 0054 BDF80610 		ldrh	r1, [sp, #6]
 848 0058 2120     		movs	r0, #33
 849 005a FFF7FEFF 		bl	ADPD1080_WriteReg
 850              	.LVL129:
 851              	.L49:
 334:ADPD1080.c    ****     }
 335:ADPD1080.c    **** }
 852              		.loc 1 335 0
 853 005e 03B0     		add	sp, sp, #12
ARM GAS  C:\Users\thoma\AppData\Local\Temp\cceCswqS.s 			page 22


 854              		.cfi_def_cfa_offset 4
 855              		@ sp needed
 856 0060 5DF804FB 		ldr	pc, [sp], #4
 857              		.cfi_endproc
 858              	.LFE553:
 859              		.size	ADPD1080_SetOffset, .-ADPD1080_SetOffset
 860              		.section	.text.ADPD1080_DisableLed,"ax",%progbits
 861              		.align	2
 862              		.global	ADPD1080_DisableLed
 863              		.thumb
 864              		.thumb_func
 865              		.type	ADPD1080_DisableLed, %function
 866              	ADPD1080_DisableLed:
 867              	.LFB554:
 336:ADPD1080.c    **** 
 337:ADPD1080.c    **** /**
 338:ADPD1080.c    ****  * @brief Disables the LEDs
 339:ADPD1080.c    ****  *  
 340:ADPD1080.c    ****  * @param enSlot - time slot (SlotA or SlotB)
 341:ADPD1080.c    ****  * 
 342:ADPD1080.c    ****  * @return true if successful - false if failure 
 343:ADPD1080.c    ****  */
 344:ADPD1080.c    **** bool ADPD1080_DisableLed(ADPD1080_TimeSlot enSlot) {
 868              		.loc 1 344 0
 869              		.cfi_startproc
 870              		@ args = 0, pretend = 0, frame = 0
 871              		@ frame_needed = 0, uses_anonymous_args = 0
 872              	.LVL130:
 873 0000 08B5     		push	{r3, lr}
 874              		.cfi_def_cfa_offset 8
 875              		.cfi_offset 3, -8
 876              		.cfi_offset 14, -4
 345:ADPD1080.c    ****     uint16_t regValue = ADPD1080_ReadReg(ADPD1080_LED_DISABLE);
 877              		.loc 1 345 0
 878 0002 3420     		movs	r0, #52
 879              	.LVL131:
 880 0004 FFF7FEFF 		bl	ADPD1080_ReadReg
 881              	.LVL132:
 346:ADPD1080.c    ****     (void) enSlot;
 347:ADPD1080.c    ****     //if (enSlot == SLOTA) {
 348:ADPD1080.c    ****         //regValue = regValue & (0xFCFF | (0x01 << 8));//!!!!!!!!!!!!!!!!!!!!! 8 bit 1
 349:ADPD1080.c    ****         //return ADPD1080_WriteReg(ADPD1080_LED_DISABLE, regValue);
 350:ADPD1080.c    ****     //} else { // SLOTB
 351:ADPD1080.c    ****         //regValue = regValue & (0xFCFF | (0x01 << 9));//!!!!!!!!!!!!!!!!!!!!!9 bit 1
 352:ADPD1080.c    ****         //return ADPD1080_WriteReg(ADPD1080_LED_DISABLE, regValue);
 353:ADPD1080.c    ****     //}
 354:ADPD1080.c    ****     regValue = (regValue & 0xFCFF) | (0x0300);//!!!!!!!!!!!!!!!!!!!!! 8 bit 1
 882              		.loc 1 354 0
 883 0008 40F44071 		orr	r1, r0, #768
 884              	.LVL133:
 355:ADPD1080.c    ****     return ADPD1080_WriteReg(ADPD1080_LED_DISABLE, regValue);
 885              		.loc 1 355 0
 886 000c 89B2     		uxth	r1, r1
 887 000e 3420     		movs	r0, #52
 888 0010 FFF7FEFF 		bl	ADPD1080_WriteReg
 889              	.LVL134:
 356:ADPD1080.c    **** }
ARM GAS  C:\Users\thoma\AppData\Local\Temp\cceCswqS.s 			page 23


 890              		.loc 1 356 0
 891 0014 08BD     		pop	{r3, pc}
 892              		.cfi_endproc
 893              	.LFE554:
 894              		.size	ADPD1080_DisableLed, .-ADPD1080_DisableLed
 895 0016 00BF     		.section	.text.ADPD1080_EnableLed,"ax",%progbits
 896              		.align	2
 897              		.global	ADPD1080_EnableLed
 898              		.thumb
 899              		.thumb_func
 900              		.type	ADPD1080_EnableLed, %function
 901              	ADPD1080_EnableLed:
 902              	.LFB555:
 357:ADPD1080.c    **** 
 358:ADPD1080.c    **** /**
 359:ADPD1080.c    ****  * @brief Enable the LEDs
 360:ADPD1080.c    ****  *  
 361:ADPD1080.c    ****  * @param enSlot - time slot (SlotA or SlotB)
 362:ADPD1080.c    ****  * 
 363:ADPD1080.c    ****  * @return true if successful - false if failure 
 364:ADPD1080.c    ****  */
 365:ADPD1080.c    **** bool ADPD1080_EnableLed(ADPD1080_TimeSlot enSlot) {
 903              		.loc 1 365 0
 904              		.cfi_startproc
 905              		@ args = 0, pretend = 0, frame = 0
 906              		@ frame_needed = 0, uses_anonymous_args = 0
 907              	.LVL135:
 908 0000 08B5     		push	{r3, lr}
 909              		.cfi_def_cfa_offset 8
 910              		.cfi_offset 3, -8
 911              		.cfi_offset 14, -4
 366:ADPD1080.c    ****     (void) enSlot;
 367:ADPD1080.c    ****     uint16_t regValue = ADPD1080_ReadReg(ADPD1080_LED_DISABLE);
 912              		.loc 1 367 0
 913 0002 3420     		movs	r0, #52
 914              	.LVL136:
 915 0004 FFF7FEFF 		bl	ADPD1080_ReadReg
 916              	.LVL137:
 368:ADPD1080.c    ****     //if (enSlot == SLOTA) {
 369:ADPD1080.c    ****         //regValue = regValue & (0xFCFF | (0x00 << 8));//!!!!!!!!!!!!!!!!!!!!!8 bit 0
 370:ADPD1080.c    ****         //return ADPD1080_WriteReg(ADPD1080_LED_DISABLE, regValue);
 371:ADPD1080.c    ****     //} else { // SLOTB
 372:ADPD1080.c    ****         //regValue = regValue & (0xFCFF | (0x00 << 9));//!!!!!!!!!!!!!!!!!!!!!9 bit 0
 373:ADPD1080.c    ****         //return ADPD1080_WriteReg(ADPD1080_LED_DISABLE, regValue);
 374:ADPD1080.c    ****     //}
 375:ADPD1080.c    ****     regValue = (regValue & 0xFCFF);//!!!!!!!!!!!!!!!!!!!!! 8 bit 1
 917              		.loc 1 375 0
 918 0008 20F44070 		bic	r0, r0, #768
 919              	.LVL138:
 920 000c 81B2     		uxth	r1, r0
 921              	.LVL139:
 376:ADPD1080.c    ****     return ADPD1080_WriteReg(ADPD1080_LED_DISABLE, regValue);
 922              		.loc 1 376 0
 923 000e 3420     		movs	r0, #52
 924 0010 FFF7FEFF 		bl	ADPD1080_WriteReg
 925              	.LVL140:
 377:ADPD1080.c    **** }
ARM GAS  C:\Users\thoma\AppData\Local\Temp\cceCswqS.s 			page 24


 926              		.loc 1 377 0
 927 0014 08BD     		pop	{r3, pc}
 928              		.cfi_endproc
 929              	.LFE555:
 930              		.size	ADPD1080_EnableLed, .-ADPD1080_EnableLed
 931 0016 00BF     		.section	.text.ADPD1080_SetPulseNumberPeriod,"ax",%progbits
 932              		.align	2
 933              		.global	ADPD1080_SetPulseNumberPeriod
 934              		.thumb
 935              		.thumb_func
 936              		.type	ADPD1080_SetPulseNumberPeriod, %function
 937              	ADPD1080_SetPulseNumberPeriod:
 938              	.LFB556:
 378:ADPD1080.c    **** 
 379:ADPD1080.c    **** /**
 380:ADPD1080.c    ****  * @brief Set the pulse number and period
 381:ADPD1080.c    ****  *  
 382:ADPD1080.c    ****  * @param enSlot - time slot (SlotA or SlotB)
 383:ADPD1080.c    ****  * @param u8PulseCount - number of pulses in selected time slot
 384:ADPD1080.c    ****  * @param u8PulsePeriod - period of the pulse
 385:ADPD1080.c    ****  * 
 386:ADPD1080.c    ****  * @return true if successful - false if failure 
 387:ADPD1080.c    ****  */
 388:ADPD1080.c    **** bool ADPD1080_SetPulseNumberPeriod(ADPD1080_TimeSlot enSlot, uint8_t pulseCount, uint8_t pulsePerio
 939              		.loc 1 388 0
 940              		.cfi_startproc
 941              		@ args = 0, pretend = 0, frame = 0
 942              		@ frame_needed = 0, uses_anonymous_args = 0
 943              	.LVL141:
 944 0000 08B5     		push	{r3, lr}
 945              		.cfi_def_cfa_offset 8
 946              		.cfi_offset 3, -8
 947              		.cfi_offset 14, -4
 389:ADPD1080.c    ****     uint16_t regValue = ((uint16_t)pulseCount << 8) | pulsePeriod;
 948              		.loc 1 389 0
 949 0002 42EA0121 		orr	r1, r2, r1, lsl #8
 950              	.LVL142:
 390:ADPD1080.c    **** 
 391:ADPD1080.c    ****     if (enSlot == SLOTA) {
 951              		.loc 1 391 0
 952 0006 18B9     		cbnz	r0, .L58
 392:ADPD1080.c    ****         return ADPD1080_WriteReg(ADPD1080_SLOTA_NUMPULSES, regValue);
 953              		.loc 1 392 0
 954 0008 3120     		movs	r0, #49
 955              	.LVL143:
 956 000a FFF7FEFF 		bl	ADPD1080_WriteReg
 957              	.LVL144:
 958 000e 08BD     		pop	{r3, pc}
 959              	.LVL145:
 960              	.L58:
 393:ADPD1080.c    ****     } else { // SLOTB
 394:ADPD1080.c    ****         return ADPD1080_WriteReg(ADPD1080_SLOTB_NUMPULSES, regValue);
 961              		.loc 1 394 0
 962 0010 3620     		movs	r0, #54
 963              	.LVL146:
 964 0012 FFF7FEFF 		bl	ADPD1080_WriteReg
 965              	.LVL147:
ARM GAS  C:\Users\thoma\AppData\Local\Temp\cceCswqS.s 			page 25


 395:ADPD1080.c    ****     }
 396:ADPD1080.c    **** }
 966              		.loc 1 396 0
 967 0016 08BD     		pop	{r3, pc}
 968              		.cfi_endproc
 969              	.LFE556:
 970              		.size	ADPD1080_SetPulseNumberPeriod, .-ADPD1080_SetPulseNumberPeriod
 971              		.section	.text.turbidity_init,"ax",%progbits
 972              		.align	2
 973              		.global	turbidity_init
 974              		.thumb
 975              		.thumb_func
 976              		.type	turbidity_init, %function
 977              	turbidity_init:
 978              	.LFB558:
 397:ADPD1080.c    **** 
 398:ADPD1080.c    **** /* Controller Function Definitions */
 399:ADPD1080.c    **** void turbidity_Init(void) {
 400:ADPD1080.c    ****     
 401:ADPD1080.c    ****     ADPD1080_SetOperationMode(PROGRAM);  // Set to program mode
 402:ADPD1080.c    ****     ADPD1080_Reset();
 403:ADPD1080.c    ****     ADPD1080_SetOperationMode(PROGRAM);  // Set to program mode
 404:ADPD1080.c    ****     register_settings();
 405:ADPD1080.c    ****     
 406:ADPD1080.c    ****     ADPD1080_Set32KCLK(true);            // Enable 32K clock
 407:ADPD1080.c    ****     uint16_t clkRegValue = ADPD1080_ReadReg(ADPD1080_SAMPLE_CLK);
 408:ADPD1080.c    ****     printf("Clk Reg Value: 0x%x\r\n", clkRegValue);
 409:ADPD1080.c    ****     ADPD1080_SetTimeSlotSwitch(PD_1_4_CONNECTED, PD_1_4_CONNECTED); // Select photodiodes 1-4, data
 410:ADPD1080.c    ****     
 411:ADPD1080.c    ****     /* Select LEDs for each time slot */
 412:ADPD1080.c    ****     ADPD1080_SelectLED(LEDX1, SLOTA);
 413:ADPD1080.c    ****     ADPD1080_SelectLED(LEDX2, SLOTB);
 414:ADPD1080.c    ****     
 415:ADPD1080.c    ****     /* Set led coarse value 100% and 10% */
 416:ADPD1080.c    ****     ADPD1080_WriteReg(ADPD1080_ILED1_COARSE, 0x1031);  // LED configuration
 417:ADPD1080.c    ****     ADPD1080_WriteReg(ADPD1080_ILED2_COARSE, 0x1034);  // LED configuration
 418:ADPD1080.c    ****     ADPD1080_WriteReg(ADPD1080_ILED_FINE, 0x67DF);  // LED fine
 419:ADPD1080.c    **** 
 420:ADPD1080.c    ****     /* Set LED pulse count */
 421:ADPD1080.c    ****     ADPD1080_SetPulseNumberPeriod(SLOTA, 127, 0x19);    // One pulse, 19 s period   0x0113  275
 422:ADPD1080.c    ****     ADPD1080_SetPulseNumberPeriod(SLOTB, 127, 0x19);    // One pulse, 19 s period
 423:ADPD1080.c    **** 
 424:ADPD1080.c    ****     /* Set LED pulse width and offset */
 425:ADPD1080.c    ****     ADPD1080_SetLEDWidthOffset(SLOTA, 3, 25);           // 3 s pulse width, 23 s LED Offset  
 426:ADPD1080.c    ****     ADPD1080_SetLEDWidthOffset(SLOTB, 3, 25);           // 3 s pulse width, 23 s LED Offset
 427:ADPD1080.c    **** 
 428:ADPD1080.c    ****     /* Set AFE width and offset */
 429:ADPD1080.c    ****     ADPD1080_SetAFEWidthOffset(SLOTA, 4, 16, 4);        // (slot, AFE width, offset, fine offset) -
 430:ADPD1080.c    ****     ADPD1080_SetAFEWidthOffset(SLOTB, 4, 16, 4);        // 3 s AFE width, 13 s offset
 431:ADPD1080.c    **** 
 432:ADPD1080.c    ****     /* Set ADC clock speed */
 433:ADPD1080.c    ****     ADPD1080_SetADCClock(ADC_CLOCK_100MHz);
 434:ADPD1080.c    ****     
 435:ADPD1080.c    ****     /* Enable digital clock */
 436:ADPD1080.c    ****     ADPD1080_SetDigitalClock();
 437:ADPD1080.c    **** 
 438:ADPD1080.c    ****     /* Set sampling frequency */
ARM GAS  C:\Users\thoma\AppData\Local\Temp\cceCswqS.s 			page 26


 439:ADPD1080.c    ****     ADPD1080_SetSamplingFrequency(400); // For 400 Hz sampling frequency set to 1600. Currently 100
 440:ADPD1080.c    ****     
 441:ADPD1080.c    ****     /* Set TIA gain */
 442:ADPD1080.c    ****     ADPD1080_SetTIAGain(SLOTA, TIA_25);
 443:ADPD1080.c    ****     ADPD1080_SetTIAGain(SLOTB, TIA_25);
 444:ADPD1080.c    **** 
 445:ADPD1080.c    ****     /* Set sample clock */
 446:ADPD1080.c    ****     ADPD1080_WriteReg(ADPD1080_SAMPLE_CLK, 0x2695);  // 0080,2695
 447:ADPD1080.c    ****     ADPD1080_WriteReg(ADPD1080_CLK32M_ADJUST, 0x0098);  // 0x005e,0098
 448:ADPD1080.c    ****     ADPD1080_WriteReg(ADPD1080_EXT_SYNC_SEL, 0x2090);  // 20d0,2090
 449:ADPD1080.c    ****     ADPD1080_WriteReg(ADPD1080_CLK32M_CAL_EN, 0x0000);  // 0040,0000
 450:ADPD1080.c    **** 
 451:ADPD1080.c    ****     // Set V_CATHODE to 1.3V, enable all channels
 452:ADPD1080.c    ****     ADPD1080_WriteReg(ADPD1080_AFE_PWR_CFG1, 0x7006);  // 1806,7006
 453:ADPD1080.c    ****     ADPD1080_SetAverageFactor(AVERAGE2);
 454:ADPD1080.c    ****     
 455:ADPD1080.c    ****     struct ADPD1080_ChannelOffset stOffsetA  = {8201,0,0,0};      //set to be <1% of full scale ADC
 456:ADPD1080.c    ****     struct ADPD1080_ChannelOffset stOffsetB  = {8201,0,0,0};    
 457:ADPD1080.c    ****     ADPD1080_SetOffset(SLOTA, stOffsetA);
 458:ADPD1080.c    ****     ADPD1080_SetOffset(SLOTB, stOffsetB);
 459:ADPD1080.c    ****     
 460:ADPD1080.c    ****     /* Set FIFO and start measurement */
 461:ADPD1080.c    ****     ADPD1080_SetFIFO();
 462:ADPD1080.c    ****     
 463:ADPD1080.c    ****     ADPD1080_SetOperationMode(NORMAL_OPERATION);
 464:ADPD1080.c    **** }
 465:ADPD1080.c    **** 
 466:ADPD1080.c    **** void turbidity_init(void) {
 979              		.loc 1 466 0
 980              		.cfi_startproc
 981              		@ args = 0, pretend = 0, frame = 0
 982              		@ frame_needed = 0, uses_anonymous_args = 0
 983 0000 08B5     		push	{r3, lr}
 984              		.cfi_def_cfa_offset 8
 985              		.cfi_offset 3, -8
 986              		.cfi_offset 14, -4
 467:ADPD1080.c    ****     
 468:ADPD1080.c    ****     ADPD1080_SetOperationMode(0x01);  // Set to program mode
 987              		.loc 1 468 0
 988 0002 0120     		movs	r0, #1
 989 0004 FFF7FEFF 		bl	ADPD1080_SetOperationMode
 990              	.LVL148:
 469:ADPD1080.c    ****     ADPD1080_WriteReg(0x0,0xFF);
 991              		.loc 1 469 0
 992 0008 FF21     		movs	r1, #255
 993 000a 0020     		movs	r0, #0
 994 000c FFF7FEFF 		bl	ADPD1080_WriteReg
 995              	.LVL149:
 470:ADPD1080.c    ****     ADPD1080_WriteReg(0x0F, 0x01);    // Reset
 996              		.loc 1 470 0
 997 0010 0121     		movs	r1, #1
 998 0012 0F20     		movs	r0, #15
 999 0014 FFF7FEFF 		bl	ADPD1080_WriteReg
 1000              	.LVL150:
 471:ADPD1080.c    ****     
 472:ADPD1080.c    ****     ADPD1080_SetOperationMode(0x01);  // Set to program mode
 1001              		.loc 1 472 0
ARM GAS  C:\Users\thoma\AppData\Local\Temp\cceCswqS.s 			page 27


 1002 0018 0120     		movs	r0, #1
 1003 001a FFF7FEFF 		bl	ADPD1080_SetOperationMode
 1004              	.LVL151:
 473:ADPD1080.c    ****     ADPD1080_Set32KCLK(1);            // Enable 32K clock
 1005              		.loc 1 473 0
 1006 001e 0120     		movs	r0, #1
 1007 0020 FFF7FEFF 		bl	ADPD1080_Set32KCLK
 1008              	.LVL152:
 474:ADPD1080.c    ****     ADPD1080_SetTimeSlotSwitch(0x5, 0x5);
 1009              		.loc 1 474 0
 1010 0024 0521     		movs	r1, #5
 1011 0026 0846     		mov	r0, r1
 1012 0028 FFF7FEFF 		bl	ADPD1080_SetTimeSlotSwitch
 1013              	.LVL153:
 475:ADPD1080.c    ****   /* Select LEDs for each time slot */
 476:ADPD1080.c    ****     ADPD1080_SelectLED(0x02, 0x0);
 1014              		.loc 1 476 0
 1015 002c 0021     		movs	r1, #0
 1016 002e 0220     		movs	r0, #2
 1017 0030 FFF7FEFF 		bl	ADPD1080_SelectLED
 1018              	.LVL154:
 477:ADPD1080.c    ****     //ADPD1080_SelectLED(0x01, 0x1);
 478:ADPD1080.c    ****     
 479:ADPD1080.c    ****     ADPD1080_WriteReg(0x24, 0x1004);  // LED configuration
 1019              		.loc 1 479 0
 1020 0034 41F20401 		movw	r1, #4100
 1021 0038 2420     		movs	r0, #36
 1022 003a FFF7FEFF 		bl	ADPD1080_WriteReg
 1023              	.LVL155:
 480:ADPD1080.c    ****     ADPD1080_WriteReg(0x23, 0x1000);  // LED configuration
 1024              		.loc 1 480 0
 1025 003e 4FF48051 		mov	r1, #4096
 1026 0042 2320     		movs	r0, #35
 1027 0044 FFF7FEFF 		bl	ADPD1080_WriteReg
 1028              	.LVL156:
 481:ADPD1080.c    ****     ADPD1080_WriteReg(0x25, 0x67DF);  // LED fine
 1029              		.loc 1 481 0
 1030 0048 46F2DF71 		movw	r1, #26591
 1031 004c 2520     		movs	r0, #37
 1032 004e FFF7FEFF 		bl	ADPD1080_WriteReg
 1033              	.LVL157:
 482:ADPD1080.c    **** 
 483:ADPD1080.c    ****     ADPD1080_WriteReg(0x31, 0x1019);  // Pulse number and period
 1034              		.loc 1 483 0
 1035 0052 41F21901 		movw	r1, #4121
 1036 0056 3120     		movs	r0, #49
 1037 0058 FFF7FEFF 		bl	ADPD1080_WriteReg
 1038              	.LVL158:
 484:ADPD1080.c    ****     ADPD1080_WriteReg(0x36, 0x1019);  // Pulse number and period
 1039              		.loc 1 484 0
 1040 005c 41F21901 		movw	r1, #4121
 1041 0060 3620     		movs	r0, #54
 1042 0062 FFF7FEFF 		bl	ADPD1080_WriteReg
 1043              	.LVL159:
 485:ADPD1080.c    **** 
 486:ADPD1080.c    ****     ADPD1080_WriteReg(0x30, 0x0220);  // LED width and offset
 1044              		.loc 1 486 0
ARM GAS  C:\Users\thoma\AppData\Local\Temp\cceCswqS.s 			page 28


 1045 0066 4FF40871 		mov	r1, #544
 1046 006a 3020     		movs	r0, #48
 1047 006c FFF7FEFF 		bl	ADPD1080_WriteReg
 1048              	.LVL160:
 487:ADPD1080.c    ****     ADPD1080_WriteReg(0x35, 0x0220);  // LED width and offset
 1049              		.loc 1 487 0
 1050 0070 4FF40871 		mov	r1, #544
 1051 0074 3520     		movs	r0, #53
 1052 0076 FFF7FEFF 		bl	ADPD1080_WriteReg
 1053              	.LVL161:
 488:ADPD1080.c    **** 
 489:ADPD1080.c    ****     ADPD1080_WriteReg(0x39, 0x1AE0);  // AFE width and offset
 1054              		.loc 1 489 0
 1055 007a 4FF4D751 		mov	r1, #6880
 1056 007e 3920     		movs	r0, #57
 1057 0080 FFF7FEFF 		bl	ADPD1080_WriteReg
 1058              	.LVL162:
 490:ADPD1080.c    ****     ADPD1080_WriteReg(0x3B, 0x1AE0);  // AFE width and offset
 1059              		.loc 1 490 0
 1060 0084 4FF4D751 		mov	r1, #6880
 1061 0088 3B20     		movs	r0, #59
 1062 008a FFF7FEFF 		bl	ADPD1080_WriteReg
 1063              	.LVL163:
 491:ADPD1080.c    **** 
 492:ADPD1080.c    ****     //ADPD1080_WriteReg(0x4E, 0x40);  // ADC clock
 493:ADPD1080.c    ****     //ADPD1080_WriteReg(0x58, 0x01);    // Digital clock
 494:ADPD1080.c    **** 
 495:ADPD1080.c    ****     ADPD1080_WriteReg(0x12, 0x5);     // Sampling frequency
 1064              		.loc 1 495 0
 1065 008e 0521     		movs	r1, #5
 1066 0090 1220     		movs	r0, #18
 1067 0092 FFF7FEFF 		bl	ADPD1080_WriteReg
 1068              	.LVL164:
 496:ADPD1080.c    ****     
 497:ADPD1080.c    ****     ADPD1080_WriteReg(0x42, 0x1C37);  // TIA gain
 1069              		.loc 1 497 0
 1070 0096 41F63741 		movw	r1, #7223
 1071 009a 4220     		movs	r0, #66
 1072 009c FFF7FEFF 		bl	ADPD1080_WriteReg
 1073              	.LVL165:
 498:ADPD1080.c    ****     ADPD1080_WriteReg(0x44, 0x1C37);  // TIA gain
 1074              		.loc 1 498 0
 1075 00a0 41F63741 		movw	r1, #7223
 1076 00a4 4420     		movs	r0, #68
 1077 00a6 FFF7FEFF 		bl	ADPD1080_WriteReg
 1078              	.LVL166:
 499:ADPD1080.c    **** 
 500:ADPD1080.c    ****     ADPD1080_WriteReg(0x4B, 0x2695);  // Sample clock
 1079              		.loc 1 500 0
 1080 00aa 42F29561 		movw	r1, #9877
 1081 00ae 4B20     		movs	r0, #75
 1082 00b0 FFF7FEFF 		bl	ADPD1080_WriteReg
 1083              	.LVL167:
 501:ADPD1080.c    ****     ADPD1080_WriteReg(0x4D, 0x0098);  // Adjust clock
 1084              		.loc 1 501 0
 1085 00b4 9821     		movs	r1, #152
 1086 00b6 4D20     		movs	r0, #77
ARM GAS  C:\Users\thoma\AppData\Local\Temp\cceCswqS.s 			page 29


 1087 00b8 FFF7FEFF 		bl	ADPD1080_WriteReg
 1088              	.LVL168:
 502:ADPD1080.c    ****     ADPD1080_WriteReg(0x4F, 0x2090);  // External sync
 1089              		.loc 1 502 0
 1090 00bc 42F29001 		movw	r1, #8336
 1091 00c0 4F20     		movs	r0, #79
 1092 00c2 FFF7FEFF 		bl	ADPD1080_WriteReg
 1093              	.LVL169:
 503:ADPD1080.c    ****     ADPD1080_WriteReg(0x50, 0x0000);  // Calibration
 1094              		.loc 1 503 0
 1095 00c6 0021     		movs	r1, #0
 1096 00c8 5020     		movs	r0, #80
 1097 00ca FFF7FEFF 		bl	ADPD1080_WriteReg
 1098              	.LVL170:
 504:ADPD1080.c    **** 
 505:ADPD1080.c    ****     ADPD1080_WriteReg(0x3C, 0x7006);  // AFE power configuration
 1099              		.loc 1 505 0
 1100 00ce 47F20601 		movw	r1, #28678
 1101 00d2 3C20     		movs	r0, #60
 1102 00d4 FFF7FEFF 		bl	ADPD1080_WriteReg
 1103              	.LVL171:
 506:ADPD1080.c    ****     // FIFO setup
 507:ADPD1080.c    ****     ADPD1080_WriteReg(0x11, 0x3131); 
 1104              		.loc 1 507 0
 1105 00d8 43F23111 		movw	r1, #12593
 1106 00dc 1120     		movs	r0, #17
 1107 00de FFF7FEFF 		bl	ADPD1080_WriteReg
 1108              	.LVL172:
 508:ADPD1080.c    ****     ADPD1080_WriteReg(0x06, 0x1F00);
 1109              		.loc 1 508 0
 1110 00e2 4FF4F851 		mov	r1, #7936
 1111 00e6 0620     		movs	r0, #6
 1112 00e8 FFF7FEFF 		bl	ADPD1080_WriteReg
 1113              	.LVL173:
 509:ADPD1080.c    ****     ADPD1080_WriteReg(0x01, 0xC0FF);
 1114              		.loc 1 509 0
 1115 00ec 4CF2FF01 		movw	r1, #49407
 1116 00f0 0120     		movs	r0, #1
 1117 00f2 FFF7FEFF 		bl	ADPD1080_WriteReg
 1118              	.LVL174:
 510:ADPD1080.c    ****     ADPD1080_WriteReg(0x0B, 0x101);
 1119              		.loc 1 510 0
 1120 00f6 40F20111 		movw	r1, #257
 1121 00fa 0B20     		movs	r0, #11
 1122 00fc FFF7FEFF 		bl	ADPD1080_WriteReg
 1123              	.LVL175:
 511:ADPD1080.c    ****     ADPD1080_WriteReg(0x02, 0x05);
 1124              		.loc 1 511 0
 1125 0100 0521     		movs	r1, #5
 1126 0102 0220     		movs	r0, #2
 1127 0104 FFF7FEFF 		bl	ADPD1080_WriteReg
 1128              	.LVL176:
 512:ADPD1080.c    ****     
 513:ADPD1080.c    ****     ADPD1080_SetOperationMode(0x02);  // Set to normal operation
 1129              		.loc 1 513 0
 1130 0108 0220     		movs	r0, #2
 1131 010a FFF7FEFF 		bl	ADPD1080_SetOperationMode
ARM GAS  C:\Users\thoma\AppData\Local\Temp\cceCswqS.s 			page 30


 1132              	.LVL177:
 1133 010e 08BD     		pop	{r3, pc}
 1134              		.cfi_endproc
 1135              	.LFE558:
 1136              		.size	turbidity_init, .-turbidity_init
 1137              		.section	.text.turbidity_ReadDataInterrupt,"ax",%progbits
 1138              		.align	2
 1139              		.global	turbidity_ReadDataInterrupt
 1140              		.thumb
 1141              		.thumb_func
 1142              		.type	turbidity_ReadDataInterrupt, %function
 1143              	turbidity_ReadDataInterrupt:
 1144              	.LFB559:
 514:ADPD1080.c    **** }
 515:ADPD1080.c    **** 
 516:ADPD1080.c    **** 
 517:ADPD1080.c    **** /* 
 518:ADPD1080.c    **** The interrupt handler must perform the following:
 519:ADPD1080.c    **** a. Read Register 0x00 and observe Bit 5 or Bit 6 to confirm
 520:ADPD1080.c    **** which interrupt occurred. This step is not required if
 521:ADPD1080.c    **** only one interrupt is in use.
 522:ADPD1080.c    **** b. Read the data registers before the next sample can be
 523:ADPD1080.c    **** written. The system must have interrupt latency and service time short enough to respond before 
 524:ADPD1080.c    **** the next data update, based on the output data rate.
 525:ADPD1080.c    **** c. Write a 1 to Bit 5 or Bit 6 in Register 0x00 to clear the interrupt.
 526:ADPD1080.c    **** */
 527:ADPD1080.c    **** void turbidity_ReadDataInterrupt(void) {
 1145              		.loc 1 527 0
 1146              		.cfi_startproc
 1147              		@ args = 0, pretend = 0, frame = 8
 1148              		@ frame_needed = 0, uses_anonymous_args = 0
 1149 0000 00B5     		push	{lr}
 1150              		.cfi_def_cfa_offset 4
 1151              		.cfi_offset 14, -4
 1152 0002 83B0     		sub	sp, sp, #12
 1153              		.cfi_def_cfa_offset 16
 528:ADPD1080.c    ****     volatile uint16_t status = ADPD1080_ReadReg(ADPD1080_STATUS);
 1154              		.loc 1 528 0
 1155 0004 0020     		movs	r0, #0
 1156 0006 FFF7FEFF 		bl	ADPD1080_ReadReg
 1157              	.LVL178:
 1158 000a ADF80600 		strh	r0, [sp, #6]	@ movhi
 529:ADPD1080.c    ****     printf("Status: 0x%x\r\n", status);
 1159              		.loc 1 529 0
 1160 000e BDF80610 		ldrh	r1, [sp, #6]
 1161 0012 89B2     		uxth	r1, r1
 1162 0014 0748     		ldr	r0, .L65
 1163 0016 FFF7FEFF 		bl	printf
 1164              	.LVL179:
 530:ADPD1080.c    ****     ADPD1080_ReadDataRegs(au16DataSlotA, au16DataSlotB, 4);
 1165              		.loc 1 530 0
 1166 001a 0748     		ldr	r0, .L65+4
 1167 001c 0422     		movs	r2, #4
 1168 001e 0146     		mov	r1, r0
 1169 0020 0830     		adds	r0, r0, #8
 1170 0022 FFF7FEFF 		bl	ADPD1080_ReadDataRegs
 1171              	.LVL180:
ARM GAS  C:\Users\thoma\AppData\Local\Temp\cceCswqS.s 			page 31


 531:ADPD1080.c    ****   
 532:ADPD1080.c    ****     // Clear all interrupts
 533:ADPD1080.c    ****     ADPD1080_WriteReg(ADPD1080_STATUS, 0xFF);      
 1172              		.loc 1 533 0
 1173 0026 FF21     		movs	r1, #255
 1174 0028 0020     		movs	r0, #0
 1175 002a FFF7FEFF 		bl	ADPD1080_WriteReg
 1176              	.LVL181:
 534:ADPD1080.c    **** }
 1177              		.loc 1 534 0
 1178 002e 03B0     		add	sp, sp, #12
 1179              		.cfi_def_cfa_offset 4
 1180              		@ sp needed
 1181 0030 5DF804FB 		ldr	pc, [sp], #4
 1182              	.L66:
 1183              		.align	2
 1184              	.L65:
 1185 0034 14000000 		.word	.LC1
 1186 0038 00000000 		.word	.LANCHOR0
 1187              		.cfi_endproc
 1188              	.LFE559:
 1189              		.size	turbidity_ReadDataInterrupt, .-turbidity_ReadDataInterrupt
 1190              		.section	.text.turbidity_ChannelOffsetCalibration,"ax",%progbits
 1191              		.align	2
 1192              		.global	turbidity_ChannelOffsetCalibration
 1193              		.thumb
 1194              		.thumb_func
 1195              		.type	turbidity_ChannelOffsetCalibration, %function
 1196              	turbidity_ChannelOffsetCalibration:
 1197              	.LFB560:
 535:ADPD1080.c    **** 
 536:ADPD1080.c    **** void turbidity_ChannelOffsetCalibration(void) {
 1198              		.loc 1 536 0
 1199              		.cfi_startproc
 1200              		@ args = 0, pretend = 0, frame = 0
 1201              		@ frame_needed = 0, uses_anonymous_args = 0
 1202 0000 08B5     		push	{r3, lr}
 1203              		.cfi_def_cfa_offset 8
 1204              		.cfi_offset 3, -8
 1205              		.cfi_offset 14, -4
 537:ADPD1080.c    ****     ADPD1080_SetOperationMode(0x01);  // Set to program mode
 1206              		.loc 1 537 0
 1207 0002 0120     		movs	r0, #1
 1208 0004 FFF7FEFF 		bl	ADPD1080_SetOperationMode
 1209              	.LVL182:
 538:ADPD1080.c    ****     // ADPD1080_WriteReg(0x34, 0x0100);  // Disable LED
 539:ADPD1080.c    ****     // ADPD1080_WriteReg(0x34, 0x0100);  // Disable LED/////////
 540:ADPD1080.c    ****     //uint16_t reg34Value = ADPD1080_ReadReg(0x34);
 541:ADPD1080.c    ****     //reg34Value |= 0x0300;
 542:ADPD1080.c    ****     //ADPD1080_WriteReg(0x34, reg34Value);  // Disable LED/////////
 543:ADPD1080.c    ****     ADPD1080_DisableLed(0);
 1210              		.loc 1 543 0
 1211 0008 0020     		movs	r0, #0
 1212 000a FFF7FEFF 		bl	ADPD1080_DisableLed
 1213              	.LVL183:
 544:ADPD1080.c    ****     //ADPD1080_DisableLed(1);
 545:ADPD1080.c    **** 
ARM GAS  C:\Users\thoma\AppData\Local\Temp\cceCswqS.s 			page 32


 546:ADPD1080.c    ****     //ADPD1080_WriteReg(0x18, 0x2078);  // Channel offset////////////////
 547:ADPD1080.c    ****     //ADPD1080_WriteReg(0x19, 0x0000);  // Channel offset
 548:ADPD1080.c    ****     //ADPD1080_WriteReg(0x1A, 0x0000);  // Channel offset
 549:ADPD1080.c    ****     //ADPD1080_WriteReg(0x1B, 0x0000);  // Channel offset
 550:ADPD1080.c    **** 
 551:ADPD1080.c    ****     //ADPD1080_WriteReg(0x1E, 0x2078);  // Channel offset
 552:ADPD1080.c    ****     //ADPD1080_WriteReg(0x1F, 0x0000);  // Channel offset
 553:ADPD1080.c    ****     //ADPD1080_WriteReg(0x20, 0x0000);  // Channel offset
 554:ADPD1080.c    ****     //ADPD1080_WriteReg(0x21, 0x0000);  // Channel offset
 555:ADPD1080.c    **** 
 556:ADPD1080.c    ****     ADPD1080_WriteReg(0x31, 0x1019);  // Pulse number and period/////////////////
 1214              		.loc 1 556 0
 1215 000e 41F21901 		movw	r1, #4121
 1216 0012 3120     		movs	r0, #49
 1217 0014 FFF7FEFF 		bl	ADPD1080_WriteReg
 1218              	.LVL184:
 557:ADPD1080.c    ****     ADPD1080_WriteReg(0x36, 0x1019);  // Pulse number and period////////////////////
 1219              		.loc 1 557 0
 1220 0018 41F21901 		movw	r1, #4121
 1221 001c 3620     		movs	r0, #54
 1222 001e FFF7FEFF 		bl	ADPD1080_WriteReg
 1223              	.LVL185:
 558:ADPD1080.c    **** 
 559:ADPD1080.c    ****     ADPD1080_SetOperationMode(0x02);  // Set to normal operation
 1224              		.loc 1 559 0
 1225 0022 0220     		movs	r0, #2
 1226 0024 FFF7FEFF 		bl	ADPD1080_SetOperationMode
 1227              	.LVL186:
 560:ADPD1080.c    ****     CyDelay(1000);
 1228              		.loc 1 560 0
 1229 0028 4FF47A70 		mov	r0, #1000
 1230 002c FFF7FEFF 		bl	Cy_SysLib_Delay
 1231              	.LVL187:
 561:ADPD1080.c    **** 
 562:ADPD1080.c    ****     ADPD1080_ReadDataRegs(au16DataSlotA, au16DataSlotB, 4);////////////////
 1232              		.loc 1 562 0
 1233 0030 1148     		ldr	r0, .L69
 1234 0032 0422     		movs	r2, #4
 1235 0034 0146     		mov	r1, r0
 1236 0036 0830     		adds	r0, r0, #8
 1237 0038 FFF7FEFF 		bl	ADPD1080_ReadDataRegs
 1238              	.LVL188:
 563:ADPD1080.c    **** 
 564:ADPD1080.c    ****     ADPD1080_SetOperationMode(0x01);  // Set to program mode
 1239              		.loc 1 564 0
 1240 003c 0120     		movs	r0, #1
 1241 003e FFF7FEFF 		bl	ADPD1080_SetOperationMode
 1242              	.LVL189:
 565:ADPD1080.c    ****     //ADPD1080_WriteReg(0x18, au16DataSlotA[0] - 100);  // Set offset for slot A
 566:ADPD1080.c    ****     //ADPD1080_WriteReg(0x1E, au16DataSlotB[0] - 100);  // Set offset for slot B
 567:ADPD1080.c    ****     
 568:ADPD1080.c    ****     ADPD1080_EnableLed(0);
 1243              		.loc 1 568 0
 1244 0042 0020     		movs	r0, #0
 1245 0044 FFF7FEFF 		bl	ADPD1080_EnableLed
 1246              	.LVL190:
 569:ADPD1080.c    ****     //ADPD1080_EnableLed(1);
ARM GAS  C:\Users\thoma\AppData\Local\Temp\cceCswqS.s 			page 33


 570:ADPD1080.c    **** 
 571:ADPD1080.c    ****     //reg34Value = ADPD1080_ReadReg(0x34);
 572:ADPD1080.c    ****     //reg34Value |= 0x0000;
 573:ADPD1080.c    ****     //ADPD1080_WriteReg(0x34, reg34Value);  // Enable LED
 574:ADPD1080.c    ****     //ADPD1080_WriteReg(0x34, 0x0300);  // Enable LED
 575:ADPD1080.c    **** 
 576:ADPD1080.c    ****     ADPD1080_SelectLED(0x02, 0x0);//!!!!!!!!!!!!!!!!!!!!!!!!!!!!!!!!!!!!!!!!!
 1247              		.loc 1 576 0
 1248 0048 0021     		movs	r1, #0
 1249 004a 0220     		movs	r0, #2
 1250 004c FFF7FEFF 		bl	ADPD1080_SelectLED
 1251              	.LVL191:
 577:ADPD1080.c    ****     //ADPD1080_SelectLED(0x01, 0x1);//????????????
 578:ADPD1080.c    ****     
 579:ADPD1080.c    ****     //uint16_t reg14Value = ADPD1080_ReadReg(0x14);
 580:ADPD1080.c    ****     //reg14Value = (reg14Value & 0xFCFF) | 0x0300;//!!!!!!!!!!!!!!!!!!!!!!!
 581:ADPD1080.c    ****     //ADPD1080_WriteReg(0x14, reg14Value);
 582:ADPD1080.c    ****     //ADPD1080_WriteReg(0x14, 0x0002);//??????????????????????????
 583:ADPD1080.c    ****     // ADPD1080_WriteReg(0x14, 0x000F);////////
 584:ADPD1080.c    **** 
 585:ADPD1080.c    ****     ADPD1080_WriteReg(0x31, 0x1019);  // Pulse number and period/////////////////
 1252              		.loc 1 585 0
 1253 0050 41F21901 		movw	r1, #4121
 1254 0054 3120     		movs	r0, #49
 1255 0056 FFF7FEFF 		bl	ADPD1080_WriteReg
 1256              	.LVL192:
 586:ADPD1080.c    ****     ADPD1080_WriteReg(0x36, 0x1019);  // Pulse number and period////////////////////
 1257              		.loc 1 586 0
 1258 005a 41F21901 		movw	r1, #4121
 1259 005e 3620     		movs	r0, #54
 1260 0060 FFF7FEFF 		bl	ADPD1080_WriteReg
 1261              	.LVL193:
 587:ADPD1080.c    **** 
 588:ADPD1080.c    ****     ADPD1080_WriteReg(0x15, 0x0110); //?//////////////////
 1262              		.loc 1 588 0
 1263 0064 4FF48871 		mov	r1, #272
 1264 0068 1520     		movs	r0, #21
 1265 006a FFF7FEFF 		bl	ADPD1080_WriteReg
 1266              	.LVL194:
 589:ADPD1080.c    **** 
 590:ADPD1080.c    ****     ADPD1080_SetOperationMode(0x02);  // Set to normal operation
 1267              		.loc 1 590 0
 1268 006e 0220     		movs	r0, #2
 1269 0070 FFF7FEFF 		bl	ADPD1080_SetOperationMode
 1270              	.LVL195:
 1271 0074 08BD     		pop	{r3, pc}
 1272              	.L70:
 1273 0076 00BF     		.align	2
 1274              	.L69:
 1275 0078 00000000 		.word	.LANCHOR0
 1276              		.cfi_endproc
 1277              	.LFE560:
 1278              		.size	turbidity_ChannelOffsetCalibration, .-turbidity_ChannelOffsetCalibration
 1279              		.section	.text.register_settings,"ax",%progbits
 1280              		.align	2
 1281              		.global	register_settings
 1282              		.thumb
ARM GAS  C:\Users\thoma\AppData\Local\Temp\cceCswqS.s 			page 34


 1283              		.thumb_func
 1284              		.type	register_settings, %function
 1285              	register_settings:
 1286              	.LFB561:
 591:ADPD1080.c    **** }
 592:ADPD1080.c    **** 
 593:ADPD1080.c    **** /* Helper function for turbidity_Init() */
 594:ADPD1080.c    **** void register_settings(void) {
 1287              		.loc 1 594 0
 1288              		.cfi_startproc
 1289              		@ args = 0, pretend = 0, frame = 0
 1290              		@ frame_needed = 0, uses_anonymous_args = 0
 1291 0000 08B5     		push	{r3, lr}
 1292              		.cfi_def_cfa_offset 8
 1293              		.cfi_offset 3, -8
 1294              		.cfi_offset 14, -4
 595:ADPD1080.c    **** 
 596:ADPD1080.c    ****     ADPD1080_WriteReg(0x00,0x0000); // TODO: 0x8000 didn't seem to help
 1295              		.loc 1 596 0
 1296 0002 0021     		movs	r1, #0
 1297 0004 0846     		mov	r0, r1
 1298 0006 FFF7FEFF 		bl	ADPD1080_WriteReg
 1299              	.LVL196:
 597:ADPD1080.c    ****     ADPD1080_WriteReg(0x01,0xC0FF);
 1300              		.loc 1 597 0
 1301 000a 4CF2FF01 		movw	r1, #49407
 1302 000e 0120     		movs	r0, #1
 1303 0010 FFF7FEFF 		bl	ADPD1080_WriteReg
 1304              	.LVL197:
 598:ADPD1080.c    ****     ADPD1080_WriteReg(0x02,0x0005);
 1305              		.loc 1 598 0
 1306 0014 0521     		movs	r1, #5
 1307 0016 0220     		movs	r0, #2
 1308 0018 FFF7FEFF 		bl	ADPD1080_WriteReg
 1309              	.LVL198:
 599:ADPD1080.c    ****     ADPD1080_WriteReg(0x03,0x0000);
 1310              		.loc 1 599 0
 1311 001c 0021     		movs	r1, #0
 1312 001e 0320     		movs	r0, #3
 1313 0020 FFF7FEFF 		bl	ADPD1080_WriteReg
 1314              	.LVL199:
 600:ADPD1080.c    ****     ADPD1080_WriteReg(0x04,0x0000);
 1315              		.loc 1 600 0
 1316 0024 0021     		movs	r1, #0
 1317 0026 0420     		movs	r0, #4
 1318 0028 FFF7FEFF 		bl	ADPD1080_WriteReg
 1319              	.LVL200:
 601:ADPD1080.c    ****     ADPD1080_WriteReg(0x05,0x0000);
 1320              		.loc 1 601 0
 1321 002c 0021     		movs	r1, #0
 1322 002e 0520     		movs	r0, #5
 1323 0030 FFF7FEFF 		bl	ADPD1080_WriteReg
 1324              	.LVL201:
 602:ADPD1080.c    ****     ADPD1080_WriteReg(0x06,0x1F00);
 1325              		.loc 1 602 0
 1326 0034 4FF4F851 		mov	r1, #7936
 1327 0038 0620     		movs	r0, #6
ARM GAS  C:\Users\thoma\AppData\Local\Temp\cceCswqS.s 			page 35


 1328 003a FFF7FEFF 		bl	ADPD1080_WriteReg
 1329              	.LVL202:
 603:ADPD1080.c    ****     ADPD1080_WriteReg(0x07,0x0060);
 1330              		.loc 1 603 0
 1331 003e 6021     		movs	r1, #96
 1332 0040 0720     		movs	r0, #7
 1333 0042 FFF7FEFF 		bl	ADPD1080_WriteReg
 1334              	.LVL203:
 604:ADPD1080.c    ****     ADPD1080_WriteReg(0x08,0x0A16);
 1335              		.loc 1 604 0
 1336 0046 40F61621 		movw	r1, #2582
 1337 004a 0820     		movs	r0, #8
 1338 004c FFF7FEFF 		bl	ADPD1080_WriteReg
 1339              	.LVL204:
 605:ADPD1080.c    ****     ADPD1080_WriteReg(0x09,0x00C8);
 1340              		.loc 1 605 0
 1341 0050 C821     		movs	r1, #200
 1342 0052 0920     		movs	r0, #9
 1343 0054 FFF7FEFF 		bl	ADPD1080_WriteReg
 1344              	.LVL205:
 606:ADPD1080.c    ****     ADPD1080_WriteReg(0x0A,0x0000);
 1345              		.loc 1 606 0
 1346 0058 0021     		movs	r1, #0
 1347 005a 0A20     		movs	r0, #10
 1348 005c FFF7FEFF 		bl	ADPD1080_WriteReg
 1349              	.LVL206:
 607:ADPD1080.c    ****     ADPD1080_WriteReg(0x0B,0x0000);
 1350              		.loc 1 607 0
 1351 0060 0021     		movs	r1, #0
 1352 0062 0B20     		movs	r0, #11
 1353 0064 FFF7FEFF 		bl	ADPD1080_WriteReg
 1354              	.LVL207:
 608:ADPD1080.c    ****     ADPD1080_WriteReg(0x0C,0x0000);
 1355              		.loc 1 608 0
 1356 0068 0021     		movs	r1, #0
 1357 006a 0C20     		movs	r0, #12
 1358 006c FFF7FEFF 		bl	ADPD1080_WriteReg
 1359              	.LVL208:
 609:ADPD1080.c    ****     ADPD1080_WriteReg(0x0D,0x0000);
 1360              		.loc 1 609 0
 1361 0070 0021     		movs	r1, #0
 1362 0072 0D20     		movs	r0, #13
 1363 0074 FFF7FEFF 		bl	ADPD1080_WriteReg
 1364              	.LVL209:
 610:ADPD1080.c    ****     ADPD1080_WriteReg(0x0E,0x0000);
 1365              		.loc 1 610 0
 1366 0078 0021     		movs	r1, #0
 1367 007a 0E20     		movs	r0, #14
 1368 007c FFF7FEFF 		bl	ADPD1080_WriteReg
 1369              	.LVL210:
 611:ADPD1080.c    ****     ADPD1080_WriteReg(0x0F,0x0000);
 1370              		.loc 1 611 0
 1371 0080 0021     		movs	r1, #0
 1372 0082 0F20     		movs	r0, #15
 1373 0084 FFF7FEFF 		bl	ADPD1080_WriteReg
 1374              	.LVL211:
 612:ADPD1080.c    ****     ADPD1080_WriteReg(0x10,0x0000);
ARM GAS  C:\Users\thoma\AppData\Local\Temp\cceCswqS.s 			page 36


 1375              		.loc 1 612 0
 1376 0088 0021     		movs	r1, #0
 1377 008a 1020     		movs	r0, #16
 1378 008c FFF7FEFF 		bl	ADPD1080_WriteReg
 1379              	.LVL212:
 613:ADPD1080.c    ****     ADPD1080_WriteReg(0x11,0x3131);
 1380              		.loc 1 613 0
 1381 0090 43F23111 		movw	r1, #12593
 1382 0094 1120     		movs	r0, #17
 1383 0096 FFF7FEFF 		bl	ADPD1080_WriteReg
 1384              	.LVL213:
 614:ADPD1080.c    ****     ADPD1080_WriteReg(0x12,0x0050);
 1385              		.loc 1 614 0
 1386 009a 5021     		movs	r1, #80
 1387 009c 1220     		movs	r0, #18
 1388 009e FFF7FEFF 		bl	ADPD1080_WriteReg
 1389              	.LVL214:
 615:ADPD1080.c    ****     ADPD1080_WriteReg(0x13,0x0320);
 1390              		.loc 1 615 0
 1391 00a2 4FF44871 		mov	r1, #800
 1392 00a6 1320     		movs	r0, #19
 1393 00a8 FFF7FEFF 		bl	ADPD1080_WriteReg
 1394              	.LVL215:
 616:ADPD1080.c    ****     ADPD1080_WriteReg(0x14,0x0336);
 1395              		.loc 1 616 0
 1396 00ac 40F23631 		movw	r1, #822
 1397 00b0 1420     		movs	r0, #20
 1398 00b2 FFF7FEFF 		bl	ADPD1080_WriteReg
 1399              	.LVL216:
 617:ADPD1080.c    ****     ADPD1080_WriteReg(0x15,0x0110);
 1400              		.loc 1 617 0
 1401 00b6 4FF48871 		mov	r1, #272
 1402 00ba 1520     		movs	r0, #21
 1403 00bc FFF7FEFF 		bl	ADPD1080_WriteReg
 1404              	.LVL217:
 618:ADPD1080.c    ****     ADPD1080_WriteReg(0x16,0x3000);
 1405              		.loc 1 618 0
 1406 00c0 4FF44051 		mov	r1, #12288
 1407 00c4 1620     		movs	r0, #22
 1408 00c6 FFF7FEFF 		bl	ADPD1080_WriteReg
 1409              	.LVL218:
 619:ADPD1080.c    ****     ADPD1080_WriteReg(0x17,0x0000);
 1410              		.loc 1 619 0
 1411 00ca 0021     		movs	r1, #0
 1412 00cc 1720     		movs	r0, #23
 1413 00ce FFF7FEFF 		bl	ADPD1080_WriteReg
 1414              	.LVL219:
 620:ADPD1080.c    ****     ADPD1080_WriteReg(0x18,0x0000);
 1415              		.loc 1 620 0
 1416 00d2 0021     		movs	r1, #0
 1417 00d4 1820     		movs	r0, #24
 1418 00d6 FFF7FEFF 		bl	ADPD1080_WriteReg
 1419              	.LVL220:
 621:ADPD1080.c    ****     ADPD1080_WriteReg(0x19,0x0000);
 1420              		.loc 1 621 0
 1421 00da 0021     		movs	r1, #0
 1422 00dc 1920     		movs	r0, #25
ARM GAS  C:\Users\thoma\AppData\Local\Temp\cceCswqS.s 			page 37


 1423 00de FFF7FEFF 		bl	ADPD1080_WriteReg
 1424              	.LVL221:
 622:ADPD1080.c    ****     ADPD1080_WriteReg(0x1A,0x0000);
 1425              		.loc 1 622 0
 1426 00e2 0021     		movs	r1, #0
 1427 00e4 1A20     		movs	r0, #26
 1428 00e6 FFF7FEFF 		bl	ADPD1080_WriteReg
 1429              	.LVL222:
 623:ADPD1080.c    ****     ADPD1080_WriteReg(0x1B,0x0000);
 1430              		.loc 1 623 0
 1431 00ea 0021     		movs	r1, #0
 1432 00ec 1B20     		movs	r0, #27
 1433 00ee FFF7FEFF 		bl	ADPD1080_WriteReg
 1434              	.LVL223:
 624:ADPD1080.c    ****     ADPD1080_WriteReg(0x1C,0x0000);
 1435              		.loc 1 624 0
 1436 00f2 0021     		movs	r1, #0
 1437 00f4 1C20     		movs	r0, #28
 1438 00f6 FFF7FEFF 		bl	ADPD1080_WriteReg
 1439              	.LVL224:
 625:ADPD1080.c    ****     ADPD1080_WriteReg(0x1D,0x0000);
 1440              		.loc 1 625 0
 1441 00fa 0021     		movs	r1, #0
 1442 00fc 1D20     		movs	r0, #29
 1443 00fe FFF7FEFF 		bl	ADPD1080_WriteReg
 1444              	.LVL225:
 626:ADPD1080.c    ****     ADPD1080_WriteReg(0x1E,0x0000);
 1445              		.loc 1 626 0
 1446 0102 0021     		movs	r1, #0
 1447 0104 1E20     		movs	r0, #30
 1448 0106 FFF7FEFF 		bl	ADPD1080_WriteReg
 1449              	.LVL226:
 627:ADPD1080.c    ****     ADPD1080_WriteReg(0x1F,0x0000);
 1450              		.loc 1 627 0
 1451 010a 0021     		movs	r1, #0
 1452 010c 1F20     		movs	r0, #31
 1453 010e FFF7FEFF 		bl	ADPD1080_WriteReg
 1454              	.LVL227:
 628:ADPD1080.c    ****     ADPD1080_WriteReg(0x20,0x0000);
 1455              		.loc 1 628 0
 1456 0112 0021     		movs	r1, #0
 1457 0114 2020     		movs	r0, #32
 1458 0116 FFF7FEFF 		bl	ADPD1080_WriteReg
 1459              	.LVL228:
 629:ADPD1080.c    ****     ADPD1080_WriteReg(0x21,0x0000);
 1460              		.loc 1 629 0
 1461 011a 0021     		movs	r1, #0
 1462 011c 2120     		movs	r0, #33
 1463 011e FFF7FEFF 		bl	ADPD1080_WriteReg
 1464              	.LVL229:
 630:ADPD1080.c    ****     ADPD1080_WriteReg(0x26,0x0000);
 1465              		.loc 1 630 0
 1466 0122 0021     		movs	r1, #0
 1467 0124 2620     		movs	r0, #38
 1468 0126 FFF7FEFF 		bl	ADPD1080_WriteReg
 1469              	.LVL230:
 631:ADPD1080.c    ****     ADPD1080_WriteReg(0x27,0x0700);
ARM GAS  C:\Users\thoma\AppData\Local\Temp\cceCswqS.s 			page 38


 1470              		.loc 1 631 0
 1471 012a 4FF4E061 		mov	r1, #1792
 1472 012e 2720     		movs	r0, #39
 1473 0130 FFF7FEFF 		bl	ADPD1080_WriteReg
 1474              	.LVL231:
 632:ADPD1080.c    ****     ADPD1080_WriteReg(0x28,0x0000);
 1475              		.loc 1 632 0
 1476 0134 0021     		movs	r1, #0
 1477 0136 2820     		movs	r0, #40
 1478 0138 FFF7FEFF 		bl	ADPD1080_WriteReg
 1479              	.LVL232:
 633:ADPD1080.c    ****     ADPD1080_WriteReg(0x29,0x4000);
 1480              		.loc 1 633 0
 1481 013c 4FF48041 		mov	r1, #16384
 1482 0140 2920     		movs	r0, #41
 1483 0142 FFF7FEFF 		bl	ADPD1080_WriteReg
 1484              	.LVL233:
 634:ADPD1080.c    ****     ADPD1080_WriteReg(0x2A,0x0000);
 1485              		.loc 1 634 0
 1486 0146 0021     		movs	r1, #0
 1487 0148 2A20     		movs	r0, #42
 1488 014a FFF7FEFF 		bl	ADPD1080_WriteReg
 1489              	.LVL234:
 635:ADPD1080.c    ****     ADPD1080_WriteReg(0x2B,0x0000);
 1490              		.loc 1 635 0
 1491 014e 0021     		movs	r1, #0
 1492 0150 2B20     		movs	r0, #43
 1493 0152 FFF7FEFF 		bl	ADPD1080_WriteReg
 1494              	.LVL235:
 636:ADPD1080.c    ****     ADPD1080_WriteReg(0x2C,0x0000);
 1495              		.loc 1 636 0
 1496 0156 0021     		movs	r1, #0
 1497 0158 2C20     		movs	r0, #44
 1498 015a FFF7FEFF 		bl	ADPD1080_WriteReg
 1499              	.LVL236:
 637:ADPD1080.c    ****     ADPD1080_WriteReg(0x2D,0x0000);
 1500              		.loc 1 637 0
 1501 015e 0021     		movs	r1, #0
 1502 0160 2D20     		movs	r0, #45
 1503 0162 FFF7FEFF 		bl	ADPD1080_WriteReg
 1504              	.LVL237:
 638:ADPD1080.c    ****     ADPD1080_WriteReg(0x2E,0x0000);
 1505              		.loc 1 638 0
 1506 0166 0021     		movs	r1, #0
 1507 0168 2E20     		movs	r0, #46
 1508 016a FFF7FEFF 		bl	ADPD1080_WriteReg
 1509              	.LVL238:
 639:ADPD1080.c    ****     ADPD1080_WriteReg(0x2F,0x0000);
 1510              		.loc 1 639 0
 1511 016e 0021     		movs	r1, #0
 1512 0170 2F20     		movs	r0, #47
 1513 0172 FFF7FEFF 		bl	ADPD1080_WriteReg
 1514              	.LVL239:
 640:ADPD1080.c    ****     ADPD1080_WriteReg(0x30,0x0219);
 1515              		.loc 1 640 0
 1516 0176 40F21921 		movw	r1, #537
 1517 017a 3020     		movs	r0, #48
ARM GAS  C:\Users\thoma\AppData\Local\Temp\cceCswqS.s 			page 39


 1518 017c FFF7FEFF 		bl	ADPD1080_WriteReg
 1519              	.LVL240:
 641:ADPD1080.c    ****     ADPD1080_WriteReg(0x31,0x7F1E);
 1520              		.loc 1 641 0
 1521 0180 47F61E71 		movw	r1, #32542
 1522 0184 3120     		movs	r0, #49
 1523 0186 FFF7FEFF 		bl	ADPD1080_WriteReg
 1524              	.LVL241:
 642:ADPD1080.c    ****     ADPD1080_WriteReg(0x32,0x0320);
 1525              		.loc 1 642 0
 1526 018a 4FF44871 		mov	r1, #800
 1527 018e 3220     		movs	r0, #50
 1528 0190 FFF7FEFF 		bl	ADPD1080_WriteReg
 1529              	.LVL242:
 643:ADPD1080.c    ****     ADPD1080_WriteReg(0x33,0x0818);
 1530              		.loc 1 643 0
 1531 0194 40F61801 		movw	r1, #2072
 1532 0198 3320     		movs	r0, #51
 1533 019a FFF7FEFF 		bl	ADPD1080_WriteReg
 1534              	.LVL243:
 644:ADPD1080.c    ****     ADPD1080_WriteReg(0x34,0x0000);
 1535              		.loc 1 644 0
 1536 019e 0021     		movs	r1, #0
 1537 01a0 3420     		movs	r0, #52
 1538 01a2 FFF7FEFF 		bl	ADPD1080_WriteReg
 1539              	.LVL244:
 645:ADPD1080.c    ****     ADPD1080_WriteReg(0x35,0x0219);
 1540              		.loc 1 645 0
 1541 01a6 40F21921 		movw	r1, #537
 1542 01aa 3520     		movs	r0, #53
 1543 01ac FFF7FEFF 		bl	ADPD1080_WriteReg
 1544              	.LVL245:
 646:ADPD1080.c    ****     ADPD1080_WriteReg(0x36,0x7F1E);
 1545              		.loc 1 646 0
 1546 01b0 47F61E71 		movw	r1, #32542
 1547 01b4 3620     		movs	r0, #54
 1548 01b6 FFF7FEFF 		bl	ADPD1080_WriteReg
 1549              	.LVL246:
 647:ADPD1080.c    ****     ADPD1080_WriteReg(0x37,0x0000);
 1550              		.loc 1 647 0
 1551 01ba 0021     		movs	r1, #0
 1552 01bc 3720     		movs	r0, #55
 1553 01be FFF7FEFF 		bl	ADPD1080_WriteReg
 1554              	.LVL247:
 648:ADPD1080.c    ****     ADPD1080_WriteReg(0x38,0x0000);
 1555              		.loc 1 648 0
 1556 01c2 0021     		movs	r1, #0
 1557 01c4 3820     		movs	r0, #56
 1558 01c6 FFF7FEFF 		bl	ADPD1080_WriteReg
 1559              	.LVL248:
 649:ADPD1080.c    ****     ADPD1080_WriteReg(0x39,0x1A04);
 1560              		.loc 1 649 0
 1561 01ca 41F60421 		movw	r1, #6660
 1562 01ce 3920     		movs	r0, #57
 1563 01d0 FFF7FEFF 		bl	ADPD1080_WriteReg
 1564              	.LVL249:
 650:ADPD1080.c    ****     ADPD1080_WriteReg(0x3A,0x22FC);
ARM GAS  C:\Users\thoma\AppData\Local\Temp\cceCswqS.s 			page 40


 1565              		.loc 1 650 0
 1566 01d4 42F2FC21 		movw	r1, #8956
 1567 01d8 3A20     		movs	r0, #58
 1568 01da FFF7FEFF 		bl	ADPD1080_WriteReg
 1569              	.LVL250:
 651:ADPD1080.c    ****     ADPD1080_WriteReg(0x3B,0x1A04);
 1570              		.loc 1 651 0
 1571 01de 41F60421 		movw	r1, #6660
 1572 01e2 3B20     		movs	r0, #59
 1573 01e4 FFF7FEFF 		bl	ADPD1080_WriteReg
 1574              	.LVL251:
 652:ADPD1080.c    ****     ADPD1080_WriteReg(0x3C,0x7006);
 1575              		.loc 1 652 0
 1576 01e8 47F20601 		movw	r1, #28678
 1577 01ec 3C20     		movs	r0, #60
 1578 01ee FFF7FEFF 		bl	ADPD1080_WriteReg
 1579              	.LVL252:
 653:ADPD1080.c    ****     ADPD1080_WriteReg(0x3D,0x0000);
 1580              		.loc 1 653 0
 1581 01f2 0021     		movs	r1, #0
 1582 01f4 3D20     		movs	r0, #61
 1583 01f6 FFF7FEFF 		bl	ADPD1080_WriteReg
 1584              	.LVL253:
 654:ADPD1080.c    ****     ADPD1080_WriteReg(0x3E,0x0320);
 1585              		.loc 1 654 0
 1586 01fa 4FF44871 		mov	r1, #800
 1587 01fe 3E20     		movs	r0, #62
 1588 0200 FFF7FEFF 		bl	ADPD1080_WriteReg
 1589              	.LVL254:
 655:ADPD1080.c    ****     ADPD1080_WriteReg(0x3F,0x0320);
 1590              		.loc 1 655 0
 1591 0204 4FF44871 		mov	r1, #800
 1592 0208 3F20     		movs	r0, #63
 1593 020a FFF7FEFF 		bl	ADPD1080_WriteReg
 1594              	.LVL255:
 656:ADPD1080.c    ****     ADPD1080_WriteReg(0x40,0x1010);
 1595              		.loc 1 656 0
 1596 020e 41F21001 		movw	r1, #4112
 1597 0212 4020     		movs	r0, #64
 1598 0214 FFF7FEFF 		bl	ADPD1080_WriteReg
 1599              	.LVL256:
 657:ADPD1080.c    ****     ADPD1080_WriteReg(0x41,0x004C);
 1600              		.loc 1 657 0
 1601 0218 4C21     		movs	r1, #76
 1602 021a 4120     		movs	r0, #65
 1603 021c FFF7FEFF 		bl	ADPD1080_WriteReg
 1604              	.LVL257:
 658:ADPD1080.c    ****     ADPD1080_WriteReg(0x42,0x1C37);
 1605              		.loc 1 658 0
 1606 0220 41F63741 		movw	r1, #7223
 1607 0224 4220     		movs	r0, #66
 1608 0226 FFF7FEFF 		bl	ADPD1080_WriteReg
 1609              	.LVL258:
 659:ADPD1080.c    ****     ADPD1080_WriteReg(0x43,0xADA5);
 1610              		.loc 1 659 0
 1611 022a 4AF6A551 		movw	r1, #44453
 1612 022e 4320     		movs	r0, #67
ARM GAS  C:\Users\thoma\AppData\Local\Temp\cceCswqS.s 			page 41


 1613 0230 FFF7FEFF 		bl	ADPD1080_WriteReg
 1614              	.LVL259:
 660:ADPD1080.c    ****     ADPD1080_WriteReg(0x44,0x1C37);
 1615              		.loc 1 660 0
 1616 0234 41F63741 		movw	r1, #7223
 1617 0238 4420     		movs	r0, #68
 1618 023a FFF7FEFF 		bl	ADPD1080_WriteReg
 1619              	.LVL260:
 661:ADPD1080.c    ****     ADPD1080_WriteReg(0x45,0xADA5);
 1620              		.loc 1 661 0
 1621 023e 4AF6A551 		movw	r1, #44453
 1622 0242 4520     		movs	r0, #69
 1623 0244 FFF7FEFF 		bl	ADPD1080_WriteReg
 1624              	.LVL261:
 662:ADPD1080.c    ****     ADPD1080_WriteReg(0x46,0x0000);
 1625              		.loc 1 662 0
 1626 0248 0021     		movs	r1, #0
 1627 024a 4620     		movs	r0, #70
 1628 024c FFF7FEFF 		bl	ADPD1080_WriteReg
 1629              	.LVL262:
 663:ADPD1080.c    ****     ADPD1080_WriteReg(0x47,0x0080);
 1630              		.loc 1 663 0
 1631 0250 8021     		movs	r1, #128
 1632 0252 4720     		movs	r0, #71
 1633 0254 FFF7FEFF 		bl	ADPD1080_WriteReg
 1634              	.LVL263:
 664:ADPD1080.c    ****     ADPD1080_WriteReg(0x48,0x0000);
 1635              		.loc 1 664 0
 1636 0258 0021     		movs	r1, #0
 1637 025a 4820     		movs	r0, #72
 1638 025c FFF7FEFF 		bl	ADPD1080_WriteReg
 1639              	.LVL264:
 665:ADPD1080.c    ****     ADPD1080_WriteReg(0x49,0x0000);
 1640              		.loc 1 665 0
 1641 0260 0021     		movs	r1, #0
 1642 0262 4920     		movs	r0, #73
 1643 0264 FFF7FEFF 		bl	ADPD1080_WriteReg
 1644              	.LVL265:
 666:ADPD1080.c    ****     ADPD1080_WriteReg(0x4A,0x0000);
 1645              		.loc 1 666 0
 1646 0268 0021     		movs	r1, #0
 1647 026a 4A20     		movs	r0, #74
 1648 026c FFF7FEFF 		bl	ADPD1080_WriteReg
 1649              	.LVL266:
 667:ADPD1080.c    ****     ADPD1080_WriteReg(0x4B,0x2695);
 1650              		.loc 1 667 0
 1651 0270 42F29561 		movw	r1, #9877
 1652 0274 4B20     		movs	r0, #75
 1653 0276 FFF7FEFF 		bl	ADPD1080_WriteReg
 1654              	.LVL267:
 668:ADPD1080.c    ****     ADPD1080_WriteReg(0x4C,0x0004);
 1655              		.loc 1 668 0
 1656 027a 0421     		movs	r1, #4
 1657 027c 4C20     		movs	r0, #76
 1658 027e FFF7FEFF 		bl	ADPD1080_WriteReg
 1659              	.LVL268:
 669:ADPD1080.c    ****     ADPD1080_WriteReg(0x4D,0x0098);
ARM GAS  C:\Users\thoma\AppData\Local\Temp\cceCswqS.s 			page 42


 1660              		.loc 1 669 0
 1661 0282 9821     		movs	r1, #152
 1662 0284 4D20     		movs	r0, #77
 1663 0286 FFF7FEFF 		bl	ADPD1080_WriteReg
 1664              	.LVL269:
 670:ADPD1080.c    ****     ADPD1080_WriteReg(0x4E,0x7040);
 1665              		.loc 1 670 0
 1666 028a 47F24001 		movw	r1, #28736
 1667 028e 4E20     		movs	r0, #78
 1668 0290 FFF7FEFF 		bl	ADPD1080_WriteReg
 1669              	.LVL270:
 671:ADPD1080.c    ****     ADPD1080_WriteReg(0x4F,0x2090);
 1670              		.loc 1 671 0
 1671 0294 42F29001 		movw	r1, #8336
 1672 0298 4F20     		movs	r0, #79
 1673 029a FFF7FEFF 		bl	ADPD1080_WriteReg
 1674              	.LVL271:
 672:ADPD1080.c    ****     ADPD1080_WriteReg(0x50,0x0000);
 1675              		.loc 1 672 0
 1676 029e 0021     		movs	r1, #0
 1677 02a0 5020     		movs	r0, #80
 1678 02a2 FFF7FEFF 		bl	ADPD1080_WriteReg
 1679              	.LVL272:
 673:ADPD1080.c    ****     ADPD1080_WriteReg(0x51,0x0000);
 1680              		.loc 1 673 0
 1681 02a6 0021     		movs	r1, #0
 1682 02a8 5120     		movs	r0, #81
 1683 02aa FFF7FEFF 		bl	ADPD1080_WriteReg
 1684              	.LVL273:
 674:ADPD1080.c    ****     ADPD1080_WriteReg(0x52,0x0040);
 1685              		.loc 1 674 0
 1686 02ae 4021     		movs	r1, #64
 1687 02b0 5220     		movs	r0, #82
 1688 02b2 FFF7FEFF 		bl	ADPD1080_WriteReg
 1689              	.LVL274:
 675:ADPD1080.c    ****     ADPD1080_WriteReg(0x53,0xE400);
 1690              		.loc 1 675 0
 1691 02b6 4FF46441 		mov	r1, #58368
 1692 02ba 5320     		movs	r0, #83
 1693 02bc FFF7FEFF 		bl	ADPD1080_WriteReg
 1694              	.LVL275:
 676:ADPD1080.c    ****     ADPD1080_WriteReg(0x54,0x0AA0);
 1695              		.loc 1 676 0
 1696 02c0 4FF42A61 		mov	r1, #2720
 1697 02c4 5420     		movs	r0, #84
 1698 02c6 FFF7FEFF 		bl	ADPD1080_WriteReg
 1699              	.LVL276:
 677:ADPD1080.c    ****     ADPD1080_WriteReg(0x55,0x0000);
 1700              		.loc 1 677 0
 1701 02ca 0021     		movs	r1, #0
 1702 02cc 5520     		movs	r0, #85
 1703 02ce FFF7FEFF 		bl	ADPD1080_WriteReg
 1704              	.LVL277:
 678:ADPD1080.c    ****     ADPD1080_WriteReg(0x56,0x0000);
 1705              		.loc 1 678 0
 1706 02d2 0021     		movs	r1, #0
 1707 02d4 5620     		movs	r0, #86
ARM GAS  C:\Users\thoma\AppData\Local\Temp\cceCswqS.s 			page 43


 1708 02d6 FFF7FEFF 		bl	ADPD1080_WriteReg
 1709              	.LVL278:
 679:ADPD1080.c    ****     ADPD1080_WriteReg(0x57,0x0000);
 1710              		.loc 1 679 0
 1711 02da 0021     		movs	r1, #0
 1712 02dc 5720     		movs	r0, #87
 1713 02de FFF7FEFF 		bl	ADPD1080_WriteReg
 1714              	.LVL279:
 680:ADPD1080.c    ****     ADPD1080_WriteReg(0x58,0x0000);
 1715              		.loc 1 680 0
 1716 02e2 0021     		movs	r1, #0
 1717 02e4 5820     		movs	r0, #88
 1718 02e6 FFF7FEFF 		bl	ADPD1080_WriteReg
 1719              	.LVL280:
 681:ADPD1080.c    ****     ADPD1080_WriteReg(0x59,0x0808);
 1720              		.loc 1 681 0
 1721 02ea 40F60801 		movw	r1, #2056
 1722 02ee 5920     		movs	r0, #89
 1723 02f0 FFF7FEFF 		bl	ADPD1080_WriteReg
 1724              	.LVL281:
 682:ADPD1080.c    ****     ADPD1080_WriteReg(0x5A,0x0010);
 1725              		.loc 1 682 0
 1726 02f4 1021     		movs	r1, #16
 1727 02f6 5A20     		movs	r0, #90
 1728 02f8 FFF7FEFF 		bl	ADPD1080_WriteReg
 1729              	.LVL282:
 683:ADPD1080.c    ****     ADPD1080_WriteReg(0x5B,0x0000);
 1730              		.loc 1 683 0
 1731 02fc 0021     		movs	r1, #0
 1732 02fe 5B20     		movs	r0, #91
 1733 0300 FFF7FEFF 		bl	ADPD1080_WriteReg
 1734              	.LVL283:
 684:ADPD1080.c    ****     ADPD1080_WriteReg(0x5C,0x0000);
 1735              		.loc 1 684 0
 1736 0304 0021     		movs	r1, #0
 1737 0306 5C20     		movs	r0, #92
 1738 0308 FFF7FEFF 		bl	ADPD1080_WriteReg
 1739              	.LVL284:
 685:ADPD1080.c    ****     ADPD1080_WriteReg(0x5D,0x0000);
 1740              		.loc 1 685 0
 1741 030c 0021     		movs	r1, #0
 1742 030e 5D20     		movs	r0, #93
 1743 0310 FFF7FEFF 		bl	ADPD1080_WriteReg
 1744              	.LVL285:
 686:ADPD1080.c    ****     ADPD1080_WriteReg(0x5E,0x0808);
 1745              		.loc 1 686 0
 1746 0314 40F60801 		movw	r1, #2056
 1747 0318 5E20     		movs	r0, #94
 1748 031a FFF7FEFF 		bl	ADPD1080_WriteReg
 1749              	.LVL286:
 687:ADPD1080.c    ****     ADPD1080_WriteReg(0x5F,0x0000);
 1750              		.loc 1 687 0
 1751 031e 0021     		movs	r1, #0
 1752 0320 5F20     		movs	r0, #95
 1753 0322 FFF7FEFF 		bl	ADPD1080_WriteReg
 1754              	.LVL287:
 688:ADPD1080.c    ****     ADPD1080_WriteReg(0x60,0x0000);
ARM GAS  C:\Users\thoma\AppData\Local\Temp\cceCswqS.s 			page 44


 1755              		.loc 1 688 0
 1756 0326 0021     		movs	r1, #0
 1757 0328 6020     		movs	r0, #96
 1758 032a FFF7FEFF 		bl	ADPD1080_WriteReg
 1759              	.LVL288:
 689:ADPD1080.c    ****     ADPD1080_WriteReg(0x61,0x0000);
 1760              		.loc 1 689 0
 1761 032e 0021     		movs	r1, #0
 1762 0330 6120     		movs	r0, #97
 1763 0332 FFF7FEFF 		bl	ADPD1080_WriteReg
 1764              	.LVL289:
 690:ADPD1080.c    ****     ADPD1080_WriteReg(0x62,0x0000);
 1765              		.loc 1 690 0
 1766 0336 0021     		movs	r1, #0
 1767 0338 6220     		movs	r0, #98
 1768 033a FFF7FEFF 		bl	ADPD1080_WriteReg
 1769              	.LVL290:
 691:ADPD1080.c    ****     ADPD1080_WriteReg(0x63,0x0000);
 1770              		.loc 1 691 0
 1771 033e 0021     		movs	r1, #0
 1772 0340 6320     		movs	r0, #99
 1773 0342 FFF7FEFF 		bl	ADPD1080_WriteReg
 1774              	.LVL291:
 692:ADPD1080.c    ****     ADPD1080_WriteReg(0x64,0x0000);
 1775              		.loc 1 692 0
 1776 0346 0021     		movs	r1, #0
 1777 0348 6420     		movs	r0, #100
 1778 034a FFF7FEFF 		bl	ADPD1080_WriteReg
 1779              	.LVL292:
 693:ADPD1080.c    ****     ADPD1080_WriteReg(0x65,0x0000);
 1780              		.loc 1 693 0
 1781 034e 0021     		movs	r1, #0
 1782 0350 6520     		movs	r0, #101
 1783 0352 FFF7FEFF 		bl	ADPD1080_WriteReg
 1784              	.LVL293:
 694:ADPD1080.c    ****     ADPD1080_WriteReg(0x66,0x0000);
 1785              		.loc 1 694 0
 1786 0356 0021     		movs	r1, #0
 1787 0358 6620     		movs	r0, #102
 1788 035a FFF7FEFF 		bl	ADPD1080_WriteReg
 1789              	.LVL294:
 695:ADPD1080.c    ****     ADPD1080_WriteReg(0x67,0x0000);
 1790              		.loc 1 695 0
 1791 035e 0021     		movs	r1, #0
 1792 0360 6720     		movs	r0, #103
 1793 0362 FFF7FEFF 		bl	ADPD1080_WriteReg
 1794              	.LVL295:
 696:ADPD1080.c    ****     ADPD1080_WriteReg(0x68,0x0000);
 1795              		.loc 1 696 0
 1796 0366 0021     		movs	r1, #0
 1797 0368 6820     		movs	r0, #104
 1798 036a FFF7FEFF 		bl	ADPD1080_WriteReg
 1799              	.LVL296:
 697:ADPD1080.c    ****     ADPD1080_WriteReg(0x69,0x0000);
 1800              		.loc 1 697 0
 1801 036e 0021     		movs	r1, #0
 1802 0370 6920     		movs	r0, #105
ARM GAS  C:\Users\thoma\AppData\Local\Temp\cceCswqS.s 			page 45


 1803 0372 FFF7FEFF 		bl	ADPD1080_WriteReg
 1804              	.LVL297:
 698:ADPD1080.c    ****     ADPD1080_WriteReg(0x6A,0x0000);
 1805              		.loc 1 698 0
 1806 0376 0021     		movs	r1, #0
 1807 0378 6A20     		movs	r0, #106
 1808 037a FFF7FEFF 		bl	ADPD1080_WriteReg
 1809              	.LVL298:
 699:ADPD1080.c    ****     ADPD1080_WriteReg(0x6B,0x0000);
 1810              		.loc 1 699 0
 1811 037e 0021     		movs	r1, #0
 1812 0380 6B20     		movs	r0, #107
 1813 0382 FFF7FEFF 		bl	ADPD1080_WriteReg
 1814              	.LVL299:
 700:ADPD1080.c    ****     ADPD1080_WriteReg(0x6C,0x0000);
 1815              		.loc 1 700 0
 1816 0386 0021     		movs	r1, #0
 1817 0388 6C20     		movs	r0, #108
 1818 038a FFF7FEFF 		bl	ADPD1080_WriteReg
 1819              	.LVL300:
 701:ADPD1080.c    ****     ADPD1080_WriteReg(0x6D,0x0000);
 1820              		.loc 1 701 0
 1821 038e 0021     		movs	r1, #0
 1822 0390 6D20     		movs	r0, #109
 1823 0392 FFF7FEFF 		bl	ADPD1080_WriteReg
 1824              	.LVL301:
 702:ADPD1080.c    ****     ADPD1080_WriteReg(0x6E,0x0000);
 1825              		.loc 1 702 0
 1826 0396 0021     		movs	r1, #0
 1827 0398 6E20     		movs	r0, #110
 1828 039a FFF7FEFF 		bl	ADPD1080_WriteReg
 1829              	.LVL302:
 703:ADPD1080.c    ****     ADPD1080_WriteReg(0x6F,0x0000);
 1830              		.loc 1 703 0
 1831 039e 0021     		movs	r1, #0
 1832 03a0 6F20     		movs	r0, #111
 1833 03a2 FFF7FEFF 		bl	ADPD1080_WriteReg
 1834              	.LVL303:
 704:ADPD1080.c    ****     ADPD1080_WriteReg(0x70,0x0000);
 1835              		.loc 1 704 0
 1836 03a6 0021     		movs	r1, #0
 1837 03a8 7020     		movs	r0, #112
 1838 03aa FFF7FEFF 		bl	ADPD1080_WriteReg
 1839              	.LVL304:
 705:ADPD1080.c    ****     ADPD1080_WriteReg(0x71,0x0000);
 1840              		.loc 1 705 0
 1841 03ae 0021     		movs	r1, #0
 1842 03b0 7120     		movs	r0, #113
 1843 03b2 FFF7FEFF 		bl	ADPD1080_WriteReg
 1844              	.LVL305:
 706:ADPD1080.c    ****     ADPD1080_WriteReg(0x72,0x0000);
 1845              		.loc 1 706 0
 1846 03b6 0021     		movs	r1, #0
 1847 03b8 7220     		movs	r0, #114
 1848 03ba FFF7FEFF 		bl	ADPD1080_WriteReg
 1849              	.LVL306:
 707:ADPD1080.c    ****     ADPD1080_WriteReg(0x73,0x0000);
ARM GAS  C:\Users\thoma\AppData\Local\Temp\cceCswqS.s 			page 46


 1850              		.loc 1 707 0
 1851 03be 0021     		movs	r1, #0
 1852 03c0 7320     		movs	r0, #115
 1853 03c2 FFF7FEFF 		bl	ADPD1080_WriteReg
 1854              	.LVL307:
 708:ADPD1080.c    ****     ADPD1080_WriteReg(0x74,0x0000);
 1855              		.loc 1 708 0
 1856 03c6 0021     		movs	r1, #0
 1857 03c8 7420     		movs	r0, #116
 1858 03ca FFF7FEFF 		bl	ADPD1080_WriteReg
 1859              	.LVL308:
 709:ADPD1080.c    ****     ADPD1080_WriteReg(0x75,0x0000);
 1860              		.loc 1 709 0
 1861 03ce 0021     		movs	r1, #0
 1862 03d0 7520     		movs	r0, #117
 1863 03d2 FFF7FEFF 		bl	ADPD1080_WriteReg
 1864              	.LVL309:
 710:ADPD1080.c    ****     ADPD1080_WriteReg(0x76,0x0000);
 1865              		.loc 1 710 0
 1866 03d6 0021     		movs	r1, #0
 1867 03d8 7620     		movs	r0, #118
 1868 03da FFF7FEFF 		bl	ADPD1080_WriteReg
 1869              	.LVL310:
 711:ADPD1080.c    ****     ADPD1080_WriteReg(0x77,0x0000);
 1870              		.loc 1 711 0
 1871 03de 0021     		movs	r1, #0
 1872 03e0 7720     		movs	r0, #119
 1873 03e2 FFF7FEFF 		bl	ADPD1080_WriteReg
 1874              	.LVL311:
 712:ADPD1080.c    ****     ADPD1080_WriteReg(0x78,0x0000);
 1875              		.loc 1 712 0
 1876 03e6 0021     		movs	r1, #0
 1877 03e8 7820     		movs	r0, #120
 1878 03ea FFF7FEFF 		bl	ADPD1080_WriteReg
 1879              	.LVL312:
 713:ADPD1080.c    ****     ADPD1080_WriteReg(0x79,0x0000);
 1880              		.loc 1 713 0
 1881 03ee 0021     		movs	r1, #0
 1882 03f0 7920     		movs	r0, #121
 1883 03f2 FFF7FEFF 		bl	ADPD1080_WriteReg
 1884              	.LVL313:
 714:ADPD1080.c    ****     ADPD1080_WriteReg(0x7A,0x0000);
 1885              		.loc 1 714 0
 1886 03f6 0021     		movs	r1, #0
 1887 03f8 7A20     		movs	r0, #122
 1888 03fa FFF7FEFF 		bl	ADPD1080_WriteReg
 1889              	.LVL314:
 715:ADPD1080.c    ****     ADPD1080_WriteReg(0x7B,0x0000);
 1890              		.loc 1 715 0
 1891 03fe 0021     		movs	r1, #0
 1892 0400 7B20     		movs	r0, #123
 1893 0402 FFF7FEFF 		bl	ADPD1080_WriteReg
 1894              	.LVL315:
 716:ADPD1080.c    ****     ADPD1080_WriteReg(0x7C,0x0000);
 1895              		.loc 1 716 0
 1896 0406 0021     		movs	r1, #0
 1897 0408 7C20     		movs	r0, #124
ARM GAS  C:\Users\thoma\AppData\Local\Temp\cceCswqS.s 			page 47


 1898 040a FFF7FEFF 		bl	ADPD1080_WriteReg
 1899              	.LVL316:
 717:ADPD1080.c    ****     ADPD1080_WriteReg(0x7D,0x0000);
 1900              		.loc 1 717 0
 1901 040e 0021     		movs	r1, #0
 1902 0410 7D20     		movs	r0, #125
 1903 0412 FFF7FEFF 		bl	ADPD1080_WriteReg
 1904              	.LVL317:
 718:ADPD1080.c    ****     ADPD1080_WriteReg(0x7E,0x0000);
 1905              		.loc 1 718 0
 1906 0416 0021     		movs	r1, #0
 1907 0418 7E20     		movs	r0, #126
 1908 041a FFF7FEFF 		bl	ADPD1080_WriteReg
 1909              	.LVL318:
 719:ADPD1080.c    ****     ADPD1080_WriteReg(0x7F,0x0000);
 1910              		.loc 1 719 0
 1911 041e 0021     		movs	r1, #0
 1912 0420 7F20     		movs	r0, #127
 1913 0422 FFF7FEFF 		bl	ADPD1080_WriteReg
 1914              	.LVL319:
 1915 0426 08BD     		pop	{r3, pc}
 1916              		.cfi_endproc
 1917              	.LFE561:
 1918              		.size	register_settings, .-register_settings
 1919              		.section	.text.turbidity_Init,"ax",%progbits
 1920              		.align	2
 1921              		.global	turbidity_Init
 1922              		.thumb
 1923              		.thumb_func
 1924              		.type	turbidity_Init, %function
 1925              	turbidity_Init:
 1926              	.LFB557:
 399:ADPD1080.c    ****     
 1927              		.loc 1 399 0
 1928              		.cfi_startproc
 1929              		@ args = 0, pretend = 0, frame = 16
 1930              		@ frame_needed = 0, uses_anonymous_args = 0
 1931 0000 00B5     		push	{lr}
 1932              		.cfi_def_cfa_offset 4
 1933              		.cfi_offset 14, -4
 1934 0002 85B0     		sub	sp, sp, #20
 1935              		.cfi_def_cfa_offset 24
 401:ADPD1080.c    ****     ADPD1080_Reset();
 1936              		.loc 1 401 0
 1937 0004 0120     		movs	r0, #1
 1938 0006 FFF7FEFF 		bl	ADPD1080_SetOperationMode
 1939              	.LVL320:
 402:ADPD1080.c    ****     ADPD1080_SetOperationMode(PROGRAM);  // Set to program mode
 1940              		.loc 1 402 0
 1941 000a FFF7FEFF 		bl	ADPD1080_Reset
 1942              	.LVL321:
 403:ADPD1080.c    ****     register_settings();
 1943              		.loc 1 403 0
 1944 000e 0120     		movs	r0, #1
 1945 0010 FFF7FEFF 		bl	ADPD1080_SetOperationMode
 1946              	.LVL322:
 404:ADPD1080.c    ****     
ARM GAS  C:\Users\thoma\AppData\Local\Temp\cceCswqS.s 			page 48


 1947              		.loc 1 404 0
 1948 0014 FFF7FEFF 		bl	register_settings
 1949              	.LVL323:
 406:ADPD1080.c    ****     uint16_t clkRegValue = ADPD1080_ReadReg(ADPD1080_SAMPLE_CLK);
 1950              		.loc 1 406 0
 1951 0018 0120     		movs	r0, #1
 1952 001a FFF7FEFF 		bl	ADPD1080_Set32KCLK
 1953              	.LVL324:
 407:ADPD1080.c    ****     printf("Clk Reg Value: 0x%x\r\n", clkRegValue);
 1954              		.loc 1 407 0
 1955 001e 4B20     		movs	r0, #75
 1956 0020 FFF7FEFF 		bl	ADPD1080_ReadReg
 1957              	.LVL325:
 408:ADPD1080.c    ****     ADPD1080_SetTimeSlotSwitch(PD_1_4_CONNECTED, PD_1_4_CONNECTED); // Select photodiodes 1-4, data
 1958              		.loc 1 408 0
 1959 0024 0146     		mov	r1, r0
 1960 0026 4748     		ldr	r0, .L75
 1961              	.LVL326:
 1962 0028 FFF7FEFF 		bl	printf
 1963              	.LVL327:
 409:ADPD1080.c    ****     
 1964              		.loc 1 409 0
 1965 002c 0521     		movs	r1, #5
 1966 002e 0846     		mov	r0, r1
 1967 0030 FFF7FEFF 		bl	ADPD1080_SetTimeSlotSwitch
 1968              	.LVL328:
 412:ADPD1080.c    ****     ADPD1080_SelectLED(LEDX2, SLOTB);
 1969              		.loc 1 412 0
 1970 0034 0021     		movs	r1, #0
 1971 0036 0220     		movs	r0, #2
 1972 0038 FFF7FEFF 		bl	ADPD1080_SelectLED
 1973              	.LVL329:
 413:ADPD1080.c    ****     
 1974              		.loc 1 413 0
 1975 003c 0121     		movs	r1, #1
 1976 003e 0846     		mov	r0, r1
 1977 0040 FFF7FEFF 		bl	ADPD1080_SelectLED
 1978              	.LVL330:
 416:ADPD1080.c    ****     ADPD1080_WriteReg(ADPD1080_ILED2_COARSE, 0x1034);  // LED configuration
 1979              		.loc 1 416 0
 1980 0044 41F23101 		movw	r1, #4145
 1981 0048 2320     		movs	r0, #35
 1982 004a FFF7FEFF 		bl	ADPD1080_WriteReg
 1983              	.LVL331:
 417:ADPD1080.c    ****     ADPD1080_WriteReg(ADPD1080_ILED_FINE, 0x67DF);  // LED fine
 1984              		.loc 1 417 0
 1985 004e 41F23401 		movw	r1, #4148
 1986 0052 2420     		movs	r0, #36
 1987 0054 FFF7FEFF 		bl	ADPD1080_WriteReg
 1988              	.LVL332:
 418:ADPD1080.c    **** 
 1989              		.loc 1 418 0
 1990 0058 46F2DF71 		movw	r1, #26591
 1991 005c 2520     		movs	r0, #37
 1992 005e FFF7FEFF 		bl	ADPD1080_WriteReg
 1993              	.LVL333:
 421:ADPD1080.c    ****     ADPD1080_SetPulseNumberPeriod(SLOTB, 127, 0x19);    // One pulse, 19 s period
ARM GAS  C:\Users\thoma\AppData\Local\Temp\cceCswqS.s 			page 49


 1994              		.loc 1 421 0
 1995 0062 1922     		movs	r2, #25
 1996 0064 7F21     		movs	r1, #127
 1997 0066 0020     		movs	r0, #0
 1998 0068 FFF7FEFF 		bl	ADPD1080_SetPulseNumberPeriod
 1999              	.LVL334:
 422:ADPD1080.c    **** 
 2000              		.loc 1 422 0
 2001 006c 1922     		movs	r2, #25
 2002 006e 7F21     		movs	r1, #127
 2003 0070 0120     		movs	r0, #1
 2004 0072 FFF7FEFF 		bl	ADPD1080_SetPulseNumberPeriod
 2005              	.LVL335:
 425:ADPD1080.c    ****     ADPD1080_SetLEDWidthOffset(SLOTB, 3, 25);           // 3 s pulse width, 23 s LED Offset
 2006              		.loc 1 425 0
 2007 0076 1922     		movs	r2, #25
 2008 0078 0321     		movs	r1, #3
 2009 007a 0020     		movs	r0, #0
 2010 007c FFF7FEFF 		bl	ADPD1080_SetLEDWidthOffset
 2011              	.LVL336:
 426:ADPD1080.c    **** 
 2012              		.loc 1 426 0
 2013 0080 1922     		movs	r2, #25
 2014 0082 0321     		movs	r1, #3
 2015 0084 0120     		movs	r0, #1
 2016 0086 FFF7FEFF 		bl	ADPD1080_SetLEDWidthOffset
 2017              	.LVL337:
 429:ADPD1080.c    ****     ADPD1080_SetAFEWidthOffset(SLOTB, 4, 16, 4);        // 3 s AFE width, 13 s offset
 2018              		.loc 1 429 0
 2019 008a 0423     		movs	r3, #4
 2020 008c 1022     		movs	r2, #16
 2021 008e 1946     		mov	r1, r3
 2022 0090 0020     		movs	r0, #0
 2023 0092 FFF7FEFF 		bl	ADPD1080_SetAFEWidthOffset
 2024              	.LVL338:
 430:ADPD1080.c    **** 
 2025              		.loc 1 430 0
 2026 0096 0423     		movs	r3, #4
 2027 0098 1022     		movs	r2, #16
 2028 009a 1946     		mov	r1, r3
 2029 009c 0120     		movs	r0, #1
 2030 009e FFF7FEFF 		bl	ADPD1080_SetAFEWidthOffset
 2031              	.LVL339:
 433:ADPD1080.c    ****     
 2032              		.loc 1 433 0
 2033 00a2 4020     		movs	r0, #64
 2034 00a4 FFF7FEFF 		bl	ADPD1080_SetADCClock
 2035              	.LVL340:
 436:ADPD1080.c    **** 
 2036              		.loc 1 436 0
 2037 00a8 FFF7FEFF 		bl	ADPD1080_SetDigitalClock
 2038              	.LVL341:
 439:ADPD1080.c    ****     
 2039              		.loc 1 439 0
 2040 00ac 4FF4C870 		mov	r0, #400
 2041 00b0 FFF7FEFF 		bl	ADPD1080_SetSamplingFrequency
 2042              	.LVL342:
ARM GAS  C:\Users\thoma\AppData\Local\Temp\cceCswqS.s 			page 50


 442:ADPD1080.c    ****     ADPD1080_SetTIAGain(SLOTB, TIA_25);
 2043              		.loc 1 442 0
 2044 00b4 0321     		movs	r1, #3
 2045 00b6 0020     		movs	r0, #0
 2046 00b8 FFF7FEFF 		bl	ADPD1080_SetTIAGain
 2047              	.LVL343:
 443:ADPD1080.c    **** 
 2048              		.loc 1 443 0
 2049 00bc 0321     		movs	r1, #3
 2050 00be 0120     		movs	r0, #1
 2051 00c0 FFF7FEFF 		bl	ADPD1080_SetTIAGain
 2052              	.LVL344:
 446:ADPD1080.c    ****     ADPD1080_WriteReg(ADPD1080_CLK32M_ADJUST, 0x0098);  // 0x005e,0098
 2053              		.loc 1 446 0
 2054 00c4 42F29561 		movw	r1, #9877
 2055 00c8 4B20     		movs	r0, #75
 2056 00ca FFF7FEFF 		bl	ADPD1080_WriteReg
 2057              	.LVL345:
 447:ADPD1080.c    ****     ADPD1080_WriteReg(ADPD1080_EXT_SYNC_SEL, 0x2090);  // 20d0,2090
 2058              		.loc 1 447 0
 2059 00ce 9821     		movs	r1, #152
 2060 00d0 4D20     		movs	r0, #77
 2061 00d2 FFF7FEFF 		bl	ADPD1080_WriteReg
 2062              	.LVL346:
 448:ADPD1080.c    ****     ADPD1080_WriteReg(ADPD1080_CLK32M_CAL_EN, 0x0000);  // 0040,0000
 2063              		.loc 1 448 0
 2064 00d6 42F29001 		movw	r1, #8336
 2065 00da 4F20     		movs	r0, #79
 2066 00dc FFF7FEFF 		bl	ADPD1080_WriteReg
 2067              	.LVL347:
 449:ADPD1080.c    **** 
 2068              		.loc 1 449 0
 2069 00e0 0021     		movs	r1, #0
 2070 00e2 5020     		movs	r0, #80
 2071 00e4 FFF7FEFF 		bl	ADPD1080_WriteReg
 2072              	.LVL348:
 452:ADPD1080.c    ****     ADPD1080_SetAverageFactor(AVERAGE2);
 2073              		.loc 1 452 0
 2074 00e8 47F20601 		movw	r1, #28678
 2075 00ec 3C20     		movs	r0, #60
 2076 00ee FFF7FEFF 		bl	ADPD1080_WriteReg
 2077              	.LVL349:
 453:ADPD1080.c    ****     
 2078              		.loc 1 453 0
 2079 00f2 0120     		movs	r0, #1
 2080 00f4 FFF7FEFF 		bl	ADPD1080_SetAverageFactor
 2081              	.LVL350:
 455:ADPD1080.c    ****     struct ADPD1080_ChannelOffset stOffsetB  = {8201,0,0,0};    
 2082              		.loc 1 455 0
 2083 00f8 42F20903 		movw	r3, #8201
 2084 00fc ADF80830 		strh	r3, [sp, #8]	@ movhi
 2085 0100 0020     		movs	r0, #0
 2086 0102 ADF80A00 		strh	r0, [sp, #10]	@ movhi
 2087 0106 ADF80C00 		strh	r0, [sp, #12]	@ movhi
 2088 010a ADF80E00 		strh	r0, [sp, #14]	@ movhi
 456:ADPD1080.c    ****     ADPD1080_SetOffset(SLOTA, stOffsetA);
 2089              		.loc 1 456 0
ARM GAS  C:\Users\thoma\AppData\Local\Temp\cceCswqS.s 			page 51


 2090 010e ADF80030 		strh	r3, [sp]	@ movhi
 2091 0112 ADF80200 		strh	r0, [sp, #2]	@ movhi
 2092 0116 ADF80400 		strh	r0, [sp, #4]	@ movhi
 2093 011a ADF80600 		strh	r0, [sp, #6]	@ movhi
 457:ADPD1080.c    ****     ADPD1080_SetOffset(SLOTB, stOffsetB);
 2094              		.loc 1 457 0
 2095 011e 04AB     		add	r3, sp, #16
 2096 0120 13E90600 		ldmdb	r3, {r1, r2}
 2097 0124 FFF7FEFF 		bl	ADPD1080_SetOffset
 2098              	.LVL351:
 458:ADPD1080.c    ****     
 2099              		.loc 1 458 0
 2100 0128 9DE80600 		ldmia	sp, {r1, r2}
 2101 012c 0120     		movs	r0, #1
 2102 012e FFF7FEFF 		bl	ADPD1080_SetOffset
 2103              	.LVL352:
 461:ADPD1080.c    ****     
 2104              		.loc 1 461 0
 2105 0132 FFF7FEFF 		bl	ADPD1080_SetFIFO
 2106              	.LVL353:
 463:ADPD1080.c    **** }
 2107              		.loc 1 463 0
 2108 0136 0220     		movs	r0, #2
 2109 0138 FFF7FEFF 		bl	ADPD1080_SetOperationMode
 2110              	.LVL354:
 464:ADPD1080.c    **** 
 2111              		.loc 1 464 0
 2112 013c 05B0     		add	sp, sp, #20
 2113              		.cfi_def_cfa_offset 4
 2114              		@ sp needed
 2115 013e 5DF804FB 		ldr	pc, [sp], #4
 2116              	.L76:
 2117 0142 00BF     		.align	2
 2118              	.L75:
 2119 0144 24000000 		.word	.LC2
 2120              		.cfi_endproc
 2121              	.LFE557:
 2122              		.size	turbidity_Init, .-turbidity_Init
 2123              		.global	au16DataSlotB
 2124              		.global	au16DataSlotA
 2125              		.section	.rodata.str1.4,"aMS",%progbits,1
 2126              		.align	2
 2127              	.LC0:
 2128 0000 44657669 		.ascii	"Device ID is 0x%x\015\012\000"
 2128      63652049 
 2128      44206973 
 2128      20307825 
 2128      780D0A00 
 2129              	.LC1:
 2130 0014 53746174 		.ascii	"Status: 0x%x\015\012\000"
 2130      75733A20 
 2130      30782578 
 2130      0D0A00
 2131 0023 00       		.space	1
 2132              	.LC2:
 2133 0024 436C6B20 		.ascii	"Clk Reg Value: 0x%x\015\012\000"
 2133      52656720 
ARM GAS  C:\Users\thoma\AppData\Local\Temp\cceCswqS.s 			page 52


 2133      56616C75 
 2133      653A2030 
 2133      7825780D 
 2134              		.bss
 2135              		.align	2
 2136              		.set	.LANCHOR0,. + 0
 2137              		.type	au16DataSlotB, %object
 2138              		.size	au16DataSlotB, 8
 2139              	au16DataSlotB:
 2140 0000 00000000 		.space	8
 2140      00000000 
 2141              		.type	au16DataSlotA, %object
 2142              		.size	au16DataSlotA, 8
 2143              	au16DataSlotA:
 2144 0008 00000000 		.space	8
 2144      00000000 
 2145              		.text
 2146              	.Letext0:
 2147              		.file 2 "c:\\program files (x86)\\cypress\\psoc creator\\4.4\\psoc creator\\import\\gnu\\arm\\5.4.
 2148              		.file 3 "c:\\program files (x86)\\cypress\\psoc creator\\4.4\\psoc creator\\import\\gnu\\arm\\5.4.
 2149              		.file 4 "Generated_Source\\PSoC6\\pdl\\drivers/peripheral/device/cy_device.h"
 2150              		.file 5 "Generated_Source\\PSoC6\\pdl\\drivers/peripheral/sar/cy_sar.h"
 2151              		.file 6 "Generated_Source\\PSoC6\\pdl\\drivers/peripheral/scb/cy_scb_uart.h"
 2152              		.file 7 "Generated_Source\\PSoC6/ADC.h"
 2153              		.file 8 "ADPD1080.h"
 2154              		.file 9 "Generated_Source\\PSoC6\\pdl\\cmsis/include/core_cm4.h"
 2155              		.file 10 "Generated_Source\\PSoC6/UART.h"
 2156              		.file 11 "Generated_Source\\PSoC6/I2C.h"
 2157              		.file 12 "c:\\program files (x86)\\cypress\\psoc creator\\4.4\\psoc creator\\import\\gnu\\arm\\5.4
 2158              		.file 13 "Generated_Source\\PSoC6\\pdl\\drivers/peripheral/syslib/cy_syslib.h"
 2159              		.section	.debug_info,"",%progbits
 2160              	.Ldebug_info0:
 2161 0000 3F280000 		.4byte	0x283f
 2162 0004 0400     		.2byte	0x4
 2163 0006 00000000 		.4byte	.Ldebug_abbrev0
 2164 000a 04       		.byte	0x4
 2165 000b 01       		.uleb128 0x1
 2166 000c 50020000 		.4byte	.LASF264
 2167 0010 0C       		.byte	0xc
 2168 0011 990B0000 		.4byte	.LASF265
 2169 0015 FD0E0000 		.4byte	.LASF266
 2170 0019 00000000 		.4byte	.Ldebug_ranges0+0
 2171 001d 00000000 		.4byte	0
 2172 0021 00000000 		.4byte	.Ldebug_line0
 2173 0025 02       		.uleb128 0x2
 2174 0026 02       		.byte	0x2
 2175 0027 05       		.byte	0x5
 2176 0028 B8010000 		.4byte	.LASF0
 2177 002c 02       		.uleb128 0x2
 2178 002d 01       		.byte	0x1
 2179 002e 06       		.byte	0x6
 2180 002f 8D0E0000 		.4byte	.LASF1
 2181 0033 03       		.uleb128 0x3
 2182 0034 780C0000 		.4byte	.LASF3
 2183 0038 02       		.byte	0x2
 2184 0039 1D       		.byte	0x1d
 2185 003a 3E000000 		.4byte	0x3e
ARM GAS  C:\Users\thoma\AppData\Local\Temp\cceCswqS.s 			page 53


 2186 003e 02       		.uleb128 0x2
 2187 003f 01       		.byte	0x1
 2188 0040 08       		.byte	0x8
 2189 0041 790D0000 		.4byte	.LASF2
 2190 0045 03       		.uleb128 0x3
 2191 0046 31030000 		.4byte	.LASF4
 2192 004a 02       		.byte	0x2
 2193 004b 29       		.byte	0x29
 2194 004c 25000000 		.4byte	0x25
 2195 0050 03       		.uleb128 0x3
 2196 0051 27050000 		.4byte	.LASF5
 2197 0055 02       		.byte	0x2
 2198 0056 2B       		.byte	0x2b
 2199 0057 5B000000 		.4byte	0x5b
 2200 005b 02       		.uleb128 0x2
 2201 005c 02       		.byte	0x2
 2202 005d 07       		.byte	0x7
 2203 005e B50A0000 		.4byte	.LASF6
 2204 0062 03       		.uleb128 0x3
 2205 0063 36010000 		.4byte	.LASF7
 2206 0067 02       		.byte	0x2
 2207 0068 3F       		.byte	0x3f
 2208 0069 6D000000 		.4byte	0x6d
 2209 006d 02       		.uleb128 0x2
 2210 006e 04       		.byte	0x4
 2211 006f 05       		.byte	0x5
 2212 0070 C90B0000 		.4byte	.LASF8
 2213 0074 03       		.uleb128 0x3
 2214 0075 870D0000 		.4byte	.LASF9
 2215 0079 02       		.byte	0x2
 2216 007a 41       		.byte	0x41
 2217 007b 7F000000 		.4byte	0x7f
 2218 007f 02       		.uleb128 0x2
 2219 0080 04       		.byte	0x4
 2220 0081 07       		.byte	0x7
 2221 0082 200D0000 		.4byte	.LASF10
 2222 0086 02       		.uleb128 0x2
 2223 0087 08       		.byte	0x8
 2224 0088 05       		.byte	0x5
 2225 0089 AC080000 		.4byte	.LASF11
 2226 008d 02       		.uleb128 0x2
 2227 008e 08       		.byte	0x8
 2228 008f 07       		.byte	0x7
 2229 0090 88040000 		.4byte	.LASF12
 2230 0094 04       		.uleb128 0x4
 2231 0095 04       		.byte	0x4
 2232 0096 05       		.byte	0x5
 2233 0097 696E7400 		.ascii	"int\000"
 2234 009b 02       		.uleb128 0x2
 2235 009c 04       		.byte	0x4
 2236 009d 07       		.byte	0x7
 2237 009e D7000000 		.4byte	.LASF13
 2238 00a2 03       		.uleb128 0x3
 2239 00a3 0D080000 		.4byte	.LASF14
 2240 00a7 03       		.byte	0x3
 2241 00a8 18       		.byte	0x18
 2242 00a9 33000000 		.4byte	0x33
ARM GAS  C:\Users\thoma\AppData\Local\Temp\cceCswqS.s 			page 54


 2243 00ad 03       		.uleb128 0x3
 2244 00ae 55040000 		.4byte	.LASF15
 2245 00b2 03       		.byte	0x3
 2246 00b3 20       		.byte	0x20
 2247 00b4 45000000 		.4byte	0x45
 2248 00b8 03       		.uleb128 0x3
 2249 00b9 DE0A0000 		.4byte	.LASF16
 2250 00bd 03       		.byte	0x3
 2251 00be 24       		.byte	0x24
 2252 00bf 50000000 		.4byte	0x50
 2253 00c3 03       		.uleb128 0x3
 2254 00c4 3E0D0000 		.4byte	.LASF17
 2255 00c8 03       		.byte	0x3
 2256 00c9 2C       		.byte	0x2c
 2257 00ca 62000000 		.4byte	0x62
 2258 00ce 03       		.uleb128 0x3
 2259 00cf BC030000 		.4byte	.LASF18
 2260 00d3 03       		.byte	0x3
 2261 00d4 30       		.byte	0x30
 2262 00d5 74000000 		.4byte	0x74
 2263 00d9 02       		.uleb128 0x2
 2264 00da 04       		.byte	0x4
 2265 00db 07       		.byte	0x7
 2266 00dc 540B0000 		.4byte	.LASF19
 2267 00e0 05       		.uleb128 0x5
 2268 00e1 CE000000 		.4byte	0xce
 2269 00e5 05       		.uleb128 0x5
 2270 00e6 B8000000 		.4byte	0xb8
 2271 00ea 06       		.uleb128 0x6
 2272 00eb A2000000 		.4byte	0xa2
 2273 00ef FA000000 		.4byte	0xfa
 2274 00f3 07       		.uleb128 0x7
 2275 00f4 D9000000 		.4byte	0xd9
 2276 00f8 01       		.byte	0x1
 2277 00f9 00       		.byte	0
 2278 00fa 02       		.uleb128 0x2
 2279 00fb 08       		.byte	0x8
 2280 00fc 04       		.byte	0x4
 2281 00fd D20A0000 		.4byte	.LASF20
 2282 0101 08       		.uleb128 0x8
 2283 0102 B8       		.byte	0xb8
 2284 0103 04       		.byte	0x4
 2285 0104 34       		.byte	0x34
 2286 0105 12050000 		.4byte	0x512
 2287 0109 09       		.uleb128 0x9
 2288 010a 40010000 		.4byte	.LASF21
 2289 010e 04       		.byte	0x4
 2290 010f 37       		.byte	0x37
 2291 0110 CE000000 		.4byte	0xce
 2292 0114 00       		.byte	0
 2293 0115 09       		.uleb128 0x9
 2294 0116 4A040000 		.4byte	.LASF22
 2295 011a 04       		.byte	0x4
 2296 011b 38       		.byte	0x38
 2297 011c CE000000 		.4byte	0xce
 2298 0120 04       		.byte	0x4
 2299 0121 09       		.uleb128 0x9
ARM GAS  C:\Users\thoma\AppData\Local\Temp\cceCswqS.s 			page 55


 2300 0122 84000000 		.4byte	.LASF23
 2301 0126 04       		.byte	0x4
 2302 0127 39       		.byte	0x39
 2303 0128 CE000000 		.4byte	0xce
 2304 012c 08       		.byte	0x8
 2305 012d 09       		.uleb128 0x9
 2306 012e 73000000 		.4byte	.LASF24
 2307 0132 04       		.byte	0x4
 2308 0133 3A       		.byte	0x3a
 2309 0134 CE000000 		.4byte	0xce
 2310 0138 0C       		.byte	0xc
 2311 0139 09       		.uleb128 0x9
 2312 013a E70A0000 		.4byte	.LASF25
 2313 013e 04       		.byte	0x4
 2314 013f 3B       		.byte	0x3b
 2315 0140 CE000000 		.4byte	0xce
 2316 0144 10       		.byte	0x10
 2317 0145 09       		.uleb128 0x9
 2318 0146 8A090000 		.4byte	.LASF26
 2319 014a 04       		.byte	0x4
 2320 014b 3C       		.byte	0x3c
 2321 014c CE000000 		.4byte	0xce
 2322 0150 14       		.byte	0x14
 2323 0151 09       		.uleb128 0x9
 2324 0152 80060000 		.4byte	.LASF27
 2325 0156 04       		.byte	0x4
 2326 0157 3D       		.byte	0x3d
 2327 0158 CE000000 		.4byte	0xce
 2328 015c 18       		.byte	0x18
 2329 015d 09       		.uleb128 0x9
 2330 015e 7D0F0000 		.4byte	.LASF28
 2331 0162 04       		.byte	0x4
 2332 0163 3E       		.byte	0x3e
 2333 0164 CE000000 		.4byte	0xce
 2334 0168 1C       		.byte	0x1c
 2335 0169 09       		.uleb128 0x9
 2336 016a BA080000 		.4byte	.LASF29
 2337 016e 04       		.byte	0x4
 2338 016f 3F       		.byte	0x3f
 2339 0170 CE000000 		.4byte	0xce
 2340 0174 20       		.byte	0x20
 2341 0175 09       		.uleb128 0x9
 2342 0176 D1080000 		.4byte	.LASF30
 2343 017a 04       		.byte	0x4
 2344 017b 40       		.byte	0x40
 2345 017c CE000000 		.4byte	0xce
 2346 0180 24       		.byte	0x24
 2347 0181 09       		.uleb128 0x9
 2348 0182 D20B0000 		.4byte	.LASF31
 2349 0186 04       		.byte	0x4
 2350 0187 43       		.byte	0x43
 2351 0188 A2000000 		.4byte	0xa2
 2352 018c 28       		.byte	0x28
 2353 018d 09       		.uleb128 0x9
 2354 018e E9030000 		.4byte	.LASF32
 2355 0192 04       		.byte	0x4
 2356 0193 44       		.byte	0x44
ARM GAS  C:\Users\thoma\AppData\Local\Temp\cceCswqS.s 			page 56


 2357 0194 A2000000 		.4byte	0xa2
 2358 0198 29       		.byte	0x29
 2359 0199 09       		.uleb128 0x9
 2360 019a 270B0000 		.4byte	.LASF33
 2361 019e 04       		.byte	0x4
 2362 019f 45       		.byte	0x45
 2363 01a0 A2000000 		.4byte	0xa2
 2364 01a4 2A       		.byte	0x2a
 2365 01a5 09       		.uleb128 0x9
 2366 01a6 F80B0000 		.4byte	.LASF34
 2367 01aa 04       		.byte	0x4
 2368 01ab 46       		.byte	0x46
 2369 01ac A2000000 		.4byte	0xa2
 2370 01b0 2B       		.byte	0x2b
 2371 01b1 09       		.uleb128 0x9
 2372 01b2 EC0B0000 		.4byte	.LASF35
 2373 01b6 04       		.byte	0x4
 2374 01b7 47       		.byte	0x47
 2375 01b8 A2000000 		.4byte	0xa2
 2376 01bc 2C       		.byte	0x2c
 2377 01bd 09       		.uleb128 0x9
 2378 01be 070D0000 		.4byte	.LASF36
 2379 01c2 04       		.byte	0x4
 2380 01c3 48       		.byte	0x48
 2381 01c4 A2000000 		.4byte	0xa2
 2382 01c8 2D       		.byte	0x2d
 2383 01c9 09       		.uleb128 0x9
 2384 01ca F40F0000 		.4byte	.LASF37
 2385 01ce 04       		.byte	0x4
 2386 01cf 49       		.byte	0x49
 2387 01d0 A2000000 		.4byte	0xa2
 2388 01d4 2E       		.byte	0x2e
 2389 01d5 09       		.uleb128 0x9
 2390 01d6 630F0000 		.4byte	.LASF38
 2391 01da 04       		.byte	0x4
 2392 01db 4A       		.byte	0x4a
 2393 01dc A2000000 		.4byte	0xa2
 2394 01e0 2F       		.byte	0x2f
 2395 01e1 09       		.uleb128 0x9
 2396 01e2 03030000 		.4byte	.LASF39
 2397 01e6 04       		.byte	0x4
 2398 01e7 4B       		.byte	0x4b
 2399 01e8 A2000000 		.4byte	0xa2
 2400 01ec 30       		.byte	0x30
 2401 01ed 09       		.uleb128 0x9
 2402 01ee E9090000 		.4byte	.LASF40
 2403 01f2 04       		.byte	0x4
 2404 01f3 4E       		.byte	0x4e
 2405 01f4 A2000000 		.4byte	0xa2
 2406 01f8 31       		.byte	0x31
 2407 01f9 09       		.uleb128 0x9
 2408 01fa A40E0000 		.4byte	.LASF41
 2409 01fe 04       		.byte	0x4
 2410 01ff 4F       		.byte	0x4f
 2411 0200 A2000000 		.4byte	0xa2
 2412 0204 32       		.byte	0x32
 2413 0205 09       		.uleb128 0x9
ARM GAS  C:\Users\thoma\AppData\Local\Temp\cceCswqS.s 			page 57


 2414 0206 CC090000 		.4byte	.LASF42
 2415 020a 04       		.byte	0x4
 2416 020b 50       		.byte	0x50
 2417 020c A2000000 		.4byte	0xa2
 2418 0210 33       		.byte	0x33
 2419 0211 09       		.uleb128 0x9
 2420 0212 24070000 		.4byte	.LASF43
 2421 0216 04       		.byte	0x4
 2422 0217 51       		.byte	0x51
 2423 0218 A2000000 		.4byte	0xa2
 2424 021c 34       		.byte	0x34
 2425 021d 09       		.uleb128 0x9
 2426 021e CF040000 		.4byte	.LASF44
 2427 0222 04       		.byte	0x4
 2428 0223 52       		.byte	0x52
 2429 0224 AD000000 		.4byte	0xad
 2430 0228 36       		.byte	0x36
 2431 0229 09       		.uleb128 0x9
 2432 022a 6D010000 		.4byte	.LASF45
 2433 022e 04       		.byte	0x4
 2434 022f 53       		.byte	0x53
 2435 0230 AD000000 		.4byte	0xad
 2436 0234 38       		.byte	0x38
 2437 0235 09       		.uleb128 0x9
 2438 0236 A3010000 		.4byte	.LASF46
 2439 023a 04       		.byte	0x4
 2440 023b 54       		.byte	0x54
 2441 023c AD000000 		.4byte	0xad
 2442 0240 3A       		.byte	0x3a
 2443 0241 09       		.uleb128 0x9
 2444 0242 960F0000 		.4byte	.LASF47
 2445 0246 04       		.byte	0x4
 2446 0247 55       		.byte	0x55
 2447 0248 A2000000 		.4byte	0xa2
 2448 024c 3C       		.byte	0x3c
 2449 024d 09       		.uleb128 0x9
 2450 024e D1050000 		.4byte	.LASF48
 2451 0252 04       		.byte	0x4
 2452 0253 56       		.byte	0x56
 2453 0254 A2000000 		.4byte	0xa2
 2454 0258 3D       		.byte	0x3d
 2455 0259 09       		.uleb128 0x9
 2456 025a 0F0B0000 		.4byte	.LASF49
 2457 025e 04       		.byte	0x4
 2458 025f 57       		.byte	0x57
 2459 0260 A2000000 		.4byte	0xa2
 2460 0264 3E       		.byte	0x3e
 2461 0265 09       		.uleb128 0x9
 2462 0266 62000000 		.4byte	.LASF50
 2463 026a 04       		.byte	0x4
 2464 026b 58       		.byte	0x58
 2465 026c A2000000 		.4byte	0xa2
 2466 0270 3F       		.byte	0x3f
 2467 0271 09       		.uleb128 0x9
 2468 0272 E4000000 		.4byte	.LASF51
 2469 0276 04       		.byte	0x4
 2470 0277 59       		.byte	0x59
ARM GAS  C:\Users\thoma\AppData\Local\Temp\cceCswqS.s 			page 58


 2471 0278 A2000000 		.4byte	0xa2
 2472 027c 40       		.byte	0x40
 2473 027d 09       		.uleb128 0x9
 2474 027e 090A0000 		.4byte	.LASF52
 2475 0282 04       		.byte	0x4
 2476 0283 5A       		.byte	0x5a
 2477 0284 A2000000 		.4byte	0xa2
 2478 0288 41       		.byte	0x41
 2479 0289 09       		.uleb128 0x9
 2480 028a 6A0E0000 		.4byte	.LASF53
 2481 028e 04       		.byte	0x4
 2482 028f 5B       		.byte	0x5b
 2483 0290 A2000000 		.4byte	0xa2
 2484 0294 42       		.byte	0x42
 2485 0295 09       		.uleb128 0x9
 2486 0296 BC070000 		.4byte	.LASF54
 2487 029a 04       		.byte	0x4
 2488 029b 5C       		.byte	0x5c
 2489 029c A2000000 		.4byte	0xa2
 2490 02a0 43       		.byte	0x43
 2491 02a1 09       		.uleb128 0x9
 2492 02a2 DA070000 		.4byte	.LASF55
 2493 02a6 04       		.byte	0x4
 2494 02a7 5D       		.byte	0x5d
 2495 02a8 A2000000 		.4byte	0xa2
 2496 02ac 44       		.byte	0x44
 2497 02ad 09       		.uleb128 0x9
 2498 02ae 060C0000 		.4byte	.LASF56
 2499 02b2 04       		.byte	0x4
 2500 02b3 5E       		.byte	0x5e
 2501 02b4 CE000000 		.4byte	0xce
 2502 02b8 48       		.byte	0x48
 2503 02b9 09       		.uleb128 0x9
 2504 02ba 0E020000 		.4byte	.LASF57
 2505 02be 04       		.byte	0x4
 2506 02bf 5F       		.byte	0x5f
 2507 02c0 CE000000 		.4byte	0xce
 2508 02c4 4C       		.byte	0x4c
 2509 02c5 09       		.uleb128 0x9
 2510 02c6 1C0E0000 		.4byte	.LASF58
 2511 02ca 04       		.byte	0x4
 2512 02cb 60       		.byte	0x60
 2513 02cc A2000000 		.4byte	0xa2
 2514 02d0 50       		.byte	0x50
 2515 02d1 09       		.uleb128 0x9
 2516 02d2 08060000 		.4byte	.LASF59
 2517 02d6 04       		.byte	0x4
 2518 02d7 61       		.byte	0x61
 2519 02d8 A2000000 		.4byte	0xa2
 2520 02dc 51       		.byte	0x51
 2521 02dd 09       		.uleb128 0x9
 2522 02de 1B090000 		.4byte	.LASF60
 2523 02e2 04       		.byte	0x4
 2524 02e3 62       		.byte	0x62
 2525 02e4 A2000000 		.4byte	0xa2
 2526 02e8 52       		.byte	0x52
 2527 02e9 09       		.uleb128 0x9
ARM GAS  C:\Users\thoma\AppData\Local\Temp\cceCswqS.s 			page 59


 2528 02ea 11040000 		.4byte	.LASF61
 2529 02ee 04       		.byte	0x4
 2530 02ef 63       		.byte	0x63
 2531 02f0 A2000000 		.4byte	0xa2
 2532 02f4 53       		.byte	0x53
 2533 02f5 09       		.uleb128 0x9
 2534 02f6 C00D0000 		.4byte	.LASF62
 2535 02fa 04       		.byte	0x4
 2536 02fb 64       		.byte	0x64
 2537 02fc A2000000 		.4byte	0xa2
 2538 0300 54       		.byte	0x54
 2539 0301 09       		.uleb128 0x9
 2540 0302 6C060000 		.4byte	.LASF63
 2541 0306 04       		.byte	0x4
 2542 0307 65       		.byte	0x65
 2543 0308 A2000000 		.4byte	0xa2
 2544 030c 55       		.byte	0x55
 2545 030d 09       		.uleb128 0x9
 2546 030e 08000000 		.4byte	.LASF64
 2547 0312 04       		.byte	0x4
 2548 0313 66       		.byte	0x66
 2549 0314 A2000000 		.4byte	0xa2
 2550 0318 56       		.byte	0x56
 2551 0319 09       		.uleb128 0x9
 2552 031a 310B0000 		.4byte	.LASF65
 2553 031e 04       		.byte	0x4
 2554 031f 67       		.byte	0x67
 2555 0320 A2000000 		.4byte	0xa2
 2556 0324 57       		.byte	0x57
 2557 0325 09       		.uleb128 0x9
 2558 0326 A9050000 		.4byte	.LASF66
 2559 032a 04       		.byte	0x4
 2560 032b 68       		.byte	0x68
 2561 032c A2000000 		.4byte	0xa2
 2562 0330 58       		.byte	0x58
 2563 0331 09       		.uleb128 0x9
 2564 0332 A50F0000 		.4byte	.LASF67
 2565 0336 04       		.byte	0x4
 2566 0337 69       		.byte	0x69
 2567 0338 A2000000 		.4byte	0xa2
 2568 033c 59       		.byte	0x59
 2569 033d 09       		.uleb128 0x9
 2570 033e 990E0000 		.4byte	.LASF68
 2571 0342 04       		.byte	0x4
 2572 0343 6E       		.byte	0x6e
 2573 0344 B8000000 		.4byte	0xb8
 2574 0348 5A       		.byte	0x5a
 2575 0349 09       		.uleb128 0x9
 2576 034a AE000000 		.4byte	.LASF69
 2577 034e 04       		.byte	0x4
 2578 034f 6F       		.byte	0x6f
 2579 0350 B8000000 		.4byte	0xb8
 2580 0354 5C       		.byte	0x5c
 2581 0355 09       		.uleb128 0x9
 2582 0356 C2080000 		.4byte	.LASF70
 2583 035a 04       		.byte	0x4
 2584 035b 70       		.byte	0x70
ARM GAS  C:\Users\thoma\AppData\Local\Temp\cceCswqS.s 			page 60


 2585 035c A2000000 		.4byte	0xa2
 2586 0360 5E       		.byte	0x5e
 2587 0361 09       		.uleb128 0x9
 2588 0362 B20E0000 		.4byte	.LASF71
 2589 0366 04       		.byte	0x4
 2590 0367 71       		.byte	0x71
 2591 0368 A2000000 		.4byte	0xa2
 2592 036c 5F       		.byte	0x5f
 2593 036d 09       		.uleb128 0x9
 2594 036e DE060000 		.4byte	.LASF72
 2595 0372 04       		.byte	0x4
 2596 0373 72       		.byte	0x72
 2597 0374 A2000000 		.4byte	0xa2
 2598 0378 60       		.byte	0x60
 2599 0379 09       		.uleb128 0x9
 2600 037a FC070000 		.4byte	.LASF73
 2601 037e 04       		.byte	0x4
 2602 037f 73       		.byte	0x73
 2603 0380 CE000000 		.4byte	0xce
 2604 0384 64       		.byte	0x64
 2605 0385 09       		.uleb128 0x9
 2606 0386 08100000 		.4byte	.LASF74
 2607 038a 04       		.byte	0x4
 2608 038b 76       		.byte	0x76
 2609 038c B8000000 		.4byte	0xb8
 2610 0390 68       		.byte	0x68
 2611 0391 09       		.uleb128 0x9
 2612 0392 F00A0000 		.4byte	.LASF75
 2613 0396 04       		.byte	0x4
 2614 0397 77       		.byte	0x77
 2615 0398 B8000000 		.4byte	0xb8
 2616 039c 6A       		.byte	0x6a
 2617 039d 09       		.uleb128 0x9
 2618 039e AF090000 		.4byte	.LASF76
 2619 03a2 04       		.byte	0x4
 2620 03a3 78       		.byte	0x78
 2621 03a4 B8000000 		.4byte	0xb8
 2622 03a8 6C       		.byte	0x6c
 2623 03a9 09       		.uleb128 0x9
 2624 03aa E1010000 		.4byte	.LASF77
 2625 03ae 04       		.byte	0x4
 2626 03af 79       		.byte	0x79
 2627 03b0 B8000000 		.4byte	0xb8
 2628 03b4 6E       		.byte	0x6e
 2629 03b5 09       		.uleb128 0x9
 2630 03b6 38080000 		.4byte	.LASF78
 2631 03ba 04       		.byte	0x4
 2632 03bb 7B       		.byte	0x7b
 2633 03bc A2000000 		.4byte	0xa2
 2634 03c0 70       		.byte	0x70
 2635 03c1 09       		.uleb128 0x9
 2636 03c2 54030000 		.4byte	.LASF79
 2637 03c6 04       		.byte	0x4
 2638 03c7 7C       		.byte	0x7c
 2639 03c8 A2000000 		.4byte	0xa2
 2640 03cc 71       		.byte	0x71
 2641 03cd 09       		.uleb128 0x9
ARM GAS  C:\Users\thoma\AppData\Local\Temp\cceCswqS.s 			page 61


 2642 03ce EE010000 		.4byte	.LASF80
 2643 03d2 04       		.byte	0x4
 2644 03d3 7D       		.byte	0x7d
 2645 03d4 A2000000 		.4byte	0xa2
 2646 03d8 72       		.byte	0x72
 2647 03d9 09       		.uleb128 0x9
 2648 03da 0B010000 		.4byte	.LASF81
 2649 03de 04       		.byte	0x4
 2650 03df 7E       		.byte	0x7e
 2651 03e0 A2000000 		.4byte	0xa2
 2652 03e4 73       		.byte	0x73
 2653 03e5 09       		.uleb128 0x9
 2654 03e6 870B0000 		.4byte	.LASF82
 2655 03ea 04       		.byte	0x4
 2656 03eb 80       		.byte	0x80
 2657 03ec B8000000 		.4byte	0xb8
 2658 03f0 74       		.byte	0x74
 2659 03f1 09       		.uleb128 0x9
 2660 03f2 7E0A0000 		.4byte	.LASF83
 2661 03f6 04       		.byte	0x4
 2662 03f7 81       		.byte	0x81
 2663 03f8 B8000000 		.4byte	0xb8
 2664 03fc 76       		.byte	0x76
 2665 03fd 09       		.uleb128 0x9
 2666 03fe A7070000 		.4byte	.LASF84
 2667 0402 04       		.byte	0x4
 2668 0403 82       		.byte	0x82
 2669 0404 B8000000 		.4byte	0xb8
 2670 0408 78       		.byte	0x78
 2671 0409 09       		.uleb128 0x9
 2672 040a 9F040000 		.4byte	.LASF85
 2673 040e 04       		.byte	0x4
 2674 040f 83       		.byte	0x83
 2675 0410 B8000000 		.4byte	0xb8
 2676 0414 7A       		.byte	0x7a
 2677 0415 09       		.uleb128 0x9
 2678 0416 8D0C0000 		.4byte	.LASF86
 2679 041a 04       		.byte	0x4
 2680 041b 86       		.byte	0x86
 2681 041c A2000000 		.4byte	0xa2
 2682 0420 7C       		.byte	0x7c
 2683 0421 09       		.uleb128 0x9
 2684 0422 2D0E0000 		.4byte	.LASF87
 2685 0426 04       		.byte	0x4
 2686 0427 87       		.byte	0x87
 2687 0428 A2000000 		.4byte	0xa2
 2688 042c 7D       		.byte	0x7d
 2689 042d 09       		.uleb128 0x9
 2690 042e 69040000 		.4byte	.LASF88
 2691 0432 04       		.byte	0x4
 2692 0433 88       		.byte	0x88
 2693 0434 A2000000 		.4byte	0xa2
 2694 0438 7E       		.byte	0x7e
 2695 0439 09       		.uleb128 0x9
 2696 043a C5030000 		.4byte	.LASF89
 2697 043e 04       		.byte	0x4
 2698 043f 89       		.byte	0x89
ARM GAS  C:\Users\thoma\AppData\Local\Temp\cceCswqS.s 			page 62


 2699 0440 A2000000 		.4byte	0xa2
 2700 0444 7F       		.byte	0x7f
 2701 0445 09       		.uleb128 0x9
 2702 0446 B4040000 		.4byte	.LASF90
 2703 044a 04       		.byte	0x4
 2704 044b 8A       		.byte	0x8a
 2705 044c A2000000 		.4byte	0xa2
 2706 0450 80       		.byte	0x80
 2707 0451 09       		.uleb128 0x9
 2708 0452 4B000000 		.4byte	.LASF91
 2709 0456 04       		.byte	0x4
 2710 0457 8D       		.byte	0x8d
 2711 0458 CE000000 		.4byte	0xce
 2712 045c 84       		.byte	0x84
 2713 045d 09       		.uleb128 0x9
 2714 045e B20C0000 		.4byte	.LASF92
 2715 0462 04       		.byte	0x4
 2716 0463 8E       		.byte	0x8e
 2717 0464 CE000000 		.4byte	0xce
 2718 0468 88       		.byte	0x88
 2719 0469 09       		.uleb128 0x9
 2720 046a F4090000 		.4byte	.LASF93
 2721 046e 04       		.byte	0x4
 2722 046f 8F       		.byte	0x8f
 2723 0470 CE000000 		.4byte	0xce
 2724 0474 8C       		.byte	0x8c
 2725 0475 09       		.uleb128 0x9
 2726 0476 590D0000 		.4byte	.LASF94
 2727 047a 04       		.byte	0x4
 2728 047b 90       		.byte	0x90
 2729 047c CE000000 		.4byte	0xce
 2730 0480 90       		.byte	0x90
 2731 0481 09       		.uleb128 0x9
 2732 0482 630C0000 		.4byte	.LASF95
 2733 0486 04       		.byte	0x4
 2734 0487 91       		.byte	0x91
 2735 0488 CE000000 		.4byte	0xce
 2736 048c 94       		.byte	0x94
 2737 048d 09       		.uleb128 0x9
 2738 048e 69030000 		.4byte	.LASF96
 2739 0492 04       		.byte	0x4
 2740 0493 92       		.byte	0x92
 2741 0494 CE000000 		.4byte	0xce
 2742 0498 98       		.byte	0x98
 2743 0499 09       		.uleb128 0x9
 2744 049a DA0C0000 		.4byte	.LASF97
 2745 049e 04       		.byte	0x4
 2746 049f 93       		.byte	0x93
 2747 04a0 CE000000 		.4byte	0xce
 2748 04a4 9C       		.byte	0x9c
 2749 04a5 09       		.uleb128 0x9
 2750 04a6 A1060000 		.4byte	.LASF98
 2751 04aa 04       		.byte	0x4
 2752 04ab 94       		.byte	0x94
 2753 04ac CE000000 		.4byte	0xce
 2754 04b0 A0       		.byte	0xa0
 2755 04b1 09       		.uleb128 0x9
ARM GAS  C:\Users\thoma\AppData\Local\Temp\cceCswqS.s 			page 63


 2756 04b2 99000000 		.4byte	.LASF99
 2757 04b6 04       		.byte	0x4
 2758 04b7 95       		.byte	0x95
 2759 04b8 B8000000 		.4byte	0xb8
 2760 04bc A4       		.byte	0xa4
 2761 04bd 09       		.uleb128 0x9
 2762 04be 15080000 		.4byte	.LASF100
 2763 04c2 04       		.byte	0x4
 2764 04c3 96       		.byte	0x96
 2765 04c4 B8000000 		.4byte	0xb8
 2766 04c8 A6       		.byte	0xa6
 2767 04c9 09       		.uleb128 0x9
 2768 04ca 320D0000 		.4byte	.LASF101
 2769 04ce 04       		.byte	0x4
 2770 04cf 97       		.byte	0x97
 2771 04d0 B8000000 		.4byte	0xb8
 2772 04d4 A8       		.byte	0xa8
 2773 04d5 09       		.uleb128 0x9
 2774 04d6 9E080000 		.4byte	.LASF102
 2775 04da 04       		.byte	0x4
 2776 04db 98       		.byte	0x98
 2777 04dc B8000000 		.4byte	0xb8
 2778 04e0 AA       		.byte	0xaa
 2779 04e1 09       		.uleb128 0x9
 2780 04e2 28020000 		.4byte	.LASF103
 2781 04e6 04       		.byte	0x4
 2782 04e7 99       		.byte	0x99
 2783 04e8 B8000000 		.4byte	0xb8
 2784 04ec AC       		.byte	0xac
 2785 04ed 09       		.uleb128 0x9
 2786 04ee 190A0000 		.4byte	.LASF104
 2787 04f2 04       		.byte	0x4
 2788 04f3 9A       		.byte	0x9a
 2789 04f4 B8000000 		.4byte	0xb8
 2790 04f8 AE       		.byte	0xae
 2791 04f9 09       		.uleb128 0x9
 2792 04fa 42020000 		.4byte	.LASF105
 2793 04fe 04       		.byte	0x4
 2794 04ff 9D       		.byte	0x9d
 2795 0500 B8000000 		.4byte	0xb8
 2796 0504 B0       		.byte	0xb0
 2797 0505 09       		.uleb128 0x9
 2798 0506 920D0000 		.4byte	.LASF106
 2799 050a 04       		.byte	0x4
 2800 050b 9E       		.byte	0x9e
 2801 050c CE000000 		.4byte	0xce
 2802 0510 B4       		.byte	0xb4
 2803 0511 00       		.byte	0
 2804 0512 03       		.uleb128 0x3
 2805 0513 7F030000 		.4byte	.LASF107
 2806 0517 04       		.byte	0x4
 2807 0518 9F       		.byte	0x9f
 2808 0519 01010000 		.4byte	0x101
 2809 051d 02       		.uleb128 0x2
 2810 051e 01       		.byte	0x1
 2811 051f 08       		.byte	0x8
 2812 0520 6E000000 		.4byte	.LASF108
ARM GAS  C:\Users\thoma\AppData\Local\Temp\cceCswqS.s 			page 64


 2813 0524 02       		.uleb128 0x2
 2814 0525 04       		.byte	0x4
 2815 0526 04       		.byte	0x4
 2816 0527 E3030000 		.4byte	.LASF109
 2817 052b 02       		.uleb128 0x2
 2818 052c 08       		.byte	0x8
 2819 052d 04       		.byte	0x4
 2820 052e 23060000 		.4byte	.LASF110
 2821 0532 0A       		.uleb128 0xa
 2822 0533 04       		.byte	0x4
 2823 0534 02       		.uleb128 0x2
 2824 0535 01       		.byte	0x1
 2825 0536 02       		.byte	0x2
 2826 0537 2A060000 		.4byte	.LASF111
 2827 053b 0B       		.uleb128 0xb
 2828 053c 01       		.byte	0x1
 2829 053d 3E000000 		.4byte	0x3e
 2830 0541 05       		.byte	0x5
 2831 0542 1304     		.2byte	0x413
 2832 0544 61050000 		.4byte	0x561
 2833 0548 0C       		.uleb128 0xc
 2834 0549 19030000 		.4byte	.LASF112
 2835 054d 00       		.byte	0
 2836 054e 0C       		.uleb128 0xc
 2837 054f 32050000 		.4byte	.LASF113
 2838 0553 01       		.byte	0x1
 2839 0554 0C       		.uleb128 0xc
 2840 0555 57070000 		.4byte	.LASF114
 2841 0559 02       		.byte	0x2
 2842 055a 0C       		.uleb128 0xc
 2843 055b F1000000 		.4byte	.LASF115
 2844 055f 03       		.byte	0x3
 2845 0560 00       		.byte	0
 2846 0561 0D       		.uleb128 0xd
 2847 0562 C70F0000 		.4byte	.LASF116
 2848 0566 05       		.byte	0x5
 2849 0567 1804     		.2byte	0x418
 2850 0569 3B050000 		.4byte	0x53b
 2851 056d 0E       		.uleb128 0xe
 2852 056e 78       		.byte	0x78
 2853 056f 05       		.byte	0x5
 2854 0570 0205     		.2byte	0x502
 2855 0572 3A060000 		.4byte	0x63a
 2856 0576 0F       		.uleb128 0xf
 2857 0577 5F050000 		.4byte	.LASF117
 2858 057b 05       		.byte	0x5
 2859 057c 0405     		.2byte	0x504
 2860 057e CE000000 		.4byte	0xce
 2861 0582 00       		.byte	0
 2862 0583 0F       		.uleb128 0xf
 2863 0584 6E0D0000 		.4byte	.LASF118
 2864 0588 05       		.byte	0x5
 2865 0589 0505     		.2byte	0x505
 2866 058b CE000000 		.4byte	0xce
 2867 058f 04       		.byte	0x4
 2868 0590 0F       		.uleb128 0xf
 2869 0591 020B0000 		.4byte	.LASF119
ARM GAS  C:\Users\thoma\AppData\Local\Temp\cceCswqS.s 			page 65


 2870 0595 05       		.byte	0x5
 2871 0596 0605     		.2byte	0x506
 2872 0598 CE000000 		.4byte	0xce
 2873 059c 08       		.byte	0x8
 2874 059d 0F       		.uleb128 0xf
 2875 059e F00C0000 		.4byte	.LASF120
 2876 05a2 05       		.byte	0x5
 2877 05a3 0705     		.2byte	0x507
 2878 05a5 CE000000 		.4byte	0xce
 2879 05a9 0C       		.byte	0xc
 2880 05aa 0F       		.uleb128 0xf
 2881 05ab 1C050000 		.4byte	.LASF121
 2882 05af 05       		.byte	0x5
 2883 05b0 0805     		.2byte	0x508
 2884 05b2 CE000000 		.4byte	0xce
 2885 05b6 10       		.byte	0x10
 2886 05b7 0F       		.uleb128 0xf
 2887 05b8 94080000 		.4byte	.LASF122
 2888 05bc 05       		.byte	0x5
 2889 05bd 0905     		.2byte	0x509
 2890 05bf 61050000 		.4byte	0x561
 2891 05c3 14       		.byte	0x14
 2892 05c4 0F       		.uleb128 0xf
 2893 05c5 92070000 		.4byte	.LASF123
 2894 05c9 05       		.byte	0x5
 2895 05ca 0A05     		.2byte	0x50a
 2896 05cc CE000000 		.4byte	0xce
 2897 05d0 18       		.byte	0x18
 2898 05d1 0F       		.uleb128 0xf
 2899 05d2 D90E0000 		.4byte	.LASF124
 2900 05d6 05       		.byte	0x5
 2901 05d7 0B05     		.2byte	0x50b
 2902 05d9 3A060000 		.4byte	0x63a
 2903 05dd 1C       		.byte	0x1c
 2904 05de 0F       		.uleb128 0xf
 2905 05df FF0F0000 		.4byte	.LASF125
 2906 05e3 05       		.byte	0x5
 2907 05e4 0C05     		.2byte	0x50c
 2908 05e6 CE000000 		.4byte	0xce
 2909 05ea 5C       		.byte	0x5c
 2910 05eb 0F       		.uleb128 0xf
 2911 05ec 1C020000 		.4byte	.LASF126
 2912 05f0 05       		.byte	0x5
 2913 05f1 0D05     		.2byte	0x50d
 2914 05f3 CE000000 		.4byte	0xce
 2915 05f7 60       		.byte	0x60
 2916 05f8 0F       		.uleb128 0xf
 2917 05f9 B90F0000 		.4byte	.LASF127
 2918 05fd 05       		.byte	0x5
 2919 05fe 0E05     		.2byte	0x50e
 2920 0600 CE000000 		.4byte	0xce
 2921 0604 64       		.byte	0x64
 2922 0605 0F       		.uleb128 0xf
 2923 0606 270A0000 		.4byte	.LASF128
 2924 060a 05       		.byte	0x5
 2925 060b 0F05     		.2byte	0x50f
 2926 060d CE000000 		.4byte	0xce
ARM GAS  C:\Users\thoma\AppData\Local\Temp\cceCswqS.s 			page 66


 2927 0611 68       		.byte	0x68
 2928 0612 0F       		.uleb128 0xf
 2929 0613 65080000 		.4byte	.LASF129
 2930 0617 05       		.byte	0x5
 2931 0618 1005     		.2byte	0x510
 2932 061a CE000000 		.4byte	0xce
 2933 061e 6C       		.byte	0x6c
 2934 061f 0F       		.uleb128 0xf
 2935 0620 6F0F0000 		.4byte	.LASF130
 2936 0624 05       		.byte	0x5
 2937 0625 1105     		.2byte	0x511
 2938 0627 34050000 		.4byte	0x534
 2939 062b 70       		.byte	0x70
 2940 062c 0F       		.uleb128 0xf
 2941 062d DF0D0000 		.4byte	.LASF131
 2942 0631 05       		.byte	0x5
 2943 0632 1205     		.2byte	0x512
 2944 0634 CE000000 		.4byte	0xce
 2945 0638 74       		.byte	0x74
 2946 0639 00       		.byte	0
 2947 063a 06       		.uleb128 0x6
 2948 063b CE000000 		.4byte	0xce
 2949 063f 4A060000 		.4byte	0x64a
 2950 0643 07       		.uleb128 0x7
 2951 0644 D9000000 		.4byte	0xd9
 2952 0648 0F       		.byte	0xf
 2953 0649 00       		.byte	0
 2954 064a 0D       		.uleb128 0xd
 2955 064b 4B050000 		.4byte	.LASF132
 2956 064f 05       		.byte	0x5
 2957 0650 1305     		.2byte	0x513
 2958 0652 6D050000 		.4byte	0x56d
 2959 0656 10       		.uleb128 0x10
 2960 0657 04       		.byte	0x4
 2961 0658 5C060000 		.4byte	0x65c
 2962 065c 11       		.uleb128 0x11
 2963 065d 67060000 		.4byte	0x667
 2964 0661 12       		.uleb128 0x12
 2965 0662 CE000000 		.4byte	0xce
 2966 0666 00       		.byte	0
 2967 0667 0D       		.uleb128 0xd
 2968 0668 75080000 		.4byte	.LASF133
 2969 066c 06       		.byte	0x6
 2970 066d D901     		.2byte	0x1d9
 2971 066f 56060000 		.4byte	0x656
 2972 0673 13       		.uleb128 0x13
 2973 0674 32040000 		.4byte	.LASF188
 2974 0678 38       		.byte	0x38
 2975 0679 06       		.byte	0x6
 2976 067a 7502     		.2byte	0x275
 2977 067c 37070000 		.4byte	0x737
 2978 0680 0F       		.uleb128 0xf
 2979 0681 7B000000 		.4byte	.LASF134
 2980 0685 06       		.byte	0x6
 2981 0686 7802     		.2byte	0x278
 2982 0688 E0000000 		.4byte	0xe0
 2983 068c 00       		.byte	0
ARM GAS  C:\Users\thoma\AppData\Local\Temp\cceCswqS.s 			page 67


 2984 068d 0F       		.uleb128 0xf
 2985 068e 80050000 		.4byte	.LASF135
 2986 0692 06       		.byte	0x6
 2987 0693 7902     		.2byte	0x279
 2988 0695 E0000000 		.4byte	0xe0
 2989 0699 04       		.byte	0x4
 2990 069a 0F       		.uleb128 0xf
 2991 069b C80A0000 		.4byte	.LASF136
 2992 069f 06       		.byte	0x6
 2993 06a0 7B02     		.2byte	0x27b
 2994 06a2 32050000 		.4byte	0x532
 2995 06a6 08       		.byte	0x8
 2996 06a7 0F       		.uleb128 0xf
 2997 06a8 C2010000 		.4byte	.LASF137
 2998 06ac 06       		.byte	0x6
 2999 06ad 7C02     		.2byte	0x27c
 3000 06af CE000000 		.4byte	0xce
 3001 06b3 0C       		.byte	0xc
 3002 06b4 0F       		.uleb128 0xf
 3003 06b5 BE090000 		.4byte	.LASF138
 3004 06b9 06       		.byte	0x6
 3005 06ba 7D02     		.2byte	0x27d
 3006 06bc E0000000 		.4byte	0xe0
 3007 06c0 10       		.byte	0x10
 3008 06c1 0F       		.uleb128 0xf
 3009 06c2 99070000 		.4byte	.LASF139
 3010 06c6 06       		.byte	0x6
 3011 06c7 7E02     		.2byte	0x27e
 3012 06c9 E0000000 		.4byte	0xe0
 3013 06cd 14       		.byte	0x14
 3014 06ce 0F       		.uleb128 0xf
 3015 06cf 89050000 		.4byte	.LASF140
 3016 06d3 06       		.byte	0x6
 3017 06d4 8002     		.2byte	0x280
 3018 06d6 32050000 		.4byte	0x532
 3019 06da 18       		.byte	0x18
 3020 06db 0F       		.uleb128 0xf
 3021 06dc 18100000 		.4byte	.LASF141
 3022 06e0 06       		.byte	0x6
 3023 06e1 8102     		.2byte	0x281
 3024 06e3 CE000000 		.4byte	0xce
 3025 06e7 1C       		.byte	0x1c
 3026 06e8 0F       		.uleb128 0xf
 3027 06e9 EB070000 		.4byte	.LASF142
 3028 06ed 06       		.byte	0x6
 3029 06ee 8202     		.2byte	0x282
 3030 06f0 E0000000 		.4byte	0xe0
 3031 06f4 20       		.byte	0x20
 3032 06f5 0F       		.uleb128 0xf
 3033 06f6 660A0000 		.4byte	.LASF143
 3034 06fa 06       		.byte	0x6
 3035 06fb 8402     		.2byte	0x284
 3036 06fd 32050000 		.4byte	0x532
 3037 0701 24       		.byte	0x24
 3038 0702 0F       		.uleb128 0xf
 3039 0703 DF090000 		.4byte	.LASF144
 3040 0707 06       		.byte	0x6
ARM GAS  C:\Users\thoma\AppData\Local\Temp\cceCswqS.s 			page 68


 3041 0708 8502     		.2byte	0x285
 3042 070a CE000000 		.4byte	0xce
 3043 070e 28       		.byte	0x28
 3044 070f 0F       		.uleb128 0xf
 3045 0710 490C0000 		.4byte	.LASF145
 3046 0714 06       		.byte	0x6
 3047 0715 8602     		.2byte	0x286
 3048 0717 E0000000 		.4byte	0xe0
 3049 071b 2C       		.byte	0x2c
 3050 071c 0F       		.uleb128 0xf
 3051 071d 1A060000 		.4byte	.LASF146
 3052 0721 06       		.byte	0x6
 3053 0722 8B02     		.2byte	0x28b
 3054 0724 67060000 		.4byte	0x667
 3055 0728 30       		.byte	0x30
 3056 0729 0F       		.uleb128 0xf
 3057 072a F4070000 		.4byte	.LASF147
 3058 072e 06       		.byte	0x6
 3059 072f 8E02     		.2byte	0x28e
 3060 0731 CE000000 		.4byte	0xce
 3061 0735 34       		.byte	0x34
 3062 0736 00       		.byte	0
 3063 0737 0D       		.uleb128 0xd
 3064 0738 F7030000 		.4byte	.LASF148
 3065 073c 06       		.byte	0x6
 3066 073d 9102     		.2byte	0x291
 3067 073f 73060000 		.4byte	0x673
 3068 0743 08       		.uleb128 0x8
 3069 0744 14       		.byte	0x14
 3070 0745 07       		.byte	0x7
 3071 0746 3B       		.byte	0x3b
 3072 0747 88070000 		.4byte	0x788
 3073 074b 09       		.uleb128 0x9
 3074 074c 4A010000 		.4byte	.LASF149
 3075 0750 07       		.byte	0x7
 3076 0751 3D       		.byte	0x3d
 3077 0752 CE000000 		.4byte	0xce
 3078 0756 00       		.byte	0
 3079 0757 09       		.uleb128 0x9
 3080 0758 7C040000 		.4byte	.LASF150
 3081 075c 07       		.byte	0x7
 3082 075d 3E       		.byte	0x3e
 3083 075e CE000000 		.4byte	0xce
 3084 0762 04       		.byte	0x4
 3085 0763 09       		.uleb128 0x9
 3086 0764 80010000 		.4byte	.LASF151
 3087 0768 07       		.byte	0x7
 3088 0769 3F       		.byte	0x3f
 3089 076a 88070000 		.4byte	0x788
 3090 076e 08       		.byte	0x8
 3091 076f 09       		.uleb128 0x9
 3092 0770 820C0000 		.4byte	.LASF152
 3093 0774 07       		.byte	0x7
 3094 0775 40       		.byte	0x40
 3095 0776 CE000000 		.4byte	0xce
 3096 077a 0C       		.byte	0xc
 3097 077b 09       		.uleb128 0x9
ARM GAS  C:\Users\thoma\AppData\Local\Temp\cceCswqS.s 			page 69


 3098 077c 22010000 		.4byte	.LASF153
 3099 0780 07       		.byte	0x7
 3100 0781 45       		.byte	0x45
 3101 0782 CE000000 		.4byte	0xce
 3102 0786 10       		.byte	0x10
 3103 0787 00       		.byte	0
 3104 0788 10       		.uleb128 0x10
 3105 0789 04       		.byte	0x4
 3106 078a 8E070000 		.4byte	0x78e
 3107 078e 14       		.uleb128 0x14
 3108 078f 4A060000 		.4byte	0x64a
 3109 0793 03       		.uleb128 0x3
 3110 0794 53080000 		.4byte	.LASF154
 3111 0798 07       		.byte	0x7
 3112 0799 48       		.byte	0x48
 3113 079a 43070000 		.4byte	0x743
 3114 079e 15       		.uleb128 0x15
 3115 079f 01       		.byte	0x1
 3116 07a0 3E000000 		.4byte	0x3e
 3117 07a4 08       		.byte	0x8
 3118 07a5 63       		.byte	0x63
 3119 07a6 BD070000 		.4byte	0x7bd
 3120 07aa 0C       		.uleb128 0xc
 3121 07ab 80070000 		.4byte	.LASF155
 3122 07af 00       		.byte	0
 3123 07b0 0C       		.uleb128 0xc
 3124 07b1 00000000 		.4byte	.LASF156
 3125 07b5 01       		.byte	0x1
 3126 07b6 0C       		.uleb128 0xc
 3127 07b7 EF060000 		.4byte	.LASF157
 3128 07bb 02       		.byte	0x2
 3129 07bc 00       		.byte	0
 3130 07bd 03       		.uleb128 0x3
 3131 07be 56010000 		.4byte	.LASF158
 3132 07c2 08       		.byte	0x8
 3133 07c3 67       		.byte	0x67
 3134 07c4 9E070000 		.4byte	0x79e
 3135 07c8 15       		.uleb128 0x15
 3136 07c9 01       		.byte	0x1
 3137 07ca 3E000000 		.4byte	0x3e
 3138 07ce 08       		.byte	0x8
 3139 07cf 69       		.byte	0x69
 3140 07d0 ED070000 		.4byte	0x7ed
 3141 07d4 0C       		.uleb128 0xc
 3142 07d5 C3000000 		.4byte	.LASF159
 3143 07d9 00       		.byte	0
 3144 07da 0C       		.uleb128 0xc
 3145 07db 6F070000 		.4byte	.LASF160
 3146 07df 01       		.byte	0x1
 3147 07e0 0C       		.uleb128 0xc
 3148 07e1 90060000 		.4byte	.LASF161
 3149 07e5 05       		.byte	0x5
 3150 07e6 0C       		.uleb128 0xc
 3151 07e7 5B090000 		.4byte	.LASF162
 3152 07eb 05       		.byte	0x5
 3153 07ec 00       		.byte	0
 3154 07ed 03       		.uleb128 0x3
ARM GAS  C:\Users\thoma\AppData\Local\Temp\cceCswqS.s 			page 70


 3155 07ee EB0D0000 		.4byte	.LASF163
 3156 07f2 08       		.byte	0x8
 3157 07f3 6E       		.byte	0x6e
 3158 07f4 C8070000 		.4byte	0x7c8
 3159 07f8 15       		.uleb128 0x15
 3160 07f9 01       		.byte	0x1
 3161 07fa 3E000000 		.4byte	0x3e
 3162 07fe 08       		.byte	0x8
 3163 07ff 70       		.byte	0x70
 3164 0800 11080000 		.4byte	0x811
 3165 0804 0C       		.uleb128 0xc
 3166 0805 140D0000 		.4byte	.LASF164
 3167 0809 00       		.byte	0
 3168 080a 0C       		.uleb128 0xc
 3169 080b 1A0D0000 		.4byte	.LASF165
 3170 080f 01       		.byte	0x1
 3171 0810 00       		.byte	0
 3172 0811 03       		.uleb128 0x3
 3173 0812 370C0000 		.4byte	.LASF166
 3174 0816 08       		.byte	0x8
 3175 0817 73       		.byte	0x73
 3176 0818 F8070000 		.4byte	0x7f8
 3177 081c 15       		.uleb128 0x15
 3178 081d 01       		.byte	0x1
 3179 081e 3E000000 		.4byte	0x3e
 3180 0822 08       		.byte	0x8
 3181 0823 75       		.byte	0x75
 3182 0824 3B080000 		.4byte	0x83b
 3183 0828 0C       		.uleb128 0xc
 3184 0829 B7000000 		.4byte	.LASF167
 3185 082d 02       		.byte	0x2
 3186 082e 0C       		.uleb128 0xc
 3187 082f BD000000 		.4byte	.LASF168
 3188 0833 01       		.byte	0x1
 3189 0834 0C       		.uleb128 0xc
 3190 0835 AC0C0000 		.4byte	.LASF169
 3191 0839 03       		.byte	0x3
 3192 083a 00       		.byte	0
 3193 083b 03       		.uleb128 0x3
 3194 083c 8C010000 		.4byte	.LASF170
 3195 0840 08       		.byte	0x8
 3196 0841 79       		.byte	0x79
 3197 0842 1C080000 		.4byte	0x81c
 3198 0846 15       		.uleb128 0x15
 3199 0847 01       		.byte	0x1
 3200 0848 3E000000 		.4byte	0x3e
 3201 084c 08       		.byte	0x8
 3202 084d 7B       		.byte	0x7b
 3203 084e 6B080000 		.4byte	0x86b
 3204 0852 0C       		.uleb128 0xc
 3205 0853 2F0C0000 		.4byte	.LASF171
 3206 0857 00       		.byte	0
 3207 0858 0C       		.uleb128 0xc
 3208 0859 FA050000 		.4byte	.LASF172
 3209 085d 01       		.byte	0x1
 3210 085e 0C       		.uleb128 0xc
 3211 085f 450B0000 		.4byte	.LASF173
ARM GAS  C:\Users\thoma\AppData\Local\Temp\cceCswqS.s 			page 71


 3212 0863 02       		.byte	0x2
 3213 0864 0C       		.uleb128 0xc
 3214 0865 31080000 		.4byte	.LASF174
 3215 0869 03       		.byte	0x3
 3216 086a 00       		.byte	0
 3217 086b 03       		.uleb128 0x3
 3218 086c C90C0000 		.4byte	.LASF175
 3219 0870 08       		.byte	0x8
 3220 0871 80       		.byte	0x80
 3221 0872 46080000 		.4byte	0x846
 3222 0876 15       		.uleb128 0x15
 3223 0877 01       		.byte	0x1
 3224 0878 3E000000 		.4byte	0x3e
 3225 087c 08       		.byte	0x8
 3226 087d 82       		.byte	0x82
 3227 087e B3080000 		.4byte	0x8b3
 3228 0882 0C       		.uleb128 0xc
 3229 0883 DC040000 		.4byte	.LASF176
 3230 0887 00       		.byte	0
 3231 0888 0C       		.uleb128 0xc
 3232 0889 E3080000 		.4byte	.LASF177
 3233 088d 01       		.byte	0x1
 3234 088e 0C       		.uleb128 0xc
 3235 088f 1C000000 		.4byte	.LASF178
 3236 0893 02       		.byte	0x2
 3237 0894 0C       		.uleb128 0xc
 3238 0895 FE080000 		.4byte	.LASF179
 3239 0899 03       		.byte	0x3
 3240 089a 0C       		.uleb128 0xc
 3241 089b EA0F0000 		.4byte	.LASF180
 3242 089f 04       		.byte	0x4
 3243 08a0 0C       		.uleb128 0xc
 3244 08a1 99010000 		.4byte	.LASF181
 3245 08a5 05       		.byte	0x5
 3246 08a6 0C       		.uleb128 0xc
 3247 08a7 36090000 		.4byte	.LASF182
 3248 08ab 06       		.byte	0x6
 3249 08ac 0C       		.uleb128 0xc
 3250 08ad 13070000 		.4byte	.LASF183
 3251 08b1 07       		.byte	0x7
 3252 08b2 00       		.byte	0
 3253 08b3 03       		.uleb128 0x3
 3254 08b4 EC080000 		.4byte	.LASF184
 3255 08b8 08       		.byte	0x8
 3256 08b9 8B       		.byte	0x8b
 3257 08ba 76080000 		.4byte	0x876
 3258 08be 15       		.uleb128 0x15
 3259 08bf 01       		.byte	0x1
 3260 08c0 3E000000 		.4byte	0x3e
 3261 08c4 08       		.byte	0x8
 3262 08c5 8D       		.byte	0x8d
 3263 08c6 D7080000 		.4byte	0x8d7
 3264 08ca 0C       		.uleb128 0xc
 3265 08cb D0010000 		.4byte	.LASF185
 3266 08cf 40       		.byte	0x40
 3267 08d0 0C       		.uleb128 0xc
 3268 08d1 8F030000 		.4byte	.LASF186
ARM GAS  C:\Users\thoma\AppData\Local\Temp\cceCswqS.s 			page 72


 3269 08d5 60       		.byte	0x60
 3270 08d6 00       		.byte	0
 3271 08d7 03       		.uleb128 0x3
 3272 08d8 3E0E0000 		.4byte	.LASF187
 3273 08dc 08       		.byte	0x8
 3274 08dd 90       		.byte	0x90
 3275 08de BE080000 		.4byte	0x8be
 3276 08e2 16       		.uleb128 0x16
 3277 08e3 180C0000 		.4byte	.LASF189
 3278 08e7 08       		.byte	0x8
 3279 08e8 08       		.byte	0x8
 3280 08e9 92       		.byte	0x92
 3281 08ea 1F090000 		.4byte	0x91f
 3282 08ee 09       		.uleb128 0x9
 3283 08ef D9030000 		.4byte	.LASF190
 3284 08f3 08       		.byte	0x8
 3285 08f4 93       		.byte	0x93
 3286 08f5 B8000000 		.4byte	0xb8
 3287 08f9 00       		.byte	0
 3288 08fa 09       		.uleb128 0x9
 3289 08fb FD0C0000 		.4byte	.LASF191
 3290 08ff 08       		.byte	0x8
 3291 0900 94       		.byte	0x94
 3292 0901 B8000000 		.4byte	0xb8
 3293 0905 02       		.byte	0x2
 3294 0906 09       		.uleb128 0x9
 3295 0907 4E060000 		.4byte	.LASF192
 3296 090b 08       		.byte	0x8
 3297 090c 95       		.byte	0x95
 3298 090d B8000000 		.4byte	0xb8
 3299 0911 04       		.byte	0x4
 3300 0912 09       		.uleb128 0x9
 3301 0913 830E0000 		.4byte	.LASF193
 3302 0917 08       		.byte	0x8
 3303 0918 96       		.byte	0x96
 3304 0919 B8000000 		.4byte	0xb8
 3305 091d 06       		.byte	0x6
 3306 091e 00       		.byte	0
 3307 091f 17       		.uleb128 0x17
 3308 0920 EB0E0000 		.4byte	.LASF196
 3309 0924 01       		.byte	0x1
 3310 0925 27       		.byte	0x27
 3311 0926 34050000 		.4byte	0x534
 3312 092a 00000000 		.4byte	.LFB536
 3313 092e 28000000 		.4byte	.LFE536-.LFB536
 3314 0932 01       		.uleb128 0x1
 3315 0933 9C       		.byte	0x9c
 3316 0934 B7090000 		.4byte	0x9b7
 3317 0938 18       		.uleb128 0x18
 3318 0939 78010000 		.4byte	.LASF194
 3319 093d 01       		.byte	0x1
 3320 093e 27       		.byte	0x27
 3321 093f A2000000 		.4byte	0xa2
 3322 0943 00000000 		.4byte	.LLST0
 3323 0947 18       		.uleb128 0x18
 3324 0948 2D010000 		.4byte	.LASF195
 3325 094c 01       		.byte	0x1
ARM GAS  C:\Users\thoma\AppData\Local\Temp\cceCswqS.s 			page 73


 3326 094d 27       		.byte	0x27
 3327 094e B8000000 		.4byte	0xb8
 3328 0952 21000000 		.4byte	.LLST1
 3329 0956 19       		.uleb128 0x19
 3330 0957 0E000000 		.4byte	.LVL3
 3331 095b F4270000 		.4byte	0x27f4
 3332 095f 6F090000 		.4byte	0x96f
 3333 0963 1A       		.uleb128 0x1a
 3334 0964 01       		.uleb128 0x1
 3335 0965 50       		.byte	0x50
 3336 0966 02       		.uleb128 0x2
 3337 0967 08       		.byte	0x8
 3338 0968 64       		.byte	0x64
 3339 0969 1A       		.uleb128 0x1a
 3340 096a 01       		.uleb128 0x1
 3341 096b 51       		.byte	0x51
 3342 096c 01       		.uleb128 0x1
 3343 096d 30       		.byte	0x30
 3344 096e 00       		.byte	0
 3345 096f 19       		.uleb128 0x19
 3346 0970 14000000 		.4byte	.LVL4
 3347 0974 FF270000 		.4byte	0x27ff
 3348 0978 83090000 		.4byte	0x983
 3349 097c 1A       		.uleb128 0x1a
 3350 097d 01       		.uleb128 0x1
 3351 097e 50       		.byte	0x50
 3352 097f 02       		.uleb128 0x2
 3353 0980 75       		.byte	0x75
 3354 0981 00       		.sleb128 0
 3355 0982 00       		.byte	0
 3356 0983 19       		.uleb128 0x19
 3357 0984 1A000000 		.4byte	.LVL5
 3358 0988 FF270000 		.4byte	0x27ff
 3359 098c 99090000 		.4byte	0x999
 3360 0990 1A       		.uleb128 0x1a
 3361 0991 01       		.uleb128 0x1
 3362 0992 50       		.byte	0x50
 3363 0993 04       		.uleb128 0x4
 3364 0994 74       		.byte	0x74
 3365 0995 00       		.sleb128 0
 3366 0996 38       		.byte	0x38
 3367 0997 25       		.byte	0x25
 3368 0998 00       		.byte	0
 3369 0999 19       		.uleb128 0x19
 3370 099a 20000000 		.4byte	.LVL6
 3371 099e FF270000 		.4byte	0x27ff
 3372 09a2 AD090000 		.4byte	0x9ad
 3373 09a6 1A       		.uleb128 0x1a
 3374 09a7 01       		.uleb128 0x1
 3375 09a8 50       		.byte	0x50
 3376 09a9 02       		.uleb128 0x2
 3377 09aa 74       		.byte	0x74
 3378 09ab 00       		.sleb128 0
 3379 09ac 00       		.byte	0
 3380 09ad 1B       		.uleb128 0x1b
 3381 09ae 24000000 		.4byte	.LVL7
 3382 09b2 0A280000 		.4byte	0x280a
ARM GAS  C:\Users\thoma\AppData\Local\Temp\cceCswqS.s 			page 74


 3383 09b6 00       		.byte	0
 3384 09b7 17       		.uleb128 0x17
 3385 09b8 C80E0000 		.4byte	.LASF197
 3386 09bc 01       		.byte	0x1
 3387 09bd 38       		.byte	0x38
 3388 09be B8000000 		.4byte	0xb8
 3389 09c2 00000000 		.4byte	.LFB537
 3390 09c6 36000000 		.4byte	.LFE537-.LFB537
 3391 09ca 01       		.uleb128 0x1
 3392 09cb 9C       		.byte	0x9c
 3393 09cc 600A0000 		.4byte	0xa60
 3394 09d0 18       		.uleb128 0x18
 3395 09d1 78010000 		.4byte	.LASF194
 3396 09d5 01       		.byte	0x1
 3397 09d6 38       		.byte	0x38
 3398 09d7 A2000000 		.4byte	0xa2
 3399 09db 42000000 		.4byte	.LLST2
 3400 09df 1C       		.uleb128 0x1c
 3401 09e0 D8090000 		.4byte	.LASF267
 3402 09e4 01       		.byte	0x1
 3403 09e5 39       		.byte	0x39
 3404 09e6 EA000000 		.4byte	0xea
 3405 09ea 19       		.uleb128 0x19
 3406 09eb 0C000000 		.4byte	.LVL10
 3407 09ef F4270000 		.4byte	0x27f4
 3408 09f3 030A0000 		.4byte	0xa03
 3409 09f7 1A       		.uleb128 0x1a
 3410 09f8 01       		.uleb128 0x1
 3411 09f9 50       		.byte	0x50
 3412 09fa 02       		.uleb128 0x2
 3413 09fb 08       		.byte	0x8
 3414 09fc 64       		.byte	0x64
 3415 09fd 1A       		.uleb128 0x1a
 3416 09fe 01       		.uleb128 0x1
 3417 09ff 51       		.byte	0x51
 3418 0a00 01       		.uleb128 0x1
 3419 0a01 30       		.byte	0x30
 3420 0a02 00       		.byte	0
 3421 0a03 19       		.uleb128 0x19
 3422 0a04 12000000 		.4byte	.LVL11
 3423 0a08 FF270000 		.4byte	0x27ff
 3424 0a0c 170A0000 		.4byte	0xa17
 3425 0a10 1A       		.uleb128 0x1a
 3426 0a11 01       		.uleb128 0x1
 3427 0a12 50       		.byte	0x50
 3428 0a13 02       		.uleb128 0x2
 3429 0a14 74       		.byte	0x74
 3430 0a15 00       		.sleb128 0
 3431 0a16 00       		.byte	0
 3432 0a17 19       		.uleb128 0x19
 3433 0a18 1A000000 		.4byte	.LVL12
 3434 0a1c 15280000 		.4byte	0x2815
 3435 0a20 300A0000 		.4byte	0xa30
 3436 0a24 1A       		.uleb128 0x1a
 3437 0a25 01       		.uleb128 0x1
 3438 0a26 50       		.byte	0x50
 3439 0a27 02       		.uleb128 0x2
ARM GAS  C:\Users\thoma\AppData\Local\Temp\cceCswqS.s 			page 75


 3440 0a28 08       		.byte	0x8
 3441 0a29 64       		.byte	0x64
 3442 0a2a 1A       		.uleb128 0x1a
 3443 0a2b 01       		.uleb128 0x1
 3444 0a2c 51       		.byte	0x51
 3445 0a2d 01       		.uleb128 0x1
 3446 0a2e 31       		.byte	0x31
 3447 0a2f 00       		.byte	0
 3448 0a30 19       		.uleb128 0x19
 3449 0a31 20000000 		.4byte	.LVL13
 3450 0a35 20280000 		.4byte	0x2820
 3451 0a39 430A0000 		.4byte	0xa43
 3452 0a3d 1A       		.uleb128 0x1a
 3453 0a3e 01       		.uleb128 0x1
 3454 0a3f 50       		.byte	0x50
 3455 0a40 01       		.uleb128 0x1
 3456 0a41 31       		.byte	0x31
 3457 0a42 00       		.byte	0
 3458 0a43 19       		.uleb128 0x19
 3459 0a44 28000000 		.4byte	.LVL14
 3460 0a48 20280000 		.4byte	0x2820
 3461 0a4c 560A0000 		.4byte	0xa56
 3462 0a50 1A       		.uleb128 0x1a
 3463 0a51 01       		.uleb128 0x1
 3464 0a52 50       		.byte	0x50
 3465 0a53 01       		.uleb128 0x1
 3466 0a54 30       		.byte	0x30
 3467 0a55 00       		.byte	0
 3468 0a56 1B       		.uleb128 0x1b
 3469 0a57 2E000000 		.4byte	.LVL15
 3470 0a5b 0A280000 		.4byte	0x280a
 3471 0a5f 00       		.byte	0
 3472 0a60 17       		.uleb128 0x17
 3473 0a61 9A050000 		.4byte	.LASF198
 3474 0a65 01       		.byte	0x1
 3475 0a66 15       		.byte	0x15
 3476 0a67 34050000 		.4byte	0x534
 3477 0a6b 00000000 		.4byte	.LFB535
 3478 0a6f 20000000 		.4byte	.LFE535-.LFB535
 3479 0a73 01       		.uleb128 0x1
 3480 0a74 9C       		.byte	0x9c
 3481 0a75 E20A0000 		.4byte	0xae2
 3482 0a79 18       		.uleb128 0x18
 3483 0a7a 4C0B0000 		.4byte	.LASF199
 3484 0a7e 01       		.byte	0x1
 3485 0a7f 15       		.byte	0x15
 3486 0a80 A2000000 		.4byte	0xa2
 3487 0a84 63000000 		.4byte	.LLST3
 3488 0a88 18       		.uleb128 0x18
 3489 0a89 A0030000 		.4byte	.LASF200
 3490 0a8d 01       		.byte	0x1
 3491 0a8e 15       		.byte	0x15
 3492 0a8f C3000000 		.4byte	0xc3
 3493 0a93 84000000 		.4byte	.LLST4
 3494 0a97 1D       		.uleb128 0x1d
 3495 0a98 2D010000 		.4byte	.LASF195
 3496 0a9c 01       		.byte	0x1
ARM GAS  C:\Users\thoma\AppData\Local\Temp\cceCswqS.s 			page 76


 3497 0a9d 19       		.byte	0x19
 3498 0a9e B8000000 		.4byte	0xb8
 3499 0aa2 A5000000 		.4byte	.LLST5
 3500 0aa6 1D       		.uleb128 0x1d
 3501 0aa7 5A0C0000 		.4byte	.LASF201
 3502 0aab 01       		.byte	0x1
 3503 0aac 1A       		.byte	0x1a
 3504 0aad A2000000 		.4byte	0xa2
 3505 0ab1 B8000000 		.4byte	.LLST6
 3506 0ab5 19       		.uleb128 0x19
 3507 0ab6 08000000 		.4byte	.LVL18
 3508 0aba B7090000 		.4byte	0x9b7
 3509 0abe C80A0000 		.4byte	0xac8
 3510 0ac2 1A       		.uleb128 0x1a
 3511 0ac3 01       		.uleb128 0x1
 3512 0ac4 50       		.byte	0x50
 3513 0ac5 01       		.uleb128 0x1
 3514 0ac6 38       		.byte	0x38
 3515 0ac7 00       		.byte	0
 3516 0ac8 1E       		.uleb128 0x1e
 3517 0ac9 12000000 		.4byte	.LVL21
 3518 0acd 2B280000 		.4byte	0x282b
 3519 0ad1 1A       		.uleb128 0x1a
 3520 0ad2 01       		.uleb128 0x1
 3521 0ad3 50       		.byte	0x50
 3522 0ad4 05       		.uleb128 0x5
 3523 0ad5 03       		.byte	0x3
 3524 0ad6 00000000 		.4byte	.LC0
 3525 0ada 1A       		.uleb128 0x1a
 3526 0adb 01       		.uleb128 0x1
 3527 0adc 51       		.byte	0x51
 3528 0add 02       		.uleb128 0x2
 3529 0ade 74       		.byte	0x74
 3530 0adf 00       		.sleb128 0
 3531 0ae0 00       		.byte	0
 3532 0ae1 00       		.byte	0
 3533 0ae2 17       		.uleb128 0x17
 3534 0ae3 A60D0000 		.4byte	.LASF202
 3535 0ae7 01       		.byte	0x1
 3536 0ae8 53       		.byte	0x53
 3537 0ae9 34050000 		.4byte	0x534
 3538 0aed 00000000 		.4byte	.LFB538
 3539 0af1 1A000000 		.4byte	.LFE538-.LFB538
 3540 0af5 01       		.uleb128 0x1
 3541 0af6 9C       		.byte	0x9c
 3542 0af7 3C0B0000 		.4byte	0xb3c
 3543 0afb 18       		.uleb128 0x18
 3544 0afc 4C080000 		.4byte	.LASF203
 3545 0b00 01       		.byte	0x1
 3546 0b01 53       		.byte	0x53
 3547 0b02 BD070000 		.4byte	0x7bd
 3548 0b06 CB000000 		.4byte	.LLST7
 3549 0b0a 1D       		.uleb128 0x1d
 3550 0b0b 2D010000 		.4byte	.LASF195
 3551 0b0f 01       		.byte	0x1
 3552 0b10 54       		.byte	0x54
 3553 0b11 B8000000 		.4byte	0xb8
ARM GAS  C:\Users\thoma\AppData\Local\Temp\cceCswqS.s 			page 77


 3554 0b15 EC000000 		.4byte	.LLST8
 3555 0b19 19       		.uleb128 0x19
 3556 0b1a 0A000000 		.4byte	.LVL25
 3557 0b1e B7090000 		.4byte	0x9b7
 3558 0b22 2C0B0000 		.4byte	0xb2c
 3559 0b26 1A       		.uleb128 0x1a
 3560 0b27 01       		.uleb128 0x1
 3561 0b28 50       		.byte	0x50
 3562 0b29 01       		.uleb128 0x1
 3563 0b2a 40       		.byte	0x40
 3564 0b2b 00       		.byte	0
 3565 0b2c 1E       		.uleb128 0x1e
 3566 0b2d 18000000 		.4byte	.LVL30
 3567 0b31 1F090000 		.4byte	0x91f
 3568 0b35 1A       		.uleb128 0x1a
 3569 0b36 01       		.uleb128 0x1
 3570 0b37 50       		.byte	0x50
 3571 0b38 01       		.uleb128 0x1
 3572 0b39 40       		.byte	0x40
 3573 0b3a 00       		.byte	0
 3574 0b3b 00       		.byte	0
 3575 0b3c 17       		.uleb128 0x17
 3576 0b3d 40090000 		.4byte	.LASF204
 3577 0b41 01       		.byte	0x1
 3578 0b42 62       		.byte	0x62
 3579 0b43 34050000 		.4byte	0x534
 3580 0b47 00000000 		.4byte	.LFB539
 3581 0b4b 26000000 		.4byte	.LFE539-.LFB539
 3582 0b4f 01       		.uleb128 0x1
 3583 0b50 9C       		.byte	0x9c
 3584 0b51 A50B0000 		.4byte	0xba5
 3585 0b55 18       		.uleb128 0x18
 3586 0b56 8F050000 		.4byte	.LASF205
 3587 0b5a 01       		.byte	0x1
 3588 0b5b 62       		.byte	0x62
 3589 0b5c ED070000 		.4byte	0x7ed
 3590 0b60 23010000 		.4byte	.LLST9
 3591 0b64 18       		.uleb128 0x18
 3592 0b65 FF0D0000 		.4byte	.LASF206
 3593 0b69 01       		.byte	0x1
 3594 0b6a 62       		.byte	0x62
 3595 0b6b ED070000 		.4byte	0x7ed
 3596 0b6f 44010000 		.4byte	.LLST10
 3597 0b73 1D       		.uleb128 0x1d
 3598 0b74 2D010000 		.4byte	.LASF195
 3599 0b78 01       		.byte	0x1
 3600 0b79 63       		.byte	0x63
 3601 0b7a B8000000 		.4byte	0xb8
 3602 0b7e 65010000 		.4byte	.LLST11
 3603 0b82 19       		.uleb128 0x19
 3604 0b83 0C000000 		.4byte	.LVL33
 3605 0b87 B7090000 		.4byte	0x9b7
 3606 0b8b 950B0000 		.4byte	0xb95
 3607 0b8f 1A       		.uleb128 0x1a
 3608 0b90 01       		.uleb128 0x1
 3609 0b91 50       		.byte	0x50
 3610 0b92 01       		.uleb128 0x1
ARM GAS  C:\Users\thoma\AppData\Local\Temp\cceCswqS.s 			page 78


 3611 0b93 44       		.byte	0x44
 3612 0b94 00       		.byte	0
 3613 0b95 1E       		.uleb128 0x1e
 3614 0b96 24000000 		.4byte	.LVL40
 3615 0b9a 1F090000 		.4byte	0x91f
 3616 0b9e 1A       		.uleb128 0x1a
 3617 0b9f 01       		.uleb128 0x1
 3618 0ba0 50       		.byte	0x50
 3619 0ba1 01       		.uleb128 0x1
 3620 0ba2 44       		.byte	0x44
 3621 0ba3 00       		.byte	0
 3622 0ba4 00       		.byte	0
 3623 0ba5 17       		.uleb128 0x17
 3624 0ba6 DC050000 		.4byte	.LASF207
 3625 0baa 01       		.byte	0x1
 3626 0bab 74       		.byte	0x74
 3627 0bac 34050000 		.4byte	0x534
 3628 0bb0 00000000 		.4byte	.LFB540
 3629 0bb4 1C000000 		.4byte	.LFE540-.LFB540
 3630 0bb8 01       		.uleb128 0x1
 3631 0bb9 9C       		.byte	0x9c
 3632 0bba 010C0000 		.4byte	0xc01
 3633 0bbe 18       		.uleb128 0x18
 3634 0bbf A50A0000 		.4byte	.LASF208
 3635 0bc3 01       		.byte	0x1
 3636 0bc4 74       		.byte	0x74
 3637 0bc5 34050000 		.4byte	0x534
 3638 0bc9 B4010000 		.4byte	.LLST12
 3639 0bcd 1D       		.uleb128 0x1d
 3640 0bce 2D010000 		.4byte	.LASF195
 3641 0bd2 01       		.byte	0x1
 3642 0bd3 75       		.byte	0x75
 3643 0bd4 B8000000 		.4byte	0xb8
 3644 0bd8 D5010000 		.4byte	.LLST13
 3645 0bdc 19       		.uleb128 0x19
 3646 0bdd 0A000000 		.4byte	.LVL43
 3647 0be1 B7090000 		.4byte	0x9b7
 3648 0be5 F00B0000 		.4byte	0xbf0
 3649 0be9 1A       		.uleb128 0x1a
 3650 0bea 01       		.uleb128 0x1
 3651 0beb 50       		.byte	0x50
 3652 0bec 02       		.uleb128 0x2
 3653 0bed 08       		.byte	0x8
 3654 0bee 4B       		.byte	0x4b
 3655 0bef 00       		.byte	0
 3656 0bf0 1E       		.uleb128 0x1e
 3657 0bf1 1A000000 		.4byte	.LVL48
 3658 0bf5 1F090000 		.4byte	0x91f
 3659 0bf9 1A       		.uleb128 0x1a
 3660 0bfa 01       		.uleb128 0x1
 3661 0bfb 50       		.byte	0x50
 3662 0bfc 02       		.uleb128 0x2
 3663 0bfd 08       		.byte	0x8
 3664 0bfe 4B       		.byte	0x4b
 3665 0bff 00       		.byte	0
 3666 0c00 00       		.byte	0
 3667 0c01 1F       		.uleb128 0x1f
ARM GAS  C:\Users\thoma\AppData\Local\Temp\cceCswqS.s 			page 79


 3668 0c02 CD060000 		.4byte	.LASF213
 3669 0c06 01       		.byte	0x1
 3670 0c07 84       		.byte	0x84
 3671 0c08 00000000 		.4byte	.LFB541
 3672 0c0c 3A000000 		.4byte	.LFE541-.LFB541
 3673 0c10 01       		.uleb128 0x1
 3674 0c11 9C       		.byte	0x9c
 3675 0c12 A60C0000 		.4byte	0xca6
 3676 0c16 19       		.uleb128 0x19
 3677 0c17 08000000 		.4byte	.LVL49
 3678 0c1b E20A0000 		.4byte	0xae2
 3679 0c1f 290C0000 		.4byte	0xc29
 3680 0c23 1A       		.uleb128 0x1a
 3681 0c24 01       		.uleb128 0x1
 3682 0c25 50       		.byte	0x50
 3683 0c26 01       		.uleb128 0x1
 3684 0c27 31       		.byte	0x31
 3685 0c28 00       		.byte	0
 3686 0c29 19       		.uleb128 0x19
 3687 0c2a 12000000 		.4byte	.LVL50
 3688 0c2e 1F090000 		.4byte	0x91f
 3689 0c32 430C0000 		.4byte	0xc43
 3690 0c36 1A       		.uleb128 0x1a
 3691 0c37 01       		.uleb128 0x1
 3692 0c38 50       		.byte	0x50
 3693 0c39 01       		.uleb128 0x1
 3694 0c3a 41       		.byte	0x41
 3695 0c3b 1A       		.uleb128 0x1a
 3696 0c3c 01       		.uleb128 0x1
 3697 0c3d 51       		.byte	0x51
 3698 0c3e 03       		.uleb128 0x3
 3699 0c3f 0A       		.byte	0xa
 3700 0c40 3131     		.2byte	0x3131
 3701 0c42 00       		.byte	0
 3702 0c43 19       		.uleb128 0x19
 3703 0c44 1C000000 		.4byte	.LVL51
 3704 0c48 1F090000 		.4byte	0x91f
 3705 0c4c 5D0C0000 		.4byte	0xc5d
 3706 0c50 1A       		.uleb128 0x1a
 3707 0c51 01       		.uleb128 0x1
 3708 0c52 50       		.byte	0x50
 3709 0c53 01       		.uleb128 0x1
 3710 0c54 36       		.byte	0x36
 3711 0c55 1A       		.uleb128 0x1a
 3712 0c56 01       		.uleb128 0x1
 3713 0c57 51       		.byte	0x51
 3714 0c58 03       		.uleb128 0x3
 3715 0c59 0A       		.byte	0xa
 3716 0c5a 001F     		.2byte	0x1f00
 3717 0c5c 00       		.byte	0
 3718 0c5d 19       		.uleb128 0x19
 3719 0c5e 26000000 		.4byte	.LVL52
 3720 0c62 1F090000 		.4byte	0x91f
 3721 0c66 770C0000 		.4byte	0xc77
 3722 0c6a 1A       		.uleb128 0x1a
 3723 0c6b 01       		.uleb128 0x1
 3724 0c6c 50       		.byte	0x50
ARM GAS  C:\Users\thoma\AppData\Local\Temp\cceCswqS.s 			page 80


 3725 0c6d 01       		.uleb128 0x1
 3726 0c6e 31       		.byte	0x31
 3727 0c6f 1A       		.uleb128 0x1a
 3728 0c70 01       		.uleb128 0x1
 3729 0c71 51       		.byte	0x51
 3730 0c72 03       		.uleb128 0x3
 3731 0c73 0A       		.byte	0xa
 3732 0c74 DF01     		.2byte	0x1df
 3733 0c76 00       		.byte	0
 3734 0c77 19       		.uleb128 0x19
 3735 0c78 30000000 		.4byte	.LVL53
 3736 0c7c 1F090000 		.4byte	0x91f
 3737 0c80 910C0000 		.4byte	0xc91
 3738 0c84 1A       		.uleb128 0x1a
 3739 0c85 01       		.uleb128 0x1
 3740 0c86 50       		.byte	0x50
 3741 0c87 01       		.uleb128 0x1
 3742 0c88 3B       		.byte	0x3b
 3743 0c89 1A       		.uleb128 0x1a
 3744 0c8a 01       		.uleb128 0x1
 3745 0c8b 51       		.byte	0x51
 3746 0c8c 03       		.uleb128 0x3
 3747 0c8d 0A       		.byte	0xa
 3748 0c8e 0101     		.2byte	0x101
 3749 0c90 00       		.byte	0
 3750 0c91 1E       		.uleb128 0x1e
 3751 0c92 38000000 		.4byte	.LVL54
 3752 0c96 1F090000 		.4byte	0x91f
 3753 0c9a 1A       		.uleb128 0x1a
 3754 0c9b 01       		.uleb128 0x1
 3755 0c9c 50       		.byte	0x50
 3756 0c9d 01       		.uleb128 0x1
 3757 0c9e 32       		.byte	0x32
 3758 0c9f 1A       		.uleb128 0x1a
 3759 0ca0 01       		.uleb128 0x1
 3760 0ca1 51       		.byte	0x51
 3761 0ca2 01       		.uleb128 0x1
 3762 0ca3 35       		.byte	0x35
 3763 0ca4 00       		.byte	0
 3764 0ca5 00       		.byte	0
 3765 0ca6 17       		.uleb128 0x17
 3766 0ca7 460D0000 		.4byte	.LASF209
 3767 0cab 01       		.byte	0x1
 3768 0cac 98       		.byte	0x98
 3769 0cad 34050000 		.4byte	0x534
 3770 0cb1 00000000 		.4byte	.LFB542
 3771 0cb5 2C000000 		.4byte	.LFE542-.LFB542
 3772 0cb9 01       		.uleb128 0x1
 3773 0cba 9C       		.byte	0x9c
 3774 0cbb 0F0D0000 		.4byte	0xd0f
 3775 0cbf 18       		.uleb128 0x18
 3776 0cc0 36020000 		.4byte	.LASF210
 3777 0cc4 01       		.byte	0x1
 3778 0cc5 98       		.byte	0x98
 3779 0cc6 3B080000 		.4byte	0x83b
 3780 0cca 10020000 		.4byte	.LLST14
 3781 0cce 18       		.uleb128 0x18
ARM GAS  C:\Users\thoma\AppData\Local\Temp\cceCswqS.s 			page 81


 3782 0ccf E40E0000 		.4byte	.LASF211
 3783 0cd3 01       		.byte	0x1
 3784 0cd4 98       		.byte	0x98
 3785 0cd5 11080000 		.4byte	0x811
 3786 0cd9 31020000 		.4byte	.LLST15
 3787 0cdd 1D       		.uleb128 0x1d
 3788 0cde 2D010000 		.4byte	.LASF195
 3789 0ce2 01       		.byte	0x1
 3790 0ce3 99       		.byte	0x99
 3791 0ce4 B8000000 		.4byte	0xb8
 3792 0ce8 52020000 		.4byte	.LLST16
 3793 0cec 19       		.uleb128 0x19
 3794 0ced 0C000000 		.4byte	.LVL57
 3795 0cf1 B7090000 		.4byte	0x9b7
 3796 0cf5 FF0C0000 		.4byte	0xcff
 3797 0cf9 1A       		.uleb128 0x1a
 3798 0cfa 01       		.uleb128 0x1
 3799 0cfb 50       		.byte	0x50
 3800 0cfc 01       		.uleb128 0x1
 3801 0cfd 44       		.byte	0x44
 3802 0cfe 00       		.byte	0
 3803 0cff 1E       		.uleb128 0x1e
 3804 0d00 2A000000 		.4byte	.LVL65
 3805 0d04 1F090000 		.4byte	0x91f
 3806 0d08 1A       		.uleb128 0x1a
 3807 0d09 01       		.uleb128 0x1
 3808 0d0a 50       		.byte	0x50
 3809 0d0b 01       		.uleb128 0x1
 3810 0d0c 44       		.byte	0x44
 3811 0d0d 00       		.byte	0
 3812 0d0e 00       		.byte	0
 3813 0d0f 17       		.uleb128 0x17
 3814 0d10 710B0000 		.4byte	.LASF212
 3815 0d14 01       		.byte	0x1
 3816 0d15 AB       		.byte	0xab
 3817 0d16 34050000 		.4byte	0x534
 3818 0d1a 00000000 		.4byte	.LFB543
 3819 0d1e 0E000000 		.4byte	.LFE543-.LFB543
 3820 0d22 01       		.uleb128 0x1
 3821 0d23 9C       		.byte	0x9c
 3822 0d24 3E0D0000 		.4byte	0xd3e
 3823 0d28 1E       		.uleb128 0x1e
 3824 0d29 0C000000 		.4byte	.LVL66
 3825 0d2d 1F090000 		.4byte	0x91f
 3826 0d31 1A       		.uleb128 0x1a
 3827 0d32 01       		.uleb128 0x1
 3828 0d33 50       		.byte	0x50
 3829 0d34 01       		.uleb128 0x1
 3830 0d35 44       		.byte	0x44
 3831 0d36 1A       		.uleb128 0x1a
 3832 0d37 01       		.uleb128 0x1
 3833 0d38 51       		.byte	0x51
 3834 0d39 02       		.uleb128 0x2
 3835 0d3a 09       		.byte	0x9
 3836 0d3b F0       		.byte	0xf0
 3837 0d3c 00       		.byte	0
 3838 0d3d 00       		.byte	0
ARM GAS  C:\Users\thoma\AppData\Local\Temp\cceCswqS.s 			page 82


 3839 0d3e 1F       		.uleb128 0x1f
 3840 0d3f A40B0000 		.4byte	.LASF214
 3841 0d43 01       		.byte	0x1
 3842 0d44 BC       		.byte	0xbc
 3843 0d45 00000000 		.4byte	.LFB544
 3844 0d49 32000000 		.4byte	.LFE544-.LFB544
 3845 0d4d 01       		.uleb128 0x1
 3846 0d4e 9C       		.byte	0x9c
 3847 0d4f BE0D0000 		.4byte	0xdbe
 3848 0d53 18       		.uleb128 0x18
 3849 0d54 88070000 		.4byte	.LASF215
 3850 0d58 01       		.byte	0x1
 3851 0d59 BC       		.byte	0xbc
 3852 0d5a BE0D0000 		.4byte	0xdbe
 3853 0d5e 9C020000 		.4byte	.LLST17
 3854 0d62 18       		.uleb128 0x18
 3855 0d63 0F030000 		.4byte	.LASF216
 3856 0d67 01       		.byte	0x1
 3857 0d68 BC       		.byte	0xbc
 3858 0d69 BE0D0000 		.4byte	0xdbe
 3859 0d6d BA020000 		.4byte	.LLST18
 3860 0d71 18       		.uleb128 0x18
 3861 0d72 1E070000 		.4byte	.LASF217
 3862 0d76 01       		.byte	0x1
 3863 0d77 BC       		.byte	0xbc
 3864 0d78 A2000000 		.4byte	0xa2
 3865 0d7c D8020000 		.4byte	.LLST19
 3866 0d80 20       		.uleb128 0x20
 3867 0d81 08000000 		.4byte	.LBB2
 3868 0d85 28000000 		.4byte	.LBE2-.LBB2
 3869 0d89 21       		.uleb128 0x21
 3870 0d8a 6900     		.ascii	"i\000"
 3871 0d8c 01       		.byte	0x1
 3872 0d8d BD       		.byte	0xbd
 3873 0d8e A2000000 		.4byte	0xa2
 3874 0d92 F9020000 		.4byte	.LLST20
 3875 0d96 19       		.uleb128 0x19
 3876 0d97 16000000 		.4byte	.LVL70
 3877 0d9b B7090000 		.4byte	0x9b7
 3878 0d9f AB0D0000 		.4byte	0xdab
 3879 0da3 1A       		.uleb128 0x1a
 3880 0da4 01       		.uleb128 0x1
 3881 0da5 50       		.byte	0x50
 3882 0da6 03       		.uleb128 0x3
 3883 0da7 74       		.byte	0x74
 3884 0da8 E400     		.sleb128 100
 3885 0daa 00       		.byte	0
 3886 0dab 1E       		.uleb128 0x1e
 3887 0dac 24000000 		.4byte	.LVL71
 3888 0db0 B7090000 		.4byte	0x9b7
 3889 0db4 1A       		.uleb128 0x1a
 3890 0db5 01       		.uleb128 0x1
 3891 0db6 50       		.byte	0x50
 3892 0db7 03       		.uleb128 0x3
 3893 0db8 74       		.byte	0x74
 3894 0db9 E800     		.sleb128 104
 3895 0dbb 00       		.byte	0
ARM GAS  C:\Users\thoma\AppData\Local\Temp\cceCswqS.s 			page 83


 3896 0dbc 00       		.byte	0
 3897 0dbd 00       		.byte	0
 3898 0dbe 10       		.uleb128 0x10
 3899 0dbf 04       		.byte	0x4
 3900 0dc0 E5000000 		.4byte	0xe5
 3901 0dc4 17       		.uleb128 0x17
 3902 0dc5 310A0000 		.4byte	.LASF218
 3903 0dc9 01       		.byte	0x1
 3904 0dca CC       		.byte	0xcc
 3905 0dcb 34050000 		.4byte	0x534
 3906 0dcf 00000000 		.4byte	.LFB545
 3907 0dd3 1C000000 		.4byte	.LFE545-.LFB545
 3908 0dd7 01       		.uleb128 0x1
 3909 0dd8 9C       		.byte	0x9c
 3910 0dd9 3E0E0000 		.4byte	0xe3e
 3911 0ddd 18       		.uleb128 0x18
 3912 0dde E40E0000 		.4byte	.LASF211
 3913 0de2 01       		.byte	0x1
 3914 0de3 CC       		.byte	0xcc
 3915 0de4 11080000 		.4byte	0x811
 3916 0de8 23030000 		.4byte	.LLST21
 3917 0dec 18       		.uleb128 0x18
 3918 0ded 02060000 		.4byte	.LASF219
 3919 0df1 01       		.byte	0x1
 3920 0df2 CC       		.byte	0xcc
 3921 0df3 A2000000 		.4byte	0xa2
 3922 0df7 5D030000 		.4byte	.LLST22
 3923 0dfb 18       		.uleb128 0x18
 3924 0dfc C8040000 		.4byte	.LASF220
 3925 0e00 01       		.byte	0x1
 3926 0e01 CC       		.byte	0xcc
 3927 0e02 A2000000 		.4byte	0xa2
 3928 0e06 7E030000 		.4byte	.LLST23
 3929 0e0a 1D       		.uleb128 0x1d
 3930 0e0b 2D010000 		.4byte	.LASF195
 3931 0e0f 01       		.byte	0x1
 3932 0e10 CD       		.byte	0xcd
 3933 0e11 B8000000 		.4byte	0xb8
 3934 0e15 B8030000 		.4byte	.LLST24
 3935 0e19 19       		.uleb128 0x19
 3936 0e1a 12000000 		.4byte	.LVL78
 3937 0e1e 1F090000 		.4byte	0x91f
 3938 0e22 2D0E0000 		.4byte	0xe2d
 3939 0e26 1A       		.uleb128 0x1a
 3940 0e27 01       		.uleb128 0x1
 3941 0e28 50       		.byte	0x50
 3942 0e29 02       		.uleb128 0x2
 3943 0e2a 08       		.byte	0x8
 3944 0e2b 30       		.byte	0x30
 3945 0e2c 00       		.byte	0
 3946 0e2d 1E       		.uleb128 0x1e
 3947 0e2e 1A000000 		.4byte	.LVL81
 3948 0e32 1F090000 		.4byte	0x91f
 3949 0e36 1A       		.uleb128 0x1a
 3950 0e37 01       		.uleb128 0x1
 3951 0e38 50       		.byte	0x50
 3952 0e39 02       		.uleb128 0x2
ARM GAS  C:\Users\thoma\AppData\Local\Temp\cceCswqS.s 			page 84


 3953 0e3a 08       		.byte	0x8
 3954 0e3b 35       		.byte	0x35
 3955 0e3c 00       		.byte	0
 3956 0e3d 00       		.byte	0
 3957 0e3e 17       		.uleb128 0x17
 3958 0e3f 94090000 		.4byte	.LASF221
 3959 0e43 01       		.byte	0x1
 3960 0e44 E0       		.byte	0xe0
 3961 0e45 34050000 		.4byte	0x534
 3962 0e49 00000000 		.4byte	.LFB546
 3963 0e4d 3C000000 		.4byte	.LFE546-.LFB546
 3964 0e51 01       		.uleb128 0x1
 3965 0e52 9C       		.byte	0x9c
 3966 0e53 C70E0000 		.4byte	0xec7
 3967 0e57 18       		.uleb128 0x18
 3968 0e58 E40E0000 		.4byte	.LASF211
 3969 0e5c 01       		.byte	0x1
 3970 0e5d E0       		.byte	0xe0
 3971 0e5e 11080000 		.4byte	0x811
 3972 0e62 D6030000 		.4byte	.LLST25
 3973 0e66 18       		.uleb128 0x18
 3974 0e67 02060000 		.4byte	.LASF219
 3975 0e6b 01       		.byte	0x1
 3976 0e6c E0       		.byte	0xe0
 3977 0e6d A2000000 		.4byte	0xa2
 3978 0e71 10040000 		.4byte	.LLST26
 3979 0e75 18       		.uleb128 0x18
 3980 0e76 C8040000 		.4byte	.LASF220
 3981 0e7a 01       		.byte	0x1
 3982 0e7b E0       		.byte	0xe0
 3983 0e7c A2000000 		.4byte	0xa2
 3984 0e80 4A040000 		.4byte	.LLST27
 3985 0e84 18       		.uleb128 0x18
 3986 0e85 08050000 		.4byte	.LASF222
 3987 0e89 01       		.byte	0x1
 3988 0e8a E0       		.byte	0xe0
 3989 0e8b A2000000 		.4byte	0xa2
 3990 0e8f 84040000 		.4byte	.LLST28
 3991 0e93 1D       		.uleb128 0x1d
 3992 0e94 2D010000 		.4byte	.LASF195
 3993 0e98 01       		.byte	0x1
 3994 0e99 E1       		.byte	0xe1
 3995 0e9a B8000000 		.4byte	0xb8
 3996 0e9e BE040000 		.4byte	.LLST29
 3997 0ea2 19       		.uleb128 0x19
 3998 0ea3 1E000000 		.4byte	.LVL88
 3999 0ea7 1F090000 		.4byte	0x91f
 4000 0eab B60E0000 		.4byte	0xeb6
 4001 0eaf 1A       		.uleb128 0x1a
 4002 0eb0 01       		.uleb128 0x1
 4003 0eb1 50       		.byte	0x50
 4004 0eb2 02       		.uleb128 0x2
 4005 0eb3 08       		.byte	0x8
 4006 0eb4 39       		.byte	0x39
 4007 0eb5 00       		.byte	0
 4008 0eb6 1E       		.uleb128 0x1e
 4009 0eb7 3A000000 		.4byte	.LVL94
ARM GAS  C:\Users\thoma\AppData\Local\Temp\cceCswqS.s 			page 85


 4010 0ebb 1F090000 		.4byte	0x91f
 4011 0ebf 1A       		.uleb128 0x1a
 4012 0ec0 01       		.uleb128 0x1
 4013 0ec1 50       		.byte	0x50
 4014 0ec2 02       		.uleb128 0x2
 4015 0ec3 08       		.byte	0x8
 4016 0ec4 3B       		.byte	0x3b
 4017 0ec5 00       		.byte	0
 4018 0ec6 00       		.byte	0
 4019 0ec7 17       		.uleb128 0x17
 4020 0ec8 58060000 		.4byte	.LASF223
 4021 0ecc 01       		.byte	0x1
 4022 0ecd F9       		.byte	0xf9
 4023 0ece 34050000 		.4byte	0x534
 4024 0ed2 00000000 		.4byte	.LFB547
 4025 0ed6 14000000 		.4byte	.LFE547-.LFB547
 4026 0eda 01       		.uleb128 0x1
 4027 0edb 9C       		.byte	0x9c
 4028 0edc 230F0000 		.4byte	0xf23
 4029 0ee0 18       		.uleb128 0x18
 4030 0ee1 E40E0000 		.4byte	.LASF211
 4031 0ee5 01       		.byte	0x1
 4032 0ee6 F9       		.byte	0xf9
 4033 0ee7 A2000000 		.4byte	0xa2
 4034 0eeb F4040000 		.4byte	.LLST30
 4035 0eef 18       		.uleb128 0x18
 4036 0ef0 A20C0000 		.4byte	.LASF224
 4037 0ef4 01       		.byte	0x1
 4038 0ef5 F9       		.byte	0xf9
 4039 0ef6 6B080000 		.4byte	0x86b
 4040 0efa 2E050000 		.4byte	.LLST31
 4041 0efe 19       		.uleb128 0x19
 4042 0eff 0A000000 		.4byte	.LVL97
 4043 0f03 1F090000 		.4byte	0x91f
 4044 0f07 120F0000 		.4byte	0xf12
 4045 0f0b 1A       		.uleb128 0x1a
 4046 0f0c 01       		.uleb128 0x1
 4047 0f0d 50       		.byte	0x50
 4048 0f0e 02       		.uleb128 0x2
 4049 0f0f 08       		.byte	0x8
 4050 0f10 42       		.byte	0x42
 4051 0f11 00       		.byte	0
 4052 0f12 1E       		.uleb128 0x1e
 4053 0f13 12000000 		.4byte	.LVL100
 4054 0f17 1F090000 		.4byte	0x91f
 4055 0f1b 1A       		.uleb128 0x1a
 4056 0f1c 01       		.uleb128 0x1
 4057 0f1d 50       		.byte	0x50
 4058 0f1e 02       		.uleb128 0x2
 4059 0f1f 08       		.byte	0x8
 4060 0f20 44       		.byte	0x44
 4061 0f21 00       		.byte	0
 4062 0f22 00       		.byte	0
 4063 0f23 22       		.uleb128 0x22
 4064 0f24 6C090000 		.4byte	.LASF225
 4065 0f28 01       		.byte	0x1
 4066 0f29 0901     		.2byte	0x109
ARM GAS  C:\Users\thoma\AppData\Local\Temp\cceCswqS.s 			page 86


 4067 0f2b 34050000 		.4byte	0x534
 4068 0f2f 00000000 		.4byte	.LFB548
 4069 0f33 12000000 		.4byte	.LFE548-.LFB548
 4070 0f37 01       		.uleb128 0x1
 4071 0f38 9C       		.byte	0x9c
 4072 0f39 6D0F0000 		.4byte	0xf6d
 4073 0f3d 23       		.uleb128 0x23
 4074 0f3e 04020000 		.4byte	.LASF226
 4075 0f42 01       		.byte	0x1
 4076 0f43 0901     		.2byte	0x109
 4077 0f45 B8000000 		.4byte	0xb8
 4078 0f49 68050000 		.4byte	.LLST32
 4079 0f4d 24       		.uleb128 0x24
 4080 0f4e 2D010000 		.4byte	.LASF195
 4081 0f52 01       		.byte	0x1
 4082 0f53 0A01     		.2byte	0x10a
 4083 0f55 B8000000 		.4byte	0xb8
 4084 0f59 89050000 		.4byte	.LLST33
 4085 0f5d 1E       		.uleb128 0x1e
 4086 0f5e 10000000 		.4byte	.LVL104
 4087 0f62 1F090000 		.4byte	0x91f
 4088 0f66 1A       		.uleb128 0x1a
 4089 0f67 01       		.uleb128 0x1
 4090 0f68 50       		.byte	0x50
 4091 0f69 01       		.uleb128 0x1
 4092 0f6a 42       		.byte	0x42
 4093 0f6b 00       		.byte	0
 4094 0f6c 00       		.byte	0
 4095 0f6d 22       		.uleb128 0x22
 4096 0f6e 4C0A0000 		.4byte	.LASF227
 4097 0f72 01       		.byte	0x1
 4098 0f73 1601     		.2byte	0x116
 4099 0f75 34050000 		.4byte	0x534
 4100 0f79 00000000 		.4byte	.LFB549
 4101 0f7d 10000000 		.4byte	.LFE549-.LFB549
 4102 0f81 01       		.uleb128 0x1
 4103 0f82 9C       		.byte	0x9c
 4104 0f83 B70F0000 		.4byte	0xfb7
 4105 0f87 23       		.uleb128 0x23
 4106 0f88 1D0B0000 		.4byte	.LASF228
 4107 0f8c 01       		.byte	0x1
 4108 0f8d 1601     		.2byte	0x116
 4109 0f8f B3080000 		.4byte	0x8b3
 4110 0f93 A2050000 		.4byte	.LLST34
 4111 0f97 24       		.uleb128 0x24
 4112 0f98 2D010000 		.4byte	.LASF195
 4113 0f9c 01       		.byte	0x1
 4114 0f9d 1701     		.2byte	0x117
 4115 0f9f B8000000 		.4byte	0xb8
 4116 0fa3 C3050000 		.4byte	.LLST35
 4117 0fa7 1E       		.uleb128 0x1e
 4118 0fa8 0E000000 		.4byte	.LVL109
 4119 0fac 1F090000 		.4byte	0x91f
 4120 0fb0 1A       		.uleb128 0x1a
 4121 0fb1 01       		.uleb128 0x1
 4122 0fb2 50       		.byte	0x50
 4123 0fb3 01       		.uleb128 0x1
ARM GAS  C:\Users\thoma\AppData\Local\Temp\cceCswqS.s 			page 87


 4124 0fb4 45       		.byte	0x45
 4125 0fb5 00       		.byte	0
 4126 0fb6 00       		.byte	0
 4127 0fb7 22       		.uleb128 0x22
 4128 0fb8 550E0000 		.4byte	.LASF229
 4129 0fbc 01       		.byte	0x1
 4130 0fbd 2301     		.2byte	0x123
 4131 0fbf 34050000 		.4byte	0x534
 4132 0fc3 00000000 		.4byte	.LFB550
 4133 0fc7 0C000000 		.4byte	.LFE550-.LFB550
 4134 0fcb 01       		.uleb128 0x1
 4135 0fcc 9C       		.byte	0x9c
 4136 0fcd F20F0000 		.4byte	0xff2
 4137 0fd1 23       		.uleb128 0x23
 4138 0fd2 2B090000 		.4byte	.LASF230
 4139 0fd6 01       		.byte	0x1
 4140 0fd7 2301     		.2byte	0x123
 4141 0fd9 D7080000 		.4byte	0x8d7
 4142 0fdd F1050000 		.4byte	.LLST36
 4143 0fe1 1E       		.uleb128 0x1e
 4144 0fe2 0A000000 		.4byte	.LVL112
 4145 0fe6 1F090000 		.4byte	0x91f
 4146 0fea 1A       		.uleb128 0x1a
 4147 0feb 01       		.uleb128 0x1
 4148 0fec 50       		.byte	0x50
 4149 0fed 02       		.uleb128 0x2
 4150 0fee 08       		.byte	0x8
 4151 0fef 4E       		.byte	0x4e
 4152 0ff0 00       		.byte	0
 4153 0ff1 00       		.byte	0
 4154 0ff2 22       		.uleb128 0x22
 4155 0ff3 3B030000 		.4byte	.LASF231
 4156 0ff7 01       		.byte	0x1
 4157 0ff8 2C01     		.2byte	0x12c
 4158 0ffa 34050000 		.4byte	0x534
 4159 0ffe 00000000 		.4byte	.LFB551
 4160 1002 16000000 		.4byte	.LFE551-.LFB551
 4161 1006 01       		.uleb128 0x1
 4162 1007 9C       		.byte	0x9c
 4163 1008 51100000 		.4byte	0x1051
 4164 100c 24       		.uleb128 0x24
 4165 100d 89060000 		.4byte	.LASF232
 4166 1011 01       		.byte	0x1
 4167 1012 2D01     		.2byte	0x12d
 4168 1014 B8000000 		.4byte	0xb8
 4169 1018 12060000 		.4byte	.LLST37
 4170 101c 25       		.uleb128 0x25
 4171 101d 6E657700 		.ascii	"new\000"
 4172 1021 01       		.byte	0x1
 4173 1022 2E01     		.2byte	0x12e
 4174 1024 B8000000 		.4byte	0xb8
 4175 1028 25060000 		.4byte	.LLST38
 4176 102c 19       		.uleb128 0x19
 4177 102d 08000000 		.4byte	.LVL113
 4178 1031 B7090000 		.4byte	0x9b7
 4179 1035 40100000 		.4byte	0x1040
 4180 1039 1A       		.uleb128 0x1a
ARM GAS  C:\Users\thoma\AppData\Local\Temp\cceCswqS.s 			page 88


 4181 103a 01       		.uleb128 0x1
 4182 103b 50       		.byte	0x50
 4183 103c 02       		.uleb128 0x2
 4184 103d 08       		.byte	0x8
 4185 103e 5F       		.byte	0x5f
 4186 103f 00       		.byte	0
 4187 1040 1E       		.uleb128 0x1e
 4188 1041 14000000 		.4byte	.LVL116
 4189 1045 1F090000 		.4byte	0x91f
 4190 1049 1A       		.uleb128 0x1a
 4191 104a 01       		.uleb128 0x1
 4192 104b 50       		.byte	0x50
 4193 104c 02       		.uleb128 0x2
 4194 104d 08       		.byte	0x8
 4195 104e 5F       		.byte	0x5f
 4196 104f 00       		.byte	0
 4197 1050 00       		.byte	0
 4198 1051 22       		.uleb128 0x22
 4199 1052 23040000 		.4byte	.LASF233
 4200 1056 01       		.byte	0x1
 4201 1057 3701     		.2byte	0x137
 4202 1059 34050000 		.4byte	0x534
 4203 105d 00000000 		.4byte	.LFB552
 4204 1061 0C000000 		.4byte	.LFE552-.LFB552
 4205 1065 01       		.uleb128 0x1
 4206 1066 9C       		.byte	0x9c
 4207 1067 80100000 		.4byte	0x1080
 4208 106b 1E       		.uleb128 0x1e
 4209 106c 0A000000 		.4byte	.LVL117
 4210 1070 1F090000 		.4byte	0x91f
 4211 1074 1A       		.uleb128 0x1a
 4212 1075 01       		.uleb128 0x1
 4213 1076 50       		.byte	0x50
 4214 1077 01       		.uleb128 0x1
 4215 1078 3F       		.byte	0x3f
 4216 1079 1A       		.uleb128 0x1a
 4217 107a 01       		.uleb128 0x1
 4218 107b 51       		.byte	0x51
 4219 107c 01       		.uleb128 0x1
 4220 107d 31       		.byte	0x31
 4221 107e 00       		.byte	0
 4222 107f 00       		.byte	0
 4223 1080 26       		.uleb128 0x26
 4224 1081 44070000 		.4byte	.LASF234
 4225 1085 01       		.byte	0x1
 4226 1086 4301     		.2byte	0x143
 4227 1088 00000000 		.4byte	.LFB553
 4228 108c 64000000 		.4byte	.LFE553-.LFB553
 4229 1090 01       		.uleb128 0x1
 4230 1091 9C       		.byte	0x9c
 4231 1092 8C110000 		.4byte	0x118c
 4232 1096 23       		.uleb128 0x23
 4233 1097 E40E0000 		.4byte	.LASF211
 4234 109b 01       		.byte	0x1
 4235 109c 4301     		.2byte	0x143
 4236 109e 11080000 		.4byte	0x811
 4237 10a2 38060000 		.4byte	.LLST39
ARM GAS  C:\Users\thoma\AppData\Local\Temp\cceCswqS.s 			page 89


 4238 10a6 27       		.uleb128 0x27
 4239 10a7 13050000 		.4byte	.LASF235
 4240 10ab 01       		.byte	0x1
 4241 10ac 4301     		.2byte	0x143
 4242 10ae E2080000 		.4byte	0x8e2
 4243 10b2 02       		.uleb128 0x2
 4244 10b3 91       		.byte	0x91
 4245 10b4 70       		.sleb128 -16
 4246 10b5 19       		.uleb128 0x19
 4247 10b6 16000000 		.4byte	.LVL120
 4248 10ba 1F090000 		.4byte	0x91f
 4249 10be D0100000 		.4byte	0x10d0
 4250 10c2 1A       		.uleb128 0x1a
 4251 10c3 01       		.uleb128 0x1
 4252 10c4 50       		.byte	0x50
 4253 10c5 01       		.uleb128 0x1
 4254 10c6 48       		.byte	0x48
 4255 10c7 1A       		.uleb128 0x1a
 4256 10c8 01       		.uleb128 0x1
 4257 10c9 51       		.byte	0x51
 4258 10ca 04       		.uleb128 0x4
 4259 10cb 7D       		.byte	0x7d
 4260 10cc 00       		.sleb128 0
 4261 10cd 94       		.byte	0x94
 4262 10ce 02       		.byte	0x2
 4263 10cf 00       		.byte	0
 4264 10d0 19       		.uleb128 0x19
 4265 10d1 20000000 		.4byte	.LVL121
 4266 10d5 1F090000 		.4byte	0x91f
 4267 10d9 EB100000 		.4byte	0x10eb
 4268 10dd 1A       		.uleb128 0x1a
 4269 10de 01       		.uleb128 0x1
 4270 10df 50       		.byte	0x50
 4271 10e0 01       		.uleb128 0x1
 4272 10e1 49       		.byte	0x49
 4273 10e2 1A       		.uleb128 0x1a
 4274 10e3 01       		.uleb128 0x1
 4275 10e4 51       		.byte	0x51
 4276 10e5 04       		.uleb128 0x4
 4277 10e6 91       		.byte	0x91
 4278 10e7 72       		.sleb128 -14
 4279 10e8 94       		.byte	0x94
 4280 10e9 02       		.byte	0x2
 4281 10ea 00       		.byte	0
 4282 10eb 19       		.uleb128 0x19
 4283 10ec 2A000000 		.4byte	.LVL122
 4284 10f0 1F090000 		.4byte	0x91f
 4285 10f4 06110000 		.4byte	0x1106
 4286 10f8 1A       		.uleb128 0x1a
 4287 10f9 01       		.uleb128 0x1
 4288 10fa 50       		.byte	0x50
 4289 10fb 01       		.uleb128 0x1
 4290 10fc 4A       		.byte	0x4a
 4291 10fd 1A       		.uleb128 0x1a
 4292 10fe 01       		.uleb128 0x1
 4293 10ff 51       		.byte	0x51
 4294 1100 04       		.uleb128 0x4
ARM GAS  C:\Users\thoma\AppData\Local\Temp\cceCswqS.s 			page 90


 4295 1101 91       		.byte	0x91
 4296 1102 74       		.sleb128 -12
 4297 1103 94       		.byte	0x94
 4298 1104 02       		.byte	0x2
 4299 1105 00       		.byte	0
 4300 1106 19       		.uleb128 0x19
 4301 1107 34000000 		.4byte	.LVL123
 4302 110b 1F090000 		.4byte	0x91f
 4303 110f 21110000 		.4byte	0x1121
 4304 1113 1A       		.uleb128 0x1a
 4305 1114 01       		.uleb128 0x1
 4306 1115 50       		.byte	0x50
 4307 1116 01       		.uleb128 0x1
 4308 1117 4B       		.byte	0x4b
 4309 1118 1A       		.uleb128 0x1a
 4310 1119 01       		.uleb128 0x1
 4311 111a 51       		.byte	0x51
 4312 111b 04       		.uleb128 0x4
 4313 111c 91       		.byte	0x91
 4314 111d 76       		.sleb128 -10
 4315 111e 94       		.byte	0x94
 4316 111f 02       		.byte	0x2
 4317 1120 00       		.byte	0
 4318 1121 19       		.uleb128 0x19
 4319 1122 40000000 		.4byte	.LVL126
 4320 1126 1F090000 		.4byte	0x91f
 4321 112a 3C110000 		.4byte	0x113c
 4322 112e 1A       		.uleb128 0x1a
 4323 112f 01       		.uleb128 0x1
 4324 1130 50       		.byte	0x50
 4325 1131 01       		.uleb128 0x1
 4326 1132 4E       		.byte	0x4e
 4327 1133 1A       		.uleb128 0x1a
 4328 1134 01       		.uleb128 0x1
 4329 1135 51       		.byte	0x51
 4330 1136 04       		.uleb128 0x4
 4331 1137 7D       		.byte	0x7d
 4332 1138 00       		.sleb128 0
 4333 1139 94       		.byte	0x94
 4334 113a 02       		.byte	0x2
 4335 113b 00       		.byte	0
 4336 113c 19       		.uleb128 0x19
 4337 113d 4A000000 		.4byte	.LVL127
 4338 1141 1F090000 		.4byte	0x91f
 4339 1145 57110000 		.4byte	0x1157
 4340 1149 1A       		.uleb128 0x1a
 4341 114a 01       		.uleb128 0x1
 4342 114b 50       		.byte	0x50
 4343 114c 01       		.uleb128 0x1
 4344 114d 4F       		.byte	0x4f
 4345 114e 1A       		.uleb128 0x1a
 4346 114f 01       		.uleb128 0x1
 4347 1150 51       		.byte	0x51
 4348 1151 04       		.uleb128 0x4
 4349 1152 91       		.byte	0x91
 4350 1153 72       		.sleb128 -14
 4351 1154 94       		.byte	0x94
ARM GAS  C:\Users\thoma\AppData\Local\Temp\cceCswqS.s 			page 91


 4352 1155 02       		.byte	0x2
 4353 1156 00       		.byte	0
 4354 1157 19       		.uleb128 0x19
 4355 1158 54000000 		.4byte	.LVL128
 4356 115c 1F090000 		.4byte	0x91f
 4357 1160 73110000 		.4byte	0x1173
 4358 1164 1A       		.uleb128 0x1a
 4359 1165 01       		.uleb128 0x1
 4360 1166 50       		.byte	0x50
 4361 1167 02       		.uleb128 0x2
 4362 1168 08       		.byte	0x8
 4363 1169 20       		.byte	0x20
 4364 116a 1A       		.uleb128 0x1a
 4365 116b 01       		.uleb128 0x1
 4366 116c 51       		.byte	0x51
 4367 116d 04       		.uleb128 0x4
 4368 116e 91       		.byte	0x91
 4369 116f 74       		.sleb128 -12
 4370 1170 94       		.byte	0x94
 4371 1171 02       		.byte	0x2
 4372 1172 00       		.byte	0
 4373 1173 1E       		.uleb128 0x1e
 4374 1174 5E000000 		.4byte	.LVL129
 4375 1178 1F090000 		.4byte	0x91f
 4376 117c 1A       		.uleb128 0x1a
 4377 117d 01       		.uleb128 0x1
 4378 117e 50       		.byte	0x50
 4379 117f 02       		.uleb128 0x2
 4380 1180 08       		.byte	0x8
 4381 1181 21       		.byte	0x21
 4382 1182 1A       		.uleb128 0x1a
 4383 1183 01       		.uleb128 0x1
 4384 1184 51       		.byte	0x51
 4385 1185 04       		.uleb128 0x4
 4386 1186 91       		.byte	0x91
 4387 1187 76       		.sleb128 -10
 4388 1188 94       		.byte	0x94
 4389 1189 02       		.byte	0x2
 4390 118a 00       		.byte	0
 4391 118b 00       		.byte	0
 4392 118c 22       		.uleb128 0x22
 4393 118d 5D0B0000 		.4byte	.LASF236
 4394 1191 01       		.byte	0x1
 4395 1192 5801     		.2byte	0x158
 4396 1194 34050000 		.4byte	0x534
 4397 1198 00000000 		.4byte	.LFB554
 4398 119c 16000000 		.4byte	.LFE554-.LFB554
 4399 11a0 01       		.uleb128 0x1
 4400 11a1 9C       		.byte	0x9c
 4401 11a2 EB110000 		.4byte	0x11eb
 4402 11a6 23       		.uleb128 0x23
 4403 11a7 E40E0000 		.4byte	.LASF211
 4404 11ab 01       		.byte	0x1
 4405 11ac 5801     		.2byte	0x158
 4406 11ae 11080000 		.4byte	0x811
 4407 11b2 72060000 		.4byte	.LLST40
 4408 11b6 24       		.uleb128 0x24
ARM GAS  C:\Users\thoma\AppData\Local\Temp\cceCswqS.s 			page 92


 4409 11b7 2D010000 		.4byte	.LASF195
 4410 11bb 01       		.byte	0x1
 4411 11bc 5901     		.2byte	0x159
 4412 11be B8000000 		.4byte	0xb8
 4413 11c2 93060000 		.4byte	.LLST41
 4414 11c6 19       		.uleb128 0x19
 4415 11c7 08000000 		.4byte	.LVL132
 4416 11cb B7090000 		.4byte	0x9b7
 4417 11cf DA110000 		.4byte	0x11da
 4418 11d3 1A       		.uleb128 0x1a
 4419 11d4 01       		.uleb128 0x1
 4420 11d5 50       		.byte	0x50
 4421 11d6 02       		.uleb128 0x2
 4422 11d7 08       		.byte	0x8
 4423 11d8 34       		.byte	0x34
 4424 11d9 00       		.byte	0
 4425 11da 1E       		.uleb128 0x1e
 4426 11db 14000000 		.4byte	.LVL134
 4427 11df 1F090000 		.4byte	0x91f
 4428 11e3 1A       		.uleb128 0x1a
 4429 11e4 01       		.uleb128 0x1
 4430 11e5 50       		.byte	0x50
 4431 11e6 02       		.uleb128 0x2
 4432 11e7 08       		.byte	0x8
 4433 11e8 34       		.byte	0x34
 4434 11e9 00       		.byte	0
 4435 11ea 00       		.byte	0
 4436 11eb 22       		.uleb128 0x22
 4437 11ec 00070000 		.4byte	.LASF237
 4438 11f0 01       		.byte	0x1
 4439 11f1 6D01     		.2byte	0x16d
 4440 11f3 34050000 		.4byte	0x534
 4441 11f7 00000000 		.4byte	.LFB555
 4442 11fb 16000000 		.4byte	.LFE555-.LFB555
 4443 11ff 01       		.uleb128 0x1
 4444 1200 9C       		.byte	0x9c
 4445 1201 4A120000 		.4byte	0x124a
 4446 1205 23       		.uleb128 0x23
 4447 1206 E40E0000 		.4byte	.LASF211
 4448 120a 01       		.byte	0x1
 4449 120b 6D01     		.2byte	0x16d
 4450 120d 11080000 		.4byte	0x811
 4451 1211 B1060000 		.4byte	.LLST42
 4452 1215 24       		.uleb128 0x24
 4453 1216 2D010000 		.4byte	.LASF195
 4454 121a 01       		.byte	0x1
 4455 121b 6F01     		.2byte	0x16f
 4456 121d B8000000 		.4byte	0xb8
 4457 1221 D2060000 		.4byte	.LLST43
 4458 1225 19       		.uleb128 0x19
 4459 1226 08000000 		.4byte	.LVL137
 4460 122a B7090000 		.4byte	0x9b7
 4461 122e 39120000 		.4byte	0x1239
 4462 1232 1A       		.uleb128 0x1a
 4463 1233 01       		.uleb128 0x1
 4464 1234 50       		.byte	0x50
 4465 1235 02       		.uleb128 0x2
ARM GAS  C:\Users\thoma\AppData\Local\Temp\cceCswqS.s 			page 93


 4466 1236 08       		.byte	0x8
 4467 1237 34       		.byte	0x34
 4468 1238 00       		.byte	0
 4469 1239 1E       		.uleb128 0x1e
 4470 123a 14000000 		.4byte	.LVL140
 4471 123e 1F090000 		.4byte	0x91f
 4472 1242 1A       		.uleb128 0x1a
 4473 1243 01       		.uleb128 0x1
 4474 1244 50       		.byte	0x50
 4475 1245 02       		.uleb128 0x2
 4476 1246 08       		.byte	0x8
 4477 1247 34       		.byte	0x34
 4478 1248 00       		.byte	0
 4479 1249 00       		.byte	0
 4480 124a 22       		.uleb128 0x22
 4481 124b 30060000 		.4byte	.LASF238
 4482 124f 01       		.byte	0x1
 4483 1250 8401     		.2byte	0x184
 4484 1252 34050000 		.4byte	0x534
 4485 1256 00000000 		.4byte	.LFB556
 4486 125a 18000000 		.4byte	.LFE556-.LFB556
 4487 125e 01       		.uleb128 0x1
 4488 125f 9C       		.byte	0x9c
 4489 1260 C9120000 		.4byte	0x12c9
 4490 1264 23       		.uleb128 0x23
 4491 1265 E40E0000 		.4byte	.LASF211
 4492 1269 01       		.byte	0x1
 4493 126a 8401     		.2byte	0x184
 4494 126c 11080000 		.4byte	0x811
 4495 1270 F0060000 		.4byte	.LLST44
 4496 1274 23       		.uleb128 0x23
 4497 1275 EF050000 		.4byte	.LASF239
 4498 1279 01       		.byte	0x1
 4499 127a 8401     		.2byte	0x184
 4500 127c A2000000 		.4byte	0xa2
 4501 1280 2A070000 		.4byte	.LLST45
 4502 1284 23       		.uleb128 0x23
 4503 1285 5D040000 		.4byte	.LASF240
 4504 1289 01       		.byte	0x1
 4505 128a 8401     		.2byte	0x184
 4506 128c A2000000 		.4byte	0xa2
 4507 1290 4B070000 		.4byte	.LLST46
 4508 1294 24       		.uleb128 0x24
 4509 1295 2D010000 		.4byte	.LASF195
 4510 1299 01       		.byte	0x1
 4511 129a 8501     		.2byte	0x185
 4512 129c B8000000 		.4byte	0xb8
 4513 12a0 85070000 		.4byte	.LLST47
 4514 12a4 19       		.uleb128 0x19
 4515 12a5 0E000000 		.4byte	.LVL144
 4516 12a9 1F090000 		.4byte	0x91f
 4517 12ad B8120000 		.4byte	0x12b8
 4518 12b1 1A       		.uleb128 0x1a
 4519 12b2 01       		.uleb128 0x1
 4520 12b3 50       		.byte	0x50
 4521 12b4 02       		.uleb128 0x2
 4522 12b5 08       		.byte	0x8
ARM GAS  C:\Users\thoma\AppData\Local\Temp\cceCswqS.s 			page 94


 4523 12b6 31       		.byte	0x31
 4524 12b7 00       		.byte	0
 4525 12b8 1E       		.uleb128 0x1e
 4526 12b9 16000000 		.4byte	.LVL147
 4527 12bd 1F090000 		.4byte	0x91f
 4528 12c1 1A       		.uleb128 0x1a
 4529 12c2 01       		.uleb128 0x1
 4530 12c3 50       		.byte	0x50
 4531 12c4 02       		.uleb128 0x2
 4532 12c5 08       		.byte	0x8
 4533 12c6 36       		.byte	0x36
 4534 12c7 00       		.byte	0
 4535 12c8 00       		.byte	0
 4536 12c9 26       		.uleb128 0x26
 4537 12ca D00D0000 		.4byte	.LASF241
 4538 12ce 01       		.byte	0x1
 4539 12cf D201     		.2byte	0x1d2
 4540 12d1 00000000 		.4byte	.LFB558
 4541 12d5 10010000 		.4byte	.LFE558-.LFB558
 4542 12d9 01       		.uleb128 0x1
 4543 12da 9C       		.byte	0x9c
 4544 12db CE150000 		.4byte	0x15ce
 4545 12df 19       		.uleb128 0x19
 4546 12e0 08000000 		.4byte	.LVL148
 4547 12e4 E20A0000 		.4byte	0xae2
 4548 12e8 F2120000 		.4byte	0x12f2
 4549 12ec 1A       		.uleb128 0x1a
 4550 12ed 01       		.uleb128 0x1
 4551 12ee 50       		.byte	0x50
 4552 12ef 01       		.uleb128 0x1
 4553 12f0 31       		.byte	0x31
 4554 12f1 00       		.byte	0
 4555 12f2 19       		.uleb128 0x19
 4556 12f3 10000000 		.4byte	.LVL149
 4557 12f7 1F090000 		.4byte	0x91f
 4558 12fb 0B130000 		.4byte	0x130b
 4559 12ff 1A       		.uleb128 0x1a
 4560 1300 01       		.uleb128 0x1
 4561 1301 50       		.byte	0x50
 4562 1302 01       		.uleb128 0x1
 4563 1303 30       		.byte	0x30
 4564 1304 1A       		.uleb128 0x1a
 4565 1305 01       		.uleb128 0x1
 4566 1306 51       		.byte	0x51
 4567 1307 02       		.uleb128 0x2
 4568 1308 08       		.byte	0x8
 4569 1309 FF       		.byte	0xff
 4570 130a 00       		.byte	0
 4571 130b 19       		.uleb128 0x19
 4572 130c 18000000 		.4byte	.LVL150
 4573 1310 1F090000 		.4byte	0x91f
 4574 1314 23130000 		.4byte	0x1323
 4575 1318 1A       		.uleb128 0x1a
 4576 1319 01       		.uleb128 0x1
 4577 131a 50       		.byte	0x50
 4578 131b 01       		.uleb128 0x1
 4579 131c 3F       		.byte	0x3f
ARM GAS  C:\Users\thoma\AppData\Local\Temp\cceCswqS.s 			page 95


 4580 131d 1A       		.uleb128 0x1a
 4581 131e 01       		.uleb128 0x1
 4582 131f 51       		.byte	0x51
 4583 1320 01       		.uleb128 0x1
 4584 1321 31       		.byte	0x31
 4585 1322 00       		.byte	0
 4586 1323 19       		.uleb128 0x19
 4587 1324 1E000000 		.4byte	.LVL151
 4588 1328 E20A0000 		.4byte	0xae2
 4589 132c 36130000 		.4byte	0x1336
 4590 1330 1A       		.uleb128 0x1a
 4591 1331 01       		.uleb128 0x1
 4592 1332 50       		.byte	0x50
 4593 1333 01       		.uleb128 0x1
 4594 1334 31       		.byte	0x31
 4595 1335 00       		.byte	0
 4596 1336 19       		.uleb128 0x19
 4597 1337 24000000 		.4byte	.LVL152
 4598 133b A50B0000 		.4byte	0xba5
 4599 133f 49130000 		.4byte	0x1349
 4600 1343 1A       		.uleb128 0x1a
 4601 1344 01       		.uleb128 0x1
 4602 1345 50       		.byte	0x50
 4603 1346 01       		.uleb128 0x1
 4604 1347 31       		.byte	0x31
 4605 1348 00       		.byte	0
 4606 1349 19       		.uleb128 0x19
 4607 134a 2C000000 		.4byte	.LVL153
 4608 134e 3C0B0000 		.4byte	0xb3c
 4609 1352 61130000 		.4byte	0x1361
 4610 1356 1A       		.uleb128 0x1a
 4611 1357 01       		.uleb128 0x1
 4612 1358 50       		.byte	0x50
 4613 1359 01       		.uleb128 0x1
 4614 135a 35       		.byte	0x35
 4615 135b 1A       		.uleb128 0x1a
 4616 135c 01       		.uleb128 0x1
 4617 135d 51       		.byte	0x51
 4618 135e 01       		.uleb128 0x1
 4619 135f 35       		.byte	0x35
 4620 1360 00       		.byte	0
 4621 1361 19       		.uleb128 0x19
 4622 1362 34000000 		.4byte	.LVL154
 4623 1366 A60C0000 		.4byte	0xca6
 4624 136a 79130000 		.4byte	0x1379
 4625 136e 1A       		.uleb128 0x1a
 4626 136f 01       		.uleb128 0x1
 4627 1370 50       		.byte	0x50
 4628 1371 01       		.uleb128 0x1
 4629 1372 32       		.byte	0x32
 4630 1373 1A       		.uleb128 0x1a
 4631 1374 01       		.uleb128 0x1
 4632 1375 51       		.byte	0x51
 4633 1376 01       		.uleb128 0x1
 4634 1377 30       		.byte	0x30
 4635 1378 00       		.byte	0
 4636 1379 19       		.uleb128 0x19
ARM GAS  C:\Users\thoma\AppData\Local\Temp\cceCswqS.s 			page 96


 4637 137a 3E000000 		.4byte	.LVL155
 4638 137e 1F090000 		.4byte	0x91f
 4639 1382 94130000 		.4byte	0x1394
 4640 1386 1A       		.uleb128 0x1a
 4641 1387 01       		.uleb128 0x1
 4642 1388 50       		.byte	0x50
 4643 1389 02       		.uleb128 0x2
 4644 138a 08       		.byte	0x8
 4645 138b 24       		.byte	0x24
 4646 138c 1A       		.uleb128 0x1a
 4647 138d 01       		.uleb128 0x1
 4648 138e 51       		.byte	0x51
 4649 138f 03       		.uleb128 0x3
 4650 1390 0A       		.byte	0xa
 4651 1391 0410     		.2byte	0x1004
 4652 1393 00       		.byte	0
 4653 1394 19       		.uleb128 0x19
 4654 1395 48000000 		.4byte	.LVL156
 4655 1399 1F090000 		.4byte	0x91f
 4656 139d AF130000 		.4byte	0x13af
 4657 13a1 1A       		.uleb128 0x1a
 4658 13a2 01       		.uleb128 0x1
 4659 13a3 50       		.byte	0x50
 4660 13a4 02       		.uleb128 0x2
 4661 13a5 08       		.byte	0x8
 4662 13a6 23       		.byte	0x23
 4663 13a7 1A       		.uleb128 0x1a
 4664 13a8 01       		.uleb128 0x1
 4665 13a9 51       		.byte	0x51
 4666 13aa 03       		.uleb128 0x3
 4667 13ab 0A       		.byte	0xa
 4668 13ac 0010     		.2byte	0x1000
 4669 13ae 00       		.byte	0
 4670 13af 19       		.uleb128 0x19
 4671 13b0 52000000 		.4byte	.LVL157
 4672 13b4 1F090000 		.4byte	0x91f
 4673 13b8 CA130000 		.4byte	0x13ca
 4674 13bc 1A       		.uleb128 0x1a
 4675 13bd 01       		.uleb128 0x1
 4676 13be 50       		.byte	0x50
 4677 13bf 02       		.uleb128 0x2
 4678 13c0 08       		.byte	0x8
 4679 13c1 25       		.byte	0x25
 4680 13c2 1A       		.uleb128 0x1a
 4681 13c3 01       		.uleb128 0x1
 4682 13c4 51       		.byte	0x51
 4683 13c5 03       		.uleb128 0x3
 4684 13c6 0A       		.byte	0xa
 4685 13c7 DF67     		.2byte	0x67df
 4686 13c9 00       		.byte	0
 4687 13ca 19       		.uleb128 0x19
 4688 13cb 5C000000 		.4byte	.LVL158
 4689 13cf 1F090000 		.4byte	0x91f
 4690 13d3 E5130000 		.4byte	0x13e5
 4691 13d7 1A       		.uleb128 0x1a
 4692 13d8 01       		.uleb128 0x1
 4693 13d9 50       		.byte	0x50
ARM GAS  C:\Users\thoma\AppData\Local\Temp\cceCswqS.s 			page 97


 4694 13da 02       		.uleb128 0x2
 4695 13db 08       		.byte	0x8
 4696 13dc 31       		.byte	0x31
 4697 13dd 1A       		.uleb128 0x1a
 4698 13de 01       		.uleb128 0x1
 4699 13df 51       		.byte	0x51
 4700 13e0 03       		.uleb128 0x3
 4701 13e1 0A       		.byte	0xa
 4702 13e2 1910     		.2byte	0x1019
 4703 13e4 00       		.byte	0
 4704 13e5 19       		.uleb128 0x19
 4705 13e6 66000000 		.4byte	.LVL159
 4706 13ea 1F090000 		.4byte	0x91f
 4707 13ee 00140000 		.4byte	0x1400
 4708 13f2 1A       		.uleb128 0x1a
 4709 13f3 01       		.uleb128 0x1
 4710 13f4 50       		.byte	0x50
 4711 13f5 02       		.uleb128 0x2
 4712 13f6 08       		.byte	0x8
 4713 13f7 36       		.byte	0x36
 4714 13f8 1A       		.uleb128 0x1a
 4715 13f9 01       		.uleb128 0x1
 4716 13fa 51       		.byte	0x51
 4717 13fb 03       		.uleb128 0x3
 4718 13fc 0A       		.byte	0xa
 4719 13fd 1910     		.2byte	0x1019
 4720 13ff 00       		.byte	0
 4721 1400 19       		.uleb128 0x19
 4722 1401 70000000 		.4byte	.LVL160
 4723 1405 1F090000 		.4byte	0x91f
 4724 1409 1B140000 		.4byte	0x141b
 4725 140d 1A       		.uleb128 0x1a
 4726 140e 01       		.uleb128 0x1
 4727 140f 50       		.byte	0x50
 4728 1410 02       		.uleb128 0x2
 4729 1411 08       		.byte	0x8
 4730 1412 30       		.byte	0x30
 4731 1413 1A       		.uleb128 0x1a
 4732 1414 01       		.uleb128 0x1
 4733 1415 51       		.byte	0x51
 4734 1416 03       		.uleb128 0x3
 4735 1417 0A       		.byte	0xa
 4736 1418 2002     		.2byte	0x220
 4737 141a 00       		.byte	0
 4738 141b 19       		.uleb128 0x19
 4739 141c 7A000000 		.4byte	.LVL161
 4740 1420 1F090000 		.4byte	0x91f
 4741 1424 36140000 		.4byte	0x1436
 4742 1428 1A       		.uleb128 0x1a
 4743 1429 01       		.uleb128 0x1
 4744 142a 50       		.byte	0x50
 4745 142b 02       		.uleb128 0x2
 4746 142c 08       		.byte	0x8
 4747 142d 35       		.byte	0x35
 4748 142e 1A       		.uleb128 0x1a
 4749 142f 01       		.uleb128 0x1
 4750 1430 51       		.byte	0x51
ARM GAS  C:\Users\thoma\AppData\Local\Temp\cceCswqS.s 			page 98


 4751 1431 03       		.uleb128 0x3
 4752 1432 0A       		.byte	0xa
 4753 1433 2002     		.2byte	0x220
 4754 1435 00       		.byte	0
 4755 1436 19       		.uleb128 0x19
 4756 1437 84000000 		.4byte	.LVL162
 4757 143b 1F090000 		.4byte	0x91f
 4758 143f 51140000 		.4byte	0x1451
 4759 1443 1A       		.uleb128 0x1a
 4760 1444 01       		.uleb128 0x1
 4761 1445 50       		.byte	0x50
 4762 1446 02       		.uleb128 0x2
 4763 1447 08       		.byte	0x8
 4764 1448 39       		.byte	0x39
 4765 1449 1A       		.uleb128 0x1a
 4766 144a 01       		.uleb128 0x1
 4767 144b 51       		.byte	0x51
 4768 144c 03       		.uleb128 0x3
 4769 144d 0A       		.byte	0xa
 4770 144e E01A     		.2byte	0x1ae0
 4771 1450 00       		.byte	0
 4772 1451 19       		.uleb128 0x19
 4773 1452 8E000000 		.4byte	.LVL163
 4774 1456 1F090000 		.4byte	0x91f
 4775 145a 6C140000 		.4byte	0x146c
 4776 145e 1A       		.uleb128 0x1a
 4777 145f 01       		.uleb128 0x1
 4778 1460 50       		.byte	0x50
 4779 1461 02       		.uleb128 0x2
 4780 1462 08       		.byte	0x8
 4781 1463 3B       		.byte	0x3b
 4782 1464 1A       		.uleb128 0x1a
 4783 1465 01       		.uleb128 0x1
 4784 1466 51       		.byte	0x51
 4785 1467 03       		.uleb128 0x3
 4786 1468 0A       		.byte	0xa
 4787 1469 E01A     		.2byte	0x1ae0
 4788 146b 00       		.byte	0
 4789 146c 19       		.uleb128 0x19
 4790 146d 96000000 		.4byte	.LVL164
 4791 1471 1F090000 		.4byte	0x91f
 4792 1475 84140000 		.4byte	0x1484
 4793 1479 1A       		.uleb128 0x1a
 4794 147a 01       		.uleb128 0x1
 4795 147b 50       		.byte	0x50
 4796 147c 01       		.uleb128 0x1
 4797 147d 42       		.byte	0x42
 4798 147e 1A       		.uleb128 0x1a
 4799 147f 01       		.uleb128 0x1
 4800 1480 51       		.byte	0x51
 4801 1481 01       		.uleb128 0x1
 4802 1482 35       		.byte	0x35
 4803 1483 00       		.byte	0
 4804 1484 19       		.uleb128 0x19
 4805 1485 A0000000 		.4byte	.LVL165
 4806 1489 1F090000 		.4byte	0x91f
 4807 148d 9F140000 		.4byte	0x149f
ARM GAS  C:\Users\thoma\AppData\Local\Temp\cceCswqS.s 			page 99


 4808 1491 1A       		.uleb128 0x1a
 4809 1492 01       		.uleb128 0x1
 4810 1493 50       		.byte	0x50
 4811 1494 02       		.uleb128 0x2
 4812 1495 08       		.byte	0x8
 4813 1496 42       		.byte	0x42
 4814 1497 1A       		.uleb128 0x1a
 4815 1498 01       		.uleb128 0x1
 4816 1499 51       		.byte	0x51
 4817 149a 03       		.uleb128 0x3
 4818 149b 0A       		.byte	0xa
 4819 149c 371C     		.2byte	0x1c37
 4820 149e 00       		.byte	0
 4821 149f 19       		.uleb128 0x19
 4822 14a0 AA000000 		.4byte	.LVL166
 4823 14a4 1F090000 		.4byte	0x91f
 4824 14a8 BA140000 		.4byte	0x14ba
 4825 14ac 1A       		.uleb128 0x1a
 4826 14ad 01       		.uleb128 0x1
 4827 14ae 50       		.byte	0x50
 4828 14af 02       		.uleb128 0x2
 4829 14b0 08       		.byte	0x8
 4830 14b1 44       		.byte	0x44
 4831 14b2 1A       		.uleb128 0x1a
 4832 14b3 01       		.uleb128 0x1
 4833 14b4 51       		.byte	0x51
 4834 14b5 03       		.uleb128 0x3
 4835 14b6 0A       		.byte	0xa
 4836 14b7 371C     		.2byte	0x1c37
 4837 14b9 00       		.byte	0
 4838 14ba 19       		.uleb128 0x19
 4839 14bb B4000000 		.4byte	.LVL167
 4840 14bf 1F090000 		.4byte	0x91f
 4841 14c3 D5140000 		.4byte	0x14d5
 4842 14c7 1A       		.uleb128 0x1a
 4843 14c8 01       		.uleb128 0x1
 4844 14c9 50       		.byte	0x50
 4845 14ca 02       		.uleb128 0x2
 4846 14cb 08       		.byte	0x8
 4847 14cc 4B       		.byte	0x4b
 4848 14cd 1A       		.uleb128 0x1a
 4849 14ce 01       		.uleb128 0x1
 4850 14cf 51       		.byte	0x51
 4851 14d0 03       		.uleb128 0x3
 4852 14d1 0A       		.byte	0xa
 4853 14d2 9526     		.2byte	0x2695
 4854 14d4 00       		.byte	0
 4855 14d5 19       		.uleb128 0x19
 4856 14d6 BC000000 		.4byte	.LVL168
 4857 14da 1F090000 		.4byte	0x91f
 4858 14de EF140000 		.4byte	0x14ef
 4859 14e2 1A       		.uleb128 0x1a
 4860 14e3 01       		.uleb128 0x1
 4861 14e4 50       		.byte	0x50
 4862 14e5 02       		.uleb128 0x2
 4863 14e6 08       		.byte	0x8
 4864 14e7 4D       		.byte	0x4d
ARM GAS  C:\Users\thoma\AppData\Local\Temp\cceCswqS.s 			page 100


 4865 14e8 1A       		.uleb128 0x1a
 4866 14e9 01       		.uleb128 0x1
 4867 14ea 51       		.byte	0x51
 4868 14eb 02       		.uleb128 0x2
 4869 14ec 08       		.byte	0x8
 4870 14ed 98       		.byte	0x98
 4871 14ee 00       		.byte	0
 4872 14ef 19       		.uleb128 0x19
 4873 14f0 C6000000 		.4byte	.LVL169
 4874 14f4 1F090000 		.4byte	0x91f
 4875 14f8 0A150000 		.4byte	0x150a
 4876 14fc 1A       		.uleb128 0x1a
 4877 14fd 01       		.uleb128 0x1
 4878 14fe 50       		.byte	0x50
 4879 14ff 02       		.uleb128 0x2
 4880 1500 08       		.byte	0x8
 4881 1501 4F       		.byte	0x4f
 4882 1502 1A       		.uleb128 0x1a
 4883 1503 01       		.uleb128 0x1
 4884 1504 51       		.byte	0x51
 4885 1505 03       		.uleb128 0x3
 4886 1506 0A       		.byte	0xa
 4887 1507 9020     		.2byte	0x2090
 4888 1509 00       		.byte	0
 4889 150a 19       		.uleb128 0x19
 4890 150b CE000000 		.4byte	.LVL170
 4891 150f 1F090000 		.4byte	0x91f
 4892 1513 23150000 		.4byte	0x1523
 4893 1517 1A       		.uleb128 0x1a
 4894 1518 01       		.uleb128 0x1
 4895 1519 50       		.byte	0x50
 4896 151a 02       		.uleb128 0x2
 4897 151b 08       		.byte	0x8
 4898 151c 50       		.byte	0x50
 4899 151d 1A       		.uleb128 0x1a
 4900 151e 01       		.uleb128 0x1
 4901 151f 51       		.byte	0x51
 4902 1520 01       		.uleb128 0x1
 4903 1521 30       		.byte	0x30
 4904 1522 00       		.byte	0
 4905 1523 19       		.uleb128 0x19
 4906 1524 D8000000 		.4byte	.LVL171
 4907 1528 1F090000 		.4byte	0x91f
 4908 152c 3E150000 		.4byte	0x153e
 4909 1530 1A       		.uleb128 0x1a
 4910 1531 01       		.uleb128 0x1
 4911 1532 50       		.byte	0x50
 4912 1533 02       		.uleb128 0x2
 4913 1534 08       		.byte	0x8
 4914 1535 3C       		.byte	0x3c
 4915 1536 1A       		.uleb128 0x1a
 4916 1537 01       		.uleb128 0x1
 4917 1538 51       		.byte	0x51
 4918 1539 03       		.uleb128 0x3
 4919 153a 0A       		.byte	0xa
 4920 153b 0670     		.2byte	0x7006
 4921 153d 00       		.byte	0
ARM GAS  C:\Users\thoma\AppData\Local\Temp\cceCswqS.s 			page 101


 4922 153e 19       		.uleb128 0x19
 4923 153f E2000000 		.4byte	.LVL172
 4924 1543 1F090000 		.4byte	0x91f
 4925 1547 58150000 		.4byte	0x1558
 4926 154b 1A       		.uleb128 0x1a
 4927 154c 01       		.uleb128 0x1
 4928 154d 50       		.byte	0x50
 4929 154e 01       		.uleb128 0x1
 4930 154f 41       		.byte	0x41
 4931 1550 1A       		.uleb128 0x1a
 4932 1551 01       		.uleb128 0x1
 4933 1552 51       		.byte	0x51
 4934 1553 03       		.uleb128 0x3
 4935 1554 0A       		.byte	0xa
 4936 1555 3131     		.2byte	0x3131
 4937 1557 00       		.byte	0
 4938 1558 19       		.uleb128 0x19
 4939 1559 EC000000 		.4byte	.LVL173
 4940 155d 1F090000 		.4byte	0x91f
 4941 1561 72150000 		.4byte	0x1572
 4942 1565 1A       		.uleb128 0x1a
 4943 1566 01       		.uleb128 0x1
 4944 1567 50       		.byte	0x50
 4945 1568 01       		.uleb128 0x1
 4946 1569 36       		.byte	0x36
 4947 156a 1A       		.uleb128 0x1a
 4948 156b 01       		.uleb128 0x1
 4949 156c 51       		.byte	0x51
 4950 156d 03       		.uleb128 0x3
 4951 156e 0A       		.byte	0xa
 4952 156f 001F     		.2byte	0x1f00
 4953 1571 00       		.byte	0
 4954 1572 19       		.uleb128 0x19
 4955 1573 F6000000 		.4byte	.LVL174
 4956 1577 1F090000 		.4byte	0x91f
 4957 157b 8C150000 		.4byte	0x158c
 4958 157f 1A       		.uleb128 0x1a
 4959 1580 01       		.uleb128 0x1
 4960 1581 50       		.byte	0x50
 4961 1582 01       		.uleb128 0x1
 4962 1583 31       		.byte	0x31
 4963 1584 1A       		.uleb128 0x1a
 4964 1585 01       		.uleb128 0x1
 4965 1586 51       		.byte	0x51
 4966 1587 03       		.uleb128 0x3
 4967 1588 0B       		.byte	0xb
 4968 1589 FFC0     		.2byte	0xc0ff
 4969 158b 00       		.byte	0
 4970 158c 19       		.uleb128 0x19
 4971 158d 00010000 		.4byte	.LVL175
 4972 1591 1F090000 		.4byte	0x91f
 4973 1595 A6150000 		.4byte	0x15a6
 4974 1599 1A       		.uleb128 0x1a
 4975 159a 01       		.uleb128 0x1
 4976 159b 50       		.byte	0x50
 4977 159c 01       		.uleb128 0x1
 4978 159d 3B       		.byte	0x3b
ARM GAS  C:\Users\thoma\AppData\Local\Temp\cceCswqS.s 			page 102


 4979 159e 1A       		.uleb128 0x1a
 4980 159f 01       		.uleb128 0x1
 4981 15a0 51       		.byte	0x51
 4982 15a1 03       		.uleb128 0x3
 4983 15a2 0A       		.byte	0xa
 4984 15a3 0101     		.2byte	0x101
 4985 15a5 00       		.byte	0
 4986 15a6 19       		.uleb128 0x19
 4987 15a7 08010000 		.4byte	.LVL176
 4988 15ab 1F090000 		.4byte	0x91f
 4989 15af BE150000 		.4byte	0x15be
 4990 15b3 1A       		.uleb128 0x1a
 4991 15b4 01       		.uleb128 0x1
 4992 15b5 50       		.byte	0x50
 4993 15b6 01       		.uleb128 0x1
 4994 15b7 32       		.byte	0x32
 4995 15b8 1A       		.uleb128 0x1a
 4996 15b9 01       		.uleb128 0x1
 4997 15ba 51       		.byte	0x51
 4998 15bb 01       		.uleb128 0x1
 4999 15bc 35       		.byte	0x35
 5000 15bd 00       		.byte	0
 5001 15be 1E       		.uleb128 0x1e
 5002 15bf 0E010000 		.4byte	.LVL177
 5003 15c3 E20A0000 		.4byte	0xae2
 5004 15c7 1A       		.uleb128 0x1a
 5005 15c8 01       		.uleb128 0x1
 5006 15c9 50       		.byte	0x50
 5007 15ca 01       		.uleb128 0x1
 5008 15cb 32       		.byte	0x32
 5009 15cc 00       		.byte	0
 5010 15cd 00       		.byte	0
 5011 15ce 26       		.uleb128 0x26
 5012 15cf 64050000 		.4byte	.LASF242
 5013 15d3 01       		.byte	0x1
 5014 15d4 0F02     		.2byte	0x20f
 5015 15d6 00000000 		.4byte	.LFB559
 5016 15da 3C000000 		.4byte	.LFE559-.LFB559
 5017 15de 01       		.uleb128 0x1
 5018 15df 9C       		.byte	0x9c
 5019 15e0 58160000 		.4byte	0x1658
 5020 15e4 28       		.uleb128 0x28
 5021 15e5 2A080000 		.4byte	.LASF243
 5022 15e9 01       		.byte	0x1
 5023 15ea 1002     		.2byte	0x210
 5024 15ec E5000000 		.4byte	0xe5
 5025 15f0 02       		.uleb128 0x2
 5026 15f1 91       		.byte	0x91
 5027 15f2 76       		.sleb128 -10
 5028 15f3 19       		.uleb128 0x19
 5029 15f4 0A000000 		.4byte	.LVL178
 5030 15f8 B7090000 		.4byte	0x9b7
 5031 15fc 06160000 		.4byte	0x1606
 5032 1600 1A       		.uleb128 0x1a
 5033 1601 01       		.uleb128 0x1
 5034 1602 50       		.byte	0x50
 5035 1603 01       		.uleb128 0x1
ARM GAS  C:\Users\thoma\AppData\Local\Temp\cceCswqS.s 			page 103


 5036 1604 30       		.byte	0x30
 5037 1605 00       		.byte	0
 5038 1606 19       		.uleb128 0x19
 5039 1607 1A000000 		.4byte	.LVL179
 5040 160b 2B280000 		.4byte	0x282b
 5041 160f 1D160000 		.4byte	0x161d
 5042 1613 1A       		.uleb128 0x1a
 5043 1614 01       		.uleb128 0x1
 5044 1615 50       		.byte	0x50
 5045 1616 05       		.uleb128 0x5
 5046 1617 03       		.byte	0x3
 5047 1618 14000000 		.4byte	.LC1
 5048 161c 00       		.byte	0
 5049 161d 19       		.uleb128 0x19
 5050 161e 26000000 		.4byte	.LVL180
 5051 1622 3E0D0000 		.4byte	0xd3e
 5052 1626 42160000 		.4byte	0x1642
 5053 162a 1A       		.uleb128 0x1a
 5054 162b 01       		.uleb128 0x1
 5055 162c 50       		.byte	0x50
 5056 162d 05       		.uleb128 0x5
 5057 162e 03       		.byte	0x3
 5058 162f 08000000 		.4byte	.LANCHOR0+8
 5059 1633 1A       		.uleb128 0x1a
 5060 1634 01       		.uleb128 0x1
 5061 1635 51       		.byte	0x51
 5062 1636 05       		.uleb128 0x5
 5063 1637 03       		.byte	0x3
 5064 1638 00000000 		.4byte	.LANCHOR0
 5065 163c 1A       		.uleb128 0x1a
 5066 163d 01       		.uleb128 0x1
 5067 163e 52       		.byte	0x52
 5068 163f 01       		.uleb128 0x1
 5069 1640 34       		.byte	0x34
 5070 1641 00       		.byte	0
 5071 1642 1E       		.uleb128 0x1e
 5072 1643 2E000000 		.4byte	.LVL181
 5073 1647 1F090000 		.4byte	0x91f
 5074 164b 1A       		.uleb128 0x1a
 5075 164c 01       		.uleb128 0x1
 5076 164d 50       		.byte	0x50
 5077 164e 01       		.uleb128 0x1
 5078 164f 30       		.byte	0x30
 5079 1650 1A       		.uleb128 0x1a
 5080 1651 01       		.uleb128 0x1
 5081 1652 51       		.byte	0x51
 5082 1653 02       		.uleb128 0x2
 5083 1654 08       		.byte	0x8
 5084 1655 FF       		.byte	0xff
 5085 1656 00       		.byte	0
 5086 1657 00       		.byte	0
 5087 1658 26       		.uleb128 0x26
 5088 1659 E5040000 		.4byte	.LASF244
 5089 165d 01       		.byte	0x1
 5090 165e 1802     		.2byte	0x218
 5091 1660 00000000 		.4byte	.LFB560
 5092 1664 7C000000 		.4byte	.LFE560-.LFB560
ARM GAS  C:\Users\thoma\AppData\Local\Temp\cceCswqS.s 			page 104


 5093 1668 01       		.uleb128 0x1
 5094 1669 9C       		.byte	0x9c
 5095 166a B5170000 		.4byte	0x17b5
 5096 166e 19       		.uleb128 0x19
 5097 166f 08000000 		.4byte	.LVL182
 5098 1673 E20A0000 		.4byte	0xae2
 5099 1677 81160000 		.4byte	0x1681
 5100 167b 1A       		.uleb128 0x1a
 5101 167c 01       		.uleb128 0x1
 5102 167d 50       		.byte	0x50
 5103 167e 01       		.uleb128 0x1
 5104 167f 31       		.byte	0x31
 5105 1680 00       		.byte	0
 5106 1681 19       		.uleb128 0x19
 5107 1682 0E000000 		.4byte	.LVL183
 5108 1686 8C110000 		.4byte	0x118c
 5109 168a 94160000 		.4byte	0x1694
 5110 168e 1A       		.uleb128 0x1a
 5111 168f 01       		.uleb128 0x1
 5112 1690 50       		.byte	0x50
 5113 1691 01       		.uleb128 0x1
 5114 1692 30       		.byte	0x30
 5115 1693 00       		.byte	0
 5116 1694 19       		.uleb128 0x19
 5117 1695 18000000 		.4byte	.LVL184
 5118 1699 1F090000 		.4byte	0x91f
 5119 169d AF160000 		.4byte	0x16af
 5120 16a1 1A       		.uleb128 0x1a
 5121 16a2 01       		.uleb128 0x1
 5122 16a3 50       		.byte	0x50
 5123 16a4 02       		.uleb128 0x2
 5124 16a5 08       		.byte	0x8
 5125 16a6 31       		.byte	0x31
 5126 16a7 1A       		.uleb128 0x1a
 5127 16a8 01       		.uleb128 0x1
 5128 16a9 51       		.byte	0x51
 5129 16aa 03       		.uleb128 0x3
 5130 16ab 0A       		.byte	0xa
 5131 16ac 1910     		.2byte	0x1019
 5132 16ae 00       		.byte	0
 5133 16af 19       		.uleb128 0x19
 5134 16b0 22000000 		.4byte	.LVL185
 5135 16b4 1F090000 		.4byte	0x91f
 5136 16b8 CA160000 		.4byte	0x16ca
 5137 16bc 1A       		.uleb128 0x1a
 5138 16bd 01       		.uleb128 0x1
 5139 16be 50       		.byte	0x50
 5140 16bf 02       		.uleb128 0x2
 5141 16c0 08       		.byte	0x8
 5142 16c1 36       		.byte	0x36
 5143 16c2 1A       		.uleb128 0x1a
 5144 16c3 01       		.uleb128 0x1
 5145 16c4 51       		.byte	0x51
 5146 16c5 03       		.uleb128 0x3
 5147 16c6 0A       		.byte	0xa
 5148 16c7 1910     		.2byte	0x1019
 5149 16c9 00       		.byte	0
ARM GAS  C:\Users\thoma\AppData\Local\Temp\cceCswqS.s 			page 105


 5150 16ca 19       		.uleb128 0x19
 5151 16cb 28000000 		.4byte	.LVL186
 5152 16cf E20A0000 		.4byte	0xae2
 5153 16d3 DD160000 		.4byte	0x16dd
 5154 16d7 1A       		.uleb128 0x1a
 5155 16d8 01       		.uleb128 0x1
 5156 16d9 50       		.byte	0x50
 5157 16da 01       		.uleb128 0x1
 5158 16db 32       		.byte	0x32
 5159 16dc 00       		.byte	0
 5160 16dd 19       		.uleb128 0x19
 5161 16de 30000000 		.4byte	.LVL187
 5162 16e2 36280000 		.4byte	0x2836
 5163 16e6 F2160000 		.4byte	0x16f2
 5164 16ea 1A       		.uleb128 0x1a
 5165 16eb 01       		.uleb128 0x1
 5166 16ec 50       		.byte	0x50
 5167 16ed 03       		.uleb128 0x3
 5168 16ee 0A       		.byte	0xa
 5169 16ef E803     		.2byte	0x3e8
 5170 16f1 00       		.byte	0
 5171 16f2 19       		.uleb128 0x19
 5172 16f3 3C000000 		.4byte	.LVL188
 5173 16f7 3E0D0000 		.4byte	0xd3e
 5174 16fb 17170000 		.4byte	0x1717
 5175 16ff 1A       		.uleb128 0x1a
 5176 1700 01       		.uleb128 0x1
 5177 1701 50       		.byte	0x50
 5178 1702 05       		.uleb128 0x5
 5179 1703 03       		.byte	0x3
 5180 1704 08000000 		.4byte	.LANCHOR0+8
 5181 1708 1A       		.uleb128 0x1a
 5182 1709 01       		.uleb128 0x1
 5183 170a 51       		.byte	0x51
 5184 170b 05       		.uleb128 0x5
 5185 170c 03       		.byte	0x3
 5186 170d 00000000 		.4byte	.LANCHOR0
 5187 1711 1A       		.uleb128 0x1a
 5188 1712 01       		.uleb128 0x1
 5189 1713 52       		.byte	0x52
 5190 1714 01       		.uleb128 0x1
 5191 1715 34       		.byte	0x34
 5192 1716 00       		.byte	0
 5193 1717 19       		.uleb128 0x19
 5194 1718 42000000 		.4byte	.LVL189
 5195 171c E20A0000 		.4byte	0xae2
 5196 1720 2A170000 		.4byte	0x172a
 5197 1724 1A       		.uleb128 0x1a
 5198 1725 01       		.uleb128 0x1
 5199 1726 50       		.byte	0x50
 5200 1727 01       		.uleb128 0x1
 5201 1728 31       		.byte	0x31
 5202 1729 00       		.byte	0
 5203 172a 19       		.uleb128 0x19
 5204 172b 48000000 		.4byte	.LVL190
 5205 172f EB110000 		.4byte	0x11eb
 5206 1733 3D170000 		.4byte	0x173d
ARM GAS  C:\Users\thoma\AppData\Local\Temp\cceCswqS.s 			page 106


 5207 1737 1A       		.uleb128 0x1a
 5208 1738 01       		.uleb128 0x1
 5209 1739 50       		.byte	0x50
 5210 173a 01       		.uleb128 0x1
 5211 173b 30       		.byte	0x30
 5212 173c 00       		.byte	0
 5213 173d 19       		.uleb128 0x19
 5214 173e 50000000 		.4byte	.LVL191
 5215 1742 A60C0000 		.4byte	0xca6
 5216 1746 55170000 		.4byte	0x1755
 5217 174a 1A       		.uleb128 0x1a
 5218 174b 01       		.uleb128 0x1
 5219 174c 50       		.byte	0x50
 5220 174d 01       		.uleb128 0x1
 5221 174e 32       		.byte	0x32
 5222 174f 1A       		.uleb128 0x1a
 5223 1750 01       		.uleb128 0x1
 5224 1751 51       		.byte	0x51
 5225 1752 01       		.uleb128 0x1
 5226 1753 30       		.byte	0x30
 5227 1754 00       		.byte	0
 5228 1755 19       		.uleb128 0x19
 5229 1756 5A000000 		.4byte	.LVL192
 5230 175a 1F090000 		.4byte	0x91f
 5231 175e 70170000 		.4byte	0x1770
 5232 1762 1A       		.uleb128 0x1a
 5233 1763 01       		.uleb128 0x1
 5234 1764 50       		.byte	0x50
 5235 1765 02       		.uleb128 0x2
 5236 1766 08       		.byte	0x8
 5237 1767 31       		.byte	0x31
 5238 1768 1A       		.uleb128 0x1a
 5239 1769 01       		.uleb128 0x1
 5240 176a 51       		.byte	0x51
 5241 176b 03       		.uleb128 0x3
 5242 176c 0A       		.byte	0xa
 5243 176d 1910     		.2byte	0x1019
 5244 176f 00       		.byte	0
 5245 1770 19       		.uleb128 0x19
 5246 1771 64000000 		.4byte	.LVL193
 5247 1775 1F090000 		.4byte	0x91f
 5248 1779 8B170000 		.4byte	0x178b
 5249 177d 1A       		.uleb128 0x1a
 5250 177e 01       		.uleb128 0x1
 5251 177f 50       		.byte	0x50
 5252 1780 02       		.uleb128 0x2
 5253 1781 08       		.byte	0x8
 5254 1782 36       		.byte	0x36
 5255 1783 1A       		.uleb128 0x1a
 5256 1784 01       		.uleb128 0x1
 5257 1785 51       		.byte	0x51
 5258 1786 03       		.uleb128 0x3
 5259 1787 0A       		.byte	0xa
 5260 1788 1910     		.2byte	0x1019
 5261 178a 00       		.byte	0
 5262 178b 19       		.uleb128 0x19
 5263 178c 6E000000 		.4byte	.LVL194
ARM GAS  C:\Users\thoma\AppData\Local\Temp\cceCswqS.s 			page 107


 5264 1790 1F090000 		.4byte	0x91f
 5265 1794 A5170000 		.4byte	0x17a5
 5266 1798 1A       		.uleb128 0x1a
 5267 1799 01       		.uleb128 0x1
 5268 179a 50       		.byte	0x50
 5269 179b 01       		.uleb128 0x1
 5270 179c 45       		.byte	0x45
 5271 179d 1A       		.uleb128 0x1a
 5272 179e 01       		.uleb128 0x1
 5273 179f 51       		.byte	0x51
 5274 17a0 03       		.uleb128 0x3
 5275 17a1 0A       		.byte	0xa
 5276 17a2 1001     		.2byte	0x110
 5277 17a4 00       		.byte	0
 5278 17a5 1E       		.uleb128 0x1e
 5279 17a6 74000000 		.4byte	.LVL195
 5280 17aa E20A0000 		.4byte	0xae2
 5281 17ae 1A       		.uleb128 0x1a
 5282 17af 01       		.uleb128 0x1
 5283 17b0 50       		.byte	0x50
 5284 17b1 01       		.uleb128 0x1
 5285 17b2 32       		.byte	0x32
 5286 17b3 00       		.byte	0
 5287 17b4 00       		.byte	0
 5288 17b5 26       		.uleb128 0x26
 5289 17b6 6C0A0000 		.4byte	.LASF245
 5290 17ba 01       		.byte	0x1
 5291 17bb 5202     		.2byte	0x252
 5292 17bd 00000000 		.4byte	.LFB561
 5293 17c1 28040000 		.4byte	.LFE561-.LFB561
 5294 17c5 01       		.uleb128 0x1
 5295 17c6 9C       		.byte	0x9c
 5296 17c7 0F240000 		.4byte	0x240f
 5297 17cb 19       		.uleb128 0x19
 5298 17cc 0A000000 		.4byte	.LVL196
 5299 17d0 1F090000 		.4byte	0x91f
 5300 17d4 E3170000 		.4byte	0x17e3
 5301 17d8 1A       		.uleb128 0x1a
 5302 17d9 01       		.uleb128 0x1
 5303 17da 50       		.byte	0x50
 5304 17db 01       		.uleb128 0x1
 5305 17dc 30       		.byte	0x30
 5306 17dd 1A       		.uleb128 0x1a
 5307 17de 01       		.uleb128 0x1
 5308 17df 51       		.byte	0x51
 5309 17e0 01       		.uleb128 0x1
 5310 17e1 30       		.byte	0x30
 5311 17e2 00       		.byte	0
 5312 17e3 19       		.uleb128 0x19
 5313 17e4 14000000 		.4byte	.LVL197
 5314 17e8 1F090000 		.4byte	0x91f
 5315 17ec FD170000 		.4byte	0x17fd
 5316 17f0 1A       		.uleb128 0x1a
 5317 17f1 01       		.uleb128 0x1
 5318 17f2 50       		.byte	0x50
 5319 17f3 01       		.uleb128 0x1
 5320 17f4 31       		.byte	0x31
ARM GAS  C:\Users\thoma\AppData\Local\Temp\cceCswqS.s 			page 108


 5321 17f5 1A       		.uleb128 0x1a
 5322 17f6 01       		.uleb128 0x1
 5323 17f7 51       		.byte	0x51
 5324 17f8 03       		.uleb128 0x3
 5325 17f9 0B       		.byte	0xb
 5326 17fa FFC0     		.2byte	0xc0ff
 5327 17fc 00       		.byte	0
 5328 17fd 19       		.uleb128 0x19
 5329 17fe 1C000000 		.4byte	.LVL198
 5330 1802 1F090000 		.4byte	0x91f
 5331 1806 15180000 		.4byte	0x1815
 5332 180a 1A       		.uleb128 0x1a
 5333 180b 01       		.uleb128 0x1
 5334 180c 50       		.byte	0x50
 5335 180d 01       		.uleb128 0x1
 5336 180e 32       		.byte	0x32
 5337 180f 1A       		.uleb128 0x1a
 5338 1810 01       		.uleb128 0x1
 5339 1811 51       		.byte	0x51
 5340 1812 01       		.uleb128 0x1
 5341 1813 35       		.byte	0x35
 5342 1814 00       		.byte	0
 5343 1815 19       		.uleb128 0x19
 5344 1816 24000000 		.4byte	.LVL199
 5345 181a 1F090000 		.4byte	0x91f
 5346 181e 2D180000 		.4byte	0x182d
 5347 1822 1A       		.uleb128 0x1a
 5348 1823 01       		.uleb128 0x1
 5349 1824 50       		.byte	0x50
 5350 1825 01       		.uleb128 0x1
 5351 1826 33       		.byte	0x33
 5352 1827 1A       		.uleb128 0x1a
 5353 1828 01       		.uleb128 0x1
 5354 1829 51       		.byte	0x51
 5355 182a 01       		.uleb128 0x1
 5356 182b 30       		.byte	0x30
 5357 182c 00       		.byte	0
 5358 182d 19       		.uleb128 0x19
 5359 182e 2C000000 		.4byte	.LVL200
 5360 1832 1F090000 		.4byte	0x91f
 5361 1836 45180000 		.4byte	0x1845
 5362 183a 1A       		.uleb128 0x1a
 5363 183b 01       		.uleb128 0x1
 5364 183c 50       		.byte	0x50
 5365 183d 01       		.uleb128 0x1
 5366 183e 34       		.byte	0x34
 5367 183f 1A       		.uleb128 0x1a
 5368 1840 01       		.uleb128 0x1
 5369 1841 51       		.byte	0x51
 5370 1842 01       		.uleb128 0x1
 5371 1843 30       		.byte	0x30
 5372 1844 00       		.byte	0
 5373 1845 19       		.uleb128 0x19
 5374 1846 34000000 		.4byte	.LVL201
 5375 184a 1F090000 		.4byte	0x91f
 5376 184e 5D180000 		.4byte	0x185d
 5377 1852 1A       		.uleb128 0x1a
ARM GAS  C:\Users\thoma\AppData\Local\Temp\cceCswqS.s 			page 109


 5378 1853 01       		.uleb128 0x1
 5379 1854 50       		.byte	0x50
 5380 1855 01       		.uleb128 0x1
 5381 1856 35       		.byte	0x35
 5382 1857 1A       		.uleb128 0x1a
 5383 1858 01       		.uleb128 0x1
 5384 1859 51       		.byte	0x51
 5385 185a 01       		.uleb128 0x1
 5386 185b 30       		.byte	0x30
 5387 185c 00       		.byte	0
 5388 185d 19       		.uleb128 0x19
 5389 185e 3E000000 		.4byte	.LVL202
 5390 1862 1F090000 		.4byte	0x91f
 5391 1866 77180000 		.4byte	0x1877
 5392 186a 1A       		.uleb128 0x1a
 5393 186b 01       		.uleb128 0x1
 5394 186c 50       		.byte	0x50
 5395 186d 01       		.uleb128 0x1
 5396 186e 36       		.byte	0x36
 5397 186f 1A       		.uleb128 0x1a
 5398 1870 01       		.uleb128 0x1
 5399 1871 51       		.byte	0x51
 5400 1872 03       		.uleb128 0x3
 5401 1873 0A       		.byte	0xa
 5402 1874 001F     		.2byte	0x1f00
 5403 1876 00       		.byte	0
 5404 1877 19       		.uleb128 0x19
 5405 1878 46000000 		.4byte	.LVL203
 5406 187c 1F090000 		.4byte	0x91f
 5407 1880 90180000 		.4byte	0x1890
 5408 1884 1A       		.uleb128 0x1a
 5409 1885 01       		.uleb128 0x1
 5410 1886 50       		.byte	0x50
 5411 1887 01       		.uleb128 0x1
 5412 1888 37       		.byte	0x37
 5413 1889 1A       		.uleb128 0x1a
 5414 188a 01       		.uleb128 0x1
 5415 188b 51       		.byte	0x51
 5416 188c 02       		.uleb128 0x2
 5417 188d 08       		.byte	0x8
 5418 188e 60       		.byte	0x60
 5419 188f 00       		.byte	0
 5420 1890 19       		.uleb128 0x19
 5421 1891 50000000 		.4byte	.LVL204
 5422 1895 1F090000 		.4byte	0x91f
 5423 1899 AA180000 		.4byte	0x18aa
 5424 189d 1A       		.uleb128 0x1a
 5425 189e 01       		.uleb128 0x1
 5426 189f 50       		.byte	0x50
 5427 18a0 01       		.uleb128 0x1
 5428 18a1 38       		.byte	0x38
 5429 18a2 1A       		.uleb128 0x1a
 5430 18a3 01       		.uleb128 0x1
 5431 18a4 51       		.byte	0x51
 5432 18a5 03       		.uleb128 0x3
 5433 18a6 0A       		.byte	0xa
 5434 18a7 160A     		.2byte	0xa16
ARM GAS  C:\Users\thoma\AppData\Local\Temp\cceCswqS.s 			page 110


 5435 18a9 00       		.byte	0
 5436 18aa 19       		.uleb128 0x19
 5437 18ab 58000000 		.4byte	.LVL205
 5438 18af 1F090000 		.4byte	0x91f
 5439 18b3 C3180000 		.4byte	0x18c3
 5440 18b7 1A       		.uleb128 0x1a
 5441 18b8 01       		.uleb128 0x1
 5442 18b9 50       		.byte	0x50
 5443 18ba 01       		.uleb128 0x1
 5444 18bb 39       		.byte	0x39
 5445 18bc 1A       		.uleb128 0x1a
 5446 18bd 01       		.uleb128 0x1
 5447 18be 51       		.byte	0x51
 5448 18bf 02       		.uleb128 0x2
 5449 18c0 08       		.byte	0x8
 5450 18c1 C8       		.byte	0xc8
 5451 18c2 00       		.byte	0
 5452 18c3 19       		.uleb128 0x19
 5453 18c4 60000000 		.4byte	.LVL206
 5454 18c8 1F090000 		.4byte	0x91f
 5455 18cc DB180000 		.4byte	0x18db
 5456 18d0 1A       		.uleb128 0x1a
 5457 18d1 01       		.uleb128 0x1
 5458 18d2 50       		.byte	0x50
 5459 18d3 01       		.uleb128 0x1
 5460 18d4 3A       		.byte	0x3a
 5461 18d5 1A       		.uleb128 0x1a
 5462 18d6 01       		.uleb128 0x1
 5463 18d7 51       		.byte	0x51
 5464 18d8 01       		.uleb128 0x1
 5465 18d9 30       		.byte	0x30
 5466 18da 00       		.byte	0
 5467 18db 19       		.uleb128 0x19
 5468 18dc 68000000 		.4byte	.LVL207
 5469 18e0 1F090000 		.4byte	0x91f
 5470 18e4 F3180000 		.4byte	0x18f3
 5471 18e8 1A       		.uleb128 0x1a
 5472 18e9 01       		.uleb128 0x1
 5473 18ea 50       		.byte	0x50
 5474 18eb 01       		.uleb128 0x1
 5475 18ec 3B       		.byte	0x3b
 5476 18ed 1A       		.uleb128 0x1a
 5477 18ee 01       		.uleb128 0x1
 5478 18ef 51       		.byte	0x51
 5479 18f0 01       		.uleb128 0x1
 5480 18f1 30       		.byte	0x30
 5481 18f2 00       		.byte	0
 5482 18f3 19       		.uleb128 0x19
 5483 18f4 70000000 		.4byte	.LVL208
 5484 18f8 1F090000 		.4byte	0x91f
 5485 18fc 0B190000 		.4byte	0x190b
 5486 1900 1A       		.uleb128 0x1a
 5487 1901 01       		.uleb128 0x1
 5488 1902 50       		.byte	0x50
 5489 1903 01       		.uleb128 0x1
 5490 1904 3C       		.byte	0x3c
 5491 1905 1A       		.uleb128 0x1a
ARM GAS  C:\Users\thoma\AppData\Local\Temp\cceCswqS.s 			page 111


 5492 1906 01       		.uleb128 0x1
 5493 1907 51       		.byte	0x51
 5494 1908 01       		.uleb128 0x1
 5495 1909 30       		.byte	0x30
 5496 190a 00       		.byte	0
 5497 190b 19       		.uleb128 0x19
 5498 190c 78000000 		.4byte	.LVL209
 5499 1910 1F090000 		.4byte	0x91f
 5500 1914 23190000 		.4byte	0x1923
 5501 1918 1A       		.uleb128 0x1a
 5502 1919 01       		.uleb128 0x1
 5503 191a 50       		.byte	0x50
 5504 191b 01       		.uleb128 0x1
 5505 191c 3D       		.byte	0x3d
 5506 191d 1A       		.uleb128 0x1a
 5507 191e 01       		.uleb128 0x1
 5508 191f 51       		.byte	0x51
 5509 1920 01       		.uleb128 0x1
 5510 1921 30       		.byte	0x30
 5511 1922 00       		.byte	0
 5512 1923 19       		.uleb128 0x19
 5513 1924 80000000 		.4byte	.LVL210
 5514 1928 1F090000 		.4byte	0x91f
 5515 192c 3B190000 		.4byte	0x193b
 5516 1930 1A       		.uleb128 0x1a
 5517 1931 01       		.uleb128 0x1
 5518 1932 50       		.byte	0x50
 5519 1933 01       		.uleb128 0x1
 5520 1934 3E       		.byte	0x3e
 5521 1935 1A       		.uleb128 0x1a
 5522 1936 01       		.uleb128 0x1
 5523 1937 51       		.byte	0x51
 5524 1938 01       		.uleb128 0x1
 5525 1939 30       		.byte	0x30
 5526 193a 00       		.byte	0
 5527 193b 19       		.uleb128 0x19
 5528 193c 88000000 		.4byte	.LVL211
 5529 1940 1F090000 		.4byte	0x91f
 5530 1944 53190000 		.4byte	0x1953
 5531 1948 1A       		.uleb128 0x1a
 5532 1949 01       		.uleb128 0x1
 5533 194a 50       		.byte	0x50
 5534 194b 01       		.uleb128 0x1
 5535 194c 3F       		.byte	0x3f
 5536 194d 1A       		.uleb128 0x1a
 5537 194e 01       		.uleb128 0x1
 5538 194f 51       		.byte	0x51
 5539 1950 01       		.uleb128 0x1
 5540 1951 30       		.byte	0x30
 5541 1952 00       		.byte	0
 5542 1953 19       		.uleb128 0x19
 5543 1954 90000000 		.4byte	.LVL212
 5544 1958 1F090000 		.4byte	0x91f
 5545 195c 6B190000 		.4byte	0x196b
 5546 1960 1A       		.uleb128 0x1a
 5547 1961 01       		.uleb128 0x1
 5548 1962 50       		.byte	0x50
ARM GAS  C:\Users\thoma\AppData\Local\Temp\cceCswqS.s 			page 112


 5549 1963 01       		.uleb128 0x1
 5550 1964 40       		.byte	0x40
 5551 1965 1A       		.uleb128 0x1a
 5552 1966 01       		.uleb128 0x1
 5553 1967 51       		.byte	0x51
 5554 1968 01       		.uleb128 0x1
 5555 1969 30       		.byte	0x30
 5556 196a 00       		.byte	0
 5557 196b 19       		.uleb128 0x19
 5558 196c 9A000000 		.4byte	.LVL213
 5559 1970 1F090000 		.4byte	0x91f
 5560 1974 85190000 		.4byte	0x1985
 5561 1978 1A       		.uleb128 0x1a
 5562 1979 01       		.uleb128 0x1
 5563 197a 50       		.byte	0x50
 5564 197b 01       		.uleb128 0x1
 5565 197c 41       		.byte	0x41
 5566 197d 1A       		.uleb128 0x1a
 5567 197e 01       		.uleb128 0x1
 5568 197f 51       		.byte	0x51
 5569 1980 03       		.uleb128 0x3
 5570 1981 0A       		.byte	0xa
 5571 1982 3131     		.2byte	0x3131
 5572 1984 00       		.byte	0
 5573 1985 19       		.uleb128 0x19
 5574 1986 A2000000 		.4byte	.LVL214
 5575 198a 1F090000 		.4byte	0x91f
 5576 198e 9E190000 		.4byte	0x199e
 5577 1992 1A       		.uleb128 0x1a
 5578 1993 01       		.uleb128 0x1
 5579 1994 50       		.byte	0x50
 5580 1995 01       		.uleb128 0x1
 5581 1996 42       		.byte	0x42
 5582 1997 1A       		.uleb128 0x1a
 5583 1998 01       		.uleb128 0x1
 5584 1999 51       		.byte	0x51
 5585 199a 02       		.uleb128 0x2
 5586 199b 08       		.byte	0x8
 5587 199c 50       		.byte	0x50
 5588 199d 00       		.byte	0
 5589 199e 19       		.uleb128 0x19
 5590 199f AC000000 		.4byte	.LVL215
 5591 19a3 1F090000 		.4byte	0x91f
 5592 19a7 B8190000 		.4byte	0x19b8
 5593 19ab 1A       		.uleb128 0x1a
 5594 19ac 01       		.uleb128 0x1
 5595 19ad 50       		.byte	0x50
 5596 19ae 01       		.uleb128 0x1
 5597 19af 43       		.byte	0x43
 5598 19b0 1A       		.uleb128 0x1a
 5599 19b1 01       		.uleb128 0x1
 5600 19b2 51       		.byte	0x51
 5601 19b3 03       		.uleb128 0x3
 5602 19b4 0A       		.byte	0xa
 5603 19b5 2003     		.2byte	0x320
 5604 19b7 00       		.byte	0
 5605 19b8 19       		.uleb128 0x19
ARM GAS  C:\Users\thoma\AppData\Local\Temp\cceCswqS.s 			page 113


 5606 19b9 B6000000 		.4byte	.LVL216
 5607 19bd 1F090000 		.4byte	0x91f
 5608 19c1 D2190000 		.4byte	0x19d2
 5609 19c5 1A       		.uleb128 0x1a
 5610 19c6 01       		.uleb128 0x1
 5611 19c7 50       		.byte	0x50
 5612 19c8 01       		.uleb128 0x1
 5613 19c9 44       		.byte	0x44
 5614 19ca 1A       		.uleb128 0x1a
 5615 19cb 01       		.uleb128 0x1
 5616 19cc 51       		.byte	0x51
 5617 19cd 03       		.uleb128 0x3
 5618 19ce 0A       		.byte	0xa
 5619 19cf 3603     		.2byte	0x336
 5620 19d1 00       		.byte	0
 5621 19d2 19       		.uleb128 0x19
 5622 19d3 C0000000 		.4byte	.LVL217
 5623 19d7 1F090000 		.4byte	0x91f
 5624 19db EC190000 		.4byte	0x19ec
 5625 19df 1A       		.uleb128 0x1a
 5626 19e0 01       		.uleb128 0x1
 5627 19e1 50       		.byte	0x50
 5628 19e2 01       		.uleb128 0x1
 5629 19e3 45       		.byte	0x45
 5630 19e4 1A       		.uleb128 0x1a
 5631 19e5 01       		.uleb128 0x1
 5632 19e6 51       		.byte	0x51
 5633 19e7 03       		.uleb128 0x3
 5634 19e8 0A       		.byte	0xa
 5635 19e9 1001     		.2byte	0x110
 5636 19eb 00       		.byte	0
 5637 19ec 19       		.uleb128 0x19
 5638 19ed CA000000 		.4byte	.LVL218
 5639 19f1 1F090000 		.4byte	0x91f
 5640 19f5 061A0000 		.4byte	0x1a06
 5641 19f9 1A       		.uleb128 0x1a
 5642 19fa 01       		.uleb128 0x1
 5643 19fb 50       		.byte	0x50
 5644 19fc 01       		.uleb128 0x1
 5645 19fd 46       		.byte	0x46
 5646 19fe 1A       		.uleb128 0x1a
 5647 19ff 01       		.uleb128 0x1
 5648 1a00 51       		.byte	0x51
 5649 1a01 03       		.uleb128 0x3
 5650 1a02 0A       		.byte	0xa
 5651 1a03 0030     		.2byte	0x3000
 5652 1a05 00       		.byte	0
 5653 1a06 19       		.uleb128 0x19
 5654 1a07 D2000000 		.4byte	.LVL219
 5655 1a0b 1F090000 		.4byte	0x91f
 5656 1a0f 1E1A0000 		.4byte	0x1a1e
 5657 1a13 1A       		.uleb128 0x1a
 5658 1a14 01       		.uleb128 0x1
 5659 1a15 50       		.byte	0x50
 5660 1a16 01       		.uleb128 0x1
 5661 1a17 47       		.byte	0x47
 5662 1a18 1A       		.uleb128 0x1a
ARM GAS  C:\Users\thoma\AppData\Local\Temp\cceCswqS.s 			page 114


 5663 1a19 01       		.uleb128 0x1
 5664 1a1a 51       		.byte	0x51
 5665 1a1b 01       		.uleb128 0x1
 5666 1a1c 30       		.byte	0x30
 5667 1a1d 00       		.byte	0
 5668 1a1e 19       		.uleb128 0x19
 5669 1a1f DA000000 		.4byte	.LVL220
 5670 1a23 1F090000 		.4byte	0x91f
 5671 1a27 361A0000 		.4byte	0x1a36
 5672 1a2b 1A       		.uleb128 0x1a
 5673 1a2c 01       		.uleb128 0x1
 5674 1a2d 50       		.byte	0x50
 5675 1a2e 01       		.uleb128 0x1
 5676 1a2f 48       		.byte	0x48
 5677 1a30 1A       		.uleb128 0x1a
 5678 1a31 01       		.uleb128 0x1
 5679 1a32 51       		.byte	0x51
 5680 1a33 01       		.uleb128 0x1
 5681 1a34 30       		.byte	0x30
 5682 1a35 00       		.byte	0
 5683 1a36 19       		.uleb128 0x19
 5684 1a37 E2000000 		.4byte	.LVL221
 5685 1a3b 1F090000 		.4byte	0x91f
 5686 1a3f 4E1A0000 		.4byte	0x1a4e
 5687 1a43 1A       		.uleb128 0x1a
 5688 1a44 01       		.uleb128 0x1
 5689 1a45 50       		.byte	0x50
 5690 1a46 01       		.uleb128 0x1
 5691 1a47 49       		.byte	0x49
 5692 1a48 1A       		.uleb128 0x1a
 5693 1a49 01       		.uleb128 0x1
 5694 1a4a 51       		.byte	0x51
 5695 1a4b 01       		.uleb128 0x1
 5696 1a4c 30       		.byte	0x30
 5697 1a4d 00       		.byte	0
 5698 1a4e 19       		.uleb128 0x19
 5699 1a4f EA000000 		.4byte	.LVL222
 5700 1a53 1F090000 		.4byte	0x91f
 5701 1a57 661A0000 		.4byte	0x1a66
 5702 1a5b 1A       		.uleb128 0x1a
 5703 1a5c 01       		.uleb128 0x1
 5704 1a5d 50       		.byte	0x50
 5705 1a5e 01       		.uleb128 0x1
 5706 1a5f 4A       		.byte	0x4a
 5707 1a60 1A       		.uleb128 0x1a
 5708 1a61 01       		.uleb128 0x1
 5709 1a62 51       		.byte	0x51
 5710 1a63 01       		.uleb128 0x1
 5711 1a64 30       		.byte	0x30
 5712 1a65 00       		.byte	0
 5713 1a66 19       		.uleb128 0x19
 5714 1a67 F2000000 		.4byte	.LVL223
 5715 1a6b 1F090000 		.4byte	0x91f
 5716 1a6f 7E1A0000 		.4byte	0x1a7e
 5717 1a73 1A       		.uleb128 0x1a
 5718 1a74 01       		.uleb128 0x1
 5719 1a75 50       		.byte	0x50
ARM GAS  C:\Users\thoma\AppData\Local\Temp\cceCswqS.s 			page 115


 5720 1a76 01       		.uleb128 0x1
 5721 1a77 4B       		.byte	0x4b
 5722 1a78 1A       		.uleb128 0x1a
 5723 1a79 01       		.uleb128 0x1
 5724 1a7a 51       		.byte	0x51
 5725 1a7b 01       		.uleb128 0x1
 5726 1a7c 30       		.byte	0x30
 5727 1a7d 00       		.byte	0
 5728 1a7e 19       		.uleb128 0x19
 5729 1a7f FA000000 		.4byte	.LVL224
 5730 1a83 1F090000 		.4byte	0x91f
 5731 1a87 961A0000 		.4byte	0x1a96
 5732 1a8b 1A       		.uleb128 0x1a
 5733 1a8c 01       		.uleb128 0x1
 5734 1a8d 50       		.byte	0x50
 5735 1a8e 01       		.uleb128 0x1
 5736 1a8f 4C       		.byte	0x4c
 5737 1a90 1A       		.uleb128 0x1a
 5738 1a91 01       		.uleb128 0x1
 5739 1a92 51       		.byte	0x51
 5740 1a93 01       		.uleb128 0x1
 5741 1a94 30       		.byte	0x30
 5742 1a95 00       		.byte	0
 5743 1a96 19       		.uleb128 0x19
 5744 1a97 02010000 		.4byte	.LVL225
 5745 1a9b 1F090000 		.4byte	0x91f
 5746 1a9f AE1A0000 		.4byte	0x1aae
 5747 1aa3 1A       		.uleb128 0x1a
 5748 1aa4 01       		.uleb128 0x1
 5749 1aa5 50       		.byte	0x50
 5750 1aa6 01       		.uleb128 0x1
 5751 1aa7 4D       		.byte	0x4d
 5752 1aa8 1A       		.uleb128 0x1a
 5753 1aa9 01       		.uleb128 0x1
 5754 1aaa 51       		.byte	0x51
 5755 1aab 01       		.uleb128 0x1
 5756 1aac 30       		.byte	0x30
 5757 1aad 00       		.byte	0
 5758 1aae 19       		.uleb128 0x19
 5759 1aaf 0A010000 		.4byte	.LVL226
 5760 1ab3 1F090000 		.4byte	0x91f
 5761 1ab7 C61A0000 		.4byte	0x1ac6
 5762 1abb 1A       		.uleb128 0x1a
 5763 1abc 01       		.uleb128 0x1
 5764 1abd 50       		.byte	0x50
 5765 1abe 01       		.uleb128 0x1
 5766 1abf 4E       		.byte	0x4e
 5767 1ac0 1A       		.uleb128 0x1a
 5768 1ac1 01       		.uleb128 0x1
 5769 1ac2 51       		.byte	0x51
 5770 1ac3 01       		.uleb128 0x1
 5771 1ac4 30       		.byte	0x30
 5772 1ac5 00       		.byte	0
 5773 1ac6 19       		.uleb128 0x19
 5774 1ac7 12010000 		.4byte	.LVL227
 5775 1acb 1F090000 		.4byte	0x91f
 5776 1acf DE1A0000 		.4byte	0x1ade
ARM GAS  C:\Users\thoma\AppData\Local\Temp\cceCswqS.s 			page 116


 5777 1ad3 1A       		.uleb128 0x1a
 5778 1ad4 01       		.uleb128 0x1
 5779 1ad5 50       		.byte	0x50
 5780 1ad6 01       		.uleb128 0x1
 5781 1ad7 4F       		.byte	0x4f
 5782 1ad8 1A       		.uleb128 0x1a
 5783 1ad9 01       		.uleb128 0x1
 5784 1ada 51       		.byte	0x51
 5785 1adb 01       		.uleb128 0x1
 5786 1adc 30       		.byte	0x30
 5787 1add 00       		.byte	0
 5788 1ade 19       		.uleb128 0x19
 5789 1adf 1A010000 		.4byte	.LVL228
 5790 1ae3 1F090000 		.4byte	0x91f
 5791 1ae7 F71A0000 		.4byte	0x1af7
 5792 1aeb 1A       		.uleb128 0x1a
 5793 1aec 01       		.uleb128 0x1
 5794 1aed 50       		.byte	0x50
 5795 1aee 02       		.uleb128 0x2
 5796 1aef 08       		.byte	0x8
 5797 1af0 20       		.byte	0x20
 5798 1af1 1A       		.uleb128 0x1a
 5799 1af2 01       		.uleb128 0x1
 5800 1af3 51       		.byte	0x51
 5801 1af4 01       		.uleb128 0x1
 5802 1af5 30       		.byte	0x30
 5803 1af6 00       		.byte	0
 5804 1af7 19       		.uleb128 0x19
 5805 1af8 22010000 		.4byte	.LVL229
 5806 1afc 1F090000 		.4byte	0x91f
 5807 1b00 101B0000 		.4byte	0x1b10
 5808 1b04 1A       		.uleb128 0x1a
 5809 1b05 01       		.uleb128 0x1
 5810 1b06 50       		.byte	0x50
 5811 1b07 02       		.uleb128 0x2
 5812 1b08 08       		.byte	0x8
 5813 1b09 21       		.byte	0x21
 5814 1b0a 1A       		.uleb128 0x1a
 5815 1b0b 01       		.uleb128 0x1
 5816 1b0c 51       		.byte	0x51
 5817 1b0d 01       		.uleb128 0x1
 5818 1b0e 30       		.byte	0x30
 5819 1b0f 00       		.byte	0
 5820 1b10 19       		.uleb128 0x19
 5821 1b11 2A010000 		.4byte	.LVL230
 5822 1b15 1F090000 		.4byte	0x91f
 5823 1b19 291B0000 		.4byte	0x1b29
 5824 1b1d 1A       		.uleb128 0x1a
 5825 1b1e 01       		.uleb128 0x1
 5826 1b1f 50       		.byte	0x50
 5827 1b20 02       		.uleb128 0x2
 5828 1b21 08       		.byte	0x8
 5829 1b22 26       		.byte	0x26
 5830 1b23 1A       		.uleb128 0x1a
 5831 1b24 01       		.uleb128 0x1
 5832 1b25 51       		.byte	0x51
 5833 1b26 01       		.uleb128 0x1
ARM GAS  C:\Users\thoma\AppData\Local\Temp\cceCswqS.s 			page 117


 5834 1b27 30       		.byte	0x30
 5835 1b28 00       		.byte	0
 5836 1b29 19       		.uleb128 0x19
 5837 1b2a 34010000 		.4byte	.LVL231
 5838 1b2e 1F090000 		.4byte	0x91f
 5839 1b32 441B0000 		.4byte	0x1b44
 5840 1b36 1A       		.uleb128 0x1a
 5841 1b37 01       		.uleb128 0x1
 5842 1b38 50       		.byte	0x50
 5843 1b39 02       		.uleb128 0x2
 5844 1b3a 08       		.byte	0x8
 5845 1b3b 27       		.byte	0x27
 5846 1b3c 1A       		.uleb128 0x1a
 5847 1b3d 01       		.uleb128 0x1
 5848 1b3e 51       		.byte	0x51
 5849 1b3f 03       		.uleb128 0x3
 5850 1b40 0A       		.byte	0xa
 5851 1b41 0007     		.2byte	0x700
 5852 1b43 00       		.byte	0
 5853 1b44 19       		.uleb128 0x19
 5854 1b45 3C010000 		.4byte	.LVL232
 5855 1b49 1F090000 		.4byte	0x91f
 5856 1b4d 5D1B0000 		.4byte	0x1b5d
 5857 1b51 1A       		.uleb128 0x1a
 5858 1b52 01       		.uleb128 0x1
 5859 1b53 50       		.byte	0x50
 5860 1b54 02       		.uleb128 0x2
 5861 1b55 08       		.byte	0x8
 5862 1b56 28       		.byte	0x28
 5863 1b57 1A       		.uleb128 0x1a
 5864 1b58 01       		.uleb128 0x1
 5865 1b59 51       		.byte	0x51
 5866 1b5a 01       		.uleb128 0x1
 5867 1b5b 30       		.byte	0x30
 5868 1b5c 00       		.byte	0
 5869 1b5d 19       		.uleb128 0x19
 5870 1b5e 46010000 		.4byte	.LVL233
 5871 1b62 1F090000 		.4byte	0x91f
 5872 1b66 781B0000 		.4byte	0x1b78
 5873 1b6a 1A       		.uleb128 0x1a
 5874 1b6b 01       		.uleb128 0x1
 5875 1b6c 50       		.byte	0x50
 5876 1b6d 02       		.uleb128 0x2
 5877 1b6e 08       		.byte	0x8
 5878 1b6f 29       		.byte	0x29
 5879 1b70 1A       		.uleb128 0x1a
 5880 1b71 01       		.uleb128 0x1
 5881 1b72 51       		.byte	0x51
 5882 1b73 03       		.uleb128 0x3
 5883 1b74 0A       		.byte	0xa
 5884 1b75 0040     		.2byte	0x4000
 5885 1b77 00       		.byte	0
 5886 1b78 19       		.uleb128 0x19
 5887 1b79 4E010000 		.4byte	.LVL234
 5888 1b7d 1F090000 		.4byte	0x91f
 5889 1b81 911B0000 		.4byte	0x1b91
 5890 1b85 1A       		.uleb128 0x1a
ARM GAS  C:\Users\thoma\AppData\Local\Temp\cceCswqS.s 			page 118


 5891 1b86 01       		.uleb128 0x1
 5892 1b87 50       		.byte	0x50
 5893 1b88 02       		.uleb128 0x2
 5894 1b89 08       		.byte	0x8
 5895 1b8a 2A       		.byte	0x2a
 5896 1b8b 1A       		.uleb128 0x1a
 5897 1b8c 01       		.uleb128 0x1
 5898 1b8d 51       		.byte	0x51
 5899 1b8e 01       		.uleb128 0x1
 5900 1b8f 30       		.byte	0x30
 5901 1b90 00       		.byte	0
 5902 1b91 19       		.uleb128 0x19
 5903 1b92 56010000 		.4byte	.LVL235
 5904 1b96 1F090000 		.4byte	0x91f
 5905 1b9a AA1B0000 		.4byte	0x1baa
 5906 1b9e 1A       		.uleb128 0x1a
 5907 1b9f 01       		.uleb128 0x1
 5908 1ba0 50       		.byte	0x50
 5909 1ba1 02       		.uleb128 0x2
 5910 1ba2 08       		.byte	0x8
 5911 1ba3 2B       		.byte	0x2b
 5912 1ba4 1A       		.uleb128 0x1a
 5913 1ba5 01       		.uleb128 0x1
 5914 1ba6 51       		.byte	0x51
 5915 1ba7 01       		.uleb128 0x1
 5916 1ba8 30       		.byte	0x30
 5917 1ba9 00       		.byte	0
 5918 1baa 19       		.uleb128 0x19
 5919 1bab 5E010000 		.4byte	.LVL236
 5920 1baf 1F090000 		.4byte	0x91f
 5921 1bb3 C31B0000 		.4byte	0x1bc3
 5922 1bb7 1A       		.uleb128 0x1a
 5923 1bb8 01       		.uleb128 0x1
 5924 1bb9 50       		.byte	0x50
 5925 1bba 02       		.uleb128 0x2
 5926 1bbb 08       		.byte	0x8
 5927 1bbc 2C       		.byte	0x2c
 5928 1bbd 1A       		.uleb128 0x1a
 5929 1bbe 01       		.uleb128 0x1
 5930 1bbf 51       		.byte	0x51
 5931 1bc0 01       		.uleb128 0x1
 5932 1bc1 30       		.byte	0x30
 5933 1bc2 00       		.byte	0
 5934 1bc3 19       		.uleb128 0x19
 5935 1bc4 66010000 		.4byte	.LVL237
 5936 1bc8 1F090000 		.4byte	0x91f
 5937 1bcc DC1B0000 		.4byte	0x1bdc
 5938 1bd0 1A       		.uleb128 0x1a
 5939 1bd1 01       		.uleb128 0x1
 5940 1bd2 50       		.byte	0x50
 5941 1bd3 02       		.uleb128 0x2
 5942 1bd4 08       		.byte	0x8
 5943 1bd5 2D       		.byte	0x2d
 5944 1bd6 1A       		.uleb128 0x1a
 5945 1bd7 01       		.uleb128 0x1
 5946 1bd8 51       		.byte	0x51
 5947 1bd9 01       		.uleb128 0x1
ARM GAS  C:\Users\thoma\AppData\Local\Temp\cceCswqS.s 			page 119


 5948 1bda 30       		.byte	0x30
 5949 1bdb 00       		.byte	0
 5950 1bdc 19       		.uleb128 0x19
 5951 1bdd 6E010000 		.4byte	.LVL238
 5952 1be1 1F090000 		.4byte	0x91f
 5953 1be5 F51B0000 		.4byte	0x1bf5
 5954 1be9 1A       		.uleb128 0x1a
 5955 1bea 01       		.uleb128 0x1
 5956 1beb 50       		.byte	0x50
 5957 1bec 02       		.uleb128 0x2
 5958 1bed 08       		.byte	0x8
 5959 1bee 2E       		.byte	0x2e
 5960 1bef 1A       		.uleb128 0x1a
 5961 1bf0 01       		.uleb128 0x1
 5962 1bf1 51       		.byte	0x51
 5963 1bf2 01       		.uleb128 0x1
 5964 1bf3 30       		.byte	0x30
 5965 1bf4 00       		.byte	0
 5966 1bf5 19       		.uleb128 0x19
 5967 1bf6 76010000 		.4byte	.LVL239
 5968 1bfa 1F090000 		.4byte	0x91f
 5969 1bfe 0E1C0000 		.4byte	0x1c0e
 5970 1c02 1A       		.uleb128 0x1a
 5971 1c03 01       		.uleb128 0x1
 5972 1c04 50       		.byte	0x50
 5973 1c05 02       		.uleb128 0x2
 5974 1c06 08       		.byte	0x8
 5975 1c07 2F       		.byte	0x2f
 5976 1c08 1A       		.uleb128 0x1a
 5977 1c09 01       		.uleb128 0x1
 5978 1c0a 51       		.byte	0x51
 5979 1c0b 01       		.uleb128 0x1
 5980 1c0c 30       		.byte	0x30
 5981 1c0d 00       		.byte	0
 5982 1c0e 19       		.uleb128 0x19
 5983 1c0f 80010000 		.4byte	.LVL240
 5984 1c13 1F090000 		.4byte	0x91f
 5985 1c17 291C0000 		.4byte	0x1c29
 5986 1c1b 1A       		.uleb128 0x1a
 5987 1c1c 01       		.uleb128 0x1
 5988 1c1d 50       		.byte	0x50
 5989 1c1e 02       		.uleb128 0x2
 5990 1c1f 08       		.byte	0x8
 5991 1c20 30       		.byte	0x30
 5992 1c21 1A       		.uleb128 0x1a
 5993 1c22 01       		.uleb128 0x1
 5994 1c23 51       		.byte	0x51
 5995 1c24 03       		.uleb128 0x3
 5996 1c25 0A       		.byte	0xa
 5997 1c26 1902     		.2byte	0x219
 5998 1c28 00       		.byte	0
 5999 1c29 19       		.uleb128 0x19
 6000 1c2a 8A010000 		.4byte	.LVL241
 6001 1c2e 1F090000 		.4byte	0x91f
 6002 1c32 441C0000 		.4byte	0x1c44
 6003 1c36 1A       		.uleb128 0x1a
 6004 1c37 01       		.uleb128 0x1
ARM GAS  C:\Users\thoma\AppData\Local\Temp\cceCswqS.s 			page 120


 6005 1c38 50       		.byte	0x50
 6006 1c39 02       		.uleb128 0x2
 6007 1c3a 08       		.byte	0x8
 6008 1c3b 31       		.byte	0x31
 6009 1c3c 1A       		.uleb128 0x1a
 6010 1c3d 01       		.uleb128 0x1
 6011 1c3e 51       		.byte	0x51
 6012 1c3f 03       		.uleb128 0x3
 6013 1c40 0A       		.byte	0xa
 6014 1c41 1E7F     		.2byte	0x7f1e
 6015 1c43 00       		.byte	0
 6016 1c44 19       		.uleb128 0x19
 6017 1c45 94010000 		.4byte	.LVL242
 6018 1c49 1F090000 		.4byte	0x91f
 6019 1c4d 5F1C0000 		.4byte	0x1c5f
 6020 1c51 1A       		.uleb128 0x1a
 6021 1c52 01       		.uleb128 0x1
 6022 1c53 50       		.byte	0x50
 6023 1c54 02       		.uleb128 0x2
 6024 1c55 08       		.byte	0x8
 6025 1c56 32       		.byte	0x32
 6026 1c57 1A       		.uleb128 0x1a
 6027 1c58 01       		.uleb128 0x1
 6028 1c59 51       		.byte	0x51
 6029 1c5a 03       		.uleb128 0x3
 6030 1c5b 0A       		.byte	0xa
 6031 1c5c 2003     		.2byte	0x320
 6032 1c5e 00       		.byte	0
 6033 1c5f 19       		.uleb128 0x19
 6034 1c60 9E010000 		.4byte	.LVL243
 6035 1c64 1F090000 		.4byte	0x91f
 6036 1c68 7A1C0000 		.4byte	0x1c7a
 6037 1c6c 1A       		.uleb128 0x1a
 6038 1c6d 01       		.uleb128 0x1
 6039 1c6e 50       		.byte	0x50
 6040 1c6f 02       		.uleb128 0x2
 6041 1c70 08       		.byte	0x8
 6042 1c71 33       		.byte	0x33
 6043 1c72 1A       		.uleb128 0x1a
 6044 1c73 01       		.uleb128 0x1
 6045 1c74 51       		.byte	0x51
 6046 1c75 03       		.uleb128 0x3
 6047 1c76 0A       		.byte	0xa
 6048 1c77 1808     		.2byte	0x818
 6049 1c79 00       		.byte	0
 6050 1c7a 19       		.uleb128 0x19
 6051 1c7b A6010000 		.4byte	.LVL244
 6052 1c7f 1F090000 		.4byte	0x91f
 6053 1c83 931C0000 		.4byte	0x1c93
 6054 1c87 1A       		.uleb128 0x1a
 6055 1c88 01       		.uleb128 0x1
 6056 1c89 50       		.byte	0x50
 6057 1c8a 02       		.uleb128 0x2
 6058 1c8b 08       		.byte	0x8
 6059 1c8c 34       		.byte	0x34
 6060 1c8d 1A       		.uleb128 0x1a
 6061 1c8e 01       		.uleb128 0x1
ARM GAS  C:\Users\thoma\AppData\Local\Temp\cceCswqS.s 			page 121


 6062 1c8f 51       		.byte	0x51
 6063 1c90 01       		.uleb128 0x1
 6064 1c91 30       		.byte	0x30
 6065 1c92 00       		.byte	0
 6066 1c93 19       		.uleb128 0x19
 6067 1c94 B0010000 		.4byte	.LVL245
 6068 1c98 1F090000 		.4byte	0x91f
 6069 1c9c AE1C0000 		.4byte	0x1cae
 6070 1ca0 1A       		.uleb128 0x1a
 6071 1ca1 01       		.uleb128 0x1
 6072 1ca2 50       		.byte	0x50
 6073 1ca3 02       		.uleb128 0x2
 6074 1ca4 08       		.byte	0x8
 6075 1ca5 35       		.byte	0x35
 6076 1ca6 1A       		.uleb128 0x1a
 6077 1ca7 01       		.uleb128 0x1
 6078 1ca8 51       		.byte	0x51
 6079 1ca9 03       		.uleb128 0x3
 6080 1caa 0A       		.byte	0xa
 6081 1cab 1902     		.2byte	0x219
 6082 1cad 00       		.byte	0
 6083 1cae 19       		.uleb128 0x19
 6084 1caf BA010000 		.4byte	.LVL246
 6085 1cb3 1F090000 		.4byte	0x91f
 6086 1cb7 C91C0000 		.4byte	0x1cc9
 6087 1cbb 1A       		.uleb128 0x1a
 6088 1cbc 01       		.uleb128 0x1
 6089 1cbd 50       		.byte	0x50
 6090 1cbe 02       		.uleb128 0x2
 6091 1cbf 08       		.byte	0x8
 6092 1cc0 36       		.byte	0x36
 6093 1cc1 1A       		.uleb128 0x1a
 6094 1cc2 01       		.uleb128 0x1
 6095 1cc3 51       		.byte	0x51
 6096 1cc4 03       		.uleb128 0x3
 6097 1cc5 0A       		.byte	0xa
 6098 1cc6 1E7F     		.2byte	0x7f1e
 6099 1cc8 00       		.byte	0
 6100 1cc9 19       		.uleb128 0x19
 6101 1cca C2010000 		.4byte	.LVL247
 6102 1cce 1F090000 		.4byte	0x91f
 6103 1cd2 E21C0000 		.4byte	0x1ce2
 6104 1cd6 1A       		.uleb128 0x1a
 6105 1cd7 01       		.uleb128 0x1
 6106 1cd8 50       		.byte	0x50
 6107 1cd9 02       		.uleb128 0x2
 6108 1cda 08       		.byte	0x8
 6109 1cdb 37       		.byte	0x37
 6110 1cdc 1A       		.uleb128 0x1a
 6111 1cdd 01       		.uleb128 0x1
 6112 1cde 51       		.byte	0x51
 6113 1cdf 01       		.uleb128 0x1
 6114 1ce0 30       		.byte	0x30
 6115 1ce1 00       		.byte	0
 6116 1ce2 19       		.uleb128 0x19
 6117 1ce3 CA010000 		.4byte	.LVL248
 6118 1ce7 1F090000 		.4byte	0x91f
ARM GAS  C:\Users\thoma\AppData\Local\Temp\cceCswqS.s 			page 122


 6119 1ceb FB1C0000 		.4byte	0x1cfb
 6120 1cef 1A       		.uleb128 0x1a
 6121 1cf0 01       		.uleb128 0x1
 6122 1cf1 50       		.byte	0x50
 6123 1cf2 02       		.uleb128 0x2
 6124 1cf3 08       		.byte	0x8
 6125 1cf4 38       		.byte	0x38
 6126 1cf5 1A       		.uleb128 0x1a
 6127 1cf6 01       		.uleb128 0x1
 6128 1cf7 51       		.byte	0x51
 6129 1cf8 01       		.uleb128 0x1
 6130 1cf9 30       		.byte	0x30
 6131 1cfa 00       		.byte	0
 6132 1cfb 19       		.uleb128 0x19
 6133 1cfc D4010000 		.4byte	.LVL249
 6134 1d00 1F090000 		.4byte	0x91f
 6135 1d04 161D0000 		.4byte	0x1d16
 6136 1d08 1A       		.uleb128 0x1a
 6137 1d09 01       		.uleb128 0x1
 6138 1d0a 50       		.byte	0x50
 6139 1d0b 02       		.uleb128 0x2
 6140 1d0c 08       		.byte	0x8
 6141 1d0d 39       		.byte	0x39
 6142 1d0e 1A       		.uleb128 0x1a
 6143 1d0f 01       		.uleb128 0x1
 6144 1d10 51       		.byte	0x51
 6145 1d11 03       		.uleb128 0x3
 6146 1d12 0A       		.byte	0xa
 6147 1d13 041A     		.2byte	0x1a04
 6148 1d15 00       		.byte	0
 6149 1d16 19       		.uleb128 0x19
 6150 1d17 DE010000 		.4byte	.LVL250
 6151 1d1b 1F090000 		.4byte	0x91f
 6152 1d1f 311D0000 		.4byte	0x1d31
 6153 1d23 1A       		.uleb128 0x1a
 6154 1d24 01       		.uleb128 0x1
 6155 1d25 50       		.byte	0x50
 6156 1d26 02       		.uleb128 0x2
 6157 1d27 08       		.byte	0x8
 6158 1d28 3A       		.byte	0x3a
 6159 1d29 1A       		.uleb128 0x1a
 6160 1d2a 01       		.uleb128 0x1
 6161 1d2b 51       		.byte	0x51
 6162 1d2c 03       		.uleb128 0x3
 6163 1d2d 0A       		.byte	0xa
 6164 1d2e FC22     		.2byte	0x22fc
 6165 1d30 00       		.byte	0
 6166 1d31 19       		.uleb128 0x19
 6167 1d32 E8010000 		.4byte	.LVL251
 6168 1d36 1F090000 		.4byte	0x91f
 6169 1d3a 4C1D0000 		.4byte	0x1d4c
 6170 1d3e 1A       		.uleb128 0x1a
 6171 1d3f 01       		.uleb128 0x1
 6172 1d40 50       		.byte	0x50
 6173 1d41 02       		.uleb128 0x2
 6174 1d42 08       		.byte	0x8
 6175 1d43 3B       		.byte	0x3b
ARM GAS  C:\Users\thoma\AppData\Local\Temp\cceCswqS.s 			page 123


 6176 1d44 1A       		.uleb128 0x1a
 6177 1d45 01       		.uleb128 0x1
 6178 1d46 51       		.byte	0x51
 6179 1d47 03       		.uleb128 0x3
 6180 1d48 0A       		.byte	0xa
 6181 1d49 041A     		.2byte	0x1a04
 6182 1d4b 00       		.byte	0
 6183 1d4c 19       		.uleb128 0x19
 6184 1d4d F2010000 		.4byte	.LVL252
 6185 1d51 1F090000 		.4byte	0x91f
 6186 1d55 671D0000 		.4byte	0x1d67
 6187 1d59 1A       		.uleb128 0x1a
 6188 1d5a 01       		.uleb128 0x1
 6189 1d5b 50       		.byte	0x50
 6190 1d5c 02       		.uleb128 0x2
 6191 1d5d 08       		.byte	0x8
 6192 1d5e 3C       		.byte	0x3c
 6193 1d5f 1A       		.uleb128 0x1a
 6194 1d60 01       		.uleb128 0x1
 6195 1d61 51       		.byte	0x51
 6196 1d62 03       		.uleb128 0x3
 6197 1d63 0A       		.byte	0xa
 6198 1d64 0670     		.2byte	0x7006
 6199 1d66 00       		.byte	0
 6200 1d67 19       		.uleb128 0x19
 6201 1d68 FA010000 		.4byte	.LVL253
 6202 1d6c 1F090000 		.4byte	0x91f
 6203 1d70 801D0000 		.4byte	0x1d80
 6204 1d74 1A       		.uleb128 0x1a
 6205 1d75 01       		.uleb128 0x1
 6206 1d76 50       		.byte	0x50
 6207 1d77 02       		.uleb128 0x2
 6208 1d78 08       		.byte	0x8
 6209 1d79 3D       		.byte	0x3d
 6210 1d7a 1A       		.uleb128 0x1a
 6211 1d7b 01       		.uleb128 0x1
 6212 1d7c 51       		.byte	0x51
 6213 1d7d 01       		.uleb128 0x1
 6214 1d7e 30       		.byte	0x30
 6215 1d7f 00       		.byte	0
 6216 1d80 19       		.uleb128 0x19
 6217 1d81 04020000 		.4byte	.LVL254
 6218 1d85 1F090000 		.4byte	0x91f
 6219 1d89 9B1D0000 		.4byte	0x1d9b
 6220 1d8d 1A       		.uleb128 0x1a
 6221 1d8e 01       		.uleb128 0x1
 6222 1d8f 50       		.byte	0x50
 6223 1d90 02       		.uleb128 0x2
 6224 1d91 08       		.byte	0x8
 6225 1d92 3E       		.byte	0x3e
 6226 1d93 1A       		.uleb128 0x1a
 6227 1d94 01       		.uleb128 0x1
 6228 1d95 51       		.byte	0x51
 6229 1d96 03       		.uleb128 0x3
 6230 1d97 0A       		.byte	0xa
 6231 1d98 2003     		.2byte	0x320
 6232 1d9a 00       		.byte	0
ARM GAS  C:\Users\thoma\AppData\Local\Temp\cceCswqS.s 			page 124


 6233 1d9b 19       		.uleb128 0x19
 6234 1d9c 0E020000 		.4byte	.LVL255
 6235 1da0 1F090000 		.4byte	0x91f
 6236 1da4 B61D0000 		.4byte	0x1db6
 6237 1da8 1A       		.uleb128 0x1a
 6238 1da9 01       		.uleb128 0x1
 6239 1daa 50       		.byte	0x50
 6240 1dab 02       		.uleb128 0x2
 6241 1dac 08       		.byte	0x8
 6242 1dad 3F       		.byte	0x3f
 6243 1dae 1A       		.uleb128 0x1a
 6244 1daf 01       		.uleb128 0x1
 6245 1db0 51       		.byte	0x51
 6246 1db1 03       		.uleb128 0x3
 6247 1db2 0A       		.byte	0xa
 6248 1db3 2003     		.2byte	0x320
 6249 1db5 00       		.byte	0
 6250 1db6 19       		.uleb128 0x19
 6251 1db7 18020000 		.4byte	.LVL256
 6252 1dbb 1F090000 		.4byte	0x91f
 6253 1dbf D11D0000 		.4byte	0x1dd1
 6254 1dc3 1A       		.uleb128 0x1a
 6255 1dc4 01       		.uleb128 0x1
 6256 1dc5 50       		.byte	0x50
 6257 1dc6 02       		.uleb128 0x2
 6258 1dc7 08       		.byte	0x8
 6259 1dc8 40       		.byte	0x40
 6260 1dc9 1A       		.uleb128 0x1a
 6261 1dca 01       		.uleb128 0x1
 6262 1dcb 51       		.byte	0x51
 6263 1dcc 03       		.uleb128 0x3
 6264 1dcd 0A       		.byte	0xa
 6265 1dce 1010     		.2byte	0x1010
 6266 1dd0 00       		.byte	0
 6267 1dd1 19       		.uleb128 0x19
 6268 1dd2 20020000 		.4byte	.LVL257
 6269 1dd6 1F090000 		.4byte	0x91f
 6270 1dda EB1D0000 		.4byte	0x1deb
 6271 1dde 1A       		.uleb128 0x1a
 6272 1ddf 01       		.uleb128 0x1
 6273 1de0 50       		.byte	0x50
 6274 1de1 02       		.uleb128 0x2
 6275 1de2 08       		.byte	0x8
 6276 1de3 41       		.byte	0x41
 6277 1de4 1A       		.uleb128 0x1a
 6278 1de5 01       		.uleb128 0x1
 6279 1de6 51       		.byte	0x51
 6280 1de7 02       		.uleb128 0x2
 6281 1de8 08       		.byte	0x8
 6282 1de9 4C       		.byte	0x4c
 6283 1dea 00       		.byte	0
 6284 1deb 19       		.uleb128 0x19
 6285 1dec 2A020000 		.4byte	.LVL258
 6286 1df0 1F090000 		.4byte	0x91f
 6287 1df4 061E0000 		.4byte	0x1e06
 6288 1df8 1A       		.uleb128 0x1a
 6289 1df9 01       		.uleb128 0x1
ARM GAS  C:\Users\thoma\AppData\Local\Temp\cceCswqS.s 			page 125


 6290 1dfa 50       		.byte	0x50
 6291 1dfb 02       		.uleb128 0x2
 6292 1dfc 08       		.byte	0x8
 6293 1dfd 42       		.byte	0x42
 6294 1dfe 1A       		.uleb128 0x1a
 6295 1dff 01       		.uleb128 0x1
 6296 1e00 51       		.byte	0x51
 6297 1e01 03       		.uleb128 0x3
 6298 1e02 0A       		.byte	0xa
 6299 1e03 371C     		.2byte	0x1c37
 6300 1e05 00       		.byte	0
 6301 1e06 19       		.uleb128 0x19
 6302 1e07 34020000 		.4byte	.LVL259
 6303 1e0b 1F090000 		.4byte	0x91f
 6304 1e0f 211E0000 		.4byte	0x1e21
 6305 1e13 1A       		.uleb128 0x1a
 6306 1e14 01       		.uleb128 0x1
 6307 1e15 50       		.byte	0x50
 6308 1e16 02       		.uleb128 0x2
 6309 1e17 08       		.byte	0x8
 6310 1e18 43       		.byte	0x43
 6311 1e19 1A       		.uleb128 0x1a
 6312 1e1a 01       		.uleb128 0x1
 6313 1e1b 51       		.byte	0x51
 6314 1e1c 03       		.uleb128 0x3
 6315 1e1d 0B       		.byte	0xb
 6316 1e1e A5AD     		.2byte	0xada5
 6317 1e20 00       		.byte	0
 6318 1e21 19       		.uleb128 0x19
 6319 1e22 3E020000 		.4byte	.LVL260
 6320 1e26 1F090000 		.4byte	0x91f
 6321 1e2a 3C1E0000 		.4byte	0x1e3c
 6322 1e2e 1A       		.uleb128 0x1a
 6323 1e2f 01       		.uleb128 0x1
 6324 1e30 50       		.byte	0x50
 6325 1e31 02       		.uleb128 0x2
 6326 1e32 08       		.byte	0x8
 6327 1e33 44       		.byte	0x44
 6328 1e34 1A       		.uleb128 0x1a
 6329 1e35 01       		.uleb128 0x1
 6330 1e36 51       		.byte	0x51
 6331 1e37 03       		.uleb128 0x3
 6332 1e38 0A       		.byte	0xa
 6333 1e39 371C     		.2byte	0x1c37
 6334 1e3b 00       		.byte	0
 6335 1e3c 19       		.uleb128 0x19
 6336 1e3d 48020000 		.4byte	.LVL261
 6337 1e41 1F090000 		.4byte	0x91f
 6338 1e45 571E0000 		.4byte	0x1e57
 6339 1e49 1A       		.uleb128 0x1a
 6340 1e4a 01       		.uleb128 0x1
 6341 1e4b 50       		.byte	0x50
 6342 1e4c 02       		.uleb128 0x2
 6343 1e4d 08       		.byte	0x8
 6344 1e4e 45       		.byte	0x45
 6345 1e4f 1A       		.uleb128 0x1a
 6346 1e50 01       		.uleb128 0x1
ARM GAS  C:\Users\thoma\AppData\Local\Temp\cceCswqS.s 			page 126


 6347 1e51 51       		.byte	0x51
 6348 1e52 03       		.uleb128 0x3
 6349 1e53 0B       		.byte	0xb
 6350 1e54 A5AD     		.2byte	0xada5
 6351 1e56 00       		.byte	0
 6352 1e57 19       		.uleb128 0x19
 6353 1e58 50020000 		.4byte	.LVL262
 6354 1e5c 1F090000 		.4byte	0x91f
 6355 1e60 701E0000 		.4byte	0x1e70
 6356 1e64 1A       		.uleb128 0x1a
 6357 1e65 01       		.uleb128 0x1
 6358 1e66 50       		.byte	0x50
 6359 1e67 02       		.uleb128 0x2
 6360 1e68 08       		.byte	0x8
 6361 1e69 46       		.byte	0x46
 6362 1e6a 1A       		.uleb128 0x1a
 6363 1e6b 01       		.uleb128 0x1
 6364 1e6c 51       		.byte	0x51
 6365 1e6d 01       		.uleb128 0x1
 6366 1e6e 30       		.byte	0x30
 6367 1e6f 00       		.byte	0
 6368 1e70 19       		.uleb128 0x19
 6369 1e71 58020000 		.4byte	.LVL263
 6370 1e75 1F090000 		.4byte	0x91f
 6371 1e79 8A1E0000 		.4byte	0x1e8a
 6372 1e7d 1A       		.uleb128 0x1a
 6373 1e7e 01       		.uleb128 0x1
 6374 1e7f 50       		.byte	0x50
 6375 1e80 02       		.uleb128 0x2
 6376 1e81 08       		.byte	0x8
 6377 1e82 47       		.byte	0x47
 6378 1e83 1A       		.uleb128 0x1a
 6379 1e84 01       		.uleb128 0x1
 6380 1e85 51       		.byte	0x51
 6381 1e86 02       		.uleb128 0x2
 6382 1e87 08       		.byte	0x8
 6383 1e88 80       		.byte	0x80
 6384 1e89 00       		.byte	0
 6385 1e8a 19       		.uleb128 0x19
 6386 1e8b 60020000 		.4byte	.LVL264
 6387 1e8f 1F090000 		.4byte	0x91f
 6388 1e93 A31E0000 		.4byte	0x1ea3
 6389 1e97 1A       		.uleb128 0x1a
 6390 1e98 01       		.uleb128 0x1
 6391 1e99 50       		.byte	0x50
 6392 1e9a 02       		.uleb128 0x2
 6393 1e9b 08       		.byte	0x8
 6394 1e9c 48       		.byte	0x48
 6395 1e9d 1A       		.uleb128 0x1a
 6396 1e9e 01       		.uleb128 0x1
 6397 1e9f 51       		.byte	0x51
 6398 1ea0 01       		.uleb128 0x1
 6399 1ea1 30       		.byte	0x30
 6400 1ea2 00       		.byte	0
 6401 1ea3 19       		.uleb128 0x19
 6402 1ea4 68020000 		.4byte	.LVL265
 6403 1ea8 1F090000 		.4byte	0x91f
ARM GAS  C:\Users\thoma\AppData\Local\Temp\cceCswqS.s 			page 127


 6404 1eac BC1E0000 		.4byte	0x1ebc
 6405 1eb0 1A       		.uleb128 0x1a
 6406 1eb1 01       		.uleb128 0x1
 6407 1eb2 50       		.byte	0x50
 6408 1eb3 02       		.uleb128 0x2
 6409 1eb4 08       		.byte	0x8
 6410 1eb5 49       		.byte	0x49
 6411 1eb6 1A       		.uleb128 0x1a
 6412 1eb7 01       		.uleb128 0x1
 6413 1eb8 51       		.byte	0x51
 6414 1eb9 01       		.uleb128 0x1
 6415 1eba 30       		.byte	0x30
 6416 1ebb 00       		.byte	0
 6417 1ebc 19       		.uleb128 0x19
 6418 1ebd 70020000 		.4byte	.LVL266
 6419 1ec1 1F090000 		.4byte	0x91f
 6420 1ec5 D51E0000 		.4byte	0x1ed5
 6421 1ec9 1A       		.uleb128 0x1a
 6422 1eca 01       		.uleb128 0x1
 6423 1ecb 50       		.byte	0x50
 6424 1ecc 02       		.uleb128 0x2
 6425 1ecd 08       		.byte	0x8
 6426 1ece 4A       		.byte	0x4a
 6427 1ecf 1A       		.uleb128 0x1a
 6428 1ed0 01       		.uleb128 0x1
 6429 1ed1 51       		.byte	0x51
 6430 1ed2 01       		.uleb128 0x1
 6431 1ed3 30       		.byte	0x30
 6432 1ed4 00       		.byte	0
 6433 1ed5 19       		.uleb128 0x19
 6434 1ed6 7A020000 		.4byte	.LVL267
 6435 1eda 1F090000 		.4byte	0x91f
 6436 1ede F01E0000 		.4byte	0x1ef0
 6437 1ee2 1A       		.uleb128 0x1a
 6438 1ee3 01       		.uleb128 0x1
 6439 1ee4 50       		.byte	0x50
 6440 1ee5 02       		.uleb128 0x2
 6441 1ee6 08       		.byte	0x8
 6442 1ee7 4B       		.byte	0x4b
 6443 1ee8 1A       		.uleb128 0x1a
 6444 1ee9 01       		.uleb128 0x1
 6445 1eea 51       		.byte	0x51
 6446 1eeb 03       		.uleb128 0x3
 6447 1eec 0A       		.byte	0xa
 6448 1eed 9526     		.2byte	0x2695
 6449 1eef 00       		.byte	0
 6450 1ef0 19       		.uleb128 0x19
 6451 1ef1 82020000 		.4byte	.LVL268
 6452 1ef5 1F090000 		.4byte	0x91f
 6453 1ef9 091F0000 		.4byte	0x1f09
 6454 1efd 1A       		.uleb128 0x1a
 6455 1efe 01       		.uleb128 0x1
 6456 1eff 50       		.byte	0x50
 6457 1f00 02       		.uleb128 0x2
 6458 1f01 08       		.byte	0x8
 6459 1f02 4C       		.byte	0x4c
 6460 1f03 1A       		.uleb128 0x1a
ARM GAS  C:\Users\thoma\AppData\Local\Temp\cceCswqS.s 			page 128


 6461 1f04 01       		.uleb128 0x1
 6462 1f05 51       		.byte	0x51
 6463 1f06 01       		.uleb128 0x1
 6464 1f07 34       		.byte	0x34
 6465 1f08 00       		.byte	0
 6466 1f09 19       		.uleb128 0x19
 6467 1f0a 8A020000 		.4byte	.LVL269
 6468 1f0e 1F090000 		.4byte	0x91f
 6469 1f12 231F0000 		.4byte	0x1f23
 6470 1f16 1A       		.uleb128 0x1a
 6471 1f17 01       		.uleb128 0x1
 6472 1f18 50       		.byte	0x50
 6473 1f19 02       		.uleb128 0x2
 6474 1f1a 08       		.byte	0x8
 6475 1f1b 4D       		.byte	0x4d
 6476 1f1c 1A       		.uleb128 0x1a
 6477 1f1d 01       		.uleb128 0x1
 6478 1f1e 51       		.byte	0x51
 6479 1f1f 02       		.uleb128 0x2
 6480 1f20 08       		.byte	0x8
 6481 1f21 98       		.byte	0x98
 6482 1f22 00       		.byte	0
 6483 1f23 19       		.uleb128 0x19
 6484 1f24 94020000 		.4byte	.LVL270
 6485 1f28 1F090000 		.4byte	0x91f
 6486 1f2c 3E1F0000 		.4byte	0x1f3e
 6487 1f30 1A       		.uleb128 0x1a
 6488 1f31 01       		.uleb128 0x1
 6489 1f32 50       		.byte	0x50
 6490 1f33 02       		.uleb128 0x2
 6491 1f34 08       		.byte	0x8
 6492 1f35 4E       		.byte	0x4e
 6493 1f36 1A       		.uleb128 0x1a
 6494 1f37 01       		.uleb128 0x1
 6495 1f38 51       		.byte	0x51
 6496 1f39 03       		.uleb128 0x3
 6497 1f3a 0A       		.byte	0xa
 6498 1f3b 4070     		.2byte	0x7040
 6499 1f3d 00       		.byte	0
 6500 1f3e 19       		.uleb128 0x19
 6501 1f3f 9E020000 		.4byte	.LVL271
 6502 1f43 1F090000 		.4byte	0x91f
 6503 1f47 591F0000 		.4byte	0x1f59
 6504 1f4b 1A       		.uleb128 0x1a
 6505 1f4c 01       		.uleb128 0x1
 6506 1f4d 50       		.byte	0x50
 6507 1f4e 02       		.uleb128 0x2
 6508 1f4f 08       		.byte	0x8
 6509 1f50 4F       		.byte	0x4f
 6510 1f51 1A       		.uleb128 0x1a
 6511 1f52 01       		.uleb128 0x1
 6512 1f53 51       		.byte	0x51
 6513 1f54 03       		.uleb128 0x3
 6514 1f55 0A       		.byte	0xa
 6515 1f56 9020     		.2byte	0x2090
 6516 1f58 00       		.byte	0
 6517 1f59 19       		.uleb128 0x19
ARM GAS  C:\Users\thoma\AppData\Local\Temp\cceCswqS.s 			page 129


 6518 1f5a A6020000 		.4byte	.LVL272
 6519 1f5e 1F090000 		.4byte	0x91f
 6520 1f62 721F0000 		.4byte	0x1f72
 6521 1f66 1A       		.uleb128 0x1a
 6522 1f67 01       		.uleb128 0x1
 6523 1f68 50       		.byte	0x50
 6524 1f69 02       		.uleb128 0x2
 6525 1f6a 08       		.byte	0x8
 6526 1f6b 50       		.byte	0x50
 6527 1f6c 1A       		.uleb128 0x1a
 6528 1f6d 01       		.uleb128 0x1
 6529 1f6e 51       		.byte	0x51
 6530 1f6f 01       		.uleb128 0x1
 6531 1f70 30       		.byte	0x30
 6532 1f71 00       		.byte	0
 6533 1f72 19       		.uleb128 0x19
 6534 1f73 AE020000 		.4byte	.LVL273
 6535 1f77 1F090000 		.4byte	0x91f
 6536 1f7b 8B1F0000 		.4byte	0x1f8b
 6537 1f7f 1A       		.uleb128 0x1a
 6538 1f80 01       		.uleb128 0x1
 6539 1f81 50       		.byte	0x50
 6540 1f82 02       		.uleb128 0x2
 6541 1f83 08       		.byte	0x8
 6542 1f84 51       		.byte	0x51
 6543 1f85 1A       		.uleb128 0x1a
 6544 1f86 01       		.uleb128 0x1
 6545 1f87 51       		.byte	0x51
 6546 1f88 01       		.uleb128 0x1
 6547 1f89 30       		.byte	0x30
 6548 1f8a 00       		.byte	0
 6549 1f8b 19       		.uleb128 0x19
 6550 1f8c B6020000 		.4byte	.LVL274
 6551 1f90 1F090000 		.4byte	0x91f
 6552 1f94 A51F0000 		.4byte	0x1fa5
 6553 1f98 1A       		.uleb128 0x1a
 6554 1f99 01       		.uleb128 0x1
 6555 1f9a 50       		.byte	0x50
 6556 1f9b 02       		.uleb128 0x2
 6557 1f9c 08       		.byte	0x8
 6558 1f9d 52       		.byte	0x52
 6559 1f9e 1A       		.uleb128 0x1a
 6560 1f9f 01       		.uleb128 0x1
 6561 1fa0 51       		.byte	0x51
 6562 1fa1 02       		.uleb128 0x2
 6563 1fa2 08       		.byte	0x8
 6564 1fa3 40       		.byte	0x40
 6565 1fa4 00       		.byte	0
 6566 1fa5 19       		.uleb128 0x19
 6567 1fa6 C0020000 		.4byte	.LVL275
 6568 1faa 1F090000 		.4byte	0x91f
 6569 1fae C01F0000 		.4byte	0x1fc0
 6570 1fb2 1A       		.uleb128 0x1a
 6571 1fb3 01       		.uleb128 0x1
 6572 1fb4 50       		.byte	0x50
 6573 1fb5 02       		.uleb128 0x2
 6574 1fb6 08       		.byte	0x8
ARM GAS  C:\Users\thoma\AppData\Local\Temp\cceCswqS.s 			page 130


 6575 1fb7 53       		.byte	0x53
 6576 1fb8 1A       		.uleb128 0x1a
 6577 1fb9 01       		.uleb128 0x1
 6578 1fba 51       		.byte	0x51
 6579 1fbb 03       		.uleb128 0x3
 6580 1fbc 0B       		.byte	0xb
 6581 1fbd 00E4     		.2byte	0xe400
 6582 1fbf 00       		.byte	0
 6583 1fc0 19       		.uleb128 0x19
 6584 1fc1 CA020000 		.4byte	.LVL276
 6585 1fc5 1F090000 		.4byte	0x91f
 6586 1fc9 DB1F0000 		.4byte	0x1fdb
 6587 1fcd 1A       		.uleb128 0x1a
 6588 1fce 01       		.uleb128 0x1
 6589 1fcf 50       		.byte	0x50
 6590 1fd0 02       		.uleb128 0x2
 6591 1fd1 08       		.byte	0x8
 6592 1fd2 54       		.byte	0x54
 6593 1fd3 1A       		.uleb128 0x1a
 6594 1fd4 01       		.uleb128 0x1
 6595 1fd5 51       		.byte	0x51
 6596 1fd6 03       		.uleb128 0x3
 6597 1fd7 0A       		.byte	0xa
 6598 1fd8 A00A     		.2byte	0xaa0
 6599 1fda 00       		.byte	0
 6600 1fdb 19       		.uleb128 0x19
 6601 1fdc D2020000 		.4byte	.LVL277
 6602 1fe0 1F090000 		.4byte	0x91f
 6603 1fe4 F41F0000 		.4byte	0x1ff4
 6604 1fe8 1A       		.uleb128 0x1a
 6605 1fe9 01       		.uleb128 0x1
 6606 1fea 50       		.byte	0x50
 6607 1feb 02       		.uleb128 0x2
 6608 1fec 08       		.byte	0x8
 6609 1fed 55       		.byte	0x55
 6610 1fee 1A       		.uleb128 0x1a
 6611 1fef 01       		.uleb128 0x1
 6612 1ff0 51       		.byte	0x51
 6613 1ff1 01       		.uleb128 0x1
 6614 1ff2 30       		.byte	0x30
 6615 1ff3 00       		.byte	0
 6616 1ff4 19       		.uleb128 0x19
 6617 1ff5 DA020000 		.4byte	.LVL278
 6618 1ff9 1F090000 		.4byte	0x91f
 6619 1ffd 0D200000 		.4byte	0x200d
 6620 2001 1A       		.uleb128 0x1a
 6621 2002 01       		.uleb128 0x1
 6622 2003 50       		.byte	0x50
 6623 2004 02       		.uleb128 0x2
 6624 2005 08       		.byte	0x8
 6625 2006 56       		.byte	0x56
 6626 2007 1A       		.uleb128 0x1a
 6627 2008 01       		.uleb128 0x1
 6628 2009 51       		.byte	0x51
 6629 200a 01       		.uleb128 0x1
 6630 200b 30       		.byte	0x30
 6631 200c 00       		.byte	0
ARM GAS  C:\Users\thoma\AppData\Local\Temp\cceCswqS.s 			page 131


 6632 200d 19       		.uleb128 0x19
 6633 200e E2020000 		.4byte	.LVL279
 6634 2012 1F090000 		.4byte	0x91f
 6635 2016 26200000 		.4byte	0x2026
 6636 201a 1A       		.uleb128 0x1a
 6637 201b 01       		.uleb128 0x1
 6638 201c 50       		.byte	0x50
 6639 201d 02       		.uleb128 0x2
 6640 201e 08       		.byte	0x8
 6641 201f 57       		.byte	0x57
 6642 2020 1A       		.uleb128 0x1a
 6643 2021 01       		.uleb128 0x1
 6644 2022 51       		.byte	0x51
 6645 2023 01       		.uleb128 0x1
 6646 2024 30       		.byte	0x30
 6647 2025 00       		.byte	0
 6648 2026 19       		.uleb128 0x19
 6649 2027 EA020000 		.4byte	.LVL280
 6650 202b 1F090000 		.4byte	0x91f
 6651 202f 3F200000 		.4byte	0x203f
 6652 2033 1A       		.uleb128 0x1a
 6653 2034 01       		.uleb128 0x1
 6654 2035 50       		.byte	0x50
 6655 2036 02       		.uleb128 0x2
 6656 2037 08       		.byte	0x8
 6657 2038 58       		.byte	0x58
 6658 2039 1A       		.uleb128 0x1a
 6659 203a 01       		.uleb128 0x1
 6660 203b 51       		.byte	0x51
 6661 203c 01       		.uleb128 0x1
 6662 203d 30       		.byte	0x30
 6663 203e 00       		.byte	0
 6664 203f 19       		.uleb128 0x19
 6665 2040 F4020000 		.4byte	.LVL281
 6666 2044 1F090000 		.4byte	0x91f
 6667 2048 5A200000 		.4byte	0x205a
 6668 204c 1A       		.uleb128 0x1a
 6669 204d 01       		.uleb128 0x1
 6670 204e 50       		.byte	0x50
 6671 204f 02       		.uleb128 0x2
 6672 2050 08       		.byte	0x8
 6673 2051 59       		.byte	0x59
 6674 2052 1A       		.uleb128 0x1a
 6675 2053 01       		.uleb128 0x1
 6676 2054 51       		.byte	0x51
 6677 2055 03       		.uleb128 0x3
 6678 2056 0A       		.byte	0xa
 6679 2057 0808     		.2byte	0x808
 6680 2059 00       		.byte	0
 6681 205a 19       		.uleb128 0x19
 6682 205b FC020000 		.4byte	.LVL282
 6683 205f 1F090000 		.4byte	0x91f
 6684 2063 73200000 		.4byte	0x2073
 6685 2067 1A       		.uleb128 0x1a
 6686 2068 01       		.uleb128 0x1
 6687 2069 50       		.byte	0x50
 6688 206a 02       		.uleb128 0x2
ARM GAS  C:\Users\thoma\AppData\Local\Temp\cceCswqS.s 			page 132


 6689 206b 08       		.byte	0x8
 6690 206c 5A       		.byte	0x5a
 6691 206d 1A       		.uleb128 0x1a
 6692 206e 01       		.uleb128 0x1
 6693 206f 51       		.byte	0x51
 6694 2070 01       		.uleb128 0x1
 6695 2071 40       		.byte	0x40
 6696 2072 00       		.byte	0
 6697 2073 19       		.uleb128 0x19
 6698 2074 04030000 		.4byte	.LVL283
 6699 2078 1F090000 		.4byte	0x91f
 6700 207c 8C200000 		.4byte	0x208c
 6701 2080 1A       		.uleb128 0x1a
 6702 2081 01       		.uleb128 0x1
 6703 2082 50       		.byte	0x50
 6704 2083 02       		.uleb128 0x2
 6705 2084 08       		.byte	0x8
 6706 2085 5B       		.byte	0x5b
 6707 2086 1A       		.uleb128 0x1a
 6708 2087 01       		.uleb128 0x1
 6709 2088 51       		.byte	0x51
 6710 2089 01       		.uleb128 0x1
 6711 208a 30       		.byte	0x30
 6712 208b 00       		.byte	0
 6713 208c 19       		.uleb128 0x19
 6714 208d 0C030000 		.4byte	.LVL284
 6715 2091 1F090000 		.4byte	0x91f
 6716 2095 A5200000 		.4byte	0x20a5
 6717 2099 1A       		.uleb128 0x1a
 6718 209a 01       		.uleb128 0x1
 6719 209b 50       		.byte	0x50
 6720 209c 02       		.uleb128 0x2
 6721 209d 08       		.byte	0x8
 6722 209e 5C       		.byte	0x5c
 6723 209f 1A       		.uleb128 0x1a
 6724 20a0 01       		.uleb128 0x1
 6725 20a1 51       		.byte	0x51
 6726 20a2 01       		.uleb128 0x1
 6727 20a3 30       		.byte	0x30
 6728 20a4 00       		.byte	0
 6729 20a5 19       		.uleb128 0x19
 6730 20a6 14030000 		.4byte	.LVL285
 6731 20aa 1F090000 		.4byte	0x91f
 6732 20ae BE200000 		.4byte	0x20be
 6733 20b2 1A       		.uleb128 0x1a
 6734 20b3 01       		.uleb128 0x1
 6735 20b4 50       		.byte	0x50
 6736 20b5 02       		.uleb128 0x2
 6737 20b6 08       		.byte	0x8
 6738 20b7 5D       		.byte	0x5d
 6739 20b8 1A       		.uleb128 0x1a
 6740 20b9 01       		.uleb128 0x1
 6741 20ba 51       		.byte	0x51
 6742 20bb 01       		.uleb128 0x1
 6743 20bc 30       		.byte	0x30
 6744 20bd 00       		.byte	0
 6745 20be 19       		.uleb128 0x19
ARM GAS  C:\Users\thoma\AppData\Local\Temp\cceCswqS.s 			page 133


 6746 20bf 1E030000 		.4byte	.LVL286
 6747 20c3 1F090000 		.4byte	0x91f
 6748 20c7 D9200000 		.4byte	0x20d9
 6749 20cb 1A       		.uleb128 0x1a
 6750 20cc 01       		.uleb128 0x1
 6751 20cd 50       		.byte	0x50
 6752 20ce 02       		.uleb128 0x2
 6753 20cf 08       		.byte	0x8
 6754 20d0 5E       		.byte	0x5e
 6755 20d1 1A       		.uleb128 0x1a
 6756 20d2 01       		.uleb128 0x1
 6757 20d3 51       		.byte	0x51
 6758 20d4 03       		.uleb128 0x3
 6759 20d5 0A       		.byte	0xa
 6760 20d6 0808     		.2byte	0x808
 6761 20d8 00       		.byte	0
 6762 20d9 19       		.uleb128 0x19
 6763 20da 26030000 		.4byte	.LVL287
 6764 20de 1F090000 		.4byte	0x91f
 6765 20e2 F2200000 		.4byte	0x20f2
 6766 20e6 1A       		.uleb128 0x1a
 6767 20e7 01       		.uleb128 0x1
 6768 20e8 50       		.byte	0x50
 6769 20e9 02       		.uleb128 0x2
 6770 20ea 08       		.byte	0x8
 6771 20eb 5F       		.byte	0x5f
 6772 20ec 1A       		.uleb128 0x1a
 6773 20ed 01       		.uleb128 0x1
 6774 20ee 51       		.byte	0x51
 6775 20ef 01       		.uleb128 0x1
 6776 20f0 30       		.byte	0x30
 6777 20f1 00       		.byte	0
 6778 20f2 19       		.uleb128 0x19
 6779 20f3 2E030000 		.4byte	.LVL288
 6780 20f7 1F090000 		.4byte	0x91f
 6781 20fb 0B210000 		.4byte	0x210b
 6782 20ff 1A       		.uleb128 0x1a
 6783 2100 01       		.uleb128 0x1
 6784 2101 50       		.byte	0x50
 6785 2102 02       		.uleb128 0x2
 6786 2103 08       		.byte	0x8
 6787 2104 60       		.byte	0x60
 6788 2105 1A       		.uleb128 0x1a
 6789 2106 01       		.uleb128 0x1
 6790 2107 51       		.byte	0x51
 6791 2108 01       		.uleb128 0x1
 6792 2109 30       		.byte	0x30
 6793 210a 00       		.byte	0
 6794 210b 19       		.uleb128 0x19
 6795 210c 36030000 		.4byte	.LVL289
 6796 2110 1F090000 		.4byte	0x91f
 6797 2114 24210000 		.4byte	0x2124
 6798 2118 1A       		.uleb128 0x1a
 6799 2119 01       		.uleb128 0x1
 6800 211a 50       		.byte	0x50
 6801 211b 02       		.uleb128 0x2
 6802 211c 08       		.byte	0x8
ARM GAS  C:\Users\thoma\AppData\Local\Temp\cceCswqS.s 			page 134


 6803 211d 61       		.byte	0x61
 6804 211e 1A       		.uleb128 0x1a
 6805 211f 01       		.uleb128 0x1
 6806 2120 51       		.byte	0x51
 6807 2121 01       		.uleb128 0x1
 6808 2122 30       		.byte	0x30
 6809 2123 00       		.byte	0
 6810 2124 19       		.uleb128 0x19
 6811 2125 3E030000 		.4byte	.LVL290
 6812 2129 1F090000 		.4byte	0x91f
 6813 212d 3D210000 		.4byte	0x213d
 6814 2131 1A       		.uleb128 0x1a
 6815 2132 01       		.uleb128 0x1
 6816 2133 50       		.byte	0x50
 6817 2134 02       		.uleb128 0x2
 6818 2135 08       		.byte	0x8
 6819 2136 62       		.byte	0x62
 6820 2137 1A       		.uleb128 0x1a
 6821 2138 01       		.uleb128 0x1
 6822 2139 51       		.byte	0x51
 6823 213a 01       		.uleb128 0x1
 6824 213b 30       		.byte	0x30
 6825 213c 00       		.byte	0
 6826 213d 19       		.uleb128 0x19
 6827 213e 46030000 		.4byte	.LVL291
 6828 2142 1F090000 		.4byte	0x91f
 6829 2146 56210000 		.4byte	0x2156
 6830 214a 1A       		.uleb128 0x1a
 6831 214b 01       		.uleb128 0x1
 6832 214c 50       		.byte	0x50
 6833 214d 02       		.uleb128 0x2
 6834 214e 08       		.byte	0x8
 6835 214f 63       		.byte	0x63
 6836 2150 1A       		.uleb128 0x1a
 6837 2151 01       		.uleb128 0x1
 6838 2152 51       		.byte	0x51
 6839 2153 01       		.uleb128 0x1
 6840 2154 30       		.byte	0x30
 6841 2155 00       		.byte	0
 6842 2156 19       		.uleb128 0x19
 6843 2157 4E030000 		.4byte	.LVL292
 6844 215b 1F090000 		.4byte	0x91f
 6845 215f 6F210000 		.4byte	0x216f
 6846 2163 1A       		.uleb128 0x1a
 6847 2164 01       		.uleb128 0x1
 6848 2165 50       		.byte	0x50
 6849 2166 02       		.uleb128 0x2
 6850 2167 08       		.byte	0x8
 6851 2168 64       		.byte	0x64
 6852 2169 1A       		.uleb128 0x1a
 6853 216a 01       		.uleb128 0x1
 6854 216b 51       		.byte	0x51
 6855 216c 01       		.uleb128 0x1
 6856 216d 30       		.byte	0x30
 6857 216e 00       		.byte	0
 6858 216f 19       		.uleb128 0x19
 6859 2170 56030000 		.4byte	.LVL293
ARM GAS  C:\Users\thoma\AppData\Local\Temp\cceCswqS.s 			page 135


 6860 2174 1F090000 		.4byte	0x91f
 6861 2178 88210000 		.4byte	0x2188
 6862 217c 1A       		.uleb128 0x1a
 6863 217d 01       		.uleb128 0x1
 6864 217e 50       		.byte	0x50
 6865 217f 02       		.uleb128 0x2
 6866 2180 08       		.byte	0x8
 6867 2181 65       		.byte	0x65
 6868 2182 1A       		.uleb128 0x1a
 6869 2183 01       		.uleb128 0x1
 6870 2184 51       		.byte	0x51
 6871 2185 01       		.uleb128 0x1
 6872 2186 30       		.byte	0x30
 6873 2187 00       		.byte	0
 6874 2188 19       		.uleb128 0x19
 6875 2189 5E030000 		.4byte	.LVL294
 6876 218d 1F090000 		.4byte	0x91f
 6877 2191 A1210000 		.4byte	0x21a1
 6878 2195 1A       		.uleb128 0x1a
 6879 2196 01       		.uleb128 0x1
 6880 2197 50       		.byte	0x50
 6881 2198 02       		.uleb128 0x2
 6882 2199 08       		.byte	0x8
 6883 219a 66       		.byte	0x66
 6884 219b 1A       		.uleb128 0x1a
 6885 219c 01       		.uleb128 0x1
 6886 219d 51       		.byte	0x51
 6887 219e 01       		.uleb128 0x1
 6888 219f 30       		.byte	0x30
 6889 21a0 00       		.byte	0
 6890 21a1 19       		.uleb128 0x19
 6891 21a2 66030000 		.4byte	.LVL295
 6892 21a6 1F090000 		.4byte	0x91f
 6893 21aa BA210000 		.4byte	0x21ba
 6894 21ae 1A       		.uleb128 0x1a
 6895 21af 01       		.uleb128 0x1
 6896 21b0 50       		.byte	0x50
 6897 21b1 02       		.uleb128 0x2
 6898 21b2 08       		.byte	0x8
 6899 21b3 67       		.byte	0x67
 6900 21b4 1A       		.uleb128 0x1a
 6901 21b5 01       		.uleb128 0x1
 6902 21b6 51       		.byte	0x51
 6903 21b7 01       		.uleb128 0x1
 6904 21b8 30       		.byte	0x30
 6905 21b9 00       		.byte	0
 6906 21ba 19       		.uleb128 0x19
 6907 21bb 6E030000 		.4byte	.LVL296
 6908 21bf 1F090000 		.4byte	0x91f
 6909 21c3 D3210000 		.4byte	0x21d3
 6910 21c7 1A       		.uleb128 0x1a
 6911 21c8 01       		.uleb128 0x1
 6912 21c9 50       		.byte	0x50
 6913 21ca 02       		.uleb128 0x2
 6914 21cb 08       		.byte	0x8
 6915 21cc 68       		.byte	0x68
 6916 21cd 1A       		.uleb128 0x1a
ARM GAS  C:\Users\thoma\AppData\Local\Temp\cceCswqS.s 			page 136


 6917 21ce 01       		.uleb128 0x1
 6918 21cf 51       		.byte	0x51
 6919 21d0 01       		.uleb128 0x1
 6920 21d1 30       		.byte	0x30
 6921 21d2 00       		.byte	0
 6922 21d3 19       		.uleb128 0x19
 6923 21d4 76030000 		.4byte	.LVL297
 6924 21d8 1F090000 		.4byte	0x91f
 6925 21dc EC210000 		.4byte	0x21ec
 6926 21e0 1A       		.uleb128 0x1a
 6927 21e1 01       		.uleb128 0x1
 6928 21e2 50       		.byte	0x50
 6929 21e3 02       		.uleb128 0x2
 6930 21e4 08       		.byte	0x8
 6931 21e5 69       		.byte	0x69
 6932 21e6 1A       		.uleb128 0x1a
 6933 21e7 01       		.uleb128 0x1
 6934 21e8 51       		.byte	0x51
 6935 21e9 01       		.uleb128 0x1
 6936 21ea 30       		.byte	0x30
 6937 21eb 00       		.byte	0
 6938 21ec 19       		.uleb128 0x19
 6939 21ed 7E030000 		.4byte	.LVL298
 6940 21f1 1F090000 		.4byte	0x91f
 6941 21f5 05220000 		.4byte	0x2205
 6942 21f9 1A       		.uleb128 0x1a
 6943 21fa 01       		.uleb128 0x1
 6944 21fb 50       		.byte	0x50
 6945 21fc 02       		.uleb128 0x2
 6946 21fd 08       		.byte	0x8
 6947 21fe 6A       		.byte	0x6a
 6948 21ff 1A       		.uleb128 0x1a
 6949 2200 01       		.uleb128 0x1
 6950 2201 51       		.byte	0x51
 6951 2202 01       		.uleb128 0x1
 6952 2203 30       		.byte	0x30
 6953 2204 00       		.byte	0
 6954 2205 19       		.uleb128 0x19
 6955 2206 86030000 		.4byte	.LVL299
 6956 220a 1F090000 		.4byte	0x91f
 6957 220e 1E220000 		.4byte	0x221e
 6958 2212 1A       		.uleb128 0x1a
 6959 2213 01       		.uleb128 0x1
 6960 2214 50       		.byte	0x50
 6961 2215 02       		.uleb128 0x2
 6962 2216 08       		.byte	0x8
 6963 2217 6B       		.byte	0x6b
 6964 2218 1A       		.uleb128 0x1a
 6965 2219 01       		.uleb128 0x1
 6966 221a 51       		.byte	0x51
 6967 221b 01       		.uleb128 0x1
 6968 221c 30       		.byte	0x30
 6969 221d 00       		.byte	0
 6970 221e 19       		.uleb128 0x19
 6971 221f 8E030000 		.4byte	.LVL300
 6972 2223 1F090000 		.4byte	0x91f
 6973 2227 37220000 		.4byte	0x2237
ARM GAS  C:\Users\thoma\AppData\Local\Temp\cceCswqS.s 			page 137


 6974 222b 1A       		.uleb128 0x1a
 6975 222c 01       		.uleb128 0x1
 6976 222d 50       		.byte	0x50
 6977 222e 02       		.uleb128 0x2
 6978 222f 08       		.byte	0x8
 6979 2230 6C       		.byte	0x6c
 6980 2231 1A       		.uleb128 0x1a
 6981 2232 01       		.uleb128 0x1
 6982 2233 51       		.byte	0x51
 6983 2234 01       		.uleb128 0x1
 6984 2235 30       		.byte	0x30
 6985 2236 00       		.byte	0
 6986 2237 19       		.uleb128 0x19
 6987 2238 96030000 		.4byte	.LVL301
 6988 223c 1F090000 		.4byte	0x91f
 6989 2240 50220000 		.4byte	0x2250
 6990 2244 1A       		.uleb128 0x1a
 6991 2245 01       		.uleb128 0x1
 6992 2246 50       		.byte	0x50
 6993 2247 02       		.uleb128 0x2
 6994 2248 08       		.byte	0x8
 6995 2249 6D       		.byte	0x6d
 6996 224a 1A       		.uleb128 0x1a
 6997 224b 01       		.uleb128 0x1
 6998 224c 51       		.byte	0x51
 6999 224d 01       		.uleb128 0x1
 7000 224e 30       		.byte	0x30
 7001 224f 00       		.byte	0
 7002 2250 19       		.uleb128 0x19
 7003 2251 9E030000 		.4byte	.LVL302
 7004 2255 1F090000 		.4byte	0x91f
 7005 2259 69220000 		.4byte	0x2269
 7006 225d 1A       		.uleb128 0x1a
 7007 225e 01       		.uleb128 0x1
 7008 225f 50       		.byte	0x50
 7009 2260 02       		.uleb128 0x2
 7010 2261 08       		.byte	0x8
 7011 2262 6E       		.byte	0x6e
 7012 2263 1A       		.uleb128 0x1a
 7013 2264 01       		.uleb128 0x1
 7014 2265 51       		.byte	0x51
 7015 2266 01       		.uleb128 0x1
 7016 2267 30       		.byte	0x30
 7017 2268 00       		.byte	0
 7018 2269 19       		.uleb128 0x19
 7019 226a A6030000 		.4byte	.LVL303
 7020 226e 1F090000 		.4byte	0x91f
 7021 2272 82220000 		.4byte	0x2282
 7022 2276 1A       		.uleb128 0x1a
 7023 2277 01       		.uleb128 0x1
 7024 2278 50       		.byte	0x50
 7025 2279 02       		.uleb128 0x2
 7026 227a 08       		.byte	0x8
 7027 227b 6F       		.byte	0x6f
 7028 227c 1A       		.uleb128 0x1a
 7029 227d 01       		.uleb128 0x1
 7030 227e 51       		.byte	0x51
ARM GAS  C:\Users\thoma\AppData\Local\Temp\cceCswqS.s 			page 138


 7031 227f 01       		.uleb128 0x1
 7032 2280 30       		.byte	0x30
 7033 2281 00       		.byte	0
 7034 2282 19       		.uleb128 0x19
 7035 2283 AE030000 		.4byte	.LVL304
 7036 2287 1F090000 		.4byte	0x91f
 7037 228b 9B220000 		.4byte	0x229b
 7038 228f 1A       		.uleb128 0x1a
 7039 2290 01       		.uleb128 0x1
 7040 2291 50       		.byte	0x50
 7041 2292 02       		.uleb128 0x2
 7042 2293 08       		.byte	0x8
 7043 2294 70       		.byte	0x70
 7044 2295 1A       		.uleb128 0x1a
 7045 2296 01       		.uleb128 0x1
 7046 2297 51       		.byte	0x51
 7047 2298 01       		.uleb128 0x1
 7048 2299 30       		.byte	0x30
 7049 229a 00       		.byte	0
 7050 229b 19       		.uleb128 0x19
 7051 229c B6030000 		.4byte	.LVL305
 7052 22a0 1F090000 		.4byte	0x91f
 7053 22a4 B4220000 		.4byte	0x22b4
 7054 22a8 1A       		.uleb128 0x1a
 7055 22a9 01       		.uleb128 0x1
 7056 22aa 50       		.byte	0x50
 7057 22ab 02       		.uleb128 0x2
 7058 22ac 08       		.byte	0x8
 7059 22ad 71       		.byte	0x71
 7060 22ae 1A       		.uleb128 0x1a
 7061 22af 01       		.uleb128 0x1
 7062 22b0 51       		.byte	0x51
 7063 22b1 01       		.uleb128 0x1
 7064 22b2 30       		.byte	0x30
 7065 22b3 00       		.byte	0
 7066 22b4 19       		.uleb128 0x19
 7067 22b5 BE030000 		.4byte	.LVL306
 7068 22b9 1F090000 		.4byte	0x91f
 7069 22bd CD220000 		.4byte	0x22cd
 7070 22c1 1A       		.uleb128 0x1a
 7071 22c2 01       		.uleb128 0x1
 7072 22c3 50       		.byte	0x50
 7073 22c4 02       		.uleb128 0x2
 7074 22c5 08       		.byte	0x8
 7075 22c6 72       		.byte	0x72
 7076 22c7 1A       		.uleb128 0x1a
 7077 22c8 01       		.uleb128 0x1
 7078 22c9 51       		.byte	0x51
 7079 22ca 01       		.uleb128 0x1
 7080 22cb 30       		.byte	0x30
 7081 22cc 00       		.byte	0
 7082 22cd 19       		.uleb128 0x19
 7083 22ce C6030000 		.4byte	.LVL307
 7084 22d2 1F090000 		.4byte	0x91f
 7085 22d6 E6220000 		.4byte	0x22e6
 7086 22da 1A       		.uleb128 0x1a
 7087 22db 01       		.uleb128 0x1
ARM GAS  C:\Users\thoma\AppData\Local\Temp\cceCswqS.s 			page 139


 7088 22dc 50       		.byte	0x50
 7089 22dd 02       		.uleb128 0x2
 7090 22de 08       		.byte	0x8
 7091 22df 73       		.byte	0x73
 7092 22e0 1A       		.uleb128 0x1a
 7093 22e1 01       		.uleb128 0x1
 7094 22e2 51       		.byte	0x51
 7095 22e3 01       		.uleb128 0x1
 7096 22e4 30       		.byte	0x30
 7097 22e5 00       		.byte	0
 7098 22e6 19       		.uleb128 0x19
 7099 22e7 CE030000 		.4byte	.LVL308
 7100 22eb 1F090000 		.4byte	0x91f
 7101 22ef FF220000 		.4byte	0x22ff
 7102 22f3 1A       		.uleb128 0x1a
 7103 22f4 01       		.uleb128 0x1
 7104 22f5 50       		.byte	0x50
 7105 22f6 02       		.uleb128 0x2
 7106 22f7 08       		.byte	0x8
 7107 22f8 74       		.byte	0x74
 7108 22f9 1A       		.uleb128 0x1a
 7109 22fa 01       		.uleb128 0x1
 7110 22fb 51       		.byte	0x51
 7111 22fc 01       		.uleb128 0x1
 7112 22fd 30       		.byte	0x30
 7113 22fe 00       		.byte	0
 7114 22ff 19       		.uleb128 0x19
 7115 2300 D6030000 		.4byte	.LVL309
 7116 2304 1F090000 		.4byte	0x91f
 7117 2308 18230000 		.4byte	0x2318
 7118 230c 1A       		.uleb128 0x1a
 7119 230d 01       		.uleb128 0x1
 7120 230e 50       		.byte	0x50
 7121 230f 02       		.uleb128 0x2
 7122 2310 08       		.byte	0x8
 7123 2311 75       		.byte	0x75
 7124 2312 1A       		.uleb128 0x1a
 7125 2313 01       		.uleb128 0x1
 7126 2314 51       		.byte	0x51
 7127 2315 01       		.uleb128 0x1
 7128 2316 30       		.byte	0x30
 7129 2317 00       		.byte	0
 7130 2318 19       		.uleb128 0x19
 7131 2319 DE030000 		.4byte	.LVL310
 7132 231d 1F090000 		.4byte	0x91f
 7133 2321 31230000 		.4byte	0x2331
 7134 2325 1A       		.uleb128 0x1a
 7135 2326 01       		.uleb128 0x1
 7136 2327 50       		.byte	0x50
 7137 2328 02       		.uleb128 0x2
 7138 2329 08       		.byte	0x8
 7139 232a 76       		.byte	0x76
 7140 232b 1A       		.uleb128 0x1a
 7141 232c 01       		.uleb128 0x1
 7142 232d 51       		.byte	0x51
 7143 232e 01       		.uleb128 0x1
 7144 232f 30       		.byte	0x30
ARM GAS  C:\Users\thoma\AppData\Local\Temp\cceCswqS.s 			page 140


 7145 2330 00       		.byte	0
 7146 2331 19       		.uleb128 0x19
 7147 2332 E6030000 		.4byte	.LVL311
 7148 2336 1F090000 		.4byte	0x91f
 7149 233a 4A230000 		.4byte	0x234a
 7150 233e 1A       		.uleb128 0x1a
 7151 233f 01       		.uleb128 0x1
 7152 2340 50       		.byte	0x50
 7153 2341 02       		.uleb128 0x2
 7154 2342 08       		.byte	0x8
 7155 2343 77       		.byte	0x77
 7156 2344 1A       		.uleb128 0x1a
 7157 2345 01       		.uleb128 0x1
 7158 2346 51       		.byte	0x51
 7159 2347 01       		.uleb128 0x1
 7160 2348 30       		.byte	0x30
 7161 2349 00       		.byte	0
 7162 234a 19       		.uleb128 0x19
 7163 234b EE030000 		.4byte	.LVL312
 7164 234f 1F090000 		.4byte	0x91f
 7165 2353 63230000 		.4byte	0x2363
 7166 2357 1A       		.uleb128 0x1a
 7167 2358 01       		.uleb128 0x1
 7168 2359 50       		.byte	0x50
 7169 235a 02       		.uleb128 0x2
 7170 235b 08       		.byte	0x8
 7171 235c 78       		.byte	0x78
 7172 235d 1A       		.uleb128 0x1a
 7173 235e 01       		.uleb128 0x1
 7174 235f 51       		.byte	0x51
 7175 2360 01       		.uleb128 0x1
 7176 2361 30       		.byte	0x30
 7177 2362 00       		.byte	0
 7178 2363 19       		.uleb128 0x19
 7179 2364 F6030000 		.4byte	.LVL313
 7180 2368 1F090000 		.4byte	0x91f
 7181 236c 7C230000 		.4byte	0x237c
 7182 2370 1A       		.uleb128 0x1a
 7183 2371 01       		.uleb128 0x1
 7184 2372 50       		.byte	0x50
 7185 2373 02       		.uleb128 0x2
 7186 2374 08       		.byte	0x8
 7187 2375 79       		.byte	0x79
 7188 2376 1A       		.uleb128 0x1a
 7189 2377 01       		.uleb128 0x1
 7190 2378 51       		.byte	0x51
 7191 2379 01       		.uleb128 0x1
 7192 237a 30       		.byte	0x30
 7193 237b 00       		.byte	0
 7194 237c 19       		.uleb128 0x19
 7195 237d FE030000 		.4byte	.LVL314
 7196 2381 1F090000 		.4byte	0x91f
 7197 2385 95230000 		.4byte	0x2395
 7198 2389 1A       		.uleb128 0x1a
 7199 238a 01       		.uleb128 0x1
 7200 238b 50       		.byte	0x50
 7201 238c 02       		.uleb128 0x2
ARM GAS  C:\Users\thoma\AppData\Local\Temp\cceCswqS.s 			page 141


 7202 238d 08       		.byte	0x8
 7203 238e 7A       		.byte	0x7a
 7204 238f 1A       		.uleb128 0x1a
 7205 2390 01       		.uleb128 0x1
 7206 2391 51       		.byte	0x51
 7207 2392 01       		.uleb128 0x1
 7208 2393 30       		.byte	0x30
 7209 2394 00       		.byte	0
 7210 2395 19       		.uleb128 0x19
 7211 2396 06040000 		.4byte	.LVL315
 7212 239a 1F090000 		.4byte	0x91f
 7213 239e AE230000 		.4byte	0x23ae
 7214 23a2 1A       		.uleb128 0x1a
 7215 23a3 01       		.uleb128 0x1
 7216 23a4 50       		.byte	0x50
 7217 23a5 02       		.uleb128 0x2
 7218 23a6 08       		.byte	0x8
 7219 23a7 7B       		.byte	0x7b
 7220 23a8 1A       		.uleb128 0x1a
 7221 23a9 01       		.uleb128 0x1
 7222 23aa 51       		.byte	0x51
 7223 23ab 01       		.uleb128 0x1
 7224 23ac 30       		.byte	0x30
 7225 23ad 00       		.byte	0
 7226 23ae 19       		.uleb128 0x19
 7227 23af 0E040000 		.4byte	.LVL316
 7228 23b3 1F090000 		.4byte	0x91f
 7229 23b7 C7230000 		.4byte	0x23c7
 7230 23bb 1A       		.uleb128 0x1a
 7231 23bc 01       		.uleb128 0x1
 7232 23bd 50       		.byte	0x50
 7233 23be 02       		.uleb128 0x2
 7234 23bf 08       		.byte	0x8
 7235 23c0 7C       		.byte	0x7c
 7236 23c1 1A       		.uleb128 0x1a
 7237 23c2 01       		.uleb128 0x1
 7238 23c3 51       		.byte	0x51
 7239 23c4 01       		.uleb128 0x1
 7240 23c5 30       		.byte	0x30
 7241 23c6 00       		.byte	0
 7242 23c7 19       		.uleb128 0x19
 7243 23c8 16040000 		.4byte	.LVL317
 7244 23cc 1F090000 		.4byte	0x91f
 7245 23d0 E0230000 		.4byte	0x23e0
 7246 23d4 1A       		.uleb128 0x1a
 7247 23d5 01       		.uleb128 0x1
 7248 23d6 50       		.byte	0x50
 7249 23d7 02       		.uleb128 0x2
 7250 23d8 08       		.byte	0x8
 7251 23d9 7D       		.byte	0x7d
 7252 23da 1A       		.uleb128 0x1a
 7253 23db 01       		.uleb128 0x1
 7254 23dc 51       		.byte	0x51
 7255 23dd 01       		.uleb128 0x1
 7256 23de 30       		.byte	0x30
 7257 23df 00       		.byte	0
 7258 23e0 19       		.uleb128 0x19
ARM GAS  C:\Users\thoma\AppData\Local\Temp\cceCswqS.s 			page 142


 7259 23e1 1E040000 		.4byte	.LVL318
 7260 23e5 1F090000 		.4byte	0x91f
 7261 23e9 F9230000 		.4byte	0x23f9
 7262 23ed 1A       		.uleb128 0x1a
 7263 23ee 01       		.uleb128 0x1
 7264 23ef 50       		.byte	0x50
 7265 23f0 02       		.uleb128 0x2
 7266 23f1 08       		.byte	0x8
 7267 23f2 7E       		.byte	0x7e
 7268 23f3 1A       		.uleb128 0x1a
 7269 23f4 01       		.uleb128 0x1
 7270 23f5 51       		.byte	0x51
 7271 23f6 01       		.uleb128 0x1
 7272 23f7 30       		.byte	0x30
 7273 23f8 00       		.byte	0
 7274 23f9 1E       		.uleb128 0x1e
 7275 23fa 26040000 		.4byte	.LVL319
 7276 23fe 1F090000 		.4byte	0x91f
 7277 2402 1A       		.uleb128 0x1a
 7278 2403 01       		.uleb128 0x1
 7279 2404 50       		.byte	0x50
 7280 2405 02       		.uleb128 0x2
 7281 2406 08       		.byte	0x8
 7282 2407 7F       		.byte	0x7f
 7283 2408 1A       		.uleb128 0x1a
 7284 2409 01       		.uleb128 0x1
 7285 240a 51       		.byte	0x51
 7286 240b 01       		.uleb128 0x1
 7287 240c 30       		.byte	0x30
 7288 240d 00       		.byte	0
 7289 240e 00       		.byte	0
 7290 240f 26       		.uleb128 0x26
 7291 2410 35070000 		.4byte	.LASF246
 7292 2414 01       		.byte	0x1
 7293 2415 8F01     		.2byte	0x18f
 7294 2417 00000000 		.4byte	.LFB557
 7295 241b 48010000 		.4byte	.LFE557-.LFB557
 7296 241f 01       		.uleb128 0x1
 7297 2420 9C       		.byte	0x9c
 7298 2421 54270000 		.4byte	0x2754
 7299 2425 24       		.uleb128 0x24
 7300 2426 8D000000 		.4byte	.LASF247
 7301 242a 01       		.byte	0x1
 7302 242b 9701     		.2byte	0x197
 7303 242d B8000000 		.4byte	0xb8
 7304 2431 A3070000 		.4byte	.LLST48
 7305 2435 28       		.uleb128 0x28
 7306 2436 07090000 		.4byte	.LASF248
 7307 243a 01       		.byte	0x1
 7308 243b C701     		.2byte	0x1c7
 7309 243d E2080000 		.4byte	0x8e2
 7310 2441 02       		.uleb128 0x2
 7311 2442 91       		.byte	0x91
 7312 2443 70       		.sleb128 -16
 7313 2444 28       		.uleb128 0x28
 7314 2445 11090000 		.4byte	.LASF249
 7315 2449 01       		.byte	0x1
ARM GAS  C:\Users\thoma\AppData\Local\Temp\cceCswqS.s 			page 143


 7316 244a C801     		.2byte	0x1c8
 7317 244c E2080000 		.4byte	0x8e2
 7318 2450 02       		.uleb128 0x2
 7319 2451 91       		.byte	0x91
 7320 2452 68       		.sleb128 -24
 7321 2453 19       		.uleb128 0x19
 7322 2454 0A000000 		.4byte	.LVL320
 7323 2458 E20A0000 		.4byte	0xae2
 7324 245c 66240000 		.4byte	0x2466
 7325 2460 1A       		.uleb128 0x1a
 7326 2461 01       		.uleb128 0x1
 7327 2462 50       		.byte	0x50
 7328 2463 01       		.uleb128 0x1
 7329 2464 31       		.byte	0x31
 7330 2465 00       		.byte	0
 7331 2466 1B       		.uleb128 0x1b
 7332 2467 0E000000 		.4byte	.LVL321
 7333 246b 51100000 		.4byte	0x1051
 7334 246f 19       		.uleb128 0x19
 7335 2470 14000000 		.4byte	.LVL322
 7336 2474 E20A0000 		.4byte	0xae2
 7337 2478 82240000 		.4byte	0x2482
 7338 247c 1A       		.uleb128 0x1a
 7339 247d 01       		.uleb128 0x1
 7340 247e 50       		.byte	0x50
 7341 247f 01       		.uleb128 0x1
 7342 2480 31       		.byte	0x31
 7343 2481 00       		.byte	0
 7344 2482 1B       		.uleb128 0x1b
 7345 2483 18000000 		.4byte	.LVL323
 7346 2487 B5170000 		.4byte	0x17b5
 7347 248b 19       		.uleb128 0x19
 7348 248c 1E000000 		.4byte	.LVL324
 7349 2490 A50B0000 		.4byte	0xba5
 7350 2494 9E240000 		.4byte	0x249e
 7351 2498 1A       		.uleb128 0x1a
 7352 2499 01       		.uleb128 0x1
 7353 249a 50       		.byte	0x50
 7354 249b 01       		.uleb128 0x1
 7355 249c 31       		.byte	0x31
 7356 249d 00       		.byte	0
 7357 249e 19       		.uleb128 0x19
 7358 249f 24000000 		.4byte	.LVL325
 7359 24a3 B7090000 		.4byte	0x9b7
 7360 24a7 B2240000 		.4byte	0x24b2
 7361 24ab 1A       		.uleb128 0x1a
 7362 24ac 01       		.uleb128 0x1
 7363 24ad 50       		.byte	0x50
 7364 24ae 02       		.uleb128 0x2
 7365 24af 08       		.byte	0x8
 7366 24b0 4B       		.byte	0x4b
 7367 24b1 00       		.byte	0
 7368 24b2 19       		.uleb128 0x19
 7369 24b3 2C000000 		.4byte	.LVL327
 7370 24b7 2B280000 		.4byte	0x282b
 7371 24bb C9240000 		.4byte	0x24c9
 7372 24bf 1A       		.uleb128 0x1a
ARM GAS  C:\Users\thoma\AppData\Local\Temp\cceCswqS.s 			page 144


 7373 24c0 01       		.uleb128 0x1
 7374 24c1 50       		.byte	0x50
 7375 24c2 05       		.uleb128 0x5
 7376 24c3 03       		.byte	0x3
 7377 24c4 24000000 		.4byte	.LC2
 7378 24c8 00       		.byte	0
 7379 24c9 19       		.uleb128 0x19
 7380 24ca 34000000 		.4byte	.LVL328
 7381 24ce 3C0B0000 		.4byte	0xb3c
 7382 24d2 E1240000 		.4byte	0x24e1
 7383 24d6 1A       		.uleb128 0x1a
 7384 24d7 01       		.uleb128 0x1
 7385 24d8 50       		.byte	0x50
 7386 24d9 01       		.uleb128 0x1
 7387 24da 35       		.byte	0x35
 7388 24db 1A       		.uleb128 0x1a
 7389 24dc 01       		.uleb128 0x1
 7390 24dd 51       		.byte	0x51
 7391 24de 01       		.uleb128 0x1
 7392 24df 35       		.byte	0x35
 7393 24e0 00       		.byte	0
 7394 24e1 19       		.uleb128 0x19
 7395 24e2 3C000000 		.4byte	.LVL329
 7396 24e6 A60C0000 		.4byte	0xca6
 7397 24ea F9240000 		.4byte	0x24f9
 7398 24ee 1A       		.uleb128 0x1a
 7399 24ef 01       		.uleb128 0x1
 7400 24f0 50       		.byte	0x50
 7401 24f1 01       		.uleb128 0x1
 7402 24f2 32       		.byte	0x32
 7403 24f3 1A       		.uleb128 0x1a
 7404 24f4 01       		.uleb128 0x1
 7405 24f5 51       		.byte	0x51
 7406 24f6 01       		.uleb128 0x1
 7407 24f7 30       		.byte	0x30
 7408 24f8 00       		.byte	0
 7409 24f9 19       		.uleb128 0x19
 7410 24fa 44000000 		.4byte	.LVL330
 7411 24fe A60C0000 		.4byte	0xca6
 7412 2502 11250000 		.4byte	0x2511
 7413 2506 1A       		.uleb128 0x1a
 7414 2507 01       		.uleb128 0x1
 7415 2508 50       		.byte	0x50
 7416 2509 01       		.uleb128 0x1
 7417 250a 31       		.byte	0x31
 7418 250b 1A       		.uleb128 0x1a
 7419 250c 01       		.uleb128 0x1
 7420 250d 51       		.byte	0x51
 7421 250e 01       		.uleb128 0x1
 7422 250f 31       		.byte	0x31
 7423 2510 00       		.byte	0
 7424 2511 19       		.uleb128 0x19
 7425 2512 4E000000 		.4byte	.LVL331
 7426 2516 1F090000 		.4byte	0x91f
 7427 251a 2C250000 		.4byte	0x252c
 7428 251e 1A       		.uleb128 0x1a
 7429 251f 01       		.uleb128 0x1
ARM GAS  C:\Users\thoma\AppData\Local\Temp\cceCswqS.s 			page 145


 7430 2520 50       		.byte	0x50
 7431 2521 02       		.uleb128 0x2
 7432 2522 08       		.byte	0x8
 7433 2523 23       		.byte	0x23
 7434 2524 1A       		.uleb128 0x1a
 7435 2525 01       		.uleb128 0x1
 7436 2526 51       		.byte	0x51
 7437 2527 03       		.uleb128 0x3
 7438 2528 0A       		.byte	0xa
 7439 2529 3110     		.2byte	0x1031
 7440 252b 00       		.byte	0
 7441 252c 19       		.uleb128 0x19
 7442 252d 58000000 		.4byte	.LVL332
 7443 2531 1F090000 		.4byte	0x91f
 7444 2535 47250000 		.4byte	0x2547
 7445 2539 1A       		.uleb128 0x1a
 7446 253a 01       		.uleb128 0x1
 7447 253b 50       		.byte	0x50
 7448 253c 02       		.uleb128 0x2
 7449 253d 08       		.byte	0x8
 7450 253e 24       		.byte	0x24
 7451 253f 1A       		.uleb128 0x1a
 7452 2540 01       		.uleb128 0x1
 7453 2541 51       		.byte	0x51
 7454 2542 03       		.uleb128 0x3
 7455 2543 0A       		.byte	0xa
 7456 2544 3410     		.2byte	0x1034
 7457 2546 00       		.byte	0
 7458 2547 19       		.uleb128 0x19
 7459 2548 62000000 		.4byte	.LVL333
 7460 254c 1F090000 		.4byte	0x91f
 7461 2550 62250000 		.4byte	0x2562
 7462 2554 1A       		.uleb128 0x1a
 7463 2555 01       		.uleb128 0x1
 7464 2556 50       		.byte	0x50
 7465 2557 02       		.uleb128 0x2
 7466 2558 08       		.byte	0x8
 7467 2559 25       		.byte	0x25
 7468 255a 1A       		.uleb128 0x1a
 7469 255b 01       		.uleb128 0x1
 7470 255c 51       		.byte	0x51
 7471 255d 03       		.uleb128 0x3
 7472 255e 0A       		.byte	0xa
 7473 255f DF67     		.2byte	0x67df
 7474 2561 00       		.byte	0
 7475 2562 19       		.uleb128 0x19
 7476 2563 6C000000 		.4byte	.LVL334
 7477 2567 4A120000 		.4byte	0x124a
 7478 256b 80250000 		.4byte	0x2580
 7479 256f 1A       		.uleb128 0x1a
 7480 2570 01       		.uleb128 0x1
 7481 2571 50       		.byte	0x50
 7482 2572 01       		.uleb128 0x1
 7483 2573 30       		.byte	0x30
 7484 2574 1A       		.uleb128 0x1a
 7485 2575 01       		.uleb128 0x1
 7486 2576 51       		.byte	0x51
ARM GAS  C:\Users\thoma\AppData\Local\Temp\cceCswqS.s 			page 146


 7487 2577 02       		.uleb128 0x2
 7488 2578 08       		.byte	0x8
 7489 2579 7F       		.byte	0x7f
 7490 257a 1A       		.uleb128 0x1a
 7491 257b 01       		.uleb128 0x1
 7492 257c 52       		.byte	0x52
 7493 257d 01       		.uleb128 0x1
 7494 257e 49       		.byte	0x49
 7495 257f 00       		.byte	0
 7496 2580 19       		.uleb128 0x19
 7497 2581 76000000 		.4byte	.LVL335
 7498 2585 4A120000 		.4byte	0x124a
 7499 2589 9E250000 		.4byte	0x259e
 7500 258d 1A       		.uleb128 0x1a
 7501 258e 01       		.uleb128 0x1
 7502 258f 50       		.byte	0x50
 7503 2590 01       		.uleb128 0x1
 7504 2591 31       		.byte	0x31
 7505 2592 1A       		.uleb128 0x1a
 7506 2593 01       		.uleb128 0x1
 7507 2594 51       		.byte	0x51
 7508 2595 02       		.uleb128 0x2
 7509 2596 08       		.byte	0x8
 7510 2597 7F       		.byte	0x7f
 7511 2598 1A       		.uleb128 0x1a
 7512 2599 01       		.uleb128 0x1
 7513 259a 52       		.byte	0x52
 7514 259b 01       		.uleb128 0x1
 7515 259c 49       		.byte	0x49
 7516 259d 00       		.byte	0
 7517 259e 19       		.uleb128 0x19
 7518 259f 80000000 		.4byte	.LVL336
 7519 25a3 C40D0000 		.4byte	0xdc4
 7520 25a7 BB250000 		.4byte	0x25bb
 7521 25ab 1A       		.uleb128 0x1a
 7522 25ac 01       		.uleb128 0x1
 7523 25ad 50       		.byte	0x50
 7524 25ae 01       		.uleb128 0x1
 7525 25af 30       		.byte	0x30
 7526 25b0 1A       		.uleb128 0x1a
 7527 25b1 01       		.uleb128 0x1
 7528 25b2 51       		.byte	0x51
 7529 25b3 01       		.uleb128 0x1
 7530 25b4 33       		.byte	0x33
 7531 25b5 1A       		.uleb128 0x1a
 7532 25b6 01       		.uleb128 0x1
 7533 25b7 52       		.byte	0x52
 7534 25b8 01       		.uleb128 0x1
 7535 25b9 49       		.byte	0x49
 7536 25ba 00       		.byte	0
 7537 25bb 19       		.uleb128 0x19
 7538 25bc 8A000000 		.4byte	.LVL337
 7539 25c0 C40D0000 		.4byte	0xdc4
 7540 25c4 D8250000 		.4byte	0x25d8
 7541 25c8 1A       		.uleb128 0x1a
 7542 25c9 01       		.uleb128 0x1
 7543 25ca 50       		.byte	0x50
ARM GAS  C:\Users\thoma\AppData\Local\Temp\cceCswqS.s 			page 147


 7544 25cb 01       		.uleb128 0x1
 7545 25cc 31       		.byte	0x31
 7546 25cd 1A       		.uleb128 0x1a
 7547 25ce 01       		.uleb128 0x1
 7548 25cf 51       		.byte	0x51
 7549 25d0 01       		.uleb128 0x1
 7550 25d1 33       		.byte	0x33
 7551 25d2 1A       		.uleb128 0x1a
 7552 25d3 01       		.uleb128 0x1
 7553 25d4 52       		.byte	0x52
 7554 25d5 01       		.uleb128 0x1
 7555 25d6 49       		.byte	0x49
 7556 25d7 00       		.byte	0
 7557 25d8 19       		.uleb128 0x19
 7558 25d9 96000000 		.4byte	.LVL338
 7559 25dd 3E0E0000 		.4byte	0xe3e
 7560 25e1 FA250000 		.4byte	0x25fa
 7561 25e5 1A       		.uleb128 0x1a
 7562 25e6 01       		.uleb128 0x1
 7563 25e7 50       		.byte	0x50
 7564 25e8 01       		.uleb128 0x1
 7565 25e9 30       		.byte	0x30
 7566 25ea 1A       		.uleb128 0x1a
 7567 25eb 01       		.uleb128 0x1
 7568 25ec 51       		.byte	0x51
 7569 25ed 01       		.uleb128 0x1
 7570 25ee 34       		.byte	0x34
 7571 25ef 1A       		.uleb128 0x1a
 7572 25f0 01       		.uleb128 0x1
 7573 25f1 52       		.byte	0x52
 7574 25f2 01       		.uleb128 0x1
 7575 25f3 40       		.byte	0x40
 7576 25f4 1A       		.uleb128 0x1a
 7577 25f5 01       		.uleb128 0x1
 7578 25f6 53       		.byte	0x53
 7579 25f7 01       		.uleb128 0x1
 7580 25f8 34       		.byte	0x34
 7581 25f9 00       		.byte	0
 7582 25fa 19       		.uleb128 0x19
 7583 25fb A2000000 		.4byte	.LVL339
 7584 25ff 3E0E0000 		.4byte	0xe3e
 7585 2603 1C260000 		.4byte	0x261c
 7586 2607 1A       		.uleb128 0x1a
 7587 2608 01       		.uleb128 0x1
 7588 2609 50       		.byte	0x50
 7589 260a 01       		.uleb128 0x1
 7590 260b 31       		.byte	0x31
 7591 260c 1A       		.uleb128 0x1a
 7592 260d 01       		.uleb128 0x1
 7593 260e 51       		.byte	0x51
 7594 260f 01       		.uleb128 0x1
 7595 2610 34       		.byte	0x34
 7596 2611 1A       		.uleb128 0x1a
 7597 2612 01       		.uleb128 0x1
 7598 2613 52       		.byte	0x52
 7599 2614 01       		.uleb128 0x1
 7600 2615 40       		.byte	0x40
ARM GAS  C:\Users\thoma\AppData\Local\Temp\cceCswqS.s 			page 148


 7601 2616 1A       		.uleb128 0x1a
 7602 2617 01       		.uleb128 0x1
 7603 2618 53       		.byte	0x53
 7604 2619 01       		.uleb128 0x1
 7605 261a 34       		.byte	0x34
 7606 261b 00       		.byte	0
 7607 261c 19       		.uleb128 0x19
 7608 261d A8000000 		.4byte	.LVL340
 7609 2621 B70F0000 		.4byte	0xfb7
 7610 2625 30260000 		.4byte	0x2630
 7611 2629 1A       		.uleb128 0x1a
 7612 262a 01       		.uleb128 0x1
 7613 262b 50       		.byte	0x50
 7614 262c 02       		.uleb128 0x2
 7615 262d 08       		.byte	0x8
 7616 262e 40       		.byte	0x40
 7617 262f 00       		.byte	0
 7618 2630 1B       		.uleb128 0x1b
 7619 2631 AC000000 		.4byte	.LVL341
 7620 2635 F20F0000 		.4byte	0xff2
 7621 2639 19       		.uleb128 0x19
 7622 263a B4000000 		.4byte	.LVL342
 7623 263e 230F0000 		.4byte	0xf23
 7624 2642 4E260000 		.4byte	0x264e
 7625 2646 1A       		.uleb128 0x1a
 7626 2647 01       		.uleb128 0x1
 7627 2648 50       		.byte	0x50
 7628 2649 03       		.uleb128 0x3
 7629 264a 0A       		.byte	0xa
 7630 264b 9001     		.2byte	0x190
 7631 264d 00       		.byte	0
 7632 264e 19       		.uleb128 0x19
 7633 264f BC000000 		.4byte	.LVL343
 7634 2653 C70E0000 		.4byte	0xec7
 7635 2657 66260000 		.4byte	0x2666
 7636 265b 1A       		.uleb128 0x1a
 7637 265c 01       		.uleb128 0x1
 7638 265d 50       		.byte	0x50
 7639 265e 01       		.uleb128 0x1
 7640 265f 30       		.byte	0x30
 7641 2660 1A       		.uleb128 0x1a
 7642 2661 01       		.uleb128 0x1
 7643 2662 51       		.byte	0x51
 7644 2663 01       		.uleb128 0x1
 7645 2664 33       		.byte	0x33
 7646 2665 00       		.byte	0
 7647 2666 19       		.uleb128 0x19
 7648 2667 C4000000 		.4byte	.LVL344
 7649 266b C70E0000 		.4byte	0xec7
 7650 266f 7E260000 		.4byte	0x267e
 7651 2673 1A       		.uleb128 0x1a
 7652 2674 01       		.uleb128 0x1
 7653 2675 50       		.byte	0x50
 7654 2676 01       		.uleb128 0x1
 7655 2677 31       		.byte	0x31
 7656 2678 1A       		.uleb128 0x1a
 7657 2679 01       		.uleb128 0x1
ARM GAS  C:\Users\thoma\AppData\Local\Temp\cceCswqS.s 			page 149


 7658 267a 51       		.byte	0x51
 7659 267b 01       		.uleb128 0x1
 7660 267c 33       		.byte	0x33
 7661 267d 00       		.byte	0
 7662 267e 19       		.uleb128 0x19
 7663 267f CE000000 		.4byte	.LVL345
 7664 2683 1F090000 		.4byte	0x91f
 7665 2687 99260000 		.4byte	0x2699
 7666 268b 1A       		.uleb128 0x1a
 7667 268c 01       		.uleb128 0x1
 7668 268d 50       		.byte	0x50
 7669 268e 02       		.uleb128 0x2
 7670 268f 08       		.byte	0x8
 7671 2690 4B       		.byte	0x4b
 7672 2691 1A       		.uleb128 0x1a
 7673 2692 01       		.uleb128 0x1
 7674 2693 51       		.byte	0x51
 7675 2694 03       		.uleb128 0x3
 7676 2695 0A       		.byte	0xa
 7677 2696 9526     		.2byte	0x2695
 7678 2698 00       		.byte	0
 7679 2699 19       		.uleb128 0x19
 7680 269a D6000000 		.4byte	.LVL346
 7681 269e 1F090000 		.4byte	0x91f
 7682 26a2 B3260000 		.4byte	0x26b3
 7683 26a6 1A       		.uleb128 0x1a
 7684 26a7 01       		.uleb128 0x1
 7685 26a8 50       		.byte	0x50
 7686 26a9 02       		.uleb128 0x2
 7687 26aa 08       		.byte	0x8
 7688 26ab 4D       		.byte	0x4d
 7689 26ac 1A       		.uleb128 0x1a
 7690 26ad 01       		.uleb128 0x1
 7691 26ae 51       		.byte	0x51
 7692 26af 02       		.uleb128 0x2
 7693 26b0 08       		.byte	0x8
 7694 26b1 98       		.byte	0x98
 7695 26b2 00       		.byte	0
 7696 26b3 19       		.uleb128 0x19
 7697 26b4 E0000000 		.4byte	.LVL347
 7698 26b8 1F090000 		.4byte	0x91f
 7699 26bc CE260000 		.4byte	0x26ce
 7700 26c0 1A       		.uleb128 0x1a
 7701 26c1 01       		.uleb128 0x1
 7702 26c2 50       		.byte	0x50
 7703 26c3 02       		.uleb128 0x2
 7704 26c4 08       		.byte	0x8
 7705 26c5 4F       		.byte	0x4f
 7706 26c6 1A       		.uleb128 0x1a
 7707 26c7 01       		.uleb128 0x1
 7708 26c8 51       		.byte	0x51
 7709 26c9 03       		.uleb128 0x3
 7710 26ca 0A       		.byte	0xa
 7711 26cb 9020     		.2byte	0x2090
 7712 26cd 00       		.byte	0
 7713 26ce 19       		.uleb128 0x19
 7714 26cf E8000000 		.4byte	.LVL348
ARM GAS  C:\Users\thoma\AppData\Local\Temp\cceCswqS.s 			page 150


 7715 26d3 1F090000 		.4byte	0x91f
 7716 26d7 E7260000 		.4byte	0x26e7
 7717 26db 1A       		.uleb128 0x1a
 7718 26dc 01       		.uleb128 0x1
 7719 26dd 50       		.byte	0x50
 7720 26de 02       		.uleb128 0x2
 7721 26df 08       		.byte	0x8
 7722 26e0 50       		.byte	0x50
 7723 26e1 1A       		.uleb128 0x1a
 7724 26e2 01       		.uleb128 0x1
 7725 26e3 51       		.byte	0x51
 7726 26e4 01       		.uleb128 0x1
 7727 26e5 30       		.byte	0x30
 7728 26e6 00       		.byte	0
 7729 26e7 19       		.uleb128 0x19
 7730 26e8 F2000000 		.4byte	.LVL349
 7731 26ec 1F090000 		.4byte	0x91f
 7732 26f0 02270000 		.4byte	0x2702
 7733 26f4 1A       		.uleb128 0x1a
 7734 26f5 01       		.uleb128 0x1
 7735 26f6 50       		.byte	0x50
 7736 26f7 02       		.uleb128 0x2
 7737 26f8 08       		.byte	0x8
 7738 26f9 3C       		.byte	0x3c
 7739 26fa 1A       		.uleb128 0x1a
 7740 26fb 01       		.uleb128 0x1
 7741 26fc 51       		.byte	0x51
 7742 26fd 03       		.uleb128 0x3
 7743 26fe 0A       		.byte	0xa
 7744 26ff 0670     		.2byte	0x7006
 7745 2701 00       		.byte	0
 7746 2702 19       		.uleb128 0x19
 7747 2703 F8000000 		.4byte	.LVL350
 7748 2707 6D0F0000 		.4byte	0xf6d
 7749 270b 15270000 		.4byte	0x2715
 7750 270f 1A       		.uleb128 0x1a
 7751 2710 01       		.uleb128 0x1
 7752 2711 50       		.byte	0x50
 7753 2712 01       		.uleb128 0x1
 7754 2713 31       		.byte	0x31
 7755 2714 00       		.byte	0
 7756 2715 19       		.uleb128 0x19
 7757 2716 28010000 		.4byte	.LVL351
 7758 271a 80100000 		.4byte	0x1080
 7759 271e 28270000 		.4byte	0x2728
 7760 2722 1A       		.uleb128 0x1a
 7761 2723 01       		.uleb128 0x1
 7762 2724 50       		.byte	0x50
 7763 2725 01       		.uleb128 0x1
 7764 2726 30       		.byte	0x30
 7765 2727 00       		.byte	0
 7766 2728 19       		.uleb128 0x19
 7767 2729 32010000 		.4byte	.LVL352
 7768 272d 80100000 		.4byte	0x1080
 7769 2731 3B270000 		.4byte	0x273b
 7770 2735 1A       		.uleb128 0x1a
 7771 2736 01       		.uleb128 0x1
ARM GAS  C:\Users\thoma\AppData\Local\Temp\cceCswqS.s 			page 151


 7772 2737 50       		.byte	0x50
 7773 2738 01       		.uleb128 0x1
 7774 2739 31       		.byte	0x31
 7775 273a 00       		.byte	0
 7776 273b 1B       		.uleb128 0x1b
 7777 273c 36010000 		.4byte	.LVL353
 7778 2740 010C0000 		.4byte	0xc01
 7779 2744 1E       		.uleb128 0x1e
 7780 2745 3C010000 		.4byte	.LVL354
 7781 2749 E20A0000 		.4byte	0xae2
 7782 274d 1A       		.uleb128 0x1a
 7783 274e 01       		.uleb128 0x1
 7784 274f 50       		.byte	0x50
 7785 2750 01       		.uleb128 0x1
 7786 2751 32       		.byte	0x32
 7787 2752 00       		.byte	0
 7788 2753 00       		.byte	0
 7789 2754 29       		.uleb128 0x29
 7790 2755 DF0B0000 		.4byte	.LASF250
 7791 2759 09       		.byte	0x9
 7792 275a F907     		.2byte	0x7f9
 7793 275c 60270000 		.4byte	0x2760
 7794 2760 05       		.uleb128 0x5
 7795 2761 C3000000 		.4byte	0xc3
 7796 2765 2A       		.uleb128 0x2a
 7797 2766 41000000 		.4byte	.LASF251
 7798 276a 04       		.byte	0x4
 7799 276b A7       		.byte	0xa7
 7800 276c 70270000 		.4byte	0x2770
 7801 2770 10       		.uleb128 0x10
 7802 2771 04       		.byte	0x4
 7803 2772 76270000 		.4byte	0x2776
 7804 2776 14       		.uleb128 0x14
 7805 2777 12050000 		.4byte	0x512
 7806 277b 2A       		.uleb128 0x2a
 7807 277c 760E0000 		.4byte	.LASF252
 7808 2780 0A       		.byte	0xa
 7809 2781 87       		.byte	0x87
 7810 2782 37070000 		.4byte	0x737
 7811 2786 29       		.uleb128 0x29
 7812 2787 0A0E0000 		.4byte	.LASF253
 7813 278b 07       		.byte	0x7
 7814 278c 6001     		.2byte	0x160
 7815 278e CE000000 		.4byte	0xce
 7816 2792 06       		.uleb128 0x6
 7817 2793 A2270000 		.4byte	0x27a2
 7818 2797 A2270000 		.4byte	0x27a2
 7819 279b 07       		.uleb128 0x7
 7820 279c D9000000 		.4byte	0xd9
 7821 27a0 00       		.byte	0
 7822 27a1 00       		.byte	0
 7823 27a2 14       		.uleb128 0x14
 7824 27a3 93070000 		.4byte	0x793
 7825 27a7 29       		.uleb128 0x29
 7826 27a8 BA0B0000 		.4byte	.LASF254
 7827 27ac 07       		.byte	0x7
 7828 27ad 6401     		.2byte	0x164
ARM GAS  C:\Users\thoma\AppData\Local\Temp\cceCswqS.s 			page 152


 7829 27af B3270000 		.4byte	0x27b3
 7830 27b3 14       		.uleb128 0x14
 7831 27b4 92270000 		.4byte	0x2792
 7832 27b8 06       		.uleb128 0x6
 7833 27b9 E5000000 		.4byte	0xe5
 7834 27bd C8270000 		.4byte	0x27c8
 7835 27c1 07       		.uleb128 0x7
 7836 27c2 D9000000 		.4byte	0xd9
 7837 27c6 03       		.byte	0x3
 7838 27c7 00       		.byte	0
 7839 27c8 2B       		.uleb128 0x2b
 7840 27c9 25000000 		.4byte	.LASF255
 7841 27cd 01       		.byte	0x1
 7842 27ce 09       		.byte	0x9
 7843 27cf D9270000 		.4byte	0x27d9
 7844 27d3 05       		.uleb128 0x5
 7845 27d4 03       		.byte	0x3
 7846 27d5 00000000 		.4byte	au16DataSlotA
 7847 27d9 05       		.uleb128 0x5
 7848 27da B8270000 		.4byte	0x27b8
 7849 27de 2B       		.uleb128 0x2b
 7850 27df 33000000 		.4byte	.LASF256
 7851 27e3 01       		.byte	0x1
 7852 27e4 0A       		.byte	0xa
 7853 27e5 EF270000 		.4byte	0x27ef
 7854 27e9 05       		.uleb128 0x5
 7855 27ea 03       		.byte	0x3
 7856 27eb 00000000 		.4byte	au16DataSlotB
 7857 27ef 05       		.uleb128 0x5
 7858 27f0 B8270000 		.4byte	0x27b8
 7859 27f4 2C       		.uleb128 0x2c
 7860 27f5 BD050000 		.4byte	.LASF257
 7861 27f9 BD050000 		.4byte	.LASF257
 7862 27fd 0B       		.byte	0xb
 7863 27fe B1       		.byte	0xb1
 7864 27ff 2C       		.uleb128 0x2c
 7865 2800 910A0000 		.4byte	.LASF258
 7866 2804 910A0000 		.4byte	.LASF258
 7867 2808 0B       		.byte	0xb
 7868 2809 B6       		.byte	0xb6
 7869 280a 2C       		.uleb128 0x2c
 7870 280b A9030000 		.4byte	.LASF259
 7871 280f A9030000 		.4byte	.LASF259
 7872 2813 0B       		.byte	0xb
 7873 2814 B5       		.byte	0xb5
 7874 2815 2C       		.uleb128 0x2c
 7875 2816 B7060000 		.4byte	.LASF260
 7876 281a B7060000 		.4byte	.LASF260
 7877 281e 0B       		.byte	0xb
 7878 281f B3       		.byte	0xb3
 7879 2820 2C       		.uleb128 0x2c
 7880 2821 C7070000 		.4byte	.LASF261
 7881 2825 C7070000 		.4byte	.LASF261
 7882 2829 0B       		.byte	0xb
 7883 282a B7       		.byte	0xb7
 7884 282b 2C       		.uleb128 0x2c
 7885 282c DC080000 		.4byte	.LASF262
ARM GAS  C:\Users\thoma\AppData\Local\Temp\cceCswqS.s 			page 153


 7886 2830 DC080000 		.4byte	.LASF262
 7887 2834 0C       		.byte	0xc
 7888 2835 BB       		.byte	0xbb
 7889 2836 2D       		.uleb128 0x2d
 7890 2837 860F0000 		.4byte	.LASF263
 7891 283b 860F0000 		.4byte	.LASF263
 7892 283f 0D       		.byte	0xd
 7893 2840 8903     		.2byte	0x389
 7894 2842 00       		.byte	0
 7895              		.section	.debug_abbrev,"",%progbits
 7896              	.Ldebug_abbrev0:
 7897 0000 01       		.uleb128 0x1
 7898 0001 11       		.uleb128 0x11
 7899 0002 01       		.byte	0x1
 7900 0003 25       		.uleb128 0x25
 7901 0004 0E       		.uleb128 0xe
 7902 0005 13       		.uleb128 0x13
 7903 0006 0B       		.uleb128 0xb
 7904 0007 03       		.uleb128 0x3
 7905 0008 0E       		.uleb128 0xe
 7906 0009 1B       		.uleb128 0x1b
 7907 000a 0E       		.uleb128 0xe
 7908 000b 55       		.uleb128 0x55
 7909 000c 17       		.uleb128 0x17
 7910 000d 11       		.uleb128 0x11
 7911 000e 01       		.uleb128 0x1
 7912 000f 10       		.uleb128 0x10
 7913 0010 17       		.uleb128 0x17
 7914 0011 00       		.byte	0
 7915 0012 00       		.byte	0
 7916 0013 02       		.uleb128 0x2
 7917 0014 24       		.uleb128 0x24
 7918 0015 00       		.byte	0
 7919 0016 0B       		.uleb128 0xb
 7920 0017 0B       		.uleb128 0xb
 7921 0018 3E       		.uleb128 0x3e
 7922 0019 0B       		.uleb128 0xb
 7923 001a 03       		.uleb128 0x3
 7924 001b 0E       		.uleb128 0xe
 7925 001c 00       		.byte	0
 7926 001d 00       		.byte	0
 7927 001e 03       		.uleb128 0x3
 7928 001f 16       		.uleb128 0x16
 7929 0020 00       		.byte	0
 7930 0021 03       		.uleb128 0x3
 7931 0022 0E       		.uleb128 0xe
 7932 0023 3A       		.uleb128 0x3a
 7933 0024 0B       		.uleb128 0xb
 7934 0025 3B       		.uleb128 0x3b
 7935 0026 0B       		.uleb128 0xb
 7936 0027 49       		.uleb128 0x49
 7937 0028 13       		.uleb128 0x13
 7938 0029 00       		.byte	0
 7939 002a 00       		.byte	0
 7940 002b 04       		.uleb128 0x4
 7941 002c 24       		.uleb128 0x24
 7942 002d 00       		.byte	0
ARM GAS  C:\Users\thoma\AppData\Local\Temp\cceCswqS.s 			page 154


 7943 002e 0B       		.uleb128 0xb
 7944 002f 0B       		.uleb128 0xb
 7945 0030 3E       		.uleb128 0x3e
 7946 0031 0B       		.uleb128 0xb
 7947 0032 03       		.uleb128 0x3
 7948 0033 08       		.uleb128 0x8
 7949 0034 00       		.byte	0
 7950 0035 00       		.byte	0
 7951 0036 05       		.uleb128 0x5
 7952 0037 35       		.uleb128 0x35
 7953 0038 00       		.byte	0
 7954 0039 49       		.uleb128 0x49
 7955 003a 13       		.uleb128 0x13
 7956 003b 00       		.byte	0
 7957 003c 00       		.byte	0
 7958 003d 06       		.uleb128 0x6
 7959 003e 01       		.uleb128 0x1
 7960 003f 01       		.byte	0x1
 7961 0040 49       		.uleb128 0x49
 7962 0041 13       		.uleb128 0x13
 7963 0042 01       		.uleb128 0x1
 7964 0043 13       		.uleb128 0x13
 7965 0044 00       		.byte	0
 7966 0045 00       		.byte	0
 7967 0046 07       		.uleb128 0x7
 7968 0047 21       		.uleb128 0x21
 7969 0048 00       		.byte	0
 7970 0049 49       		.uleb128 0x49
 7971 004a 13       		.uleb128 0x13
 7972 004b 2F       		.uleb128 0x2f
 7973 004c 0B       		.uleb128 0xb
 7974 004d 00       		.byte	0
 7975 004e 00       		.byte	0
 7976 004f 08       		.uleb128 0x8
 7977 0050 13       		.uleb128 0x13
 7978 0051 01       		.byte	0x1
 7979 0052 0B       		.uleb128 0xb
 7980 0053 0B       		.uleb128 0xb
 7981 0054 3A       		.uleb128 0x3a
 7982 0055 0B       		.uleb128 0xb
 7983 0056 3B       		.uleb128 0x3b
 7984 0057 0B       		.uleb128 0xb
 7985 0058 01       		.uleb128 0x1
 7986 0059 13       		.uleb128 0x13
 7987 005a 00       		.byte	0
 7988 005b 00       		.byte	0
 7989 005c 09       		.uleb128 0x9
 7990 005d 0D       		.uleb128 0xd
 7991 005e 00       		.byte	0
 7992 005f 03       		.uleb128 0x3
 7993 0060 0E       		.uleb128 0xe
 7994 0061 3A       		.uleb128 0x3a
 7995 0062 0B       		.uleb128 0xb
 7996 0063 3B       		.uleb128 0x3b
 7997 0064 0B       		.uleb128 0xb
 7998 0065 49       		.uleb128 0x49
 7999 0066 13       		.uleb128 0x13
ARM GAS  C:\Users\thoma\AppData\Local\Temp\cceCswqS.s 			page 155


 8000 0067 38       		.uleb128 0x38
 8001 0068 0B       		.uleb128 0xb
 8002 0069 00       		.byte	0
 8003 006a 00       		.byte	0
 8004 006b 0A       		.uleb128 0xa
 8005 006c 0F       		.uleb128 0xf
 8006 006d 00       		.byte	0
 8007 006e 0B       		.uleb128 0xb
 8008 006f 0B       		.uleb128 0xb
 8009 0070 00       		.byte	0
 8010 0071 00       		.byte	0
 8011 0072 0B       		.uleb128 0xb
 8012 0073 04       		.uleb128 0x4
 8013 0074 01       		.byte	0x1
 8014 0075 0B       		.uleb128 0xb
 8015 0076 0B       		.uleb128 0xb
 8016 0077 49       		.uleb128 0x49
 8017 0078 13       		.uleb128 0x13
 8018 0079 3A       		.uleb128 0x3a
 8019 007a 0B       		.uleb128 0xb
 8020 007b 3B       		.uleb128 0x3b
 8021 007c 05       		.uleb128 0x5
 8022 007d 01       		.uleb128 0x1
 8023 007e 13       		.uleb128 0x13
 8024 007f 00       		.byte	0
 8025 0080 00       		.byte	0
 8026 0081 0C       		.uleb128 0xc
 8027 0082 28       		.uleb128 0x28
 8028 0083 00       		.byte	0
 8029 0084 03       		.uleb128 0x3
 8030 0085 0E       		.uleb128 0xe
 8031 0086 1C       		.uleb128 0x1c
 8032 0087 0B       		.uleb128 0xb
 8033 0088 00       		.byte	0
 8034 0089 00       		.byte	0
 8035 008a 0D       		.uleb128 0xd
 8036 008b 16       		.uleb128 0x16
 8037 008c 00       		.byte	0
 8038 008d 03       		.uleb128 0x3
 8039 008e 0E       		.uleb128 0xe
 8040 008f 3A       		.uleb128 0x3a
 8041 0090 0B       		.uleb128 0xb
 8042 0091 3B       		.uleb128 0x3b
 8043 0092 05       		.uleb128 0x5
 8044 0093 49       		.uleb128 0x49
 8045 0094 13       		.uleb128 0x13
 8046 0095 00       		.byte	0
 8047 0096 00       		.byte	0
 8048 0097 0E       		.uleb128 0xe
 8049 0098 13       		.uleb128 0x13
 8050 0099 01       		.byte	0x1
 8051 009a 0B       		.uleb128 0xb
 8052 009b 0B       		.uleb128 0xb
 8053 009c 3A       		.uleb128 0x3a
 8054 009d 0B       		.uleb128 0xb
 8055 009e 3B       		.uleb128 0x3b
 8056 009f 05       		.uleb128 0x5
ARM GAS  C:\Users\thoma\AppData\Local\Temp\cceCswqS.s 			page 156


 8057 00a0 01       		.uleb128 0x1
 8058 00a1 13       		.uleb128 0x13
 8059 00a2 00       		.byte	0
 8060 00a3 00       		.byte	0
 8061 00a4 0F       		.uleb128 0xf
 8062 00a5 0D       		.uleb128 0xd
 8063 00a6 00       		.byte	0
 8064 00a7 03       		.uleb128 0x3
 8065 00a8 0E       		.uleb128 0xe
 8066 00a9 3A       		.uleb128 0x3a
 8067 00aa 0B       		.uleb128 0xb
 8068 00ab 3B       		.uleb128 0x3b
 8069 00ac 05       		.uleb128 0x5
 8070 00ad 49       		.uleb128 0x49
 8071 00ae 13       		.uleb128 0x13
 8072 00af 38       		.uleb128 0x38
 8073 00b0 0B       		.uleb128 0xb
 8074 00b1 00       		.byte	0
 8075 00b2 00       		.byte	0
 8076 00b3 10       		.uleb128 0x10
 8077 00b4 0F       		.uleb128 0xf
 8078 00b5 00       		.byte	0
 8079 00b6 0B       		.uleb128 0xb
 8080 00b7 0B       		.uleb128 0xb
 8081 00b8 49       		.uleb128 0x49
 8082 00b9 13       		.uleb128 0x13
 8083 00ba 00       		.byte	0
 8084 00bb 00       		.byte	0
 8085 00bc 11       		.uleb128 0x11
 8086 00bd 15       		.uleb128 0x15
 8087 00be 01       		.byte	0x1
 8088 00bf 27       		.uleb128 0x27
 8089 00c0 19       		.uleb128 0x19
 8090 00c1 01       		.uleb128 0x1
 8091 00c2 13       		.uleb128 0x13
 8092 00c3 00       		.byte	0
 8093 00c4 00       		.byte	0
 8094 00c5 12       		.uleb128 0x12
 8095 00c6 05       		.uleb128 0x5
 8096 00c7 00       		.byte	0
 8097 00c8 49       		.uleb128 0x49
 8098 00c9 13       		.uleb128 0x13
 8099 00ca 00       		.byte	0
 8100 00cb 00       		.byte	0
 8101 00cc 13       		.uleb128 0x13
 8102 00cd 13       		.uleb128 0x13
 8103 00ce 01       		.byte	0x1
 8104 00cf 03       		.uleb128 0x3
 8105 00d0 0E       		.uleb128 0xe
 8106 00d1 0B       		.uleb128 0xb
 8107 00d2 0B       		.uleb128 0xb
 8108 00d3 3A       		.uleb128 0x3a
 8109 00d4 0B       		.uleb128 0xb
 8110 00d5 3B       		.uleb128 0x3b
 8111 00d6 05       		.uleb128 0x5
 8112 00d7 01       		.uleb128 0x1
 8113 00d8 13       		.uleb128 0x13
ARM GAS  C:\Users\thoma\AppData\Local\Temp\cceCswqS.s 			page 157


 8114 00d9 00       		.byte	0
 8115 00da 00       		.byte	0
 8116 00db 14       		.uleb128 0x14
 8117 00dc 26       		.uleb128 0x26
 8118 00dd 00       		.byte	0
 8119 00de 49       		.uleb128 0x49
 8120 00df 13       		.uleb128 0x13
 8121 00e0 00       		.byte	0
 8122 00e1 00       		.byte	0
 8123 00e2 15       		.uleb128 0x15
 8124 00e3 04       		.uleb128 0x4
 8125 00e4 01       		.byte	0x1
 8126 00e5 0B       		.uleb128 0xb
 8127 00e6 0B       		.uleb128 0xb
 8128 00e7 49       		.uleb128 0x49
 8129 00e8 13       		.uleb128 0x13
 8130 00e9 3A       		.uleb128 0x3a
 8131 00ea 0B       		.uleb128 0xb
 8132 00eb 3B       		.uleb128 0x3b
 8133 00ec 0B       		.uleb128 0xb
 8134 00ed 01       		.uleb128 0x1
 8135 00ee 13       		.uleb128 0x13
 8136 00ef 00       		.byte	0
 8137 00f0 00       		.byte	0
 8138 00f1 16       		.uleb128 0x16
 8139 00f2 13       		.uleb128 0x13
 8140 00f3 01       		.byte	0x1
 8141 00f4 03       		.uleb128 0x3
 8142 00f5 0E       		.uleb128 0xe
 8143 00f6 0B       		.uleb128 0xb
 8144 00f7 0B       		.uleb128 0xb
 8145 00f8 3A       		.uleb128 0x3a
 8146 00f9 0B       		.uleb128 0xb
 8147 00fa 3B       		.uleb128 0x3b
 8148 00fb 0B       		.uleb128 0xb
 8149 00fc 01       		.uleb128 0x1
 8150 00fd 13       		.uleb128 0x13
 8151 00fe 00       		.byte	0
 8152 00ff 00       		.byte	0
 8153 0100 17       		.uleb128 0x17
 8154 0101 2E       		.uleb128 0x2e
 8155 0102 01       		.byte	0x1
 8156 0103 3F       		.uleb128 0x3f
 8157 0104 19       		.uleb128 0x19
 8158 0105 03       		.uleb128 0x3
 8159 0106 0E       		.uleb128 0xe
 8160 0107 3A       		.uleb128 0x3a
 8161 0108 0B       		.uleb128 0xb
 8162 0109 3B       		.uleb128 0x3b
 8163 010a 0B       		.uleb128 0xb
 8164 010b 27       		.uleb128 0x27
 8165 010c 19       		.uleb128 0x19
 8166 010d 49       		.uleb128 0x49
 8167 010e 13       		.uleb128 0x13
 8168 010f 11       		.uleb128 0x11
 8169 0110 01       		.uleb128 0x1
 8170 0111 12       		.uleb128 0x12
ARM GAS  C:\Users\thoma\AppData\Local\Temp\cceCswqS.s 			page 158


 8171 0112 06       		.uleb128 0x6
 8172 0113 40       		.uleb128 0x40
 8173 0114 18       		.uleb128 0x18
 8174 0115 9742     		.uleb128 0x2117
 8175 0117 19       		.uleb128 0x19
 8176 0118 01       		.uleb128 0x1
 8177 0119 13       		.uleb128 0x13
 8178 011a 00       		.byte	0
 8179 011b 00       		.byte	0
 8180 011c 18       		.uleb128 0x18
 8181 011d 05       		.uleb128 0x5
 8182 011e 00       		.byte	0
 8183 011f 03       		.uleb128 0x3
 8184 0120 0E       		.uleb128 0xe
 8185 0121 3A       		.uleb128 0x3a
 8186 0122 0B       		.uleb128 0xb
 8187 0123 3B       		.uleb128 0x3b
 8188 0124 0B       		.uleb128 0xb
 8189 0125 49       		.uleb128 0x49
 8190 0126 13       		.uleb128 0x13
 8191 0127 02       		.uleb128 0x2
 8192 0128 17       		.uleb128 0x17
 8193 0129 00       		.byte	0
 8194 012a 00       		.byte	0
 8195 012b 19       		.uleb128 0x19
 8196 012c 898201   		.uleb128 0x4109
 8197 012f 01       		.byte	0x1
 8198 0130 11       		.uleb128 0x11
 8199 0131 01       		.uleb128 0x1
 8200 0132 31       		.uleb128 0x31
 8201 0133 13       		.uleb128 0x13
 8202 0134 01       		.uleb128 0x1
 8203 0135 13       		.uleb128 0x13
 8204 0136 00       		.byte	0
 8205 0137 00       		.byte	0
 8206 0138 1A       		.uleb128 0x1a
 8207 0139 8A8201   		.uleb128 0x410a
 8208 013c 00       		.byte	0
 8209 013d 02       		.uleb128 0x2
 8210 013e 18       		.uleb128 0x18
 8211 013f 9142     		.uleb128 0x2111
 8212 0141 18       		.uleb128 0x18
 8213 0142 00       		.byte	0
 8214 0143 00       		.byte	0
 8215 0144 1B       		.uleb128 0x1b
 8216 0145 898201   		.uleb128 0x4109
 8217 0148 00       		.byte	0
 8218 0149 11       		.uleb128 0x11
 8219 014a 01       		.uleb128 0x1
 8220 014b 31       		.uleb128 0x31
 8221 014c 13       		.uleb128 0x13
 8222 014d 00       		.byte	0
 8223 014e 00       		.byte	0
 8224 014f 1C       		.uleb128 0x1c
 8225 0150 34       		.uleb128 0x34
 8226 0151 00       		.byte	0
 8227 0152 03       		.uleb128 0x3
ARM GAS  C:\Users\thoma\AppData\Local\Temp\cceCswqS.s 			page 159


 8228 0153 0E       		.uleb128 0xe
 8229 0154 3A       		.uleb128 0x3a
 8230 0155 0B       		.uleb128 0xb
 8231 0156 3B       		.uleb128 0x3b
 8232 0157 0B       		.uleb128 0xb
 8233 0158 49       		.uleb128 0x49
 8234 0159 13       		.uleb128 0x13
 8235 015a 00       		.byte	0
 8236 015b 00       		.byte	0
 8237 015c 1D       		.uleb128 0x1d
 8238 015d 34       		.uleb128 0x34
 8239 015e 00       		.byte	0
 8240 015f 03       		.uleb128 0x3
 8241 0160 0E       		.uleb128 0xe
 8242 0161 3A       		.uleb128 0x3a
 8243 0162 0B       		.uleb128 0xb
 8244 0163 3B       		.uleb128 0x3b
 8245 0164 0B       		.uleb128 0xb
 8246 0165 49       		.uleb128 0x49
 8247 0166 13       		.uleb128 0x13
 8248 0167 02       		.uleb128 0x2
 8249 0168 17       		.uleb128 0x17
 8250 0169 00       		.byte	0
 8251 016a 00       		.byte	0
 8252 016b 1E       		.uleb128 0x1e
 8253 016c 898201   		.uleb128 0x4109
 8254 016f 01       		.byte	0x1
 8255 0170 11       		.uleb128 0x11
 8256 0171 01       		.uleb128 0x1
 8257 0172 31       		.uleb128 0x31
 8258 0173 13       		.uleb128 0x13
 8259 0174 00       		.byte	0
 8260 0175 00       		.byte	0
 8261 0176 1F       		.uleb128 0x1f
 8262 0177 2E       		.uleb128 0x2e
 8263 0178 01       		.byte	0x1
 8264 0179 3F       		.uleb128 0x3f
 8265 017a 19       		.uleb128 0x19
 8266 017b 03       		.uleb128 0x3
 8267 017c 0E       		.uleb128 0xe
 8268 017d 3A       		.uleb128 0x3a
 8269 017e 0B       		.uleb128 0xb
 8270 017f 3B       		.uleb128 0x3b
 8271 0180 0B       		.uleb128 0xb
 8272 0181 27       		.uleb128 0x27
 8273 0182 19       		.uleb128 0x19
 8274 0183 11       		.uleb128 0x11
 8275 0184 01       		.uleb128 0x1
 8276 0185 12       		.uleb128 0x12
 8277 0186 06       		.uleb128 0x6
 8278 0187 40       		.uleb128 0x40
 8279 0188 18       		.uleb128 0x18
 8280 0189 9742     		.uleb128 0x2117
 8281 018b 19       		.uleb128 0x19
 8282 018c 01       		.uleb128 0x1
 8283 018d 13       		.uleb128 0x13
 8284 018e 00       		.byte	0
ARM GAS  C:\Users\thoma\AppData\Local\Temp\cceCswqS.s 			page 160


 8285 018f 00       		.byte	0
 8286 0190 20       		.uleb128 0x20
 8287 0191 0B       		.uleb128 0xb
 8288 0192 01       		.byte	0x1
 8289 0193 11       		.uleb128 0x11
 8290 0194 01       		.uleb128 0x1
 8291 0195 12       		.uleb128 0x12
 8292 0196 06       		.uleb128 0x6
 8293 0197 00       		.byte	0
 8294 0198 00       		.byte	0
 8295 0199 21       		.uleb128 0x21
 8296 019a 34       		.uleb128 0x34
 8297 019b 00       		.byte	0
 8298 019c 03       		.uleb128 0x3
 8299 019d 08       		.uleb128 0x8
 8300 019e 3A       		.uleb128 0x3a
 8301 019f 0B       		.uleb128 0xb
 8302 01a0 3B       		.uleb128 0x3b
 8303 01a1 0B       		.uleb128 0xb
 8304 01a2 49       		.uleb128 0x49
 8305 01a3 13       		.uleb128 0x13
 8306 01a4 02       		.uleb128 0x2
 8307 01a5 17       		.uleb128 0x17
 8308 01a6 00       		.byte	0
 8309 01a7 00       		.byte	0
 8310 01a8 22       		.uleb128 0x22
 8311 01a9 2E       		.uleb128 0x2e
 8312 01aa 01       		.byte	0x1
 8313 01ab 3F       		.uleb128 0x3f
 8314 01ac 19       		.uleb128 0x19
 8315 01ad 03       		.uleb128 0x3
 8316 01ae 0E       		.uleb128 0xe
 8317 01af 3A       		.uleb128 0x3a
 8318 01b0 0B       		.uleb128 0xb
 8319 01b1 3B       		.uleb128 0x3b
 8320 01b2 05       		.uleb128 0x5
 8321 01b3 27       		.uleb128 0x27
 8322 01b4 19       		.uleb128 0x19
 8323 01b5 49       		.uleb128 0x49
 8324 01b6 13       		.uleb128 0x13
 8325 01b7 11       		.uleb128 0x11
 8326 01b8 01       		.uleb128 0x1
 8327 01b9 12       		.uleb128 0x12
 8328 01ba 06       		.uleb128 0x6
 8329 01bb 40       		.uleb128 0x40
 8330 01bc 18       		.uleb128 0x18
 8331 01bd 9742     		.uleb128 0x2117
 8332 01bf 19       		.uleb128 0x19
 8333 01c0 01       		.uleb128 0x1
 8334 01c1 13       		.uleb128 0x13
 8335 01c2 00       		.byte	0
 8336 01c3 00       		.byte	0
 8337 01c4 23       		.uleb128 0x23
 8338 01c5 05       		.uleb128 0x5
 8339 01c6 00       		.byte	0
 8340 01c7 03       		.uleb128 0x3
 8341 01c8 0E       		.uleb128 0xe
ARM GAS  C:\Users\thoma\AppData\Local\Temp\cceCswqS.s 			page 161


 8342 01c9 3A       		.uleb128 0x3a
 8343 01ca 0B       		.uleb128 0xb
 8344 01cb 3B       		.uleb128 0x3b
 8345 01cc 05       		.uleb128 0x5
 8346 01cd 49       		.uleb128 0x49
 8347 01ce 13       		.uleb128 0x13
 8348 01cf 02       		.uleb128 0x2
 8349 01d0 17       		.uleb128 0x17
 8350 01d1 00       		.byte	0
 8351 01d2 00       		.byte	0
 8352 01d3 24       		.uleb128 0x24
 8353 01d4 34       		.uleb128 0x34
 8354 01d5 00       		.byte	0
 8355 01d6 03       		.uleb128 0x3
 8356 01d7 0E       		.uleb128 0xe
 8357 01d8 3A       		.uleb128 0x3a
 8358 01d9 0B       		.uleb128 0xb
 8359 01da 3B       		.uleb128 0x3b
 8360 01db 05       		.uleb128 0x5
 8361 01dc 49       		.uleb128 0x49
 8362 01dd 13       		.uleb128 0x13
 8363 01de 02       		.uleb128 0x2
 8364 01df 17       		.uleb128 0x17
 8365 01e0 00       		.byte	0
 8366 01e1 00       		.byte	0
 8367 01e2 25       		.uleb128 0x25
 8368 01e3 34       		.uleb128 0x34
 8369 01e4 00       		.byte	0
 8370 01e5 03       		.uleb128 0x3
 8371 01e6 08       		.uleb128 0x8
 8372 01e7 3A       		.uleb128 0x3a
 8373 01e8 0B       		.uleb128 0xb
 8374 01e9 3B       		.uleb128 0x3b
 8375 01ea 05       		.uleb128 0x5
 8376 01eb 49       		.uleb128 0x49
 8377 01ec 13       		.uleb128 0x13
 8378 01ed 02       		.uleb128 0x2
 8379 01ee 17       		.uleb128 0x17
 8380 01ef 00       		.byte	0
 8381 01f0 00       		.byte	0
 8382 01f1 26       		.uleb128 0x26
 8383 01f2 2E       		.uleb128 0x2e
 8384 01f3 01       		.byte	0x1
 8385 01f4 3F       		.uleb128 0x3f
 8386 01f5 19       		.uleb128 0x19
 8387 01f6 03       		.uleb128 0x3
 8388 01f7 0E       		.uleb128 0xe
 8389 01f8 3A       		.uleb128 0x3a
 8390 01f9 0B       		.uleb128 0xb
 8391 01fa 3B       		.uleb128 0x3b
 8392 01fb 05       		.uleb128 0x5
 8393 01fc 27       		.uleb128 0x27
 8394 01fd 19       		.uleb128 0x19
 8395 01fe 11       		.uleb128 0x11
 8396 01ff 01       		.uleb128 0x1
 8397 0200 12       		.uleb128 0x12
 8398 0201 06       		.uleb128 0x6
ARM GAS  C:\Users\thoma\AppData\Local\Temp\cceCswqS.s 			page 162


 8399 0202 40       		.uleb128 0x40
 8400 0203 18       		.uleb128 0x18
 8401 0204 9742     		.uleb128 0x2117
 8402 0206 19       		.uleb128 0x19
 8403 0207 01       		.uleb128 0x1
 8404 0208 13       		.uleb128 0x13
 8405 0209 00       		.byte	0
 8406 020a 00       		.byte	0
 8407 020b 27       		.uleb128 0x27
 8408 020c 05       		.uleb128 0x5
 8409 020d 00       		.byte	0
 8410 020e 03       		.uleb128 0x3
 8411 020f 0E       		.uleb128 0xe
 8412 0210 3A       		.uleb128 0x3a
 8413 0211 0B       		.uleb128 0xb
 8414 0212 3B       		.uleb128 0x3b
 8415 0213 05       		.uleb128 0x5
 8416 0214 49       		.uleb128 0x49
 8417 0215 13       		.uleb128 0x13
 8418 0216 02       		.uleb128 0x2
 8419 0217 18       		.uleb128 0x18
 8420 0218 00       		.byte	0
 8421 0219 00       		.byte	0
 8422 021a 28       		.uleb128 0x28
 8423 021b 34       		.uleb128 0x34
 8424 021c 00       		.byte	0
 8425 021d 03       		.uleb128 0x3
 8426 021e 0E       		.uleb128 0xe
 8427 021f 3A       		.uleb128 0x3a
 8428 0220 0B       		.uleb128 0xb
 8429 0221 3B       		.uleb128 0x3b
 8430 0222 05       		.uleb128 0x5
 8431 0223 49       		.uleb128 0x49
 8432 0224 13       		.uleb128 0x13
 8433 0225 02       		.uleb128 0x2
 8434 0226 18       		.uleb128 0x18
 8435 0227 00       		.byte	0
 8436 0228 00       		.byte	0
 8437 0229 29       		.uleb128 0x29
 8438 022a 34       		.uleb128 0x34
 8439 022b 00       		.byte	0
 8440 022c 03       		.uleb128 0x3
 8441 022d 0E       		.uleb128 0xe
 8442 022e 3A       		.uleb128 0x3a
 8443 022f 0B       		.uleb128 0xb
 8444 0230 3B       		.uleb128 0x3b
 8445 0231 05       		.uleb128 0x5
 8446 0232 49       		.uleb128 0x49
 8447 0233 13       		.uleb128 0x13
 8448 0234 3F       		.uleb128 0x3f
 8449 0235 19       		.uleb128 0x19
 8450 0236 3C       		.uleb128 0x3c
 8451 0237 19       		.uleb128 0x19
 8452 0238 00       		.byte	0
 8453 0239 00       		.byte	0
 8454 023a 2A       		.uleb128 0x2a
 8455 023b 34       		.uleb128 0x34
ARM GAS  C:\Users\thoma\AppData\Local\Temp\cceCswqS.s 			page 163


 8456 023c 00       		.byte	0
 8457 023d 03       		.uleb128 0x3
 8458 023e 0E       		.uleb128 0xe
 8459 023f 3A       		.uleb128 0x3a
 8460 0240 0B       		.uleb128 0xb
 8461 0241 3B       		.uleb128 0x3b
 8462 0242 0B       		.uleb128 0xb
 8463 0243 49       		.uleb128 0x49
 8464 0244 13       		.uleb128 0x13
 8465 0245 3F       		.uleb128 0x3f
 8466 0246 19       		.uleb128 0x19
 8467 0247 3C       		.uleb128 0x3c
 8468 0248 19       		.uleb128 0x19
 8469 0249 00       		.byte	0
 8470 024a 00       		.byte	0
 8471 024b 2B       		.uleb128 0x2b
 8472 024c 34       		.uleb128 0x34
 8473 024d 00       		.byte	0
 8474 024e 03       		.uleb128 0x3
 8475 024f 0E       		.uleb128 0xe
 8476 0250 3A       		.uleb128 0x3a
 8477 0251 0B       		.uleb128 0xb
 8478 0252 3B       		.uleb128 0x3b
 8479 0253 0B       		.uleb128 0xb
 8480 0254 49       		.uleb128 0x49
 8481 0255 13       		.uleb128 0x13
 8482 0256 3F       		.uleb128 0x3f
 8483 0257 19       		.uleb128 0x19
 8484 0258 02       		.uleb128 0x2
 8485 0259 18       		.uleb128 0x18
 8486 025a 00       		.byte	0
 8487 025b 00       		.byte	0
 8488 025c 2C       		.uleb128 0x2c
 8489 025d 2E       		.uleb128 0x2e
 8490 025e 00       		.byte	0
 8491 025f 3F       		.uleb128 0x3f
 8492 0260 19       		.uleb128 0x19
 8493 0261 3C       		.uleb128 0x3c
 8494 0262 19       		.uleb128 0x19
 8495 0263 6E       		.uleb128 0x6e
 8496 0264 0E       		.uleb128 0xe
 8497 0265 03       		.uleb128 0x3
 8498 0266 0E       		.uleb128 0xe
 8499 0267 3A       		.uleb128 0x3a
 8500 0268 0B       		.uleb128 0xb
 8501 0269 3B       		.uleb128 0x3b
 8502 026a 0B       		.uleb128 0xb
 8503 026b 00       		.byte	0
 8504 026c 00       		.byte	0
 8505 026d 2D       		.uleb128 0x2d
 8506 026e 2E       		.uleb128 0x2e
 8507 026f 00       		.byte	0
 8508 0270 3F       		.uleb128 0x3f
 8509 0271 19       		.uleb128 0x19
 8510 0272 3C       		.uleb128 0x3c
 8511 0273 19       		.uleb128 0x19
 8512 0274 6E       		.uleb128 0x6e
ARM GAS  C:\Users\thoma\AppData\Local\Temp\cceCswqS.s 			page 164


 8513 0275 0E       		.uleb128 0xe
 8514 0276 03       		.uleb128 0x3
 8515 0277 0E       		.uleb128 0xe
 8516 0278 3A       		.uleb128 0x3a
 8517 0279 0B       		.uleb128 0xb
 8518 027a 3B       		.uleb128 0x3b
 8519 027b 05       		.uleb128 0x5
 8520 027c 00       		.byte	0
 8521 027d 00       		.byte	0
 8522 027e 00       		.byte	0
 8523              		.section	.debug_loc,"",%progbits
 8524              	.Ldebug_loc0:
 8525              	.LLST0:
 8526 0000 00000000 		.4byte	.LVL0
 8527 0004 0A000000 		.4byte	.LVL2
 8528 0008 0100     		.2byte	0x1
 8529 000a 50       		.byte	0x50
 8530 000b 0A000000 		.4byte	.LVL2
 8531 000f 28000000 		.4byte	.LFE536
 8532 0013 0400     		.2byte	0x4
 8533 0015 F3       		.byte	0xf3
 8534 0016 01       		.uleb128 0x1
 8535 0017 50       		.byte	0x50
 8536 0018 9F       		.byte	0x9f
 8537 0019 00000000 		.4byte	0
 8538 001d 00000000 		.4byte	0
 8539              	.LLST1:
 8540 0021 00000000 		.4byte	.LVL0
 8541 0025 08000000 		.4byte	.LVL1
 8542 0029 0100     		.2byte	0x1
 8543 002b 51       		.byte	0x51
 8544 002c 08000000 		.4byte	.LVL1
 8545 0030 28000000 		.4byte	.LFE536
 8546 0034 0400     		.2byte	0x4
 8547 0036 F3       		.byte	0xf3
 8548 0037 01       		.uleb128 0x1
 8549 0038 51       		.byte	0x51
 8550 0039 9F       		.byte	0x9f
 8551 003a 00000000 		.4byte	0
 8552 003e 00000000 		.4byte	0
 8553              	.LLST2:
 8554 0042 00000000 		.4byte	.LVL8
 8555 0046 08000000 		.4byte	.LVL9
 8556 004a 0100     		.2byte	0x1
 8557 004c 50       		.byte	0x50
 8558 004d 08000000 		.4byte	.LVL9
 8559 0051 36000000 		.4byte	.LFE537
 8560 0055 0400     		.2byte	0x4
 8561 0057 F3       		.byte	0xf3
 8562 0058 01       		.uleb128 0x1
 8563 0059 50       		.byte	0x50
 8564 005a 9F       		.byte	0x9f
 8565 005b 00000000 		.4byte	0
 8566 005f 00000000 		.4byte	0
 8567              	.LLST3:
 8568 0063 00000000 		.4byte	.LVL16
 8569 0067 04000000 		.4byte	.LVL17
ARM GAS  C:\Users\thoma\AppData\Local\Temp\cceCswqS.s 			page 165


 8570 006b 0100     		.2byte	0x1
 8571 006d 50       		.byte	0x50
 8572 006e 04000000 		.4byte	.LVL17
 8573 0072 20000000 		.4byte	.LFE535
 8574 0076 0400     		.2byte	0x4
 8575 0078 F3       		.byte	0xf3
 8576 0079 01       		.uleb128 0x1
 8577 007a 50       		.byte	0x50
 8578 007b 9F       		.byte	0x9f
 8579 007c 00000000 		.4byte	0
 8580 0080 00000000 		.4byte	0
 8581              	.LLST4:
 8582 0084 00000000 		.4byte	.LVL16
 8583 0088 07000000 		.4byte	.LVL18-1
 8584 008c 0100     		.2byte	0x1
 8585 008e 51       		.byte	0x51
 8586 008f 07000000 		.4byte	.LVL18-1
 8587 0093 20000000 		.4byte	.LFE535
 8588 0097 0400     		.2byte	0x4
 8589 0099 F3       		.byte	0xf3
 8590 009a 01       		.uleb128 0x1
 8591 009b 51       		.byte	0x51
 8592 009c 9F       		.byte	0x9f
 8593 009d 00000000 		.4byte	0
 8594 00a1 00000000 		.4byte	0
 8595              	.LLST5:
 8596 00a5 08000000 		.4byte	.LVL18
 8597 00a9 0E000000 		.4byte	.LVL20
 8598 00ad 0100     		.2byte	0x1
 8599 00af 50       		.byte	0x50
 8600 00b0 00000000 		.4byte	0
 8601 00b4 00000000 		.4byte	0
 8602              	.LLST6:
 8603 00b8 0A000000 		.4byte	.LVL19
 8604 00bc 1C000000 		.4byte	.LVL22
 8605 00c0 0100     		.2byte	0x1
 8606 00c2 54       		.byte	0x54
 8607 00c3 00000000 		.4byte	0
 8608 00c7 00000000 		.4byte	0
 8609              	.LLST7:
 8610 00cb 00000000 		.4byte	.LVL23
 8611 00cf 06000000 		.4byte	.LVL24
 8612 00d3 0100     		.2byte	0x1
 8613 00d5 50       		.byte	0x50
 8614 00d6 06000000 		.4byte	.LVL24
 8615 00da 1A000000 		.4byte	.LFE538
 8616 00de 0400     		.2byte	0x4
 8617 00e0 F3       		.byte	0xf3
 8618 00e1 01       		.uleb128 0x1
 8619 00e2 50       		.byte	0x50
 8620 00e3 9F       		.byte	0x9f
 8621 00e4 00000000 		.4byte	0
 8622 00e8 00000000 		.4byte	0
 8623              	.LLST8:
 8624 00ec 0A000000 		.4byte	.LVL25
 8625 00f0 0E000000 		.4byte	.LVL26
 8626 00f4 0100     		.2byte	0x1
ARM GAS  C:\Users\thoma\AppData\Local\Temp\cceCswqS.s 			page 166


 8627 00f6 50       		.byte	0x50
 8628 00f7 10000000 		.4byte	.LVL27
 8629 00fb 12000000 		.4byte	.LVL28
 8630 00ff 0600     		.2byte	0x6
 8631 0101 71       		.byte	0x71
 8632 0102 00       		.sleb128 0
 8633 0103 74       		.byte	0x74
 8634 0104 00       		.sleb128 0
 8635 0105 21       		.byte	0x21
 8636 0106 9F       		.byte	0x9f
 8637 0107 12000000 		.4byte	.LVL28
 8638 010b 14000000 		.4byte	.LVL29
 8639 010f 0A00     		.2byte	0xa
 8640 0111 70       		.byte	0x70
 8641 0112 00       		.sleb128 0
 8642 0113 0A       		.byte	0xa
 8643 0114 FFFF     		.2byte	0xffff
 8644 0116 1A       		.byte	0x1a
 8645 0117 74       		.byte	0x74
 8646 0118 00       		.sleb128 0
 8647 0119 21       		.byte	0x21
 8648 011a 9F       		.byte	0x9f
 8649 011b 00000000 		.4byte	0
 8650 011f 00000000 		.4byte	0
 8651              	.LLST9:
 8652 0123 00000000 		.4byte	.LVL31
 8653 0127 08000000 		.4byte	.LVL32
 8654 012b 0100     		.2byte	0x1
 8655 012d 50       		.byte	0x50
 8656 012e 08000000 		.4byte	.LVL32
 8657 0132 26000000 		.4byte	.LFE539
 8658 0136 0400     		.2byte	0x4
 8659 0138 F3       		.byte	0xf3
 8660 0139 01       		.uleb128 0x1
 8661 013a 50       		.byte	0x50
 8662 013b 9F       		.byte	0x9f
 8663 013c 00000000 		.4byte	0
 8664 0140 00000000 		.4byte	0
 8665              	.LLST10:
 8666 0144 00000000 		.4byte	.LVL31
 8667 0148 0B000000 		.4byte	.LVL33-1
 8668 014c 0100     		.2byte	0x1
 8669 014e 51       		.byte	0x51
 8670 014f 0B000000 		.4byte	.LVL33-1
 8671 0153 26000000 		.4byte	.LFE539
 8672 0157 0400     		.2byte	0x4
 8673 0159 F3       		.byte	0xf3
 8674 015a 01       		.uleb128 0x1
 8675 015b 51       		.byte	0x51
 8676 015c 9F       		.byte	0x9f
 8677 015d 00000000 		.4byte	0
 8678 0161 00000000 		.4byte	0
 8679              	.LLST11:
 8680 0165 0C000000 		.4byte	.LVL33
 8681 0169 10000000 		.4byte	.LVL34
 8682 016d 0100     		.2byte	0x1
 8683 016f 50       		.byte	0x50
ARM GAS  C:\Users\thoma\AppData\Local\Temp\cceCswqS.s 			page 167


 8684 0170 12000000 		.4byte	.LVL35
 8685 0174 1A000000 		.4byte	.LVL37
 8686 0178 0100     		.2byte	0x1
 8687 017a 51       		.byte	0x51
 8688 017b 1A000000 		.4byte	.LVL37
 8689 017f 1E000000 		.4byte	.LVL38
 8690 0183 0800     		.2byte	0x8
 8691 0185 74       		.byte	0x74
 8692 0186 00       		.sleb128 0
 8693 0187 38       		.byte	0x38
 8694 0188 24       		.byte	0x24
 8695 0189 71       		.byte	0x71
 8696 018a 00       		.sleb128 0
 8697 018b 21       		.byte	0x21
 8698 018c 9F       		.byte	0x9f
 8699 018d 1E000000 		.4byte	.LVL38
 8700 0191 20000000 		.4byte	.LVL39
 8701 0195 1500     		.2byte	0x15
 8702 0197 75       		.byte	0x75
 8703 0198 00       		.sleb128 0
 8704 0199 34       		.byte	0x34
 8705 019a 24       		.byte	0x24
 8706 019b 70       		.byte	0x70
 8707 019c 00       		.sleb128 0
 8708 019d 0A       		.byte	0xa
 8709 019e FFFF     		.2byte	0xffff
 8710 01a0 1A       		.byte	0x1a
 8711 01a1 21       		.byte	0x21
 8712 01a2 0B       		.byte	0xb
 8713 01a3 FFF0     		.2byte	0xf0ff
 8714 01a5 1A       		.byte	0x1a
 8715 01a6 74       		.byte	0x74
 8716 01a7 00       		.sleb128 0
 8717 01a8 38       		.byte	0x38
 8718 01a9 24       		.byte	0x24
 8719 01aa 21       		.byte	0x21
 8720 01ab 9F       		.byte	0x9f
 8721 01ac 00000000 		.4byte	0
 8722 01b0 00000000 		.4byte	0
 8723              	.LLST12:
 8724 01b4 00000000 		.4byte	.LVL41
 8725 01b8 06000000 		.4byte	.LVL42
 8726 01bc 0100     		.2byte	0x1
 8727 01be 50       		.byte	0x50
 8728 01bf 06000000 		.4byte	.LVL42
 8729 01c3 1C000000 		.4byte	.LFE540
 8730 01c7 0400     		.2byte	0x4
 8731 01c9 F3       		.byte	0xf3
 8732 01ca 01       		.uleb128 0x1
 8733 01cb 50       		.byte	0x50
 8734 01cc 9F       		.byte	0x9f
 8735 01cd 00000000 		.4byte	0
 8736 01d1 00000000 		.4byte	0
 8737              	.LLST13:
 8738 01d5 0A000000 		.4byte	.LVL43
 8739 01d9 0E000000 		.4byte	.LVL44
 8740 01dd 0100     		.2byte	0x1
ARM GAS  C:\Users\thoma\AppData\Local\Temp\cceCswqS.s 			page 168


 8741 01df 50       		.byte	0x50
 8742 01e0 10000000 		.4byte	.LVL45
 8743 01e4 14000000 		.4byte	.LVL46
 8744 01e8 0800     		.2byte	0x8
 8745 01ea 74       		.byte	0x74
 8746 01eb 00       		.sleb128 0
 8747 01ec 37       		.byte	0x37
 8748 01ed 24       		.byte	0x24
 8749 01ee 71       		.byte	0x71
 8750 01ef 00       		.sleb128 0
 8751 01f0 21       		.byte	0x21
 8752 01f1 9F       		.byte	0x9f
 8753 01f2 14000000 		.4byte	.LVL46
 8754 01f6 16000000 		.4byte	.LVL47
 8755 01fa 0C00     		.2byte	0xc
 8756 01fc 74       		.byte	0x74
 8757 01fd 00       		.sleb128 0
 8758 01fe 37       		.byte	0x37
 8759 01ff 24       		.byte	0x24
 8760 0200 70       		.byte	0x70
 8761 0201 00       		.sleb128 0
 8762 0202 0A       		.byte	0xa
 8763 0203 FFFF     		.2byte	0xffff
 8764 0205 1A       		.byte	0x1a
 8765 0206 21       		.byte	0x21
 8766 0207 9F       		.byte	0x9f
 8767 0208 00000000 		.4byte	0
 8768 020c 00000000 		.4byte	0
 8769              	.LLST14:
 8770 0210 00000000 		.4byte	.LVL55
 8771 0214 08000000 		.4byte	.LVL56
 8772 0218 0100     		.2byte	0x1
 8773 021a 50       		.byte	0x50
 8774 021b 08000000 		.4byte	.LVL56
 8775 021f 2C000000 		.4byte	.LFE542
 8776 0223 0400     		.2byte	0x4
 8777 0225 F3       		.byte	0xf3
 8778 0226 01       		.uleb128 0x1
 8779 0227 50       		.byte	0x50
 8780 0228 9F       		.byte	0x9f
 8781 0229 00000000 		.4byte	0
 8782 022d 00000000 		.4byte	0
 8783              	.LLST15:
 8784 0231 00000000 		.4byte	.LVL55
 8785 0235 0B000000 		.4byte	.LVL57-1
 8786 0239 0100     		.2byte	0x1
 8787 023b 51       		.byte	0x51
 8788 023c 0B000000 		.4byte	.LVL57-1
 8789 0240 2C000000 		.4byte	.LFE542
 8790 0244 0400     		.2byte	0x4
 8791 0246 F3       		.byte	0xf3
 8792 0247 01       		.uleb128 0x1
 8793 0248 51       		.byte	0x51
 8794 0249 9F       		.byte	0x9f
 8795 024a 00000000 		.4byte	0
 8796 024e 00000000 		.4byte	0
 8797              	.LLST16:
ARM GAS  C:\Users\thoma\AppData\Local\Temp\cceCswqS.s 			page 169


 8798 0252 0C000000 		.4byte	.LVL57
 8799 0256 12000000 		.4byte	.LVL58
 8800 025a 0100     		.2byte	0x1
 8801 025c 50       		.byte	0x50
 8802 025d 14000000 		.4byte	.LVL59
 8803 0261 18000000 		.4byte	.LVL60
 8804 0265 0100     		.2byte	0x1
 8805 0267 50       		.byte	0x50
 8806 0268 18000000 		.4byte	.LVL60
 8807 026c 1A000000 		.4byte	.LVL61
 8808 0270 0100     		.2byte	0x1
 8809 0272 51       		.byte	0x51
 8810 0273 1A000000 		.4byte	.LVL61
 8811 0277 1E000000 		.4byte	.LVL62
 8812 027b 0100     		.2byte	0x1
 8813 027d 50       		.byte	0x50
 8814 027e 20000000 		.4byte	.LVL63
 8815 0282 24000000 		.4byte	.LVL64
 8816 0286 0100     		.2byte	0x1
 8817 0288 50       		.byte	0x50
 8818 0289 24000000 		.4byte	.LVL64
 8819 028d 29000000 		.4byte	.LVL65-1
 8820 0291 0100     		.2byte	0x1
 8821 0293 51       		.byte	0x51
 8822 0294 00000000 		.4byte	0
 8823 0298 00000000 		.4byte	0
 8824              	.LLST17:
 8825 029c 00000000 		.4byte	.LVL67
 8826 02a0 0C000000 		.4byte	.LVL69
 8827 02a4 0100     		.2byte	0x1
 8828 02a6 50       		.byte	0x50
 8829 02a7 0C000000 		.4byte	.LVL69
 8830 02ab 32000000 		.4byte	.LFE544
 8831 02af 0100     		.2byte	0x1
 8832 02b1 57       		.byte	0x57
 8833 02b2 00000000 		.4byte	0
 8834 02b6 00000000 		.4byte	0
 8835              	.LLST18:
 8836 02ba 00000000 		.4byte	.LVL67
 8837 02be 0C000000 		.4byte	.LVL69
 8838 02c2 0100     		.2byte	0x1
 8839 02c4 51       		.byte	0x51
 8840 02c5 0C000000 		.4byte	.LVL69
 8841 02c9 32000000 		.4byte	.LFE544
 8842 02cd 0100     		.2byte	0x1
 8843 02cf 56       		.byte	0x56
 8844 02d0 00000000 		.4byte	0
 8845 02d4 00000000 		.4byte	0
 8846              	.LLST19:
 8847 02d8 00000000 		.4byte	.LVL67
 8848 02dc 0C000000 		.4byte	.LVL69
 8849 02e0 0100     		.2byte	0x1
 8850 02e2 52       		.byte	0x52
 8851 02e3 0C000000 		.4byte	.LVL69
 8852 02e7 32000000 		.4byte	.LFE544
 8853 02eb 0400     		.2byte	0x4
 8854 02ed F3       		.byte	0xf3
ARM GAS  C:\Users\thoma\AppData\Local\Temp\cceCswqS.s 			page 170


 8855 02ee 01       		.uleb128 0x1
 8856 02ef 52       		.byte	0x52
 8857 02f0 9F       		.byte	0x9f
 8858 02f1 00000000 		.4byte	0
 8859 02f5 00000000 		.4byte	0
 8860              	.LLST20:
 8861 02f9 08000000 		.4byte	.LVL68
 8862 02fd 0C000000 		.4byte	.LVL69
 8863 0301 0200     		.2byte	0x2
 8864 0303 30       		.byte	0x30
 8865 0304 9F       		.byte	0x9f
 8866 0305 0C000000 		.4byte	.LVL69
 8867 0309 2A000000 		.4byte	.LVL72
 8868 030d 0100     		.2byte	0x1
 8869 030f 54       		.byte	0x54
 8870 0310 2C000000 		.4byte	.LVL73
 8871 0314 32000000 		.4byte	.LFE544
 8872 0318 0100     		.2byte	0x1
 8873 031a 54       		.byte	0x54
 8874 031b 00000000 		.4byte	0
 8875 031f 00000000 		.4byte	0
 8876              	.LLST21:
 8877 0323 00000000 		.4byte	.LVL74
 8878 0327 0E000000 		.4byte	.LVL77
 8879 032b 0100     		.2byte	0x1
 8880 032d 50       		.byte	0x50
 8881 032e 0E000000 		.4byte	.LVL77
 8882 0332 14000000 		.4byte	.LVL79
 8883 0336 0400     		.2byte	0x4
 8884 0338 F3       		.byte	0xf3
 8885 0339 01       		.uleb128 0x1
 8886 033a 50       		.byte	0x50
 8887 033b 9F       		.byte	0x9f
 8888 033c 14000000 		.4byte	.LVL79
 8889 0340 16000000 		.4byte	.LVL80
 8890 0344 0100     		.2byte	0x1
 8891 0346 50       		.byte	0x50
 8892 0347 16000000 		.4byte	.LVL80
 8893 034b 1C000000 		.4byte	.LFE545
 8894 034f 0400     		.2byte	0x4
 8895 0351 F3       		.byte	0xf3
 8896 0352 01       		.uleb128 0x1
 8897 0353 50       		.byte	0x50
 8898 0354 9F       		.byte	0x9f
 8899 0355 00000000 		.4byte	0
 8900 0359 00000000 		.4byte	0
 8901              	.LLST22:
 8902 035d 00000000 		.4byte	.LVL74
 8903 0361 04000000 		.4byte	.LVL75
 8904 0365 0100     		.2byte	0x1
 8905 0367 51       		.byte	0x51
 8906 0368 04000000 		.4byte	.LVL75
 8907 036c 1C000000 		.4byte	.LFE545
 8908 0370 0400     		.2byte	0x4
 8909 0372 F3       		.byte	0xf3
 8910 0373 01       		.uleb128 0x1
 8911 0374 51       		.byte	0x51
ARM GAS  C:\Users\thoma\AppData\Local\Temp\cceCswqS.s 			page 171


 8912 0375 9F       		.byte	0x9f
 8913 0376 00000000 		.4byte	0
 8914 037a 00000000 		.4byte	0
 8915              	.LLST23:
 8916 037e 00000000 		.4byte	.LVL74
 8917 0382 11000000 		.4byte	.LVL78-1
 8918 0386 0100     		.2byte	0x1
 8919 0388 52       		.byte	0x52
 8920 0389 11000000 		.4byte	.LVL78-1
 8921 038d 14000000 		.4byte	.LVL79
 8922 0391 0400     		.2byte	0x4
 8923 0393 F3       		.byte	0xf3
 8924 0394 01       		.uleb128 0x1
 8925 0395 52       		.byte	0x52
 8926 0396 9F       		.byte	0x9f
 8927 0397 14000000 		.4byte	.LVL79
 8928 039b 19000000 		.4byte	.LVL81-1
 8929 039f 0100     		.2byte	0x1
 8930 03a1 52       		.byte	0x52
 8931 03a2 19000000 		.4byte	.LVL81-1
 8932 03a6 1C000000 		.4byte	.LFE545
 8933 03aa 0400     		.2byte	0x4
 8934 03ac F3       		.byte	0xf3
 8935 03ad 01       		.uleb128 0x1
 8936 03ae 52       		.byte	0x52
 8937 03af 9F       		.byte	0x9f
 8938 03b0 00000000 		.4byte	0
 8939 03b4 00000000 		.4byte	0
 8940              	.LLST24:
 8941 03b8 0A000000 		.4byte	.LVL76
 8942 03bc 11000000 		.4byte	.LVL78-1
 8943 03c0 0100     		.2byte	0x1
 8944 03c2 51       		.byte	0x51
 8945 03c3 14000000 		.4byte	.LVL79
 8946 03c7 19000000 		.4byte	.LVL81-1
 8947 03cb 0100     		.2byte	0x1
 8948 03cd 51       		.byte	0x51
 8949 03ce 00000000 		.4byte	0
 8950 03d2 00000000 		.4byte	0
 8951              	.LLST25:
 8952 03d6 00000000 		.4byte	.LVL82
 8953 03da 0E000000 		.4byte	.LVL86
 8954 03de 0100     		.2byte	0x1
 8955 03e0 50       		.byte	0x50
 8956 03e1 0E000000 		.4byte	.LVL86
 8957 03e5 20000000 		.4byte	.LVL89
 8958 03e9 0400     		.2byte	0x4
 8959 03eb F3       		.byte	0xf3
 8960 03ec 01       		.uleb128 0x1
 8961 03ed 50       		.byte	0x50
 8962 03ee 9F       		.byte	0x9f
 8963 03ef 20000000 		.4byte	.LVL89
 8964 03f3 24000000 		.4byte	.LVL91
 8965 03f7 0100     		.2byte	0x1
 8966 03f9 50       		.byte	0x50
 8967 03fa 24000000 		.4byte	.LVL91
 8968 03fe 3C000000 		.4byte	.LFE546
ARM GAS  C:\Users\thoma\AppData\Local\Temp\cceCswqS.s 			page 172


 8969 0402 0400     		.2byte	0x4
 8970 0404 F3       		.byte	0xf3
 8971 0405 01       		.uleb128 0x1
 8972 0406 50       		.byte	0x50
 8973 0407 9F       		.byte	0x9f
 8974 0408 00000000 		.4byte	0
 8975 040c 00000000 		.4byte	0
 8976              	.LLST26:
 8977 0410 00000000 		.4byte	.LVL82
 8978 0414 06000000 		.4byte	.LVL84
 8979 0418 0100     		.2byte	0x1
 8980 041a 51       		.byte	0x51
 8981 041b 06000000 		.4byte	.LVL84
 8982 041f 20000000 		.4byte	.LVL89
 8983 0423 0400     		.2byte	0x4
 8984 0425 F3       		.byte	0xf3
 8985 0426 01       		.uleb128 0x1
 8986 0427 51       		.byte	0x51
 8987 0428 9F       		.byte	0x9f
 8988 0429 20000000 		.4byte	.LVL89
 8989 042d 22000000 		.4byte	.LVL90
 8990 0431 0100     		.2byte	0x1
 8991 0433 51       		.byte	0x51
 8992 0434 22000000 		.4byte	.LVL90
 8993 0438 3C000000 		.4byte	.LFE546
 8994 043c 0400     		.2byte	0x4
 8995 043e F3       		.byte	0xf3
 8996 043f 01       		.uleb128 0x1
 8997 0440 51       		.byte	0x51
 8998 0441 9F       		.byte	0x9f
 8999 0442 00000000 		.4byte	0
 9000 0446 00000000 		.4byte	0
 9001              	.LLST27:
 9002 044a 00000000 		.4byte	.LVL82
 9003 044e 0A000000 		.4byte	.LVL85
 9004 0452 0100     		.2byte	0x1
 9005 0454 52       		.byte	0x52
 9006 0455 0A000000 		.4byte	.LVL85
 9007 0459 20000000 		.4byte	.LVL89
 9008 045d 0400     		.2byte	0x4
 9009 045f F3       		.byte	0xf3
 9010 0460 01       		.uleb128 0x1
 9011 0461 52       		.byte	0x52
 9012 0462 9F       		.byte	0x9f
 9013 0463 20000000 		.4byte	.LVL89
 9014 0467 26000000 		.4byte	.LVL92
 9015 046b 0100     		.2byte	0x1
 9016 046d 52       		.byte	0x52
 9017 046e 26000000 		.4byte	.LVL92
 9018 0472 3C000000 		.4byte	.LFE546
 9019 0476 0400     		.2byte	0x4
 9020 0478 F3       		.byte	0xf3
 9021 0479 01       		.uleb128 0x1
 9022 047a 52       		.byte	0x52
 9023 047b 9F       		.byte	0x9f
 9024 047c 00000000 		.4byte	0
 9025 0480 00000000 		.4byte	0
ARM GAS  C:\Users\thoma\AppData\Local\Temp\cceCswqS.s 			page 173


 9026              	.LLST28:
 9027 0484 00000000 		.4byte	.LVL82
 9028 0488 1D000000 		.4byte	.LVL88-1
 9029 048c 0100     		.2byte	0x1
 9030 048e 53       		.byte	0x53
 9031 048f 1D000000 		.4byte	.LVL88-1
 9032 0493 20000000 		.4byte	.LVL89
 9033 0497 0400     		.2byte	0x4
 9034 0499 F3       		.byte	0xf3
 9035 049a 01       		.uleb128 0x1
 9036 049b 53       		.byte	0x53
 9037 049c 9F       		.byte	0x9f
 9038 049d 20000000 		.4byte	.LVL89
 9039 04a1 39000000 		.4byte	.LVL94-1
 9040 04a5 0100     		.2byte	0x1
 9041 04a7 53       		.byte	0x53
 9042 04a8 39000000 		.4byte	.LVL94-1
 9043 04ac 3C000000 		.4byte	.LFE546
 9044 04b0 0400     		.2byte	0x4
 9045 04b2 F3       		.byte	0xf3
 9046 04b3 01       		.uleb128 0x1
 9047 04b4 53       		.byte	0x53
 9048 04b5 9F       		.byte	0x9f
 9049 04b6 00000000 		.4byte	0
 9050 04ba 00000000 		.4byte	0
 9051              	.LLST29:
 9052 04be 02000000 		.4byte	.LVL83
 9053 04c2 16000000 		.4byte	.LVL87
 9054 04c6 0200     		.2byte	0x2
 9055 04c8 30       		.byte	0x30
 9056 04c9 9F       		.byte	0x9f
 9057 04ca 16000000 		.4byte	.LVL87
 9058 04ce 1D000000 		.4byte	.LVL88-1
 9059 04d2 0100     		.2byte	0x1
 9060 04d4 51       		.byte	0x51
 9061 04d5 20000000 		.4byte	.LVL89
 9062 04d9 32000000 		.4byte	.LVL93
 9063 04dd 0200     		.2byte	0x2
 9064 04df 30       		.byte	0x30
 9065 04e0 9F       		.byte	0x9f
 9066 04e1 32000000 		.4byte	.LVL93
 9067 04e5 39000000 		.4byte	.LVL94-1
 9068 04e9 0100     		.2byte	0x1
 9069 04eb 51       		.byte	0x51
 9070 04ec 00000000 		.4byte	0
 9071 04f0 00000000 		.4byte	0
 9072              	.LLST30:
 9073 04f4 00000000 		.4byte	.LVL95
 9074 04f8 06000000 		.4byte	.LVL96
 9075 04fc 0100     		.2byte	0x1
 9076 04fe 50       		.byte	0x50
 9077 04ff 06000000 		.4byte	.LVL96
 9078 0503 0C000000 		.4byte	.LVL98
 9079 0507 0400     		.2byte	0x4
 9080 0509 F3       		.byte	0xf3
 9081 050a 01       		.uleb128 0x1
 9082 050b 50       		.byte	0x50
ARM GAS  C:\Users\thoma\AppData\Local\Temp\cceCswqS.s 			page 174


 9083 050c 9F       		.byte	0x9f
 9084 050d 0C000000 		.4byte	.LVL98
 9085 0511 0E000000 		.4byte	.LVL99
 9086 0515 0100     		.2byte	0x1
 9087 0517 50       		.byte	0x50
 9088 0518 0E000000 		.4byte	.LVL99
 9089 051c 14000000 		.4byte	.LFE547
 9090 0520 0400     		.2byte	0x4
 9091 0522 F3       		.byte	0xf3
 9092 0523 01       		.uleb128 0x1
 9093 0524 50       		.byte	0x50
 9094 0525 9F       		.byte	0x9f
 9095 0526 00000000 		.4byte	0
 9096 052a 00000000 		.4byte	0
 9097              	.LLST31:
 9098 052e 00000000 		.4byte	.LVL95
 9099 0532 09000000 		.4byte	.LVL97-1
 9100 0536 0100     		.2byte	0x1
 9101 0538 51       		.byte	0x51
 9102 0539 09000000 		.4byte	.LVL97-1
 9103 053d 0C000000 		.4byte	.LVL98
 9104 0541 0400     		.2byte	0x4
 9105 0543 F3       		.byte	0xf3
 9106 0544 01       		.uleb128 0x1
 9107 0545 51       		.byte	0x51
 9108 0546 9F       		.byte	0x9f
 9109 0547 0C000000 		.4byte	.LVL98
 9110 054b 11000000 		.4byte	.LVL100-1
 9111 054f 0100     		.2byte	0x1
 9112 0551 51       		.byte	0x51
 9113 0552 11000000 		.4byte	.LVL100-1
 9114 0556 14000000 		.4byte	.LFE547
 9115 055a 0400     		.2byte	0x4
 9116 055c F3       		.byte	0xf3
 9117 055d 01       		.uleb128 0x1
 9118 055e 51       		.byte	0x51
 9119 055f 9F       		.byte	0x9f
 9120 0560 00000000 		.4byte	0
 9121 0564 00000000 		.4byte	0
 9122              	.LLST32:
 9123 0568 00000000 		.4byte	.LVL101
 9124 056c 0C000000 		.4byte	.LVL103
 9125 0570 0100     		.2byte	0x1
 9126 0572 50       		.byte	0x50
 9127 0573 0C000000 		.4byte	.LVL103
 9128 0577 12000000 		.4byte	.LFE548
 9129 057b 0400     		.2byte	0x4
 9130 057d F3       		.byte	0xf3
 9131 057e 01       		.uleb128 0x1
 9132 057f 50       		.byte	0x50
 9133 0580 9F       		.byte	0x9f
 9134 0581 00000000 		.4byte	0
 9135 0585 00000000 		.4byte	0
 9136              	.LLST33:
 9137 0589 02000000 		.4byte	.LVL102
 9138 058d 0C000000 		.4byte	.LVL103
 9139 0591 0700     		.2byte	0x7
ARM GAS  C:\Users\thoma\AppData\Local\Temp\cceCswqS.s 			page 175


 9140 0593 0A       		.byte	0xa
 9141 0594 401F     		.2byte	0x1f40
 9142 0596 70       		.byte	0x70
 9143 0597 00       		.sleb128 0
 9144 0598 1B       		.byte	0x1b
 9145 0599 9F       		.byte	0x9f
 9146 059a 00000000 		.4byte	0
 9147 059e 00000000 		.4byte	0
 9148              	.LLST34:
 9149 05a2 00000000 		.4byte	.LVL105
 9150 05a6 0A000000 		.4byte	.LVL108
 9151 05aa 0100     		.2byte	0x1
 9152 05ac 50       		.byte	0x50
 9153 05ad 0A000000 		.4byte	.LVL108
 9154 05b1 10000000 		.4byte	.LFE549
 9155 05b5 0400     		.2byte	0x4
 9156 05b7 F3       		.byte	0xf3
 9157 05b8 01       		.uleb128 0x1
 9158 05b9 50       		.byte	0x50
 9159 05ba 9F       		.byte	0x9f
 9160 05bb 00000000 		.4byte	0
 9161 05bf 00000000 		.4byte	0
 9162              	.LLST35:
 9163 05c3 04000000 		.4byte	.LVL106
 9164 05c7 08000000 		.4byte	.LVL107
 9165 05cb 0800     		.2byte	0x8
 9166 05cd 70       		.byte	0x70
 9167 05ce 00       		.sleb128 0
 9168 05cf 34       		.byte	0x34
 9169 05d0 24       		.byte	0x24
 9170 05d1 71       		.byte	0x71
 9171 05d2 00       		.sleb128 0
 9172 05d3 21       		.byte	0x21
 9173 05d4 9F       		.byte	0x9f
 9174 05d5 08000000 		.4byte	.LVL107
 9175 05d9 0A000000 		.4byte	.LVL108
 9176 05dd 0A00     		.2byte	0xa
 9177 05df 70       		.byte	0x70
 9178 05e0 00       		.sleb128 0
 9179 05e1 34       		.byte	0x34
 9180 05e2 24       		.byte	0x24
 9181 05e3 70       		.byte	0x70
 9182 05e4 00       		.sleb128 0
 9183 05e5 38       		.byte	0x38
 9184 05e6 24       		.byte	0x24
 9185 05e7 21       		.byte	0x21
 9186 05e8 9F       		.byte	0x9f
 9187 05e9 00000000 		.4byte	0
 9188 05ed 00000000 		.4byte	0
 9189              	.LLST36:
 9190 05f1 00000000 		.4byte	.LVL110
 9191 05f5 06000000 		.4byte	.LVL111
 9192 05f9 0100     		.2byte	0x1
 9193 05fb 50       		.byte	0x50
 9194 05fc 06000000 		.4byte	.LVL111
 9195 0600 0C000000 		.4byte	.LFE550
 9196 0604 0400     		.2byte	0x4
ARM GAS  C:\Users\thoma\AppData\Local\Temp\cceCswqS.s 			page 176


 9197 0606 F3       		.byte	0xf3
 9198 0607 01       		.uleb128 0x1
 9199 0608 50       		.byte	0x50
 9200 0609 9F       		.byte	0x9f
 9201 060a 00000000 		.4byte	0
 9202 060e 00000000 		.4byte	0
 9203              	.LLST37:
 9204 0612 08000000 		.4byte	.LVL113
 9205 0616 10000000 		.4byte	.LVL115
 9206 061a 0100     		.2byte	0x1
 9207 061c 50       		.byte	0x50
 9208 061d 00000000 		.4byte	0
 9209 0621 00000000 		.4byte	0
 9210              	.LLST38:
 9211 0625 0C000000 		.4byte	.LVL114
 9212 0629 13000000 		.4byte	.LVL116-1
 9213 062d 0100     		.2byte	0x1
 9214 062f 51       		.byte	0x51
 9215 0630 00000000 		.4byte	0
 9216 0634 00000000 		.4byte	0
 9217              	.LLST39:
 9218 0638 00000000 		.4byte	.LVL118
 9219 063c 12000000 		.4byte	.LVL119
 9220 0640 0100     		.2byte	0x1
 9221 0642 50       		.byte	0x50
 9222 0643 12000000 		.4byte	.LVL119
 9223 0647 36000000 		.4byte	.LVL124
 9224 064b 0400     		.2byte	0x4
 9225 064d F3       		.byte	0xf3
 9226 064e 01       		.uleb128 0x1
 9227 064f 50       		.byte	0x50
 9228 0650 9F       		.byte	0x9f
 9229 0651 36000000 		.4byte	.LVL124
 9230 0655 3C000000 		.4byte	.LVL125
 9231 0659 0100     		.2byte	0x1
 9232 065b 50       		.byte	0x50
 9233 065c 3C000000 		.4byte	.LVL125
 9234 0660 64000000 		.4byte	.LFE553
 9235 0664 0400     		.2byte	0x4
 9236 0666 F3       		.byte	0xf3
 9237 0667 01       		.uleb128 0x1
 9238 0668 50       		.byte	0x50
 9239 0669 9F       		.byte	0x9f
 9240 066a 00000000 		.4byte	0
 9241 066e 00000000 		.4byte	0
 9242              	.LLST40:
 9243 0672 00000000 		.4byte	.LVL130
 9244 0676 04000000 		.4byte	.LVL131
 9245 067a 0100     		.2byte	0x1
 9246 067c 50       		.byte	0x50
 9247 067d 04000000 		.4byte	.LVL131
 9248 0681 16000000 		.4byte	.LFE554
 9249 0685 0400     		.2byte	0x4
 9250 0687 F3       		.byte	0xf3
 9251 0688 01       		.uleb128 0x1
 9252 0689 50       		.byte	0x50
 9253 068a 9F       		.byte	0x9f
ARM GAS  C:\Users\thoma\AppData\Local\Temp\cceCswqS.s 			page 177


 9254 068b 00000000 		.4byte	0
 9255 068f 00000000 		.4byte	0
 9256              	.LLST41:
 9257 0693 08000000 		.4byte	.LVL132
 9258 0697 0C000000 		.4byte	.LVL133
 9259 069b 0100     		.2byte	0x1
 9260 069d 50       		.byte	0x50
 9261 069e 0C000000 		.4byte	.LVL133
 9262 06a2 13000000 		.4byte	.LVL134-1
 9263 06a6 0100     		.2byte	0x1
 9264 06a8 51       		.byte	0x51
 9265 06a9 00000000 		.4byte	0
 9266 06ad 00000000 		.4byte	0
 9267              	.LLST42:
 9268 06b1 00000000 		.4byte	.LVL135
 9269 06b5 04000000 		.4byte	.LVL136
 9270 06b9 0100     		.2byte	0x1
 9271 06bb 50       		.byte	0x50
 9272 06bc 04000000 		.4byte	.LVL136
 9273 06c0 16000000 		.4byte	.LFE555
 9274 06c4 0400     		.2byte	0x4
 9275 06c6 F3       		.byte	0xf3
 9276 06c7 01       		.uleb128 0x1
 9277 06c8 50       		.byte	0x50
 9278 06c9 9F       		.byte	0x9f
 9279 06ca 00000000 		.4byte	0
 9280 06ce 00000000 		.4byte	0
 9281              	.LLST43:
 9282 06d2 08000000 		.4byte	.LVL137
 9283 06d6 0C000000 		.4byte	.LVL138
 9284 06da 0100     		.2byte	0x1
 9285 06dc 50       		.byte	0x50
 9286 06dd 0E000000 		.4byte	.LVL139
 9287 06e1 13000000 		.4byte	.LVL140-1
 9288 06e5 0100     		.2byte	0x1
 9289 06e7 51       		.byte	0x51
 9290 06e8 00000000 		.4byte	0
 9291 06ec 00000000 		.4byte	0
 9292              	.LLST44:
 9293 06f0 00000000 		.4byte	.LVL141
 9294 06f4 0A000000 		.4byte	.LVL143
 9295 06f8 0100     		.2byte	0x1
 9296 06fa 50       		.byte	0x50
 9297 06fb 0A000000 		.4byte	.LVL143
 9298 06ff 10000000 		.4byte	.LVL145
 9299 0703 0400     		.2byte	0x4
 9300 0705 F3       		.byte	0xf3
 9301 0706 01       		.uleb128 0x1
 9302 0707 50       		.byte	0x50
 9303 0708 9F       		.byte	0x9f
 9304 0709 10000000 		.4byte	.LVL145
 9305 070d 12000000 		.4byte	.LVL146
 9306 0711 0100     		.2byte	0x1
 9307 0713 50       		.byte	0x50
 9308 0714 12000000 		.4byte	.LVL146
 9309 0718 18000000 		.4byte	.LFE556
 9310 071c 0400     		.2byte	0x4
ARM GAS  C:\Users\thoma\AppData\Local\Temp\cceCswqS.s 			page 178


 9311 071e F3       		.byte	0xf3
 9312 071f 01       		.uleb128 0x1
 9313 0720 50       		.byte	0x50
 9314 0721 9F       		.byte	0x9f
 9315 0722 00000000 		.4byte	0
 9316 0726 00000000 		.4byte	0
 9317              	.LLST45:
 9318 072a 00000000 		.4byte	.LVL141
 9319 072e 06000000 		.4byte	.LVL142
 9320 0732 0100     		.2byte	0x1
 9321 0734 51       		.byte	0x51
 9322 0735 06000000 		.4byte	.LVL142
 9323 0739 18000000 		.4byte	.LFE556
 9324 073d 0400     		.2byte	0x4
 9325 073f F3       		.byte	0xf3
 9326 0740 01       		.uleb128 0x1
 9327 0741 51       		.byte	0x51
 9328 0742 9F       		.byte	0x9f
 9329 0743 00000000 		.4byte	0
 9330 0747 00000000 		.4byte	0
 9331              	.LLST46:
 9332 074b 00000000 		.4byte	.LVL141
 9333 074f 0D000000 		.4byte	.LVL144-1
 9334 0753 0100     		.2byte	0x1
 9335 0755 52       		.byte	0x52
 9336 0756 0D000000 		.4byte	.LVL144-1
 9337 075a 10000000 		.4byte	.LVL145
 9338 075e 0400     		.2byte	0x4
 9339 0760 F3       		.byte	0xf3
 9340 0761 01       		.uleb128 0x1
 9341 0762 52       		.byte	0x52
 9342 0763 9F       		.byte	0x9f
 9343 0764 10000000 		.4byte	.LVL145
 9344 0768 15000000 		.4byte	.LVL147-1
 9345 076c 0100     		.2byte	0x1
 9346 076e 52       		.byte	0x52
 9347 076f 15000000 		.4byte	.LVL147-1
 9348 0773 18000000 		.4byte	.LFE556
 9349 0777 0400     		.2byte	0x4
 9350 0779 F3       		.byte	0xf3
 9351 077a 01       		.uleb128 0x1
 9352 077b 52       		.byte	0x52
 9353 077c 9F       		.byte	0x9f
 9354 077d 00000000 		.4byte	0
 9355 0781 00000000 		.4byte	0
 9356              	.LLST47:
 9357 0785 06000000 		.4byte	.LVL142
 9358 0789 0D000000 		.4byte	.LVL144-1
 9359 078d 0100     		.2byte	0x1
 9360 078f 51       		.byte	0x51
 9361 0790 10000000 		.4byte	.LVL145
 9362 0794 15000000 		.4byte	.LVL147-1
 9363 0798 0100     		.2byte	0x1
 9364 079a 51       		.byte	0x51
 9365 079b 00000000 		.4byte	0
 9366 079f 00000000 		.4byte	0
 9367              	.LLST48:
ARM GAS  C:\Users\thoma\AppData\Local\Temp\cceCswqS.s 			page 179


 9368 07a3 24000000 		.4byte	.LVL325
 9369 07a7 28000000 		.4byte	.LVL326
 9370 07ab 0100     		.2byte	0x1
 9371 07ad 50       		.byte	0x50
 9372 07ae 00000000 		.4byte	0
 9373 07b2 00000000 		.4byte	0
 9374              		.section	.debug_aranges,"",%progbits
 9375 0000 EC000000 		.4byte	0xec
 9376 0004 0200     		.2byte	0x2
 9377 0006 00000000 		.4byte	.Ldebug_info0
 9378 000a 04       		.byte	0x4
 9379 000b 00       		.byte	0
 9380 000c 0000     		.2byte	0
 9381 000e 0000     		.2byte	0
 9382 0010 00000000 		.4byte	.LFB536
 9383 0014 28000000 		.4byte	.LFE536-.LFB536
 9384 0018 00000000 		.4byte	.LFB537
 9385 001c 36000000 		.4byte	.LFE537-.LFB537
 9386 0020 00000000 		.4byte	.LFB535
 9387 0024 20000000 		.4byte	.LFE535-.LFB535
 9388 0028 00000000 		.4byte	.LFB538
 9389 002c 1A000000 		.4byte	.LFE538-.LFB538
 9390 0030 00000000 		.4byte	.LFB539
 9391 0034 26000000 		.4byte	.LFE539-.LFB539
 9392 0038 00000000 		.4byte	.LFB540
 9393 003c 1C000000 		.4byte	.LFE540-.LFB540
 9394 0040 00000000 		.4byte	.LFB541
 9395 0044 3A000000 		.4byte	.LFE541-.LFB541
 9396 0048 00000000 		.4byte	.LFB542
 9397 004c 2C000000 		.4byte	.LFE542-.LFB542
 9398 0050 00000000 		.4byte	.LFB543
 9399 0054 0E000000 		.4byte	.LFE543-.LFB543
 9400 0058 00000000 		.4byte	.LFB544
 9401 005c 32000000 		.4byte	.LFE544-.LFB544
 9402 0060 00000000 		.4byte	.LFB545
 9403 0064 1C000000 		.4byte	.LFE545-.LFB545
 9404 0068 00000000 		.4byte	.LFB546
 9405 006c 3C000000 		.4byte	.LFE546-.LFB546
 9406 0070 00000000 		.4byte	.LFB547
 9407 0074 14000000 		.4byte	.LFE547-.LFB547
 9408 0078 00000000 		.4byte	.LFB548
 9409 007c 12000000 		.4byte	.LFE548-.LFB548
 9410 0080 00000000 		.4byte	.LFB549
 9411 0084 10000000 		.4byte	.LFE549-.LFB549
 9412 0088 00000000 		.4byte	.LFB550
 9413 008c 0C000000 		.4byte	.LFE550-.LFB550
 9414 0090 00000000 		.4byte	.LFB551
 9415 0094 16000000 		.4byte	.LFE551-.LFB551
 9416 0098 00000000 		.4byte	.LFB552
 9417 009c 0C000000 		.4byte	.LFE552-.LFB552
 9418 00a0 00000000 		.4byte	.LFB553
 9419 00a4 64000000 		.4byte	.LFE553-.LFB553
 9420 00a8 00000000 		.4byte	.LFB554
 9421 00ac 16000000 		.4byte	.LFE554-.LFB554
 9422 00b0 00000000 		.4byte	.LFB555
 9423 00b4 16000000 		.4byte	.LFE555-.LFB555
 9424 00b8 00000000 		.4byte	.LFB556
ARM GAS  C:\Users\thoma\AppData\Local\Temp\cceCswqS.s 			page 180


 9425 00bc 18000000 		.4byte	.LFE556-.LFB556
 9426 00c0 00000000 		.4byte	.LFB558
 9427 00c4 10010000 		.4byte	.LFE558-.LFB558
 9428 00c8 00000000 		.4byte	.LFB559
 9429 00cc 3C000000 		.4byte	.LFE559-.LFB559
 9430 00d0 00000000 		.4byte	.LFB560
 9431 00d4 7C000000 		.4byte	.LFE560-.LFB560
 9432 00d8 00000000 		.4byte	.LFB561
 9433 00dc 28040000 		.4byte	.LFE561-.LFB561
 9434 00e0 00000000 		.4byte	.LFB557
 9435 00e4 48010000 		.4byte	.LFE557-.LFB557
 9436 00e8 00000000 		.4byte	0
 9437 00ec 00000000 		.4byte	0
 9438              		.section	.debug_ranges,"",%progbits
 9439              	.Ldebug_ranges0:
 9440 0000 00000000 		.4byte	.LFB536
 9441 0004 28000000 		.4byte	.LFE536
 9442 0008 00000000 		.4byte	.LFB537
 9443 000c 36000000 		.4byte	.LFE537
 9444 0010 00000000 		.4byte	.LFB535
 9445 0014 20000000 		.4byte	.LFE535
 9446 0018 00000000 		.4byte	.LFB538
 9447 001c 1A000000 		.4byte	.LFE538
 9448 0020 00000000 		.4byte	.LFB539
 9449 0024 26000000 		.4byte	.LFE539
 9450 0028 00000000 		.4byte	.LFB540
 9451 002c 1C000000 		.4byte	.LFE540
 9452 0030 00000000 		.4byte	.LFB541
 9453 0034 3A000000 		.4byte	.LFE541
 9454 0038 00000000 		.4byte	.LFB542
 9455 003c 2C000000 		.4byte	.LFE542
 9456 0040 00000000 		.4byte	.LFB543
 9457 0044 0E000000 		.4byte	.LFE543
 9458 0048 00000000 		.4byte	.LFB544
 9459 004c 32000000 		.4byte	.LFE544
 9460 0050 00000000 		.4byte	.LFB545
 9461 0054 1C000000 		.4byte	.LFE545
 9462 0058 00000000 		.4byte	.LFB546
 9463 005c 3C000000 		.4byte	.LFE546
 9464 0060 00000000 		.4byte	.LFB547
 9465 0064 14000000 		.4byte	.LFE547
 9466 0068 00000000 		.4byte	.LFB548
 9467 006c 12000000 		.4byte	.LFE548
 9468 0070 00000000 		.4byte	.LFB549
 9469 0074 10000000 		.4byte	.LFE549
 9470 0078 00000000 		.4byte	.LFB550
 9471 007c 0C000000 		.4byte	.LFE550
 9472 0080 00000000 		.4byte	.LFB551
 9473 0084 16000000 		.4byte	.LFE551
 9474 0088 00000000 		.4byte	.LFB552
 9475 008c 0C000000 		.4byte	.LFE552
 9476 0090 00000000 		.4byte	.LFB553
 9477 0094 64000000 		.4byte	.LFE553
 9478 0098 00000000 		.4byte	.LFB554
 9479 009c 16000000 		.4byte	.LFE554
 9480 00a0 00000000 		.4byte	.LFB555
 9481 00a4 16000000 		.4byte	.LFE555
ARM GAS  C:\Users\thoma\AppData\Local\Temp\cceCswqS.s 			page 181


 9482 00a8 00000000 		.4byte	.LFB556
 9483 00ac 18000000 		.4byte	.LFE556
 9484 00b0 00000000 		.4byte	.LFB558
 9485 00b4 10010000 		.4byte	.LFE558
 9486 00b8 00000000 		.4byte	.LFB559
 9487 00bc 3C000000 		.4byte	.LFE559
 9488 00c0 00000000 		.4byte	.LFB560
 9489 00c4 7C000000 		.4byte	.LFE560
 9490 00c8 00000000 		.4byte	.LFB561
 9491 00cc 28040000 		.4byte	.LFE561
 9492 00d0 00000000 		.4byte	.LFB557
 9493 00d4 48010000 		.4byte	.LFE557
 9494 00d8 00000000 		.4byte	0
 9495 00dc 00000000 		.4byte	0
 9496              		.section	.debug_line,"",%progbits
 9497              	.Ldebug_line0:
 9498 0000 1C060000 		.section	.debug_str,"MS",%progbits,1
 9498      02001203 
 9498      00000201 
 9498      FB0E0D00 
 9498      01010101 
 9499              	.LASF156:
 9500 0000 50524F47 		.ascii	"PROGRAM\000"
 9500      52414D00 
 9501              	.LASF64:
 9502 0008 666C6173 		.ascii	"flashCtlMainWs1Freq\000"
 9502      6843746C 
 9502      4D61696E 
 9502      57733146 
 9502      72657100 
 9503              	.LASF178:
 9504 001c 41564552 		.ascii	"AVERAGE4\000"
 9504      41474534 
 9504      00
 9505              	.LASF255:
 9506 0025 61753136 		.ascii	"au16DataSlotA\000"
 9506      44617461 
 9506      536C6F74 
 9506      4100
 9507              	.LASF256:
 9508 0033 61753136 		.ascii	"au16DataSlotB\000"
 9508      44617461 
 9508      536C6F74 
 9508      4200
 9509              	.LASF251:
 9510 0041 63795F64 		.ascii	"cy_device\000"
 9510      65766963 
 9510      6500
 9511              	.LASF91:
 9512 004b 63707573 		.ascii	"cpussCm0ClockCtlOffset\000"
 9512      73436D30 
 9512      436C6F63 
 9512      6B43746C 
 9512      4F666673 
 9513              	.LASF50:
 9514 0062 70657269 		.ascii	"periClockNr\000"
 9514      436C6F63 
ARM GAS  C:\Users\thoma\AppData\Local\Temp\cceCswqS.s 			page 182


 9514      6B4E7200 
 9515              	.LASF108:
 9516 006e 63686172 		.ascii	"char\000"
 9516      00
 9517              	.LASF24:
 9518 0073 75646242 		.ascii	"udbBase\000"
 9518      61736500 
 9519              	.LASF134:
 9520 007b 74785374 		.ascii	"txStatus\000"
 9520      61747573 
 9520      00
 9521              	.LASF23:
 9522 0084 70657269 		.ascii	"periBase\000"
 9522      42617365 
 9522      00
 9523              	.LASF247:
 9524 008d 636C6B52 		.ascii	"clkRegValue\000"
 9524      65675661 
 9524      6C756500 
 9525              	.LASF99:
 9526 0099 63707573 		.ascii	"cpussCm0NmiCtlOffset\000"
 9526      73436D30 
 9526      4E6D6943 
 9526      746C4F66 
 9526      66736574 
 9527              	.LASF69:
 9528 00ae 64774368 		.ascii	"dwChSize\000"
 9528      53697A65 
 9528      00
 9529              	.LASF167:
 9530 00b7 4C454458 		.ascii	"LEDX1\000"
 9530      3100
 9531              	.LASF168:
 9532 00bd 4C454458 		.ascii	"LEDX2\000"
 9532      3200
 9533              	.LASF159:
 9534 00c3 414C4C5F 		.ascii	"ALL_INPUTS_FLOATING\000"
 9534      494E5055 
 9534      54535F46 
 9534      4C4F4154 
 9534      494E4700 
 9535              	.LASF13:
 9536 00d7 756E7369 		.ascii	"unsigned int\000"
 9536      676E6564 
 9536      20696E74 
 9536      00
 9537              	.LASF51:
 9538 00e4 736D6966 		.ascii	"smifDeviceNr\000"
 9538      44657669 
 9538      63654E72 
 9538      00
 9539              	.LASF115:
 9540 00f1 43595F53 		.ascii	"CY_SAR_RANGE_COND_OUTSIDE\000"
 9540      41525F52 
 9540      414E4745 
 9540      5F434F4E 
 9540      445F4F55 
ARM GAS  C:\Users\thoma\AppData\Local\Temp\cceCswqS.s 			page 183


 9541              	.LASF81:
 9542 010b 70657269 		.ascii	"periDivCmdPaTypeSelPos\000"
 9542      44697643 
 9542      6D645061 
 9542      54797065 
 9542      53656C50 
 9543              	.LASF153:
 9544 0122 636C6B44 		.ascii	"clkDivider\000"
 9544      69766964 
 9544      657200
 9545              	.LASF195:
 9546 012d 72656756 		.ascii	"regValue\000"
 9546      616C7565 
 9546      00
 9547              	.LASF7:
 9548 0136 5F5F696E 		.ascii	"__int32_t\000"
 9548      7433325F 
 9548      7400
 9549              	.LASF21:
 9550 0140 63707573 		.ascii	"cpussBase\000"
 9550      73426173 
 9550      6500
 9551              	.LASF149:
 9552 014a 6368616E 		.ascii	"channelBase\000"
 9552      6E656C42 
 9552      61736500 
 9553              	.LASF158:
 9554 0156 41445044 		.ascii	"ADPD1080_OperationMode\000"
 9554      31303830 
 9554      5F4F7065 
 9554      72617469 
 9554      6F6E4D6F 
 9555              	.LASF45:
 9556 016d 63707573 		.ascii	"cpussFmIrq\000"
 9556      73466D49 
 9556      727100
 9557              	.LASF194:
 9558 0178 72656741 		.ascii	"regAddr\000"
 9558      64647200 
 9559              	.LASF151:
 9560 0180 6877436F 		.ascii	"hwConfigStc\000"
 9560      6E666967 
 9560      53746300 
 9561              	.LASF170:
 9562 018c 41445044 		.ascii	"ADPD1080_LED\000"
 9562      31303830 
 9562      5F4C4544 
 9562      00
 9563              	.LASF181:
 9564 0199 41564552 		.ascii	"AVERAGE32\000"
 9564      41474533 
 9564      3200
 9565              	.LASF46:
 9566 01a3 63707573 		.ascii	"cpussNotConnectedIrq\000"
 9566      734E6F74 
 9566      436F6E6E 
 9566      65637465 
ARM GAS  C:\Users\thoma\AppData\Local\Temp\cceCswqS.s 			page 184


 9566      64497271 
 9567              	.LASF0:
 9568 01b8 73686F72 		.ascii	"short int\000"
 9568      7420696E 
 9568      7400
 9569              	.LASF137:
 9570 01c2 72785269 		.ascii	"rxRingBufSize\000"
 9570      6E674275 
 9570      6653697A 
 9570      6500
 9571              	.LASF185:
 9572 01d0 4144435F 		.ascii	"ADC_CLOCK_100MHz\000"
 9572      434C4F43 
 9572      4B5F3130 
 9572      304D487A 
 9572      00
 9573              	.LASF77:
 9574 01e1 70657269 		.ascii	"periTrGrSize\000"
 9574      54724772 
 9574      53697A65 
 9574      00
 9575              	.LASF80:
 9576 01ee 70657269 		.ascii	"periDivCmdPaDivSelPos\000"
 9576      44697643 
 9576      6D645061 
 9576      44697653 
 9576      656C506F 
 9577              	.LASF226:
 9578 0204 66726571 		.ascii	"frequency\000"
 9578      75656E63 
 9578      7900
 9579              	.LASF57:
 9580 020e 63727970 		.ascii	"cryptoMemSize\000"
 9580      746F4D65 
 9580      6D53697A 
 9580      6500
 9581              	.LASF126:
 9582 021c 73617449 		.ascii	"satIntrMask\000"
 9582      6E74724D 
 9582      61736B00 
 9583              	.LASF103:
 9584 0228 63707573 		.ascii	"cpussRam1Ctl0\000"
 9584      7352616D 
 9584      3143746C 
 9584      3000
 9585              	.LASF210:
 9586 0236 656E4C45 		.ascii	"enLEDNumber\000"
 9586      444E756D 
 9586      62657200 
 9587              	.LASF105:
 9588 0242 69706353 		.ascii	"ipcStructSize\000"
 9588      74727563 
 9588      7453697A 
 9588      6500
 9589              	.LASF264:
 9590 0250 474E5520 		.ascii	"GNU C11 5.4.1 20160609 (release) [ARM/embedded-5-br"
 9590      43313120 
ARM GAS  C:\Users\thoma\AppData\Local\Temp\cceCswqS.s 			page 185


 9590      352E342E 
 9590      31203230 
 9590      31363036 
 9591 0283 616E6368 		.ascii	"anch revision 237715] -mcpu=cortex-m4 -mfloat-abi=s"
 9591      20726576 
 9591      6973696F 
 9591      6E203233 
 9591      37373135 
 9592 02b6 6F667466 		.ascii	"oftfp -mfpu=fpv4-sp-d16 -mthumb -g -Og -ffunction-s"
 9592      70202D6D 
 9592      6670753D 
 9592      66707634 
 9592      2D73702D 
 9593 02e9 65637469 		.ascii	"ections -ffat-lto-objects\000"
 9593      6F6E7320 
 9593      2D666661 
 9593      742D6C74 
 9593      6F2D6F62 
 9594              	.LASF39:
 9595 0303 70726F74 		.ascii	"protVersion\000"
 9595      56657273 
 9595      696F6E00 
 9596              	.LASF216:
 9597 030f 64617461 		.ascii	"dataSlotB\000"
 9597      536C6F74 
 9597      4200
 9598              	.LASF112:
 9599 0319 43595F53 		.ascii	"CY_SAR_RANGE_COND_BELOW\000"
 9599      41525F52 
 9599      414E4745 
 9599      5F434F4E 
 9599      445F4245 
 9600              	.LASF4:
 9601 0331 5F5F696E 		.ascii	"__int16_t\000"
 9601      7431365F 
 9601      7400
 9602              	.LASF231:
 9603 033b 41445044 		.ascii	"ADPD1080_SetDigitalClock\000"
 9603      31303830 
 9603      5F536574 
 9603      44696769 
 9603      74616C43 
 9604              	.LASF79:
 9605 0354 70657269 		.ascii	"periDivCmdTypeSelPos\000"
 9605      44697643 
 9605      6D645479 
 9605      70655365 
 9605      6C506F73 
 9606              	.LASF96:
 9607 0369 63707573 		.ascii	"cpussTrimRamCtlOffset\000"
 9607      73547269 
 9607      6D52616D 
 9607      43746C4F 
 9607      66667365 
 9608              	.LASF107:
 9609 037f 63795F73 		.ascii	"cy_stc_device_t\000"
 9609      74635F64 
ARM GAS  C:\Users\thoma\AppData\Local\Temp\cceCswqS.s 			page 186


 9609      65766963 
 9609      655F7400 
 9610              	.LASF186:
 9611 038f 4144435F 		.ascii	"ADC_CLOCK_500KHz\000"
 9611      434C4F43 
 9611      4B5F3530 
 9611      304B487A 
 9611      00
 9612              	.LASF200:
 9613 03a0 73656E73 		.ascii	"sensorId\000"
 9613      6F724964 
 9613      00
 9614              	.LASF259:
 9615 03a9 4932435F 		.ascii	"I2C_MasterSendStop\000"
 9615      4D617374 
 9615      65725365 
 9615      6E645374 
 9615      6F7000
 9616              	.LASF18:
 9617 03bc 75696E74 		.ascii	"uint32_t\000"
 9617      33325F74 
 9617      00
 9618              	.LASF89:
 9619 03c5 6770696F 		.ascii	"gpioPrtCfgOutOffset\000"
 9619      50727443 
 9619      66674F75 
 9619      744F6666 
 9619      73657400 
 9620              	.LASF190:
 9621 03d9 4348314F 		.ascii	"CH1Offset\000"
 9621      66667365 
 9621      7400
 9622              	.LASF109:
 9623 03e3 666C6F61 		.ascii	"float\000"
 9623      7400
 9624              	.LASF32:
 9625 03e9 63727970 		.ascii	"cryptoVersion\000"
 9625      746F5665 
 9625      7273696F 
 9625      6E00
 9626              	.LASF148:
 9627 03f7 63795F73 		.ascii	"cy_stc_scb_uart_context_t\000"
 9627      74635F73 
 9627      63625F75 
 9627      6172745F 
 9627      636F6E74 
 9628              	.LASF61:
 9629 0411 666C6173 		.ascii	"flashProgramDelay\000"
 9629      6850726F 
 9629      6772616D 
 9629      44656C61 
 9629      7900
 9630              	.LASF233:
 9631 0423 41445044 		.ascii	"ADPD1080_Reset\000"
 9631      31303830 
 9631      5F526573 
 9631      657400
ARM GAS  C:\Users\thoma\AppData\Local\Temp\cceCswqS.s 			page 187


 9632              	.LASF188:
 9633 0432 63795F73 		.ascii	"cy_stc_scb_uart_context\000"
 9633      74635F73 
 9633      63625F75 
 9633      6172745F 
 9633      636F6E74 
 9634              	.LASF22:
 9635 044a 666C6173 		.ascii	"flashcBase\000"
 9635      68634261 
 9635      736500
 9636              	.LASF15:
 9637 0455 696E7431 		.ascii	"int16_t\000"
 9637      365F7400 
 9638              	.LASF240:
 9639 045d 70756C73 		.ascii	"pulsePeriod\000"
 9639      65506572 
 9639      696F6400 
 9640              	.LASF88:
 9641 0469 6770696F 		.ascii	"gpioPrtCfgInOffset\000"
 9641      50727443 
 9641      6667496E 
 9641      4F666673 
 9641      657400
 9642              	.LASF150:
 9643 047c 6E756D43 		.ascii	"numChannels\000"
 9643      68616E6E 
 9643      656C7300 
 9644              	.LASF12:
 9645 0488 6C6F6E67 		.ascii	"long long unsigned int\000"
 9645      206C6F6E 
 9645      6720756E 
 9645      7369676E 
 9645      65642069 
 9646              	.LASF85:
 9647 049f 70657269 		.ascii	"periDiv24_5CtlOffset\000"
 9647      44697632 
 9647      345F3543 
 9647      746C4F66 
 9647      66736574 
 9648              	.LASF90:
 9649 04b4 6770696F 		.ascii	"gpioPrtCfgSioOffset\000"
 9649      50727443 
 9649      66675369 
 9649      6F4F6666 
 9649      73657400 
 9650              	.LASF220:
 9651 04c8 6F666673 		.ascii	"offset\000"
 9651      657400
 9652              	.LASF44:
 9653 04cf 63707573 		.ascii	"cpussIpc0Irq\000"
 9653      73497063 
 9653      30497271 
 9653      00
 9654              	.LASF176:
 9655 04dc 41564552 		.ascii	"AVERAGE1\000"
 9655      41474531 
 9655      00
ARM GAS  C:\Users\thoma\AppData\Local\Temp\cceCswqS.s 			page 188


 9656              	.LASF244:
 9657 04e5 74757262 		.ascii	"turbidity_ChannelOffsetCalibration\000"
 9657      69646974 
 9657      795F4368 
 9657      616E6E65 
 9657      6C4F6666 
 9658              	.LASF222:
 9659 0508 66696E65 		.ascii	"fineOffset\000"
 9659      4F666673 
 9659      657400
 9660              	.LASF235:
 9661 0513 73744F66 		.ascii	"stOffset\000"
 9661      66736574 
 9661      00
 9662              	.LASF121:
 9663 051c 72616E67 		.ascii	"rangeThres\000"
 9663      65546872 
 9663      657300
 9664              	.LASF5:
 9665 0527 5F5F7569 		.ascii	"__uint16_t\000"
 9665      6E743136 
 9665      5F7400
 9666              	.LASF113:
 9667 0532 43595F53 		.ascii	"CY_SAR_RANGE_COND_INSIDE\000"
 9667      41525F52 
 9667      414E4745 
 9667      5F434F4E 
 9667      445F494E 
 9668              	.LASF132:
 9669 054b 63795F73 		.ascii	"cy_stc_sar_config_t\000"
 9669      74635F73 
 9669      61725F63 
 9669      6F6E6669 
 9669      675F7400 
 9670              	.LASF117:
 9671 055f 6374726C 		.ascii	"ctrl\000"
 9671      00
 9672              	.LASF242:
 9673 0564 74757262 		.ascii	"turbidity_ReadDataInterrupt\000"
 9673      69646974 
 9673      795F5265 
 9673      61644461 
 9673      7461496E 
 9674              	.LASF135:
 9675 0580 72785374 		.ascii	"rxStatus\000"
 9675      61747573 
 9675      00
 9676              	.LASF140:
 9677 0589 72784275 		.ascii	"rxBuf\000"
 9677      6600
 9678              	.LASF205:
 9679 058f 7538536C 		.ascii	"u8SlotASel\000"
 9679      6F744153 
 9679      656C00
 9680              	.LASF198:
 9681 059a 41445044 		.ascii	"ADPD1080_Begin\000"
 9681      31303830 
ARM GAS  C:\Users\thoma\AppData\Local\Temp\cceCswqS.s 			page 189


 9681      5F426567 
 9681      696E00
 9682              	.LASF66:
 9683 05a9 666C6173 		.ascii	"flashCtlMainWs3Freq\000"
 9683      6843746C 
 9683      4D61696E 
 9683      57733346 
 9683      72657100 
 9684              	.LASF257:
 9685 05bd 4932435F 		.ascii	"I2C_MasterSendStart\000"
 9685      4D617374 
 9685      65725365 
 9685      6E645374 
 9685      61727400 
 9686              	.LASF48:
 9687 05d1 73727373 		.ascii	"srssNumPll\000"
 9687      4E756D50 
 9687      6C6C00
 9688              	.LASF207:
 9689 05dc 41445044 		.ascii	"ADPD1080_Set32KCLK\000"
 9689      31303830 
 9689      5F536574 
 9689      33324B43 
 9689      4C4B00
 9690              	.LASF239:
 9691 05ef 70756C73 		.ascii	"pulseCount\000"
 9691      65436F75 
 9691      6E7400
 9692              	.LASF172:
 9693 05fa 5449415F 		.ascii	"TIA_100\000"
 9693      31303000 
 9694              	.LASF219:
 9695 0602 77696474 		.ascii	"width\000"
 9695      6800
 9696              	.LASF59:
 9697 0608 666C6173 		.ascii	"flashPipeRequired\000"
 9697      68506970 
 9697      65526571 
 9697      75697265 
 9697      6400
 9698              	.LASF146:
 9699 061a 63624576 		.ascii	"cbEvents\000"
 9699      656E7473 
 9699      00
 9700              	.LASF110:
 9701 0623 646F7562 		.ascii	"double\000"
 9701      6C6500
 9702              	.LASF111:
 9703 062a 5F426F6F 		.ascii	"_Bool\000"
 9703      6C00
 9704              	.LASF238:
 9705 0630 41445044 		.ascii	"ADPD1080_SetPulseNumberPeriod\000"
 9705      31303830 
 9705      5F536574 
 9705      50756C73 
 9705      654E756D 
 9706              	.LASF192:
ARM GAS  C:\Users\thoma\AppData\Local\Temp\cceCswqS.s 			page 190


 9707 064e 4348334F 		.ascii	"CH3Offset\000"
 9707      66667365 
 9707      7400
 9708              	.LASF223:
 9709 0658 41445044 		.ascii	"ADPD1080_SetTIAGain\000"
 9709      31303830 
 9709      5F536574 
 9709      54494147 
 9709      61696E00 
 9710              	.LASF63:
 9711 066c 666C6173 		.ascii	"flashCtlMainWs0Freq\000"
 9711      6843746C 
 9711      4D61696E 
 9711      57733046 
 9711      72657100 
 9712              	.LASF27:
 9713 0680 6770696F 		.ascii	"gpioBase\000"
 9713      42617365 
 9713      00
 9714              	.LASF232:
 9715 0689 6F726967 		.ascii	"origin\000"
 9715      696E00
 9716              	.LASF161:
 9717 0690 50445F35 		.ascii	"PD_5_8_CONNECTED\000"
 9717      5F385F43 
 9717      4F4E4E45 
 9717      43544544 
 9717      00
 9718              	.LASF98:
 9719 06a1 63707573 		.ascii	"cpussSysTickCtlOffset\000"
 9719      73537973 
 9719      5469636B 
 9719      43746C4F 
 9719      66667365 
 9720              	.LASF260:
 9721 06b7 4932435F 		.ascii	"I2C_MasterSendRestart\000"
 9721      4D617374 
 9721      65725365 
 9721      6E645265 
 9721      73746172 
 9722              	.LASF213:
 9723 06cd 41445044 		.ascii	"ADPD1080_SetFIFO\000"
 9723      31303830 
 9723      5F536574 
 9723      4649464F 
 9723      00
 9724              	.LASF72:
 9725 06de 64775374 		.ascii	"dwStatusChIdxPos\000"
 9725      61747573 
 9725      43684964 
 9725      78506F73 
 9725      00
 9726              	.LASF157:
 9727 06ef 4E4F524D 		.ascii	"NORMAL_OPERATION\000"
 9727      414C5F4F 
 9727      50455241 
 9727      54494F4E 
ARM GAS  C:\Users\thoma\AppData\Local\Temp\cceCswqS.s 			page 191


 9727      00
 9728              	.LASF237:
 9729 0700 41445044 		.ascii	"ADPD1080_EnableLed\000"
 9729      31303830 
 9729      5F456E61 
 9729      626C654C 
 9729      656400
 9730              	.LASF183:
 9731 0713 41564552 		.ascii	"AVERAGE128\000"
 9731      41474531 
 9731      323800
 9732              	.LASF217:
 9733 071e 636F756E 		.ascii	"count\000"
 9733      7400
 9734              	.LASF43:
 9735 0724 63707573 		.ascii	"cpussFlashPaSize\000"
 9735      73466C61 
 9735      73685061 
 9735      53697A65 
 9735      00
 9736              	.LASF246:
 9737 0735 74757262 		.ascii	"turbidity_Init\000"
 9737      69646974 
 9737      795F496E 
 9737      697400
 9738              	.LASF234:
 9739 0744 41445044 		.ascii	"ADPD1080_SetOffset\000"
 9739      31303830 
 9739      5F536574 
 9739      4F666673 
 9739      657400
 9740              	.LASF114:
 9741 0757 43595F53 		.ascii	"CY_SAR_RANGE_COND_ABOVE\000"
 9741      41525F52 
 9741      414E4745 
 9741      5F434F4E 
 9741      445F4142 
 9742              	.LASF160:
 9743 076f 414C4C5F 		.ascii	"ALL_PD_CONNECTED\000"
 9743      50445F43 
 9743      4F4E4E45 
 9743      43544544 
 9743      00
 9744              	.LASF155:
 9745 0780 5354414E 		.ascii	"STANDBY\000"
 9745      44425900 
 9746              	.LASF215:
 9747 0788 64617461 		.ascii	"dataSlotA\000"
 9747      536C6F74 
 9747      4100
 9748              	.LASF123:
 9749 0792 6368616E 		.ascii	"chanEn\000"
 9749      456E00
 9750              	.LASF139:
 9751 0799 72785269 		.ascii	"rxRingBufTail\000"
 9751      6E674275 
 9751      66546169 
ARM GAS  C:\Users\thoma\AppData\Local\Temp\cceCswqS.s 			page 192


 9751      6C00
 9752              	.LASF84:
 9753 07a7 70657269 		.ascii	"periDiv16_5CtlOffset\000"
 9753      44697631 
 9753      365F3543 
 9753      746C4F66 
 9753      66736574 
 9754              	.LASF54:
 9755 07bc 75646250 		.ascii	"udbPresent\000"
 9755      72657365 
 9755      6E7400
 9756              	.LASF261:
 9757 07c7 4932435F 		.ascii	"I2C_MasterReadByte\000"
 9757      4D617374 
 9757      65725265 
 9757      61644279 
 9757      746500
 9758              	.LASF55:
 9759 07da 73797350 		.ascii	"sysPmSimoPresent\000"
 9759      6D53696D 
 9759      6F507265 
 9759      73656E74 
 9759      00
 9760              	.LASF142:
 9761 07eb 72784275 		.ascii	"rxBufIdx\000"
 9761      66496478 
 9761      00
 9762              	.LASF147:
 9763 07f4 696E6974 		.ascii	"initKey\000"
 9763      4B657900 
 9764              	.LASF73:
 9765 07fc 64775374 		.ascii	"dwStatusChIdxMsk\000"
 9765      61747573 
 9765      43684964 
 9765      784D736B 
 9765      00
 9766              	.LASF14:
 9767 080d 75696E74 		.ascii	"uint8_t\000"
 9767      385F7400 
 9768              	.LASF100:
 9769 0815 63707573 		.ascii	"cpussCm4NmiCtlOffset\000"
 9769      73436D34 
 9769      4E6D6943 
 9769      746C4F66 
 9769      66736574 
 9770              	.LASF243:
 9771 082a 73746174 		.ascii	"status\000"
 9771      757300
 9772              	.LASF174:
 9773 0831 5449415F 		.ascii	"TIA_25\000"
 9773      323500
 9774              	.LASF78:
 9775 0838 70657269 		.ascii	"periDivCmdDivSelMsk\000"
 9775      44697643 
 9775      6D644469 
 9775      7653656C 
 9775      4D736B00 
ARM GAS  C:\Users\thoma\AppData\Local\Temp\cceCswqS.s 			page 193


 9776              	.LASF203:
 9777 084c 656E4D6F 		.ascii	"enMode\000"
 9777      646500
 9778              	.LASF154:
 9779 0853 4144435F 		.ascii	"ADC_CONFIG_STRUCT\000"
 9779      434F4E46 
 9779      49475F53 
 9779      54525543 
 9779      5400
 9780              	.LASF129:
 9781 0865 6D757853 		.ascii	"muxSwitchSqCtrl\000"
 9781      77697463 
 9781      68537143 
 9781      74726C00 
 9782              	.LASF133:
 9783 0875 63795F63 		.ascii	"cy_cb_scb_uart_handle_events_t\000"
 9783      625F7363 
 9783      625F7561 
 9783      72745F68 
 9783      616E646C 
 9784              	.LASF122:
 9785 0894 72616E67 		.ascii	"rangeCond\000"
 9785      65436F6E 
 9785      6400
 9786              	.LASF102:
 9787 089e 63707573 		.ascii	"cpussRam0Ctl0\000"
 9787      7352616D 
 9787      3043746C 
 9787      3000
 9788              	.LASF11:
 9789 08ac 6C6F6E67 		.ascii	"long long int\000"
 9789      206C6F6E 
 9789      6720696E 
 9789      7400
 9790              	.LASF29:
 9791 08ba 69706342 		.ascii	"ipcBase\000"
 9791      61736500 
 9792              	.LASF70:
 9793 08c2 64774368 		.ascii	"dwChCtlPrioPos\000"
 9793      43746C50 
 9793      72696F50 
 9793      6F7300
 9794              	.LASF30:
 9795 08d1 63727970 		.ascii	"cryptoBase\000"
 9795      746F4261 
 9795      736500
 9796              	.LASF262:
 9797 08dc 7072696E 		.ascii	"printf\000"
 9797      746600
 9798              	.LASF177:
 9799 08e3 41564552 		.ascii	"AVERAGE2\000"
 9799      41474532 
 9799      00
 9800              	.LASF184:
 9801 08ec 41445044 		.ascii	"ADPD1080_AverageN\000"
 9801      31303830 
 9801      5F417665 
ARM GAS  C:\Users\thoma\AppData\Local\Temp\cceCswqS.s 			page 194


 9801      72616765 
 9801      4E00
 9802              	.LASF179:
 9803 08fe 41564552 		.ascii	"AVERAGE8\000"
 9803      41474538 
 9803      00
 9804              	.LASF248:
 9805 0907 73744F66 		.ascii	"stOffsetA\000"
 9805      66736574 
 9805      4100
 9806              	.LASF249:
 9807 0911 73744F66 		.ascii	"stOffsetB\000"
 9807      66736574 
 9807      4200
 9808              	.LASF60:
 9809 091b 666C6173 		.ascii	"flashWriteDelay\000"
 9809      68577269 
 9809      74654465 
 9809      6C617900 
 9810              	.LASF230:
 9811 092b 656E4144 		.ascii	"enADCClock\000"
 9811      43436C6F 
 9811      636B00
 9812              	.LASF182:
 9813 0936 41564552 		.ascii	"AVERAGE64\000"
 9813      41474536 
 9813      3400
 9814              	.LASF204:
 9815 0940 41445044 		.ascii	"ADPD1080_SetTimeSlotSwitch\000"
 9815      31303830 
 9815      5F536574 
 9815      54696D65 
 9815      536C6F74 
 9816              	.LASF162:
 9817 095b 50445F31 		.ascii	"PD_1_4_CONNECTED\000"
 9817      5F345F43 
 9817      4F4E4E45 
 9817      43544544 
 9817      00
 9818              	.LASF225:
 9819 096c 41445044 		.ascii	"ADPD1080_SetSamplingFrequency\000"
 9819      31303830 
 9819      5F536574 
 9819      53616D70 
 9819      6C696E67 
 9820              	.LASF26:
 9821 098a 6873696F 		.ascii	"hsiomBase\000"
 9821      6D426173 
 9821      6500
 9822              	.LASF221:
 9823 0994 41445044 		.ascii	"ADPD1080_SetAFEWidthOffset\000"
 9823      31303830 
 9823      5F536574 
 9823      41464557 
 9823      69647468 
 9824              	.LASF76:
 9825 09af 70657269 		.ascii	"periTrGrOffset\000"
ARM GAS  C:\Users\thoma\AppData\Local\Temp\cceCswqS.s 			page 195


 9825      54724772 
 9825      4F666673 
 9825      657400
 9826              	.LASF138:
 9827 09be 72785269 		.ascii	"rxRingBufHead\000"
 9827      6E674275 
 9827      66486561 
 9827      6400
 9828              	.LASF42:
 9829 09cc 63707573 		.ascii	"cpussDwChNr\000"
 9829      73447743 
 9829      684E7200 
 9830              	.LASF267:
 9831 09d8 62756666 		.ascii	"buffer\000"
 9831      657200
 9832              	.LASF144:
 9833 09df 74784275 		.ascii	"txBufSize\000"
 9833      6653697A 
 9833      6500
 9834              	.LASF40:
 9835 09e9 63707573 		.ascii	"cpussIpcNr\000"
 9835      73497063 
 9835      4E7200
 9836              	.LASF93:
 9837 09f4 63707573 		.ascii	"cpussCm4StatusOffset\000"
 9837      73436D34 
 9837      53746174 
 9837      75734F66 
 9837      66736574 
 9838              	.LASF52:
 9839 0a09 70617373 		.ascii	"passSarChannels\000"
 9839      53617243 
 9839      68616E6E 
 9839      656C7300 
 9840              	.LASF104:
 9841 0a19 63707573 		.ascii	"cpussRam2Ctl0\000"
 9841      7352616D 
 9841      3243746C 
 9841      3000
 9842              	.LASF128:
 9843 0a27 6D757853 		.ascii	"muxSwitch\000"
 9843      77697463 
 9843      6800
 9844              	.LASF218:
 9845 0a31 41445044 		.ascii	"ADPD1080_SetLEDWidthOffset\000"
 9845      31303830 
 9845      5F536574 
 9845      4C454457 
 9845      69647468 
 9846              	.LASF227:
 9847 0a4c 41445044 		.ascii	"ADPD1080_SetAverageFactor\000"
 9847      31303830 
 9847      5F536574 
 9847      41766572 
 9847      61676546 
 9848              	.LASF143:
 9849 0a66 74784275 		.ascii	"txBuf\000"
ARM GAS  C:\Users\thoma\AppData\Local\Temp\cceCswqS.s 			page 196


 9849      6600
 9850              	.LASF245:
 9851 0a6c 72656769 		.ascii	"register_settings\000"
 9851      73746572 
 9851      5F736574 
 9851      74696E67 
 9851      7300
 9852              	.LASF83:
 9853 0a7e 70657269 		.ascii	"periDiv16CtlOffset\000"
 9853      44697631 
 9853      3643746C 
 9853      4F666673 
 9853      657400
 9854              	.LASF258:
 9855 0a91 4932435F 		.ascii	"I2C_MasterWriteByte\000"
 9855      4D617374 
 9855      65725772 
 9855      69746542 
 9855      79746500 
 9856              	.LASF208:
 9857 0aa5 656E6162 		.ascii	"enableSampleClk\000"
 9857      6C655361 
 9857      6D706C65 
 9857      436C6B00 
 9858              	.LASF6:
 9859 0ab5 73686F72 		.ascii	"short unsigned int\000"
 9859      7420756E 
 9859      7369676E 
 9859      65642069 
 9859      6E7400
 9860              	.LASF136:
 9861 0ac8 72785269 		.ascii	"rxRingBuf\000"
 9861      6E674275 
 9861      6600
 9862              	.LASF20:
 9863 0ad2 6C6F6E67 		.ascii	"long double\000"
 9863      20646F75 
 9863      626C6500 
 9864              	.LASF16:
 9865 0ade 75696E74 		.ascii	"uint16_t\000"
 9865      31365F74 
 9865      00
 9866              	.LASF25:
 9867 0ae7 70726F74 		.ascii	"protBase\000"
 9867      42617365 
 9867      00
 9868              	.LASF75:
 9869 0af0 70657269 		.ascii	"periTrCmdGrSelMsk\000"
 9869      5472436D 
 9869      64477253 
 9869      656C4D73 
 9869      6B00
 9870              	.LASF119:
 9871 0b02 73616D70 		.ascii	"sampleTime01\000"
 9871      6C655469 
 9871      6D653031 
 9871      00
ARM GAS  C:\Users\thoma\AppData\Local\Temp\cceCswqS.s 			page 197


 9872              	.LASF49:
 9873 0b0f 73727373 		.ascii	"srssNumHfroot\000"
 9873      4E756D48 
 9873      66726F6F 
 9873      7400
 9874              	.LASF228:
 9875 0b1d 656E4176 		.ascii	"enAverage\000"
 9875      65726167 
 9875      6500
 9876              	.LASF33:
 9877 0b27 64775665 		.ascii	"dwVersion\000"
 9877      7273696F 
 9877      6E00
 9878              	.LASF65:
 9879 0b31 666C6173 		.ascii	"flashCtlMainWs2Freq\000"
 9879      6843746C 
 9879      4D61696E 
 9879      57733246 
 9879      72657100 
 9880              	.LASF173:
 9881 0b45 5449415F 		.ascii	"TIA_50\000"
 9881      353000
 9882              	.LASF199:
 9883 0b4c 69326341 		.ascii	"i2cAddr\000"
 9883      64647200 
 9884              	.LASF19:
 9885 0b54 73697A65 		.ascii	"sizetype\000"
 9885      74797065 
 9885      00
 9886              	.LASF236:
 9887 0b5d 41445044 		.ascii	"ADPD1080_DisableLed\000"
 9887      31303830 
 9887      5F446973 
 9887      61626C65 
 9887      4C656400 
 9888              	.LASF212:
 9889 0b71 41445044 		.ascii	"ADPD1080_DeselectLEDs\000"
 9889      31303830 
 9889      5F446573 
 9889      656C6563 
 9889      744C4544 
 9890              	.LASF82:
 9891 0b87 70657269 		.ascii	"periDiv8CtlOffset\000"
 9891      44697638 
 9891      43746C4F 
 9891      66667365 
 9891      7400
 9892              	.LASF265:
 9893 0b99 41445044 		.ascii	"ADPD1080.c\000"
 9893      31303830 
 9893      2E6300
 9894              	.LASF214:
 9895 0ba4 41445044 		.ascii	"ADPD1080_ReadDataRegs\000"
 9895      31303830 
 9895      5F526561 
 9895      64446174 
 9895      61526567 
ARM GAS  C:\Users\thoma\AppData\Local\Temp\cceCswqS.s 			page 198


 9896              	.LASF254:
 9897 0bba 4144435F 		.ascii	"ADC_allConfigs\000"
 9897      616C6C43 
 9897      6F6E6669 
 9897      677300
 9898              	.LASF8:
 9899 0bc9 6C6F6E67 		.ascii	"long int\000"
 9899      20696E74 
 9899      00
 9900              	.LASF31:
 9901 0bd2 63707573 		.ascii	"cpussVersion\000"
 9901      73566572 
 9901      73696F6E 
 9901      00
 9902              	.LASF250:
 9903 0bdf 49544D5F 		.ascii	"ITM_RxBuffer\000"
 9903      52784275 
 9903      66666572 
 9903      00
 9904              	.LASF35:
 9905 0bec 6770696F 		.ascii	"gpioVersion\000"
 9905      56657273 
 9905      696F6E00 
 9906              	.LASF34:
 9907 0bf8 666C6173 		.ascii	"flashcVersion\000"
 9907      68635665 
 9907      7273696F 
 9907      6E00
 9908              	.LASF56:
 9909 0c06 70726F74 		.ascii	"protBusMasterMask\000"
 9909      4275734D 
 9909      61737465 
 9909      724D6173 
 9909      6B00
 9910              	.LASF189:
 9911 0c18 41445044 		.ascii	"ADPD1080_ChannelOffset\000"
 9911      31303830 
 9911      5F436861 
 9911      6E6E656C 
 9911      4F666673 
 9912              	.LASF171:
 9913 0c2f 5449415F 		.ascii	"TIA_200\000"
 9913      32303000 
 9914              	.LASF166:
 9915 0c37 41445044 		.ascii	"ADPD1080_TimeSlot\000"
 9915      31303830 
 9915      5F54696D 
 9915      65536C6F 
 9915      7400
 9916              	.LASF145:
 9917 0c49 74784C65 		.ascii	"txLeftToTransmit\000"
 9917      6674546F 
 9917      5472616E 
 9917      736D6974 
 9917      00
 9918              	.LASF201:
 9919 0c5a 64657669 		.ascii	"deviceID\000"
ARM GAS  C:\Users\thoma\AppData\Local\Temp\cceCswqS.s 			page 199


 9919      63654944 
 9919      00
 9920              	.LASF95:
 9921 0c63 63707573 		.ascii	"cpussCm4PwrCtlOffset\000"
 9921      73436D34 
 9921      50777243 
 9921      746C4F66 
 9921      66736574 
 9922              	.LASF3:
 9923 0c78 5F5F7569 		.ascii	"__uint8_t\000"
 9923      6E74385F 
 9923      7400
 9924              	.LASF152:
 9925 0c82 6D697363 		.ascii	"miscConfig\000"
 9925      436F6E66 
 9925      696700
 9926              	.LASF86:
 9927 0c8d 6770696F 		.ascii	"gpioPrtIntrCfgOffset\000"
 9927      50727449 
 9927      6E747243 
 9927      66674F66 
 9927      66736574 
 9928              	.LASF224:
 9929 0ca2 656E5449 		.ascii	"enTIAGain\000"
 9929      41476169 
 9929      6E00
 9930              	.LASF169:
 9931 0cac 4C454458 		.ascii	"LEDX3\000"
 9931      3300
 9932              	.LASF92:
 9933 0cb2 63707573 		.ascii	"cpussCm4ClockCtlOffset\000"
 9933      73436D34 
 9933      436C6F63 
 9933      6B43746C 
 9933      4F666673 
 9934              	.LASF175:
 9935 0cc9 41445044 		.ascii	"ADPD1080_TIAGain\000"
 9935      31303830 
 9935      5F544941 
 9935      4761696E 
 9935      00
 9936              	.LASF97:
 9937 0cda 63707573 		.ascii	"cpussTrimRomCtlOffset\000"
 9937      73547269 
 9937      6D526F6D 
 9937      43746C4F 
 9937      66667365 
 9938              	.LASF120:
 9939 0cf0 73616D70 		.ascii	"sampleTime23\000"
 9939      6C655469 
 9939      6D653233 
 9939      00
 9940              	.LASF191:
 9941 0cfd 4348324F 		.ascii	"CH2Offset\000"
 9941      66667365 
 9941      7400
 9942              	.LASF36:
ARM GAS  C:\Users\thoma\AppData\Local\Temp\cceCswqS.s 			page 200


 9943 0d07 6873696F 		.ascii	"hsiomVersion\000"
 9943      6D566572 
 9943      73696F6E 
 9943      00
 9944              	.LASF164:
 9945 0d14 534C4F54 		.ascii	"SLOTA\000"
 9945      4100
 9946              	.LASF165:
 9947 0d1a 534C4F54 		.ascii	"SLOTB\000"
 9947      4200
 9948              	.LASF10:
 9949 0d20 6C6F6E67 		.ascii	"long unsigned int\000"
 9949      20756E73 
 9949      69676E65 
 9949      6420696E 
 9949      7400
 9950              	.LASF101:
 9951 0d32 63707573 		.ascii	"cpussRomCtl\000"
 9951      73526F6D 
 9951      43746C00 
 9952              	.LASF17:
 9953 0d3e 696E7433 		.ascii	"int32_t\000"
 9953      325F7400 
 9954              	.LASF209:
 9955 0d46 41445044 		.ascii	"ADPD1080_SelectLED\000"
 9955      31303830 
 9955      5F53656C 
 9955      6563744C 
 9955      454400
 9956              	.LASF94:
 9957 0d59 63707573 		.ascii	"cpussCm0StatusOffset\000"
 9957      73436D30 
 9957      53746174 
 9957      75734F66 
 9957      66736574 
 9958              	.LASF118:
 9959 0d6e 73616D70 		.ascii	"sampleCtrl\000"
 9959      6C654374 
 9959      726C00
 9960              	.LASF2:
 9961 0d79 756E7369 		.ascii	"unsigned char\000"
 9961      676E6564 
 9961      20636861 
 9961      7200
 9962              	.LASF9:
 9963 0d87 5F5F7569 		.ascii	"__uint32_t\000"
 9963      6E743332 
 9963      5F7400
 9964              	.LASF106:
 9965 0d92 6970634C 		.ascii	"ipcLockStatusOffset\000"
 9965      6F636B53 
 9965      74617475 
 9965      734F6666 
 9965      73657400 
 9966              	.LASF202:
 9967 0da6 41445044 		.ascii	"ADPD1080_SetOperationMode\000"
 9967      31303830 
ARM GAS  C:\Users\thoma\AppData\Local\Temp\cceCswqS.s 			page 201


 9967      5F536574 
 9967      4F706572 
 9967      6174696F 
 9968              	.LASF62:
 9969 0dc0 666C6173 		.ascii	"flashEraseDelay\000"
 9969      68457261 
 9969      73654465 
 9969      6C617900 
 9970              	.LASF241:
 9971 0dd0 74757262 		.ascii	"turbidity_init\000"
 9971      69646974 
 9971      795F696E 
 9971      697400
 9972              	.LASF131:
 9973 0ddf 76726566 		.ascii	"vrefMvValue\000"
 9973      4D765661 
 9973      6C756500 
 9974              	.LASF163:
 9975 0deb 41445044 		.ascii	"ADPD1080_TimeSlotPD\000"
 9975      31303830 
 9975      5F54696D 
 9975      65536C6F 
 9975      74504400 
 9976              	.LASF206:
 9977 0dff 7538536C 		.ascii	"u8SlotBSel\000"
 9977      6F744253 
 9977      656C00
 9978              	.LASF253:
 9979 0e0a 4144435F 		.ascii	"ADC_currentConfig\000"
 9979      63757272 
 9979      656E7443 
 9979      6F6E6669 
 9979      6700
 9980              	.LASF58:
 9981 0e1c 666C6173 		.ascii	"flashRwwRequired\000"
 9981      68527777 
 9981      52657175 
 9981      69726564 
 9981      00
 9982              	.LASF87:
 9983 0e2d 6770696F 		.ascii	"gpioPrtCfgOffset\000"
 9983      50727443 
 9983      66674F66 
 9983      66736574 
 9983      00
 9984              	.LASF187:
 9985 0e3e 41445044 		.ascii	"ADPD1080_ADCClockSpeed\000"
 9985      31303830 
 9985      5F414443 
 9985      436C6F63 
 9985      6B537065 
 9986              	.LASF229:
 9987 0e55 41445044 		.ascii	"ADPD1080_SetADCClock\000"
 9987      31303830 
 9987      5F536574 
 9987      41444343 
 9987      6C6F636B 
ARM GAS  C:\Users\thoma\AppData\Local\Temp\cceCswqS.s 			page 202


 9988              	.LASF53:
 9989 0e6a 65704D6F 		.ascii	"epMonitorNr\000"
 9989      6E69746F 
 9989      724E7200 
 9990              	.LASF252:
 9991 0e76 55415254 		.ascii	"UART_context\000"
 9991      5F636F6E 
 9991      74657874 
 9991      00
 9992              	.LASF193:
 9993 0e83 4348344F 		.ascii	"CH4Offset\000"
 9993      66667365 
 9993      7400
 9994              	.LASF1:
 9995 0e8d 7369676E 		.ascii	"signed char\000"
 9995      65642063 
 9995      68617200 
 9996              	.LASF68:
 9997 0e99 64774368 		.ascii	"dwChOffset\000"
 9997      4F666673 
 9997      657400
 9998              	.LASF41:
 9999 0ea4 63707573 		.ascii	"cpussIpcIrqNr\000"
 9999      73497063 
 9999      4972714E 
 9999      7200
 10000              	.LASF71:
 10001 0eb2 64774368 		.ascii	"dwChCtlPreemptablePos\000"
 10001      43746C50 
 10001      7265656D 
 10001      70746162 
 10001      6C65506F 
 10002              	.LASF197:
 10003 0ec8 41445044 		.ascii	"ADPD1080_ReadReg\000"
 10003      31303830 
 10003      5F526561 
 10003      64526567 
 10003      00
 10004              	.LASF124:
 10005 0ed9 6368616E 		.ascii	"chanConfig\000"
 10005      436F6E66 
 10005      696700
 10006              	.LASF211:
 10007 0ee4 656E536C 		.ascii	"enSlot\000"
 10007      6F7400
 10008              	.LASF196:
 10009 0eeb 41445044 		.ascii	"ADPD1080_WriteReg\000"
 10009      31303830 
 10009      5F577269 
 10009      74655265 
 10009      6700
 10010              	.LASF266:
 10011 0efd 433A5C55 		.ascii	"C:\\Users\\thoma\\Documents\\PSoC Creator\\ecmo\\sz"
 10011      73657273 
 10011      5C74686F 
 10011      6D615C44 
 10011      6F63756D 
ARM GAS  C:\Users\thoma\AppData\Local\Temp\cceCswqS.s 			page 203


 10012 0f2a 68616E67 		.ascii	"hang\\PSoC6_UDB_I2C_Master\\CY8CPROTO-063-BLE_Maste"
 10012      5C50536F 
 10012      43365F55 
 10012      44425F49 
 10012      32435F4D 
 10013 0f5b 722E6379 		.ascii	"r.cydsn\000"
 10013      64736E00 
 10014              	.LASF38:
 10015 0f63 70657269 		.ascii	"periVersion\000"
 10015      56657273 
 10015      696F6E00 
 10016              	.LASF130:
 10017 0f6f 636F6E66 		.ascii	"configRouting\000"
 10017      6967526F 
 10017      7574696E 
 10017      6700
 10018              	.LASF28:
 10019 0f7d 70617373 		.ascii	"passBase\000"
 10019      42617365 
 10019      00
 10020              	.LASF263:
 10021 0f86 43795F53 		.ascii	"Cy_SysLib_Delay\000"
 10021      79734C69 
 10021      625F4465 
 10021      6C617900 
 10022              	.LASF47:
 10023 0f96 73727373 		.ascii	"srssNumClkpath\000"
 10023      4E756D43 
 10023      6C6B7061 
 10023      746800
 10024              	.LASF67:
 10025 0fa5 666C6173 		.ascii	"flashCtlMainWs4Freq\000"
 10025      6843746C 
 10025      4D61696E 
 10025      57733446 
 10025      72657100 
 10026              	.LASF127:
 10027 0fb9 72616E67 		.ascii	"rangeIntrMask\000"
 10027      65496E74 
 10027      724D6173 
 10027      6B00
 10028              	.LASF116:
 10029 0fc7 63795F65 		.ascii	"cy_en_sar_range_detect_condition_t\000"
 10029      6E5F7361 
 10029      725F7261 
 10029      6E67655F 
 10029      64657465 
 10030              	.LASF180:
 10031 0fea 41564552 		.ascii	"AVERAGE16\000"
 10031      41474531 
 10031      3600
 10032              	.LASF37:
 10033 0ff4 69706356 		.ascii	"ipcVersion\000"
 10033      65727369 
 10033      6F6E00
 10034              	.LASF125:
 10035 0fff 696E7472 		.ascii	"intrMask\000"
ARM GAS  C:\Users\thoma\AppData\Local\Temp\cceCswqS.s 			page 204


 10035      4D61736B 
 10035      00
 10036              	.LASF74:
 10037 1008 70657269 		.ascii	"periTrCmdOffset\000"
 10037      5472436D 
 10037      644F6666 
 10037      73657400 
 10038              	.LASF141:
 10039 1018 72784275 		.ascii	"rxBufSize\000"
 10039      6653697A 
 10039      6500
 10040              		.ident	"GCC: (GNU Tools for ARM Embedded Processors) 5.4.1 20160609 (release) [ARM/embedded-5-bran
