ARM GAS  C:\Users\thoma\AppData\Local\Temp\ccnG09iM.s 			page 1


   1              		.syntax unified
   2              		.cpu cortex-m4
   3              		.eabi_attribute 27, 1
   4              		.fpu fpv4-sp-d16
   5              		.eabi_attribute 20, 1
   6              		.eabi_attribute 21, 1
   7              		.eabi_attribute 23, 3
   8              		.eabi_attribute 24, 1
   9              		.eabi_attribute 25, 1
  10              		.eabi_attribute 26, 1
  11              		.eabi_attribute 30, 1
  12              		.eabi_attribute 34, 1
  13              		.eabi_attribute 18, 4
  14              		.thumb
  15              		.syntax unified
  16              		.file	"ADPD1080.c"
  17              		.text
  18              	.Ltext0:
  19              		.cfi_sections	.debug_frame
  20              		.section	.text.ADPD1080_WriteReg,"ax",%progbits
  21              		.align	2
  22              		.global	ADPD1080_WriteReg
  23              		.thumb
  24              		.thumb_func
  25              		.type	ADPD1080_WriteReg, %function
  26              	ADPD1080_WriteReg:
  27              	.LFB536:
  28              		.file 1 "ADPD1080.c"
   1:ADPD1080.c    **** /* ADPD1080.c */
   2:ADPD1080.c    **** 
   3:ADPD1080.c    **** /* Include Files */
   4:ADPD1080.c    **** #include "project.h"  // Include PSoC project header for PSoC-specific functions
   5:ADPD1080.c    **** #include "ADPD1080.h"
   6:ADPD1080.c    **** #include <stdio.h>
   7:ADPD1080.c    **** 
   8:ADPD1080.c    **** /* Initialize data slot arrays */
   9:ADPD1080.c    **** volatile uint16_t au16DataSlotA[4] = {0,0,0,0};
  10:ADPD1080.c    **** volatile uint16_t au16DataSlotB[4] = {0,0,0,0};
  11:ADPD1080.c    **** 
  12:ADPD1080.c    **** /* Sensor Function Definitions */
  13:ADPD1080.c    **** /**
  14:ADPD1080.c    ****  *    @brief  Sets up the hardware and initializes I2C
  15:ADPD1080.c    ****  *    @param  i2cAddr
  16:ADPD1080.c    ****  *            The I2C address to be used.
  17:ADPD1080.c    ****  *    @param  sensorId
  18:ADPD1080.c    ****  *            The unique ID to differentiate the sensors from others
  19:ADPD1080.c    ****  *    @return True if initialization was successful, otherwise false.
  20:ADPD1080.c    ****  */
  21:ADPD1080.c    **** bool ADPD1080_Begin(uint8_t i2cAddr, int32_t sensorId) {
  22:ADPD1080.c    ****     (void) i2cAddr;
  23:ADPD1080.c    ****     (void) sensorId;
  24:ADPD1080.c    ****     
  25:ADPD1080.c    ****     uint16_t deviceID = ADPD1080_ReadReg(0x08);  // Device ID register
  26:ADPD1080.c    ****     printf("%d",deviceID);
  27:ADPD1080.c    ****     return true;
  28:ADPD1080.c    **** }
  29:ADPD1080.c    **** 
ARM GAS  C:\Users\thoma\AppData\Local\Temp\ccnG09iM.s 			page 2


  30:ADPD1080.c    **** /**
  31:ADPD1080.c    ****  * @brief Writes a register from the ADPD1080 using I2C bus.
  32:ADPD1080.c    ****  * 
  33:ADPD1080.c    ****  * @param regAddr - register address
  34:ADPD1080.c    ****  * @param regValue - register data to write
  35:ADPD1080.c    ****  * 
  36:ADPD1080.c    ****  * @return true if successful - false if failure 
  37:ADPD1080.c    ****  */
  38:ADPD1080.c    **** bool ADPD1080_WriteReg(uint8_t regAddr, uint16_t regValue) {
  29              		.loc 1 38 0
  30              		.cfi_startproc
  31              		@ args = 0, pretend = 0, frame = 0
  32              		@ frame_needed = 0, uses_anonymous_args = 0
  33              	.LVL0:
  34 0000 38B5     		push	{r3, r4, r5, lr}
  35              		.cfi_def_cfa_offset 16
  36              		.cfi_offset 3, -16
  37              		.cfi_offset 4, -12
  38              		.cfi_offset 5, -8
  39              		.cfi_offset 14, -4
  40 0002 0546     		mov	r5, r0
  41 0004 0C46     		mov	r4, r1
  39:ADPD1080.c    ****     //uint8_t err;
  40:ADPD1080.c    ****     I2C_MasterSendStart(ADPD1080_ADDRESS, I2C_WRITE_XFER_MODE);
  42              		.loc 1 40 0
  43 0006 0021     		movs	r1, #0
  44              	.LVL1:
  45 0008 6420     		movs	r0, #100
  46              	.LVL2:
  47 000a FFF7FEFF 		bl	I2C_MasterSendStart
  48              	.LVL3:
  41:ADPD1080.c    ****     I2C_MasterWriteByte(regAddr);
  49              		.loc 1 41 0
  50 000e 2846     		mov	r0, r5
  51 0010 FFF7FEFF 		bl	I2C_MasterWriteByte
  52              	.LVL4:
  42:ADPD1080.c    ****     I2C_MasterWriteByte((regValue >> 8) & 0xFF);
  53              		.loc 1 42 0
  54 0014 200A     		lsrs	r0, r4, #8
  55 0016 FFF7FEFF 		bl	I2C_MasterWriteByte
  56              	.LVL5:
  43:ADPD1080.c    ****     I2C_MasterWriteByte(regValue & 0xFF);
  57              		.loc 1 43 0
  58 001a E0B2     		uxtb	r0, r4
  59 001c FFF7FEFF 		bl	I2C_MasterWriteByte
  60              	.LVL6:
  44:ADPD1080.c    ****     I2C_MasterSendStop();
  61              		.loc 1 44 0
  62 0020 FFF7FEFF 		bl	I2C_MasterSendStop
  63              	.LVL7:
  45:ADPD1080.c    ****     return true;
  46:ADPD1080.c    **** }
  64              		.loc 1 46 0
  65 0024 0120     		movs	r0, #1
  66 0026 38BD     		pop	{r3, r4, r5, pc}
  67              		.cfi_endproc
  68              	.LFE536:
ARM GAS  C:\Users\thoma\AppData\Local\Temp\ccnG09iM.s 			page 3


  69              		.size	ADPD1080_WriteReg, .-ADPD1080_WriteReg
  70              		.section	.text.ADPD1080_ReadReg,"ax",%progbits
  71              		.align	2
  72              		.global	ADPD1080_ReadReg
  73              		.thumb
  74              		.thumb_func
  75              		.type	ADPD1080_ReadReg, %function
  76              	ADPD1080_ReadReg:
  77              	.LFB537:
  47:ADPD1080.c    **** 
  48:ADPD1080.c    **** /**
  49:ADPD1080.c    ****  * @brief Reads a register from the ADPD1080 using I2C bus.
  50:ADPD1080.c    ****  * 
  51:ADPD1080.c    ****  * @param regAddr - register address
  52:ADPD1080.c    ****  * 
  53:ADPD1080.c    ****  * @return uint16_t - register value
  54:ADPD1080.c    ****  */
  55:ADPD1080.c    **** uint16_t ADPD1080_ReadReg(uint8_t regAddr) {
  78              		.loc 1 55 0
  79              		.cfi_startproc
  80              		@ args = 0, pretend = 0, frame = 0
  81              		@ frame_needed = 0, uses_anonymous_args = 0
  82              	.LVL8:
  83 0000 38B5     		push	{r3, r4, r5, lr}
  84              		.cfi_def_cfa_offset 16
  85              		.cfi_offset 3, -16
  86              		.cfi_offset 4, -12
  87              		.cfi_offset 5, -8
  88              		.cfi_offset 14, -4
  89 0002 0446     		mov	r4, r0
  56:ADPD1080.c    ****     uint8_t buffer[2] = {0};
  57:ADPD1080.c    ****     I2C_MasterSendStart(ADPD1080_ADDRESS, I2C_WRITE_XFER_MODE);
  90              		.loc 1 57 0
  91 0004 0021     		movs	r1, #0
  92 0006 6420     		movs	r0, #100
  93              	.LVL9:
  94 0008 FFF7FEFF 		bl	I2C_MasterSendStart
  95              	.LVL10:
  58:ADPD1080.c    ****     I2C_MasterWriteByte(regAddr);
  96              		.loc 1 58 0
  97 000c 2046     		mov	r0, r4
  98 000e FFF7FEFF 		bl	I2C_MasterWriteByte
  99              	.LVL11:
  59:ADPD1080.c    ****     I2C_MasterSendRestart(ADPD1080_ADDRESS, I2C_READ_XFER_MODE);
 100              		.loc 1 59 0
 101 0012 0121     		movs	r1, #1
 102 0014 6420     		movs	r0, #100
 103 0016 FFF7FEFF 		bl	I2C_MasterSendRestart
 104              	.LVL12:
  60:ADPD1080.c    ****     buffer[0] = I2C_MasterReadByte(I2C_ACK_DATA);
 105              		.loc 1 60 0
 106 001a 0120     		movs	r0, #1
 107 001c FFF7FEFF 		bl	I2C_MasterReadByte
 108              	.LVL13:
 109 0020 0546     		mov	r5, r0
  61:ADPD1080.c    ****     buffer[1] = I2C_MasterReadByte(I2C_NAK_DATA);
 110              		.loc 1 61 0
ARM GAS  C:\Users\thoma\AppData\Local\Temp\ccnG09iM.s 			page 4


 111 0022 0020     		movs	r0, #0
 112 0024 FFF7FEFF 		bl	I2C_MasterReadByte
 113              	.LVL14:
 114 0028 0446     		mov	r4, r0
  62:ADPD1080.c    ****     I2C_MasterSendStop();
 115              		.loc 1 62 0
 116 002a FFF7FEFF 		bl	I2C_MasterSendStop
 117              	.LVL15:
  63:ADPD1080.c    ****     return (buffer[0] << 8) | buffer[1];
 118              		.loc 1 63 0
 119 002e 44EA0520 		orr	r0, r4, r5, lsl #8
  64:ADPD1080.c    **** }
 120              		.loc 1 64 0
 121 0032 80B2     		uxth	r0, r0
 122 0034 38BD     		pop	{r3, r4, r5, pc}
 123              		.cfi_endproc
 124              	.LFE537:
 125              		.size	ADPD1080_ReadReg, .-ADPD1080_ReadReg
 126 0036 00BF     		.section	.text.ADPD1080_Begin,"ax",%progbits
 127              		.align	2
 128              		.global	ADPD1080_Begin
 129              		.thumb
 130              		.thumb_func
 131              		.type	ADPD1080_Begin, %function
 132              	ADPD1080_Begin:
 133              	.LFB535:
  21:ADPD1080.c    ****     (void) i2cAddr;
 134              		.loc 1 21 0
 135              		.cfi_startproc
 136              		@ args = 0, pretend = 0, frame = 0
 137              		@ frame_needed = 0, uses_anonymous_args = 0
 138              	.LVL16:
 139 0000 08B5     		push	{r3, lr}
 140              		.cfi_def_cfa_offset 8
 141              		.cfi_offset 3, -8
 142              		.cfi_offset 14, -4
  25:ADPD1080.c    ****     printf("%d",deviceID);
 143              		.loc 1 25 0
 144 0002 0820     		movs	r0, #8
 145              	.LVL17:
 146 0004 FFF7FEFF 		bl	ADPD1080_ReadReg
 147              	.LVL18:
  26:ADPD1080.c    ****     return true;
 148              		.loc 1 26 0
 149 0008 0146     		mov	r1, r0
 150 000a 0248     		ldr	r0, .L7
 151              	.LVL19:
 152 000c FFF7FEFF 		bl	printf
 153              	.LVL20:
  28:ADPD1080.c    **** 
 154              		.loc 1 28 0
 155 0010 0120     		movs	r0, #1
 156 0012 08BD     		pop	{r3, pc}
 157              	.L8:
 158              		.align	2
 159              	.L7:
 160 0014 00000000 		.word	.LC0
ARM GAS  C:\Users\thoma\AppData\Local\Temp\ccnG09iM.s 			page 5


 161              		.cfi_endproc
 162              	.LFE535:
 163              		.size	ADPD1080_Begin, .-ADPD1080_Begin
 164              		.section	.text.ADPD1080_SetOperationMode,"ax",%progbits
 165              		.align	2
 166              		.global	ADPD1080_SetOperationMode
 167              		.thumb
 168              		.thumb_func
 169              		.type	ADPD1080_SetOperationMode, %function
 170              	ADPD1080_SetOperationMode:
 171              	.LFB538:
  65:ADPD1080.c    **** 
  66:ADPD1080.c    **** /**
  67:ADPD1080.c    ****  * @brief Sets the operation mode of the ADPD1080
  68:ADPD1080.c    ****  * 
  69:ADPD1080.c    ****  * @param enMode = STANDBY, PROGRAM or NORMAL_OPERATION.
  70:ADPD1080.c    ****  * 
  71:ADPD1080.c    ****  * @return true if successful - false if failure
  72:ADPD1080.c    ****  */
  73:ADPD1080.c    **** bool ADPD1080_SetOperationMode(ADPD1080_OperationMode enMode) {
 172              		.loc 1 73 0
 173              		.cfi_startproc
 174              		@ args = 0, pretend = 0, frame = 0
 175              		@ frame_needed = 0, uses_anonymous_args = 0
 176              	.LVL21:
 177 0000 10B5     		push	{r4, lr}
 178              		.cfi_def_cfa_offset 8
 179              		.cfi_offset 4, -8
 180              		.cfi_offset 14, -4
 181 0002 0446     		mov	r4, r0
  74:ADPD1080.c    ****     uint16_t regValue = ADPD1080_ReadReg(0x10);
 182              		.loc 1 74 0
 183 0004 1020     		movs	r0, #16
 184              	.LVL22:
 185 0006 FFF7FEFF 		bl	ADPD1080_ReadReg
 186              	.LVL23:
  75:ADPD1080.c    ****     bool success = false;
  76:ADPD1080.c    ****     if (enMode == 0) {
 187              		.loc 1 76 0
 188 000a 34B9     		cbnz	r4, .L10
  77:ADPD1080.c    ****         regValue = (regValue & 0xFFFC);//!!!!!!!!!!!!!!!!!!!!!1101
 189              		.loc 1 77 0
 190 000c 20F00300 		bic	r0, r0, #3
 191              	.LVL24:
 192 0010 81B2     		uxth	r1, r0
 193              	.LVL25:
  78:ADPD1080.c    ****         success = ADPD1080_WriteReg(0x10, regValue);
 194              		.loc 1 78 0
 195 0012 1020     		movs	r0, #16
 196 0014 FFF7FEFF 		bl	ADPD1080_WriteReg
 197              	.LVL26:
 198 0018 10BD     		pop	{r4, pc}
 199              	.LVL27:
 200              	.L10:
  79:ADPD1080.c    ****     }
  80:ADPD1080.c    ****     else if (enMode == 1) {
 201              		.loc 1 80 0
ARM GAS  C:\Users\thoma\AppData\Local\Temp\ccnG09iM.s 			page 6


 202 001a 012C     		cmp	r4, #1
 203 001c 09D1     		bne	.L12
  81:ADPD1080.c    ****         regValue = (regValue & 0xFFFC) | 0x01;//!!!!!!!!!!!!!!!!!!!!!1101
 204              		.loc 1 81 0
 205 001e 20F00301 		bic	r1, r0, #3
 206 0022 41F00101 		orr	r1, r1, #1
 207 0026 09B2     		sxth	r1, r1
 208 0028 89B2     		uxth	r1, r1
 209              	.LVL28:
  82:ADPD1080.c    ****         success = ADPD1080_WriteReg(0x10, regValue);
 210              		.loc 1 82 0
 211 002a 1020     		movs	r0, #16
 212 002c FFF7FEFF 		bl	ADPD1080_WriteReg
 213              	.LVL29:
 214 0030 10BD     		pop	{r4, pc}
 215              	.LVL30:
 216              	.L12:
  83:ADPD1080.c    ****     }
  84:ADPD1080.c    ****     else if (enMode == 2) {
 217              		.loc 1 84 0
 218 0032 022C     		cmp	r4, #2
 219 0034 09D1     		bne	.L13
  85:ADPD1080.c    ****         regValue = (regValue & 0xFFFC) | 0x02;//!!!!!!!!!!!!!!!!!!!!!1101
 220              		.loc 1 85 0
 221 0036 20F00301 		bic	r1, r0, #3
 222 003a 41F00201 		orr	r1, r1, #2
 223 003e 09B2     		sxth	r1, r1
 224 0040 89B2     		uxth	r1, r1
 225              	.LVL31:
  86:ADPD1080.c    ****         success = ADPD1080_WriteReg(0x10, regValue);
 226              		.loc 1 86 0
 227 0042 1020     		movs	r0, #16
 228 0044 FFF7FEFF 		bl	ADPD1080_WriteReg
 229              	.LVL32:
 230 0048 10BD     		pop	{r4, pc}
 231              	.LVL33:
 232              	.L13:
  75:ADPD1080.c    ****     if (enMode == 0) {
 233              		.loc 1 75 0
 234 004a 0020     		movs	r0, #0
 235              	.LVL34:
  87:ADPD1080.c    ****     }
  88:ADPD1080.c    ****     return success;
  89:ADPD1080.c    **** }
 236              		.loc 1 89 0
 237 004c 10BD     		pop	{r4, pc}
 238              		.cfi_endproc
 239              	.LFE538:
 240              		.size	ADPD1080_SetOperationMode, .-ADPD1080_SetOperationMode
 241 004e 00BF     		.section	.text.ADPD1080_SetTimeSlotSwitch,"ax",%progbits
 242              		.align	2
 243              		.global	ADPD1080_SetTimeSlotSwitch
 244              		.thumb
 245              		.thumb_func
 246              		.type	ADPD1080_SetTimeSlotSwitch, %function
 247              	ADPD1080_SetTimeSlotSwitch:
 248              	.LFB539:
ARM GAS  C:\Users\thoma\AppData\Local\Temp\ccnG09iM.s 			page 7


  90:ADPD1080.c    **** /**
  91:ADPD1080.c    ****  * @brief Configure the Time Slot Switch register.
  92:ADPD1080.c    ****  *
  93:ADPD1080.c    ****  * @param u8SlotASel - SlotA input
  94:ADPD1080.c    ****  * 
  95:ADPD1080.c    ****  * @param u8SlotBSel - SlotB input
  96:ADPD1080.c    ****  * 
  97:ADPD1080.c    ****  * @return true if successful - false if failure 
  98:ADPD1080.c    ****  */
  99:ADPD1080.c    **** bool ADPD1080_SetTimeSlotSwitch(ADPD1080_TimeSlotPD u8SlotASel, ADPD1080_TimeSlotPD u8SlotBSel){
 249              		.loc 1 99 0
 250              		.cfi_startproc
 251              		@ args = 0, pretend = 0, frame = 0
 252              		@ frame_needed = 0, uses_anonymous_args = 0
 253              	.LVL35:
 254 0000 38B5     		push	{r3, r4, r5, lr}
 255              		.cfi_def_cfa_offset 16
 256              		.cfi_offset 3, -16
 257              		.cfi_offset 4, -12
 258              		.cfi_offset 5, -8
 259              		.cfi_offset 14, -4
 260 0002 0546     		mov	r5, r0
 261 0004 0C46     		mov	r4, r1
 100:ADPD1080.c    ****     uint16_t select_value = ADPD1080_ReadReg(0x14);
 262              		.loc 1 100 0
 263 0006 1420     		movs	r0, #20
 264              	.LVL36:
 265 0008 FFF7FEFF 		bl	ADPD1080_ReadReg
 266              	.LVL37:
 101:ADPD1080.c    ****     select_value &= ~(0x0F << 4);        // Clear bits 4-7
 267              		.loc 1 101 0
 268 000c 20F0F000 		bic	r0, r0, #240
 269              	.LVL38:
 270 0010 81B2     		uxth	r1, r0
 271              	.LVL39:
 102:ADPD1080.c    ****     select_value |= (u8SlotASel << 4); // Set the new value for bits 4-7
 272              		.loc 1 102 0
 273 0012 41EA0511 		orr	r1, r1, r5, lsl #4
 274              	.LVL40:
 103:ADPD1080.c    ****     select_value &= ~(0x0F << 8);        // Clear bits 8-11
 275              		.loc 1 103 0
 276 0016 21F47061 		bic	r1, r1, #3840
 277              	.LVL41:
 104:ADPD1080.c    ****     select_value |= (u8SlotBSel << 8); // Set the new value for bits 8-11
 105:ADPD1080.c    ****     
 106:ADPD1080.c    ****     // Write the updated value back to the ADPD1080_PD_LED_SELECT register
 107:ADPD1080.c    ****     return ADPD1080_WriteReg(0x14, select_value);
 278              		.loc 1 107 0
 279 001a 41EA0421 		orr	r1, r1, r4, lsl #8
 280              	.LVL42:
 281 001e 1420     		movs	r0, #20
 282              	.LVL43:
 283 0020 FFF7FEFF 		bl	ADPD1080_WriteReg
 284              	.LVL44:
 108:ADPD1080.c    **** }
 285              		.loc 1 108 0
 286 0024 38BD     		pop	{r3, r4, r5, pc}
ARM GAS  C:\Users\thoma\AppData\Local\Temp\ccnG09iM.s 			page 8


 287              		.cfi_endproc
 288              	.LFE539:
 289              		.size	ADPD1080_SetTimeSlotSwitch, .-ADPD1080_SetTimeSlotSwitch
 290 0026 00BF     		.section	.text.ADPD1080_Set32KCLK,"ax",%progbits
 291              		.align	2
 292              		.global	ADPD1080_Set32KCLK
 293              		.thumb
 294              		.thumb_func
 295              		.type	ADPD1080_Set32KCLK, %function
 296              	ADPD1080_Set32KCLK:
 297              	.LFB540:
 109:ADPD1080.c    **** 
 110:ADPD1080.c    **** /**
 111:ADPD1080.c    ****  * @brief Enable the internal 32kHz internal clock from ADPD105 via I2C.
 112:ADPD1080.c    ****  * 
 113:ADPD1080.c    ****  * @param enableSampleClk - enables/disables 32kHz clock
 114:ADPD1080.c    ****  *  
 115:ADPD1080.c    ****  * @return true if successful - false if failure 
 116:ADPD1080.c    ****  */
 117:ADPD1080.c    **** bool ADPD1080_Set32KCLK(bool enableSampleClk){
 298              		.loc 1 117 0
 299              		.cfi_startproc
 300              		@ args = 0, pretend = 0, frame = 0
 301              		@ frame_needed = 0, uses_anonymous_args = 0
 302              	.LVL45:
 303 0000 10B5     		push	{r4, lr}
 304              		.cfi_def_cfa_offset 8
 305              		.cfi_offset 4, -8
 306              		.cfi_offset 14, -4
 307 0002 0446     		mov	r4, r0
 118:ADPD1080.c    ****     uint16_t origin = ADPD1080_ReadReg(0x4B);
 308              		.loc 1 118 0
 309 0004 4B20     		movs	r0, #75
 310              	.LVL46:
 311 0006 FFF7FEFF 		bl	ADPD1080_ReadReg
 312              	.LVL47:
 119:ADPD1080.c    ****     uint16_t mask = (enableSampleClk << 7);
 120:ADPD1080.c    ****     uint16_t new = origin | mask;
 313              		.loc 1 120 0
 314 000a 40EAC411 		orr	r1, r0, r4, lsl #7
 315              	.LVL48:
 121:ADPD1080.c    ****     return ADPD1080_WriteReg(0x4B, new);
 316              		.loc 1 121 0
 317 000e 89B2     		uxth	r1, r1
 318 0010 4B20     		movs	r0, #75
 319              	.LVL49:
 320 0012 FFF7FEFF 		bl	ADPD1080_WriteReg
 321              	.LVL50:
 122:ADPD1080.c    **** }
 322              		.loc 1 122 0
 323 0016 10BD     		pop	{r4, pc}
 324              		.cfi_endproc
 325              	.LFE540:
 326              		.size	ADPD1080_Set32KCLK, .-ADPD1080_Set32KCLK
 327              		.section	.text.ADPD1080_SetFIFO,"ax",%progbits
 328              		.align	2
 329              		.global	ADPD1080_SetFIFO
ARM GAS  C:\Users\thoma\AppData\Local\Temp\ccnG09iM.s 			page 9


 330              		.thumb
 331              		.thumb_func
 332              		.type	ADPD1080_SetFIFO, %function
 333              	ADPD1080_SetFIFO:
 334              	.LFB541:
 123:ADPD1080.c    **** 
 124:ADPD1080.c    **** /**
 125:ADPD1080.c    ****  * @brief Setup FIFO for data reading
 126:ADPD1080.c    ****  * 
 127:ADPD1080.c    ****  * @param 
 128:ADPD1080.c    ****  *  
 129:ADPD1080.c    ****  * @return none
 130:ADPD1080.c    ****  * 
 131:ADPD1080.c    ****  * @remarks INT_MASK settings are a bit weird ... (see ADPD_1Sensor.ino code)
 132:ADPD1080.c    ****  */
 133:ADPD1080.c    **** void ADPD1080_SetFIFO(void) {
 335              		.loc 1 133 0
 336              		.cfi_startproc
 337              		@ args = 0, pretend = 0, frame = 0
 338              		@ frame_needed = 0, uses_anonymous_args = 0
 339 0000 08B5     		push	{r3, lr}
 340              		.cfi_def_cfa_offset 8
 341              		.cfi_offset 3, -8
 342              		.cfi_offset 14, -4
 134:ADPD1080.c    ****     // TODO: check this function, very different from original code
 135:ADPD1080.c    ****     ADPD1080_WriteReg(ADPD1080_SLOT_EN, 0x1021);
 343              		.loc 1 135 0
 344 0002 41F22101 		movw	r1, #4129
 345 0006 1120     		movs	r0, #17
 346 0008 FFF7FEFF 		bl	ADPD1080_WriteReg
 347              	.LVL51:
 136:ADPD1080.c    ****     ADPD1080_WriteReg(ADPD1080_FIFO_THRESH, 0x1F00);
 348              		.loc 1 136 0
 349 000c 4FF4F851 		mov	r1, #7936
 350 0010 0620     		movs	r0, #6
 351 0012 FFF7FEFF 		bl	ADPD1080_WriteReg
 352              	.LVL52:
 137:ADPD1080.c    ****     ADPD1080_WriteReg(ADPD1080_INT_MASK, 0xC0FF);
 353              		.loc 1 137 0
 354 0016 4CF2FF01 		movw	r1, #49407
 355 001a 0120     		movs	r0, #1
 356 001c FFF7FEFF 		bl	ADPD1080_WriteReg
 357              	.LVL53:
 138:ADPD1080.c    ****     ADPD1080_WriteReg(ADPD1080_GPIO_CTRL, 0x101);
 358              		.loc 1 138 0
 359 0020 40F20111 		movw	r1, #257
 360 0024 0B20     		movs	r0, #11
 361 0026 FFF7FEFF 		bl	ADPD1080_WriteReg
 362              	.LVL54:
 139:ADPD1080.c    ****     ADPD1080_WriteReg(ADPD1080_GPIO_DRV, 0x05);
 363              		.loc 1 139 0
 364 002a 0521     		movs	r1, #5
 365 002c 0220     		movs	r0, #2
 366 002e FFF7FEFF 		bl	ADPD1080_WriteReg
 367              	.LVL55:
 368 0032 08BD     		pop	{r3, pc}
 369              		.cfi_endproc
ARM GAS  C:\Users\thoma\AppData\Local\Temp\ccnG09iM.s 			page 10


 370              	.LFE541:
 371              		.size	ADPD1080_SetFIFO, .-ADPD1080_SetFIFO
 372              		.section	.text.ADPD1080_SelectLED,"ax",%progbits
 373              		.align	2
 374              		.global	ADPD1080_SelectLED
 375              		.thumb
 376              		.thumb_func
 377              		.type	ADPD1080_SelectLED, %function
 378              	ADPD1080_SelectLED:
 379              	.LFB542:
 140:ADPD1080.c    **** }
 141:ADPD1080.c    **** 
 142:ADPD1080.c    **** /**
 143:ADPD1080.c    ****  * @brief Select the LED to be used for a time slot
 144:ADPD1080.c    ****  * 
 145:ADPD1080.c    ****  * @param enLEDNumber - specifies the LED to be used.
 146:ADPD1080.c    ****  * 
 147:ADPD1080.c    ****  * @param enSlot - time slot to be used (SlotA or SlotB)
 148:ADPD1080.c    ****  *  
 149:ADPD1080.c    ****  * @return true if successful - false if failure 
 150:ADPD1080.c    ****  */
 151:ADPD1080.c    **** bool ADPD1080_SelectLED(ADPD1080_LED enLEDNumber, ADPD1080_TimeSlot enSlot) {
 380              		.loc 1 151 0
 381              		.cfi_startproc
 382              		@ args = 0, pretend = 0, frame = 0
 383              		@ frame_needed = 0, uses_anonymous_args = 0
 384              	.LVL56:
 385 0000 08B5     		push	{r3, lr}
 386              		.cfi_def_cfa_offset 8
 387              		.cfi_offset 3, -8
 388              		.cfi_offset 14, -4
 152:ADPD1080.c    ****     (void) enLEDNumber;
 153:ADPD1080.c    ****     (void) enSlot;
 154:ADPD1080.c    ****     uint16_t regValue = ADPD1080_ReadReg(ADPD1080_PD_LED_SELECT);
 389              		.loc 1 154 0
 390 0002 1420     		movs	r0, #20
 391              	.LVL57:
 392 0004 FFF7FEFF 		bl	ADPD1080_ReadReg
 393              	.LVL58:
 155:ADPD1080.c    ****     //if (enSlot == 0) { // SLOTA
 156:ADPD1080.c    ****         //regValue = regValue & (0xFFFD | enLEDNumber);//!!!!!!!!!!!!!!!!!!!!!1101
 157:ADPD1080.c    ****     //} else { // SLOTB
 158:ADPD1080.c    ****         //regValue = regValue & (0xFFFB | enLEDNumber << 2);//!!!!!!!!!!!!!!!!!!!!!1011
 159:ADPD1080.c    ****     //}
 160:ADPD1080.c    ****     regValue = (regValue & 0xFFF0) | 0x0009;//!!!!!!!!!!!!!!!!!!!!!1101
 394              		.loc 1 160 0
 395 0008 20F00F00 		bic	r0, r0, #15
 396              	.LVL59:
 397 000c 40F00901 		orr	r1, r0, #9
 398 0010 09B2     		sxth	r1, r1
 399 0012 89B2     		uxth	r1, r1
 400              	.LVL60:
 161:ADPD1080.c    ****     return ADPD1080_WriteReg(ADPD1080_PD_LED_SELECT, regValue);
 401              		.loc 1 161 0
 402 0014 1420     		movs	r0, #20
 403 0016 FFF7FEFF 		bl	ADPD1080_WriteReg
 404              	.LVL61:
ARM GAS  C:\Users\thoma\AppData\Local\Temp\ccnG09iM.s 			page 11


 162:ADPD1080.c    **** }
 405              		.loc 1 162 0
 406 001a 08BD     		pop	{r3, pc}
 407              		.cfi_endproc
 408              	.LFE542:
 409              		.size	ADPD1080_SelectLED, .-ADPD1080_SelectLED
 410              		.section	.text.ADPD1080_DeselectLEDs,"ax",%progbits
 411              		.align	2
 412              		.global	ADPD1080_DeselectLEDs
 413              		.thumb
 414              		.thumb_func
 415              		.type	ADPD1080_DeselectLEDs, %function
 416              	ADPD1080_DeselectLEDs:
 417              	.LFB543:
 163:ADPD1080.c    **** 
 164:ADPD1080.c    **** /**
 165:ADPD1080.c    ****  * @brief Unselect the LEDs for each time slot.
 166:ADPD1080.c    ****  * 
 167:ADPD1080.c    ****  * @param 
 168:ADPD1080.c    ****  *  
 169:ADPD1080.c    ****  * @return true if successful - false if failure 
 170:ADPD1080.c    ****  */
 171:ADPD1080.c    **** bool ADPD1080_DeselectLEDs(void){
 418              		.loc 1 171 0
 419              		.cfi_startproc
 420              		@ args = 0, pretend = 0, frame = 0
 421              		@ frame_needed = 0, uses_anonymous_args = 0
 422 0000 08B5     		push	{r3, lr}
 423              		.cfi_def_cfa_offset 8
 424              		.cfi_offset 3, -8
 425              		.cfi_offset 14, -4
 172:ADPD1080.c    ****     return ADPD1080_WriteReg(ADPD1080_PD_LED_SELECT, 0xFFF0);
 426              		.loc 1 172 0
 427 0002 4FF6F071 		movw	r1, #65520
 428 0006 1420     		movs	r0, #20
 429 0008 FFF7FEFF 		bl	ADPD1080_WriteReg
 430              	.LVL62:
 173:ADPD1080.c    **** }
 431              		.loc 1 173 0
 432 000c 08BD     		pop	{r3, pc}
 433              		.cfi_endproc
 434              	.LFE543:
 435              		.size	ADPD1080_DeselectLEDs, .-ADPD1080_DeselectLEDs
 436 000e 00BF     		.section	.text.ADPD1080_ReadDataRegs,"ax",%progbits
 437              		.align	2
 438              		.global	ADPD1080_ReadDataRegs
 439              		.thumb
 440              		.thumb_func
 441              		.type	ADPD1080_ReadDataRegs, %function
 442              	ADPD1080_ReadDataRegs:
 443              	.LFB544:
 174:ADPD1080.c    **** 
 175:ADPD1080.c    **** /**
 176:ADPD1080.c    ****  * @brief Reads the data register for each time slot
 177:ADPD1080.c    ****  * 
 178:ADPD1080.c    ****  * @param *dataSlotA - 
 179:ADPD1080.c    ****  * 
ARM GAS  C:\Users\thoma\AppData\Local\Temp\ccnG09iM.s 			page 12


 180:ADPD1080.c    ****  * @param *dataSlotB - 
 181:ADPD1080.c    ****  * 
 182:ADPD1080.c    ****  * @param count - 
 183:ADPD1080.c    ****  *  
 184:ADPD1080.c    ****  * @return none
 185:ADPD1080.c    ****  * 
 186:ADPD1080.c    ****  * @remarks timer_sleep has been commented but it may be required ...
 187:ADPD1080.c    ****  */
 188:ADPD1080.c    **** void ADPD1080_ReadDataRegs(volatile uint16_t *dataSlotA, volatile uint16_t *dataSlotB, uint8_t coun
 444              		.loc 1 188 0
 445              		.cfi_startproc
 446              		@ args = 0, pretend = 0, frame = 0
 447              		@ frame_needed = 0, uses_anonymous_args = 0
 448              	.LVL63:
 449 0000 F8B5     		push	{r3, r4, r5, r6, r7, lr}
 450              		.cfi_def_cfa_offset 24
 451              		.cfi_offset 3, -24
 452              		.cfi_offset 4, -20
 453              		.cfi_offset 5, -16
 454              		.cfi_offset 6, -12
 455              		.cfi_offset 7, -8
 456              		.cfi_offset 14, -4
 457 0002 0746     		mov	r7, r0
 458 0004 0E46     		mov	r6, r1
 459 0006 1546     		mov	r5, r2
 460              	.LVL64:
 461              	.LBB2:
 189:ADPD1080.c    ****     for (uint8_t i = 0; i < count; i++) {
 462              		.loc 1 189 0
 463 0008 0024     		movs	r4, #0
 464 000a 0FE0     		b	.L26
 465              	.LVL65:
 466              	.L27:
 190:ADPD1080.c    ****         dataSlotA[i] = ADPD1080_ReadReg(0x64 + i);
 467              		.loc 1 190 0 discriminator 3
 468 000c 04F16400 		add	r0, r4, #100
 469 0010 C0B2     		uxtb	r0, r0
 470 0012 FFF7FEFF 		bl	ADPD1080_ReadReg
 471              	.LVL66:
 472 0016 27F81400 		strh	r0, [r7, r4, lsl #1]	@ movhi
 191:ADPD1080.c    ****         dataSlotB[i] = ADPD1080_ReadReg(0x68 + i);
 473              		.loc 1 191 0 discriminator 3
 474 001a 04F16800 		add	r0, r4, #104
 475 001e C0B2     		uxtb	r0, r0
 476 0020 FFF7FEFF 		bl	ADPD1080_ReadReg
 477              	.LVL67:
 478 0024 26F81400 		strh	r0, [r6, r4, lsl #1]	@ movhi
 189:ADPD1080.c    ****     for (uint8_t i = 0; i < count; i++) {
 479              		.loc 1 189 0 discriminator 3
 480 0028 0134     		adds	r4, r4, #1
 481              	.LVL68:
 482 002a E4B2     		uxtb	r4, r4
 483              	.LVL69:
 484              	.L26:
 189:ADPD1080.c    ****     for (uint8_t i = 0; i < count; i++) {
 485              		.loc 1 189 0 is_stmt 0 discriminator 1
 486 002c AC42     		cmp	r4, r5
ARM GAS  C:\Users\thoma\AppData\Local\Temp\ccnG09iM.s 			page 13


 487 002e EDD3     		bcc	.L27
 488              	.LBE2:
 192:ADPD1080.c    ****     }
 193:ADPD1080.c    **** }
 489              		.loc 1 193 0 is_stmt 1
 490 0030 F8BD     		pop	{r3, r4, r5, r6, r7, pc}
 491              		.cfi_endproc
 492              	.LFE544:
 493              		.size	ADPD1080_ReadDataRegs, .-ADPD1080_ReadDataRegs
 494 0032 00BF     		.section	.text.ADPD1080_SetLEDWidthOffset,"ax",%progbits
 495              		.align	2
 496              		.global	ADPD1080_SetLEDWidthOffset
 497              		.thumb
 498              		.thumb_func
 499              		.type	ADPD1080_SetLEDWidthOffset, %function
 500              	ADPD1080_SetLEDWidthOffset:
 501              	.LFB545:
 194:ADPD1080.c    **** 
 195:ADPD1080.c    **** /**
 196:ADPD1080.c    ****  * @brief Set the width and offset for led pulse.
 197:ADPD1080.c    ****  * 
 198:ADPD1080.c    ****  * @param enSlot - time slot (SlotA or SlotB)
 199:ADPD1080.c    ****  * @param u8Width - the width of the led pulse (1us step)
 200:ADPD1080.c    ****  * @param u8Offset - the offset of the led pulse (1us step)
 201:ADPD1080.c    ****  * 
 202:ADPD1080.c    ****  * @return true if successfull - false if failure 
 203:ADPD1080.c    ****  */
 204:ADPD1080.c    **** bool ADPD1080_SetLEDWidthOffset(ADPD1080_TimeSlot enSlot, uint8_t width, uint8_t offset) {
 502              		.loc 1 204 0
 503              		.cfi_startproc
 504              		@ args = 0, pretend = 0, frame = 0
 505              		@ frame_needed = 0, uses_anonymous_args = 0
 506              	.LVL70:
 507 0000 08B5     		push	{r3, lr}
 508              		.cfi_def_cfa_offset 8
 509              		.cfi_offset 3, -8
 510              		.cfi_offset 14, -4
 205:ADPD1080.c    ****     uint16_t regValue = offset + ((width & 0x1F) << 8);
 511              		.loc 1 205 0
 512 0002 0902     		lsls	r1, r1, #8
 513              	.LVL71:
 514 0004 01F4F851 		and	r1, r1, #7936
 515 0008 1144     		add	r1, r1, r2
 516              	.LVL72:
 206:ADPD1080.c    ****     if (enSlot == SLOTA) {
 517              		.loc 1 206 0
 518 000a 18B9     		cbnz	r0, .L30
 207:ADPD1080.c    ****         return ADPD1080_WriteReg(ADPD1080_SLOTA_LED_PULSE, regValue);
 519              		.loc 1 207 0
 520 000c 3020     		movs	r0, #48
 521              	.LVL73:
 522 000e FFF7FEFF 		bl	ADPD1080_WriteReg
 523              	.LVL74:
 524 0012 08BD     		pop	{r3, pc}
 525              	.LVL75:
 526              	.L30:
 208:ADPD1080.c    ****     } 
ARM GAS  C:\Users\thoma\AppData\Local\Temp\ccnG09iM.s 			page 14


 209:ADPD1080.c    ****     else { // SLOTB
 210:ADPD1080.c    ****         return ADPD1080_WriteReg(ADPD1080_SLOTB_LED_PULSE, regValue);
 527              		.loc 1 210 0
 528 0014 3520     		movs	r0, #53
 529              	.LVL76:
 530 0016 FFF7FEFF 		bl	ADPD1080_WriteReg
 531              	.LVL77:
 211:ADPD1080.c    ****     }
 212:ADPD1080.c    **** }
 532              		.loc 1 212 0
 533 001a 08BD     		pop	{r3, pc}
 534              		.cfi_endproc
 535              	.LFE545:
 536              		.size	ADPD1080_SetLEDWidthOffset, .-ADPD1080_SetLEDWidthOffset
 537              		.section	.text.ADPD1080_SetAFEWidthOffset,"ax",%progbits
 538              		.align	2
 539              		.global	ADPD1080_SetAFEWidthOffset
 540              		.thumb
 541              		.thumb_func
 542              		.type	ADPD1080_SetAFEWidthOffset, %function
 543              	ADPD1080_SetAFEWidthOffset:
 544              	.LFB546:
 213:ADPD1080.c    **** 
 214:ADPD1080.c    **** /**
 215:ADPD1080.c    ****  * @brief Set the width and offset for AFE integration.
 216:ADPD1080.c    ****  * 
 217:ADPD1080.c    ****  * @param enSlot - time slot (SlotA or SlotB)
 218:ADPD1080.c    ****  * @param u8Width - the width of the AFE integration window (1us step)
 219:ADPD1080.c    ****  * @param u8Offset - the offset of the AFE integration window (1us step)
 220:ADPD1080.c    ****  * @param u8FineOffset - the fine offset of the AFE integration window (31.25 ns step)
 221:ADPD1080.c    ****  * 
 222:ADPD1080.c    ****  * @return true if successful - false if failure 
 223:ADPD1080.c    ****  */
 224:ADPD1080.c    **** bool ADPD1080_SetAFEWidthOffset(ADPD1080_TimeSlot enSlot, uint8_t width, uint8_t offset, uint8_t fi
 545              		.loc 1 224 0
 546              		.cfi_startproc
 547              		@ args = 0, pretend = 0, frame = 0
 548              		@ frame_needed = 0, uses_anonymous_args = 0
 549              	.LVL78:
 550 0000 10B5     		push	{r4, lr}
 551              		.cfi_def_cfa_offset 8
 552              		.cfi_offset 4, -8
 553              		.cfi_offset 14, -4
 554              	.LVL79:
 225:ADPD1080.c    ****     uint16_t regValue = 0;
 226:ADPD1080.c    **** 
 227:ADPD1080.c    ****     if (enSlot == SLOTA) {
 555              		.loc 1 227 0
 556 0002 68B9     		cbnz	r0, .L34
 228:ADPD1080.c    ****         regValue = (uint16_t)(fineOffset & 0x1F) + 
 229:ADPD1080.c    ****             (uint16_t)((offset & 0x3F) << 5) +
 230:ADPD1080.c    ****             (uint16_t)((width & 0x1F) << 11);
 557              		.loc 1 230 0
 558 0004 C902     		lsls	r1, r1, #11
 559              	.LVL80:
 560 0006 8CB2     		uxth	r4, r1
 228:ADPD1080.c    ****         regValue = (uint16_t)(fineOffset & 0x1F) + 
ARM GAS  C:\Users\thoma\AppData\Local\Temp\ccnG09iM.s 			page 15


 561              		.loc 1 228 0
 562 0008 5201     		lsls	r2, r2, #5
 563              	.LVL81:
 564 000a 02F4FC60 		and	r0, r2, #2016
 565              	.LVL82:
 566 000e 03F01F01 		and	r1, r3, #31
 567 0012 0A18     		adds	r2, r1, r0
 568 0014 A118     		adds	r1, r4, r2
 569              	.LVL83:
 231:ADPD1080.c    ****         return ADPD1080_WriteReg(ADPD1080_SLOTA_AFE_WINDOW, regValue);        
 570              		.loc 1 231 0
 571 0016 89B2     		uxth	r1, r1
 572 0018 3920     		movs	r0, #57
 573 001a FFF7FEFF 		bl	ADPD1080_WriteReg
 574              	.LVL84:
 575 001e 10BD     		pop	{r4, pc}
 576              	.LVL85:
 577              	.L34:
 232:ADPD1080.c    ****     } 
 233:ADPD1080.c    ****     else { // SLOTB
 234:ADPD1080.c    ****         regValue = (uint16_t)(fineOffset & 0x1F) +
 235:ADPD1080.c    ****             (uint16_t)((offset & 0x3F) << 5) +
 236:ADPD1080.c    ****             (uint16_t)((width & 0x1F) << 11);
 578              		.loc 1 236 0
 579 0020 C902     		lsls	r1, r1, #11
 580              	.LVL86:
 581 0022 88B2     		uxth	r0, r1
 582              	.LVL87:
 234:ADPD1080.c    ****             (uint16_t)((offset & 0x3F) << 5) +
 583              		.loc 1 234 0
 584 0024 5201     		lsls	r2, r2, #5
 585              	.LVL88:
 586 0026 02F4FC62 		and	r2, r2, #2016
 587 002a 03F01F01 		and	r1, r3, #31
 588 002e 0A44     		add	r2, r2, r1
 589 0030 8118     		adds	r1, r0, r2
 590              	.LVL89:
 237:ADPD1080.c    ****         return ADPD1080_WriteReg(ADPD1080_SLOTB_AFE_WINDOW, regValue);        
 591              		.loc 1 237 0
 592 0032 89B2     		uxth	r1, r1
 593 0034 3B20     		movs	r0, #59
 594 0036 FFF7FEFF 		bl	ADPD1080_WriteReg
 595              	.LVL90:
 238:ADPD1080.c    ****     }
 239:ADPD1080.c    **** }
 596              		.loc 1 239 0
 597 003a 10BD     		pop	{r4, pc}
 598              		.cfi_endproc
 599              	.LFE546:
 600              		.size	ADPD1080_SetAFEWidthOffset, .-ADPD1080_SetAFEWidthOffset
 601              		.section	.text.ADPD1080_SetTIAGain,"ax",%progbits
 602              		.align	2
 603              		.global	ADPD1080_SetTIAGain
 604              		.thumb
 605              		.thumb_func
 606              		.type	ADPD1080_SetTIAGain, %function
 607              	ADPD1080_SetTIAGain:
ARM GAS  C:\Users\thoma\AppData\Local\Temp\ccnG09iM.s 			page 16


 608              	.LFB547:
 240:ADPD1080.c    **** 
 241:ADPD1080.c    **** /**
 242:ADPD1080.c    ****  * @brief Set the transimpendance amplifier gain.
 243:ADPD1080.c    ****  * 
 244:ADPD1080.c    ****  * @param enSlot - time slot (SlotA or SlotB)
 245:ADPD1080.c    ****  * @param enTIAGain - TIA gain value
 246:ADPD1080.c    ****  * 
 247:ADPD1080.c    ****  * @return true if successful - false if failure 
 248:ADPD1080.c    ****  */
 249:ADPD1080.c    **** bool ADPD1080_SetTIAGain(uint8_t enSlot, ADPD1080_TIAGain enTIAGain) {
 609              		.loc 1 249 0
 610              		.cfi_startproc
 611              		@ args = 0, pretend = 0, frame = 0
 612              		@ frame_needed = 0, uses_anonymous_args = 0
 613              	.LVL91:
 614 0000 08B5     		push	{r3, lr}
 615              		.cfi_def_cfa_offset 8
 616              		.cfi_offset 3, -8
 617              		.cfi_offset 14, -4
 250:ADPD1080.c    ****     if (enSlot == SLOTA) {
 618              		.loc 1 250 0
 619 0002 18B9     		cbnz	r0, .L38
 251:ADPD1080.c    ****         return ADPD1080_WriteReg(ADPD1080_SLOTA_TIA_CFG, enTIAGain);
 620              		.loc 1 251 0
 621 0004 4220     		movs	r0, #66
 622              	.LVL92:
 623 0006 FFF7FEFF 		bl	ADPD1080_WriteReg
 624              	.LVL93:
 625 000a 08BD     		pop	{r3, pc}
 626              	.LVL94:
 627              	.L38:
 252:ADPD1080.c    ****     } 
 253:ADPD1080.c    ****     else { // SLOTB
 254:ADPD1080.c    ****         return ADPD1080_WriteReg(ADPD1080_SLOTB_TIA_CFG, enTIAGain);
 628              		.loc 1 254 0
 629 000c 4420     		movs	r0, #68
 630              	.LVL95:
 631 000e FFF7FEFF 		bl	ADPD1080_WriteReg
 632              	.LVL96:
 255:ADPD1080.c    ****     }
 256:ADPD1080.c    **** }
 633              		.loc 1 256 0
 634 0012 08BD     		pop	{r3, pc}
 635              		.cfi_endproc
 636              	.LFE547:
 637              		.size	ADPD1080_SetTIAGain, .-ADPD1080_SetTIAGain
 638              		.section	.text.ADPD1080_SetSamplingFrequency,"ax",%progbits
 639              		.align	2
 640              		.global	ADPD1080_SetSamplingFrequency
 641              		.thumb
 642              		.thumb_func
 643              		.type	ADPD1080_SetSamplingFrequency, %function
 644              	ADPD1080_SetSamplingFrequency:
 645              	.LFB548:
 257:ADPD1080.c    **** 
 258:ADPD1080.c    **** /**
ARM GAS  C:\Users\thoma\AppData\Local\Temp\ccnG09iM.s 			page 17


 259:ADPD1080.c    ****  * @brief Set the sampling frequency value.
 260:ADPD1080.c    ****  * 
 261:ADPD1080.c    ****  * @param u16Frequency - sampling frequency value
 262:ADPD1080.c    ****  * 
 263:ADPD1080.c    ****  * @return true if successful - false if failure 
 264:ADPD1080.c    ****  */
 265:ADPD1080.c    **** bool ADPD1080_SetSamplingFrequency(uint16_t frequency) {
 646              		.loc 1 265 0
 647              		.cfi_startproc
 648              		@ args = 0, pretend = 0, frame = 0
 649              		@ frame_needed = 0, uses_anonymous_args = 0
 650              	.LVL97:
 651 0000 08B5     		push	{r3, lr}
 652              		.cfi_def_cfa_offset 8
 653              		.cfi_offset 3, -8
 654              		.cfi_offset 14, -4
 655              	.LVL98:
 266:ADPD1080.c    ****     uint16_t regValue = 32000 / frequency / 4;
 267:ADPD1080.c    **** 
 268:ADPD1080.c    ****     return ADPD1080_WriteReg(ADPD1080_FSAMPLE, regValue);
 656              		.loc 1 268 0
 657 0002 4FF4FA51 		mov	r1, #8000
 658 0006 91FBF0F1 		sdiv	r1, r1, r0
 659 000a 1220     		movs	r0, #18
 660              	.LVL99:
 661 000c FFF7FEFF 		bl	ADPD1080_WriteReg
 662              	.LVL100:
 269:ADPD1080.c    **** }
 663              		.loc 1 269 0
 664 0010 08BD     		pop	{r3, pc}
 665              		.cfi_endproc
 666              	.LFE548:
 667              		.size	ADPD1080_SetSamplingFrequency, .-ADPD1080_SetSamplingFrequency
 668 0012 00BF     		.section	.text.ADPD1080_SetAverageFactor,"ax",%progbits
 669              		.align	2
 670              		.global	ADPD1080_SetAverageFactor
 671              		.thumb
 672              		.thumb_func
 673              		.type	ADPD1080_SetAverageFactor, %function
 674              	ADPD1080_SetAverageFactor:
 675              	.LFB549:
 270:ADPD1080.c    **** 
 271:ADPD1080.c    **** /**
 272:ADPD1080.c    ****  * @brief Set the value of the average factor N.
 273:ADPD1080.c    ****  * 
 274:ADPD1080.c    ****  * @param enAverage - average factor value
 275:ADPD1080.c    ****  * 
 276:ADPD1080.c    ****  * @return true if successful - false if failure 
 277:ADPD1080.c    ****  */
 278:ADPD1080.c    **** bool ADPD1080_SetAverageFactor(ADPD1080_AverageN enAverage) {
 676              		.loc 1 278 0
 677              		.cfi_startproc
 678              		@ args = 0, pretend = 0, frame = 0
 679              		@ frame_needed = 0, uses_anonymous_args = 0
 680              	.LVL101:
 681 0000 08B5     		push	{r3, lr}
 682              		.cfi_def_cfa_offset 8
ARM GAS  C:\Users\thoma\AppData\Local\Temp\ccnG09iM.s 			page 18


 683              		.cfi_offset 3, -8
 684              		.cfi_offset 14, -4
 279:ADPD1080.c    ****     uint16_t regValue = (enAverage << 4) | (enAverage << 8);
 685              		.loc 1 279 0
 686 0002 0102     		lsls	r1, r0, #8
 687              	.LVL102:
 280:ADPD1080.c    **** 
 281:ADPD1080.c    ****     return ADPD1080_WriteReg(ADPD1080_NUM_AVG, regValue);
 688              		.loc 1 281 0
 689 0004 41EA0011 		orr	r1, r1, r0, lsl #4
 690              	.LVL103:
 691 0008 1520     		movs	r0, #21
 692              	.LVL104:
 693 000a FFF7FEFF 		bl	ADPD1080_WriteReg
 694              	.LVL105:
 282:ADPD1080.c    **** }
 695              		.loc 1 282 0
 696 000e 08BD     		pop	{r3, pc}
 697              		.cfi_endproc
 698              	.LFE549:
 699              		.size	ADPD1080_SetAverageFactor, .-ADPD1080_SetAverageFactor
 700              		.section	.text.ADPD1080_SetADCClock,"ax",%progbits
 701              		.align	2
 702              		.global	ADPD1080_SetADCClock
 703              		.thumb
 704              		.thumb_func
 705              		.type	ADPD1080_SetADCClock, %function
 706              	ADPD1080_SetADCClock:
 707              	.LFB550:
 283:ADPD1080.c    **** 
 284:ADPD1080.c    **** /**
 285:ADPD1080.c    ****  * @brief Set the ADC clock speed.
 286:ADPD1080.c    ****  * 
 287:ADPD1080.c    ****  * @param enADCClock - ADC clock speed value
 288:ADPD1080.c    ****  * 
 289:ADPD1080.c    ****  * @return true if successful - false if failure 
 290:ADPD1080.c    ****  */
 291:ADPD1080.c    **** bool ADPD1080_SetADCClock(ADPD1080_ADCClockSpeed enADCClock){
 708              		.loc 1 291 0
 709              		.cfi_startproc
 710              		@ args = 0, pretend = 0, frame = 0
 711              		@ frame_needed = 0, uses_anonymous_args = 0
 712              	.LVL106:
 713 0000 08B5     		push	{r3, lr}
 714              		.cfi_def_cfa_offset 8
 715              		.cfi_offset 3, -8
 716              		.cfi_offset 14, -4
 292:ADPD1080.c    ****   return ADPD1080_WriteReg(ADPD1080_ADC_CLOCK, enADCClock);
 717              		.loc 1 292 0
 718 0002 0146     		mov	r1, r0
 719 0004 4E20     		movs	r0, #78
 720              	.LVL107:
 721 0006 FFF7FEFF 		bl	ADPD1080_WriteReg
 722              	.LVL108:
 293:ADPD1080.c    **** }
 723              		.loc 1 293 0
 724 000a 08BD     		pop	{r3, pc}
ARM GAS  C:\Users\thoma\AppData\Local\Temp\ccnG09iM.s 			page 19


 725              		.cfi_endproc
 726              	.LFE550:
 727              		.size	ADPD1080_SetADCClock, .-ADPD1080_SetADCClock
 728              		.section	.text.ADPD1080_SetDigitalClock,"ax",%progbits
 729              		.align	2
 730              		.global	ADPD1080_SetDigitalClock
 731              		.thumb
 732              		.thumb_func
 733              		.type	ADPD1080_SetDigitalClock, %function
 734              	ADPD1080_SetDigitalClock:
 735              	.LFB551:
 294:ADPD1080.c    **** 
 295:ADPD1080.c    **** /**
 296:ADPD1080.c    ****  * @brief Enable the digital clock.
 297:ADPD1080.c    ****  * 
 298:ADPD1080.c    ****  * @return true if successful - false if failure 
 299:ADPD1080.c    ****  */
 300:ADPD1080.c    **** bool ADPD1080_SetDigitalClock(void) {
 736              		.loc 1 300 0
 737              		.cfi_startproc
 738              		@ args = 0, pretend = 0, frame = 0
 739              		@ frame_needed = 0, uses_anonymous_args = 0
 740 0000 08B5     		push	{r3, lr}
 741              		.cfi_def_cfa_offset 8
 742              		.cfi_offset 3, -8
 743              		.cfi_offset 14, -4
 301:ADPD1080.c    ****     uint16_t origin = ADPD1080_ReadReg(ADPD1080_DATA_ACCESS_CTL);
 744              		.loc 1 301 0
 745 0002 5F20     		movs	r0, #95
 746 0004 FFF7FEFF 		bl	ADPD1080_ReadReg
 747              	.LVL109:
 302:ADPD1080.c    ****     uint16_t new = origin | 0x1;
 748              		.loc 1 302 0
 749 0008 40F00101 		orr	r1, r0, #1
 750              	.LVL110:
 303:ADPD1080.c    ****     return ADPD1080_WriteReg(ADPD1080_DATA_ACCESS_CTL, new);
 751              		.loc 1 303 0
 752 000c 89B2     		uxth	r1, r1
 753 000e 5F20     		movs	r0, #95
 754              	.LVL111:
 755 0010 FFF7FEFF 		bl	ADPD1080_WriteReg
 756              	.LVL112:
 304:ADPD1080.c    **** }
 757              		.loc 1 304 0
 758 0014 08BD     		pop	{r3, pc}
 759              		.cfi_endproc
 760              	.LFE551:
 761              		.size	ADPD1080_SetDigitalClock, .-ADPD1080_SetDigitalClock
 762 0016 00BF     		.section	.text.ADPD1080_Reset,"ax",%progbits
 763              		.align	2
 764              		.global	ADPD1080_Reset
 765              		.thumb
 766              		.thumb_func
 767              		.type	ADPD1080_Reset, %function
 768              	ADPD1080_Reset:
 769              	.LFB552:
 305:ADPD1080.c    **** 
ARM GAS  C:\Users\thoma\AppData\Local\Temp\ccnG09iM.s 			page 20


 306:ADPD1080.c    **** /**
 307:ADPD1080.c    ****  * @brief Software reset of the ADPD1080
 308:ADPD1080.c    ****  * 
 309:ADPD1080.c    ****  * @return true if successful - false if failure 
 310:ADPD1080.c    ****  */
 311:ADPD1080.c    **** bool ADPD1080_Reset(void) {
 770              		.loc 1 311 0
 771              		.cfi_startproc
 772              		@ args = 0, pretend = 0, frame = 0
 773              		@ frame_needed = 0, uses_anonymous_args = 0
 774 0000 08B5     		push	{r3, lr}
 775              		.cfi_def_cfa_offset 8
 776              		.cfi_offset 3, -8
 777              		.cfi_offset 14, -4
 312:ADPD1080.c    ****     return ADPD1080_WriteReg(ADPD1080_SW_RESET, 1); // write 0x0001; see datasheet p.68
 778              		.loc 1 312 0
 779 0002 0121     		movs	r1, #1
 780 0004 0F20     		movs	r0, #15
 781 0006 FFF7FEFF 		bl	ADPD1080_WriteReg
 782              	.LVL113:
 313:ADPD1080.c    **** }
 783              		.loc 1 313 0
 784 000a 08BD     		pop	{r3, pc}
 785              		.cfi_endproc
 786              	.LFE552:
 787              		.size	ADPD1080_Reset, .-ADPD1080_Reset
 788              		.section	.text.ADPD1080_SetOffset,"ax",%progbits
 789              		.align	2
 790              		.global	ADPD1080_SetOffset
 791              		.thumb
 792              		.thumb_func
 793              		.type	ADPD1080_SetOffset, %function
 794              	ADPD1080_SetOffset:
 795              	.LFB553:
 314:ADPD1080.c    **** 
 315:ADPD1080.c    **** /**
 316:ADPD1080.c    ****  * @brief Set channel offset.
 317:ADPD1080.c    ****  * 
 318:ADPD1080.c    ****  * @param enSlot - time slot (SlotA or SlotB)
 319:ADPD1080.c    ****  * @param stOffset - offset value
 320:ADPD1080.c    ****  * 
 321:ADPD1080.c    ****  * @return true if successful - false if failure
 322:ADPD1080.c    ****  */
 323:ADPD1080.c    **** void ADPD1080_SetOffset(ADPD1080_TimeSlot enSlot, struct ADPD1080_ChannelOffset stOffset) {
 796              		.loc 1 323 0
 797              		.cfi_startproc
 798              		@ args = 0, pretend = 0, frame = 8
 799              		@ frame_needed = 0, uses_anonymous_args = 0
 800              	.LVL114:
 801 0000 00B5     		push	{lr}
 802              		.cfi_def_cfa_offset 4
 803              		.cfi_offset 14, -4
 804 0002 83B0     		sub	sp, sp, #12
 805              		.cfi_def_cfa_offset 16
 806 0004 02AB     		add	r3, sp, #8
 807 0006 03E90600 		stmdb	r3, {r1, r2}
 324:ADPD1080.c    ****     if (enSlot == SLOTA) {
ARM GAS  C:\Users\thoma\AppData\Local\Temp\ccnG09iM.s 			page 21


 808              		.loc 1 324 0
 809 000a A0B9     		cbnz	r0, .L52
 325:ADPD1080.c    ****         ADPD1080_WriteReg(ADPD1080_SLOTA_CH1_OFFSET, stOffset.CH1Offset);
 810              		.loc 1 325 0
 811 000c BDF80010 		ldrh	r1, [sp]
 812 0010 1820     		movs	r0, #24
 813              	.LVL115:
 814 0012 FFF7FEFF 		bl	ADPD1080_WriteReg
 815              	.LVL116:
 326:ADPD1080.c    ****         ADPD1080_WriteReg(ADPD1080_SLOTA_CH2_OFFSET, stOffset.CH2Offset);
 816              		.loc 1 326 0
 817 0016 BDF80210 		ldrh	r1, [sp, #2]
 818 001a 1920     		movs	r0, #25
 819 001c FFF7FEFF 		bl	ADPD1080_WriteReg
 820              	.LVL117:
 327:ADPD1080.c    ****         ADPD1080_WriteReg(ADPD1080_SLOTA_CH3_OFFSET, stOffset.CH3Offset);
 821              		.loc 1 327 0
 822 0020 BDF80410 		ldrh	r1, [sp, #4]
 823 0024 1A20     		movs	r0, #26
 824 0026 FFF7FEFF 		bl	ADPD1080_WriteReg
 825              	.LVL118:
 328:ADPD1080.c    ****         ADPD1080_WriteReg(ADPD1080_SLOTA_CH4_OFFSET, stOffset.CH4Offset);
 826              		.loc 1 328 0
 827 002a BDF80610 		ldrh	r1, [sp, #6]
 828 002e 1B20     		movs	r0, #27
 829 0030 FFF7FEFF 		bl	ADPD1080_WriteReg
 830              	.LVL119:
 831 0034 13E0     		b	.L51
 832              	.LVL120:
 833              	.L52:
 329:ADPD1080.c    ****     } else { // SLOTB
 330:ADPD1080.c    ****         ADPD1080_WriteReg(ADPD1080_SLOTB_CH1_OFFSET, stOffset.CH1Offset);
 834              		.loc 1 330 0
 835 0036 BDF80010 		ldrh	r1, [sp]
 836 003a 1E20     		movs	r0, #30
 837              	.LVL121:
 838 003c FFF7FEFF 		bl	ADPD1080_WriteReg
 839              	.LVL122:
 331:ADPD1080.c    ****         ADPD1080_WriteReg(ADPD1080_SLOTB_CH2_OFFSET, stOffset.CH2Offset);
 840              		.loc 1 331 0
 841 0040 BDF80210 		ldrh	r1, [sp, #2]
 842 0044 1F20     		movs	r0, #31
 843 0046 FFF7FEFF 		bl	ADPD1080_WriteReg
 844              	.LVL123:
 332:ADPD1080.c    ****         ADPD1080_WriteReg(ADPD1080_SLOTB_CH3_OFFSET, stOffset.CH3Offset);
 845              		.loc 1 332 0
 846 004a BDF80410 		ldrh	r1, [sp, #4]
 847 004e 2020     		movs	r0, #32
 848 0050 FFF7FEFF 		bl	ADPD1080_WriteReg
 849              	.LVL124:
 333:ADPD1080.c    ****         ADPD1080_WriteReg(ADPD1080_SLOTB_CH4_OFFSET, stOffset.CH4Offset);
 850              		.loc 1 333 0
 851 0054 BDF80610 		ldrh	r1, [sp, #6]
 852 0058 2120     		movs	r0, #33
 853 005a FFF7FEFF 		bl	ADPD1080_WriteReg
 854              	.LVL125:
 855              	.L51:
ARM GAS  C:\Users\thoma\AppData\Local\Temp\ccnG09iM.s 			page 22


 334:ADPD1080.c    ****     }
 335:ADPD1080.c    **** }
 856              		.loc 1 335 0
 857 005e 03B0     		add	sp, sp, #12
 858              		.cfi_def_cfa_offset 4
 859              		@ sp needed
 860 0060 5DF804FB 		ldr	pc, [sp], #4
 861              		.cfi_endproc
 862              	.LFE553:
 863              		.size	ADPD1080_SetOffset, .-ADPD1080_SetOffset
 864              		.section	.text.ADPD1080_DisableLed,"ax",%progbits
 865              		.align	2
 866              		.global	ADPD1080_DisableLed
 867              		.thumb
 868              		.thumb_func
 869              		.type	ADPD1080_DisableLed, %function
 870              	ADPD1080_DisableLed:
 871              	.LFB554:
 336:ADPD1080.c    **** 
 337:ADPD1080.c    **** /**
 338:ADPD1080.c    ****  * @brief Disables the LEDs
 339:ADPD1080.c    ****  *  
 340:ADPD1080.c    ****  * @param enSlot - time slot (SlotA or SlotB)
 341:ADPD1080.c    ****  * 
 342:ADPD1080.c    ****  * @return true if successful - false if failure 
 343:ADPD1080.c    ****  */
 344:ADPD1080.c    **** bool ADPD1080_DisableLed(ADPD1080_TimeSlot enSlot) {
 872              		.loc 1 344 0
 873              		.cfi_startproc
 874              		@ args = 0, pretend = 0, frame = 0
 875              		@ frame_needed = 0, uses_anonymous_args = 0
 876              	.LVL126:
 877 0000 08B5     		push	{r3, lr}
 878              		.cfi_def_cfa_offset 8
 879              		.cfi_offset 3, -8
 880              		.cfi_offset 14, -4
 345:ADPD1080.c    ****     uint16_t regValue = ADPD1080_ReadReg(ADPD1080_LED_DISABLE);
 881              		.loc 1 345 0
 882 0002 3420     		movs	r0, #52
 883              	.LVL127:
 884 0004 FFF7FEFF 		bl	ADPD1080_ReadReg
 885              	.LVL128:
 346:ADPD1080.c    ****     (void) enSlot;
 347:ADPD1080.c    ****     //if (enSlot == SLOTA) {
 348:ADPD1080.c    ****         //regValue = regValue & (0xFCFF | (0x01 << 8));//!!!!!!!!!!!!!!!!!!!!! 8 bit 1
 349:ADPD1080.c    ****         //return ADPD1080_WriteReg(ADPD1080_LED_DISABLE, regValue);
 350:ADPD1080.c    ****     //} else { // SLOTB
 351:ADPD1080.c    ****         //regValue = regValue & (0xFCFF | (0x01 << 9));//!!!!!!!!!!!!!!!!!!!!!9 bit 1
 352:ADPD1080.c    ****         //return ADPD1080_WriteReg(ADPD1080_LED_DISABLE, regValue);
 353:ADPD1080.c    ****     //}
 354:ADPD1080.c    ****     regValue = (regValue & 0xFCFF) | (0x0300);//!!!!!!!!!!!!!!!!!!!!! 8 bit 1
 886              		.loc 1 354 0
 887 0008 40F44071 		orr	r1, r0, #768
 888              	.LVL129:
 355:ADPD1080.c    ****     return ADPD1080_WriteReg(ADPD1080_LED_DISABLE, regValue);
 889              		.loc 1 355 0
 890 000c 89B2     		uxth	r1, r1
ARM GAS  C:\Users\thoma\AppData\Local\Temp\ccnG09iM.s 			page 23


 891 000e 3420     		movs	r0, #52
 892 0010 FFF7FEFF 		bl	ADPD1080_WriteReg
 893              	.LVL130:
 356:ADPD1080.c    **** }
 894              		.loc 1 356 0
 895 0014 08BD     		pop	{r3, pc}
 896              		.cfi_endproc
 897              	.LFE554:
 898              		.size	ADPD1080_DisableLed, .-ADPD1080_DisableLed
 899 0016 00BF     		.section	.text.ADPD1080_EnableLed,"ax",%progbits
 900              		.align	2
 901              		.global	ADPD1080_EnableLed
 902              		.thumb
 903              		.thumb_func
 904              		.type	ADPD1080_EnableLed, %function
 905              	ADPD1080_EnableLed:
 906              	.LFB555:
 357:ADPD1080.c    **** 
 358:ADPD1080.c    **** /**
 359:ADPD1080.c    ****  * @brief Enable the LEDs
 360:ADPD1080.c    ****  *  
 361:ADPD1080.c    ****  * @param enSlot - time slot (SlotA or SlotB)
 362:ADPD1080.c    ****  * 
 363:ADPD1080.c    ****  * @return true if successful - false if failure 
 364:ADPD1080.c    ****  */
 365:ADPD1080.c    **** bool ADPD1080_EnableLed(ADPD1080_TimeSlot enSlot) {
 907              		.loc 1 365 0
 908              		.cfi_startproc
 909              		@ args = 0, pretend = 0, frame = 0
 910              		@ frame_needed = 0, uses_anonymous_args = 0
 911              	.LVL131:
 912 0000 08B5     		push	{r3, lr}
 913              		.cfi_def_cfa_offset 8
 914              		.cfi_offset 3, -8
 915              		.cfi_offset 14, -4
 366:ADPD1080.c    ****     (void) enSlot;
 367:ADPD1080.c    ****     uint16_t regValue = ADPD1080_ReadReg(ADPD1080_LED_DISABLE);
 916              		.loc 1 367 0
 917 0002 3420     		movs	r0, #52
 918              	.LVL132:
 919 0004 FFF7FEFF 		bl	ADPD1080_ReadReg
 920              	.LVL133:
 368:ADPD1080.c    ****     //if (enSlot == SLOTA) {
 369:ADPD1080.c    ****         //regValue = regValue & (0xFCFF | (0x00 << 8));//!!!!!!!!!!!!!!!!!!!!!8 bit 0
 370:ADPD1080.c    ****         //return ADPD1080_WriteReg(ADPD1080_LED_DISABLE, regValue);
 371:ADPD1080.c    ****     //} else { // SLOTB
 372:ADPD1080.c    ****         //regValue = regValue & (0xFCFF | (0x00 << 9));//!!!!!!!!!!!!!!!!!!!!!9 bit 0
 373:ADPD1080.c    ****         //return ADPD1080_WriteReg(ADPD1080_LED_DISABLE, regValue);
 374:ADPD1080.c    ****     //}
 375:ADPD1080.c    ****     regValue = (regValue & 0xFCFF);//!!!!!!!!!!!!!!!!!!!!! 8 bit 1
 921              		.loc 1 375 0
 922 0008 20F44070 		bic	r0, r0, #768
 923              	.LVL134:
 924 000c 81B2     		uxth	r1, r0
 925              	.LVL135:
 376:ADPD1080.c    ****     return ADPD1080_WriteReg(ADPD1080_LED_DISABLE, regValue);
 926              		.loc 1 376 0
ARM GAS  C:\Users\thoma\AppData\Local\Temp\ccnG09iM.s 			page 24


 927 000e 3420     		movs	r0, #52
 928 0010 FFF7FEFF 		bl	ADPD1080_WriteReg
 929              	.LVL136:
 377:ADPD1080.c    **** }
 930              		.loc 1 377 0
 931 0014 08BD     		pop	{r3, pc}
 932              		.cfi_endproc
 933              	.LFE555:
 934              		.size	ADPD1080_EnableLed, .-ADPD1080_EnableLed
 935 0016 00BF     		.section	.text.ADPD1080_SetPulseNumberPeriod,"ax",%progbits
 936              		.align	2
 937              		.global	ADPD1080_SetPulseNumberPeriod
 938              		.thumb
 939              		.thumb_func
 940              		.type	ADPD1080_SetPulseNumberPeriod, %function
 941              	ADPD1080_SetPulseNumberPeriod:
 942              	.LFB556:
 378:ADPD1080.c    **** 
 379:ADPD1080.c    **** /**
 380:ADPD1080.c    ****  * @brief Set the pulse number and period
 381:ADPD1080.c    ****  *  
 382:ADPD1080.c    ****  * @param enSlot - time slot (SlotA or SlotB)
 383:ADPD1080.c    ****  * @param u8PulseCount - number of pulses in selected time slot
 384:ADPD1080.c    ****  * @param u8PulsePeriod - period of the pulse
 385:ADPD1080.c    ****  * 
 386:ADPD1080.c    ****  * @return true if successful - false if failure 
 387:ADPD1080.c    ****  */
 388:ADPD1080.c    **** bool ADPD1080_SetPulseNumberPeriod(ADPD1080_TimeSlot enSlot, uint8_t pulseCount, uint8_t pulsePerio
 943              		.loc 1 388 0
 944              		.cfi_startproc
 945              		@ args = 0, pretend = 0, frame = 0
 946              		@ frame_needed = 0, uses_anonymous_args = 0
 947              	.LVL137:
 948 0000 08B5     		push	{r3, lr}
 949              		.cfi_def_cfa_offset 8
 950              		.cfi_offset 3, -8
 951              		.cfi_offset 14, -4
 389:ADPD1080.c    ****     uint16_t regValue = ((uint16_t)pulseCount << 8) | pulsePeriod;
 952              		.loc 1 389 0
 953 0002 42EA0121 		orr	r1, r2, r1, lsl #8
 954              	.LVL138:
 390:ADPD1080.c    **** 
 391:ADPD1080.c    ****     if (enSlot == SLOTA) {
 955              		.loc 1 391 0
 956 0006 18B9     		cbnz	r0, .L60
 392:ADPD1080.c    ****         return ADPD1080_WriteReg(ADPD1080_SLOTA_NUMPULSES, regValue);
 957              		.loc 1 392 0
 958 0008 3120     		movs	r0, #49
 959              	.LVL139:
 960 000a FFF7FEFF 		bl	ADPD1080_WriteReg
 961              	.LVL140:
 962 000e 08BD     		pop	{r3, pc}
 963              	.LVL141:
 964              	.L60:
 393:ADPD1080.c    ****     } else { // SLOTB
 394:ADPD1080.c    ****         return ADPD1080_WriteReg(ADPD1080_SLOTB_NUMPULSES, regValue);
 965              		.loc 1 394 0
ARM GAS  C:\Users\thoma\AppData\Local\Temp\ccnG09iM.s 			page 25


 966 0010 3620     		movs	r0, #54
 967              	.LVL142:
 968 0012 FFF7FEFF 		bl	ADPD1080_WriteReg
 969              	.LVL143:
 395:ADPD1080.c    ****     }
 396:ADPD1080.c    **** }
 970              		.loc 1 396 0
 971 0016 08BD     		pop	{r3, pc}
 972              		.cfi_endproc
 973              	.LFE556:
 974              		.size	ADPD1080_SetPulseNumberPeriod, .-ADPD1080_SetPulseNumberPeriod
 975              		.section	.text.turbidity_Init,"ax",%progbits
 976              		.align	2
 977              		.global	turbidity_Init
 978              		.thumb
 979              		.thumb_func
 980              		.type	turbidity_Init, %function
 981              	turbidity_Init:
 982              	.LFB557:
 397:ADPD1080.c    **** 
 398:ADPD1080.c    **** /* Controller Function Definitions */
 399:ADPD1080.c    **** void turbidity_Init(void) {
 983              		.loc 1 399 0
 984              		.cfi_startproc
 985              		@ args = 0, pretend = 0, frame = 0
 986              		@ frame_needed = 0, uses_anonymous_args = 0
 987 0000 08B5     		push	{r3, lr}
 988              		.cfi_def_cfa_offset 8
 989              		.cfi_offset 3, -8
 990              		.cfi_offset 14, -4
 400:ADPD1080.c    ****     
 401:ADPD1080.c    ****     ADPD1080_SetOperationMode(0x01);  // Set to program mode
 991              		.loc 1 401 0
 992 0002 0120     		movs	r0, #1
 993 0004 FFF7FEFF 		bl	ADPD1080_SetOperationMode
 994              	.LVL144:
 402:ADPD1080.c    ****     ADPD1080_WriteReg(0x0,0xFF);
 995              		.loc 1 402 0
 996 0008 FF21     		movs	r1, #255
 997 000a 0020     		movs	r0, #0
 998 000c FFF7FEFF 		bl	ADPD1080_WriteReg
 999              	.LVL145:
 403:ADPD1080.c    ****     ADPD1080_WriteReg(0x0F, 0x01);    // Reset
 1000              		.loc 1 403 0
 1001 0010 0121     		movs	r1, #1
 1002 0012 0F20     		movs	r0, #15
 1003 0014 FFF7FEFF 		bl	ADPD1080_WriteReg
 1004              	.LVL146:
 404:ADPD1080.c    ****     
 405:ADPD1080.c    ****     ADPD1080_SetOperationMode(0x01);  // Set to program mode
 1005              		.loc 1 405 0
 1006 0018 0120     		movs	r0, #1
 1007 001a FFF7FEFF 		bl	ADPD1080_SetOperationMode
 1008              	.LVL147:
 406:ADPD1080.c    ****     ADPD1080_Set32KCLK(1);            // Enable 32K clock
 1009              		.loc 1 406 0
 1010 001e 0120     		movs	r0, #1
ARM GAS  C:\Users\thoma\AppData\Local\Temp\ccnG09iM.s 			page 26


 1011 0020 FFF7FEFF 		bl	ADPD1080_Set32KCLK
 1012              	.LVL148:
 407:ADPD1080.c    ****     ADPD1080_SetTimeSlotSwitch(0x5, 0x5);
 1013              		.loc 1 407 0
 1014 0024 0521     		movs	r1, #5
 1015 0026 0846     		mov	r0, r1
 1016 0028 FFF7FEFF 		bl	ADPD1080_SetTimeSlotSwitch
 1017              	.LVL149:
 408:ADPD1080.c    ****   /* Select LEDs for each time slot */
 409:ADPD1080.c    ****     ADPD1080_SelectLED(0x02, 0x0);
 1018              		.loc 1 409 0
 1019 002c 0021     		movs	r1, #0
 1020 002e 0220     		movs	r0, #2
 1021 0030 FFF7FEFF 		bl	ADPD1080_SelectLED
 1022              	.LVL150:
 410:ADPD1080.c    ****     //ADPD1080_SelectLED(0x01, 0x1);
 411:ADPD1080.c    ****     
 412:ADPD1080.c    ****     ADPD1080_WriteReg(0x24, 0x1004);  // LED configuration
 1023              		.loc 1 412 0
 1024 0034 41F20401 		movw	r1, #4100
 1025 0038 2420     		movs	r0, #36
 1026 003a FFF7FEFF 		bl	ADPD1080_WriteReg
 1027              	.LVL151:
 413:ADPD1080.c    ****     ADPD1080_WriteReg(0x23, 0x1000);  // LED configuration
 1028              		.loc 1 413 0
 1029 003e 4FF48051 		mov	r1, #4096
 1030 0042 2320     		movs	r0, #35
 1031 0044 FFF7FEFF 		bl	ADPD1080_WriteReg
 1032              	.LVL152:
 414:ADPD1080.c    ****     ADPD1080_WriteReg(0x25, 0x67DF);  // LED fine
 1033              		.loc 1 414 0
 1034 0048 46F2DF71 		movw	r1, #26591
 1035 004c 2520     		movs	r0, #37
 1036 004e FFF7FEFF 		bl	ADPD1080_WriteReg
 1037              	.LVL153:
 415:ADPD1080.c    **** 
 416:ADPD1080.c    ****     ADPD1080_WriteReg(0x31, 0x1019);  // Pulse number and period
 1038              		.loc 1 416 0
 1039 0052 41F21901 		movw	r1, #4121
 1040 0056 3120     		movs	r0, #49
 1041 0058 FFF7FEFF 		bl	ADPD1080_WriteReg
 1042              	.LVL154:
 417:ADPD1080.c    ****     ADPD1080_WriteReg(0x36, 0x1019);  // Pulse number and period
 1043              		.loc 1 417 0
 1044 005c 41F21901 		movw	r1, #4121
 1045 0060 3620     		movs	r0, #54
 1046 0062 FFF7FEFF 		bl	ADPD1080_WriteReg
 1047              	.LVL155:
 418:ADPD1080.c    **** 
 419:ADPD1080.c    ****     ADPD1080_WriteReg(0x30, 0x0220);  // LED width and offset
 1048              		.loc 1 419 0
 1049 0066 4FF40871 		mov	r1, #544
 1050 006a 3020     		movs	r0, #48
 1051 006c FFF7FEFF 		bl	ADPD1080_WriteReg
 1052              	.LVL156:
 420:ADPD1080.c    ****     ADPD1080_WriteReg(0x35, 0x0220);  // LED width and offset
 1053              		.loc 1 420 0
ARM GAS  C:\Users\thoma\AppData\Local\Temp\ccnG09iM.s 			page 27


 1054 0070 4FF40871 		mov	r1, #544
 1055 0074 3520     		movs	r0, #53
 1056 0076 FFF7FEFF 		bl	ADPD1080_WriteReg
 1057              	.LVL157:
 421:ADPD1080.c    **** 
 422:ADPD1080.c    ****     ADPD1080_WriteReg(0x39, 0x1AE0);  // AFE width and offset
 1058              		.loc 1 422 0
 1059 007a 4FF4D751 		mov	r1, #6880
 1060 007e 3920     		movs	r0, #57
 1061 0080 FFF7FEFF 		bl	ADPD1080_WriteReg
 1062              	.LVL158:
 423:ADPD1080.c    ****     ADPD1080_WriteReg(0x3B, 0x1AE0);  // AFE width and offset
 1063              		.loc 1 423 0
 1064 0084 4FF4D751 		mov	r1, #6880
 1065 0088 3B20     		movs	r0, #59
 1066 008a FFF7FEFF 		bl	ADPD1080_WriteReg
 1067              	.LVL159:
 424:ADPD1080.c    **** 
 425:ADPD1080.c    ****     //ADPD1080_WriteReg(0x4E, 0x40);  // ADC clock
 426:ADPD1080.c    ****     //ADPD1080_WriteReg(0x58, 0x01);    // Digital clock
 427:ADPD1080.c    **** 
 428:ADPD1080.c    ****     ADPD1080_WriteReg(0x12, 0x5);     // Sampling frequency
 1068              		.loc 1 428 0
 1069 008e 0521     		movs	r1, #5
 1070 0090 1220     		movs	r0, #18
 1071 0092 FFF7FEFF 		bl	ADPD1080_WriteReg
 1072              	.LVL160:
 429:ADPD1080.c    ****     
 430:ADPD1080.c    ****     ADPD1080_WriteReg(0x42, 0x1C37);  // TIA gain
 1073              		.loc 1 430 0
 1074 0096 41F63741 		movw	r1, #7223
 1075 009a 4220     		movs	r0, #66
 1076 009c FFF7FEFF 		bl	ADPD1080_WriteReg
 1077              	.LVL161:
 431:ADPD1080.c    ****     ADPD1080_WriteReg(0x44, 0x1C37);  // TIA gain
 1078              		.loc 1 431 0
 1079 00a0 41F63741 		movw	r1, #7223
 1080 00a4 4420     		movs	r0, #68
 1081 00a6 FFF7FEFF 		bl	ADPD1080_WriteReg
 1082              	.LVL162:
 432:ADPD1080.c    **** 
 433:ADPD1080.c    ****     ADPD1080_WriteReg(0x4B, 0x2695);  // Sample clock
 1083              		.loc 1 433 0
 1084 00aa 42F29561 		movw	r1, #9877
 1085 00ae 4B20     		movs	r0, #75
 1086 00b0 FFF7FEFF 		bl	ADPD1080_WriteReg
 1087              	.LVL163:
 434:ADPD1080.c    ****     ADPD1080_WriteReg(0x4D, 0x0098);  // Adjust clock
 1088              		.loc 1 434 0
 1089 00b4 9821     		movs	r1, #152
 1090 00b6 4D20     		movs	r0, #77
 1091 00b8 FFF7FEFF 		bl	ADPD1080_WriteReg
 1092              	.LVL164:
 435:ADPD1080.c    ****     ADPD1080_WriteReg(0x4F, 0x2090);  // External sync
 1093              		.loc 1 435 0
 1094 00bc 42F29001 		movw	r1, #8336
 1095 00c0 4F20     		movs	r0, #79
ARM GAS  C:\Users\thoma\AppData\Local\Temp\ccnG09iM.s 			page 28


 1096 00c2 FFF7FEFF 		bl	ADPD1080_WriteReg
 1097              	.LVL165:
 436:ADPD1080.c    ****     ADPD1080_WriteReg(0x50, 0x0000);  // Calibration
 1098              		.loc 1 436 0
 1099 00c6 0021     		movs	r1, #0
 1100 00c8 5020     		movs	r0, #80
 1101 00ca FFF7FEFF 		bl	ADPD1080_WriteReg
 1102              	.LVL166:
 437:ADPD1080.c    **** 
 438:ADPD1080.c    ****     ADPD1080_WriteReg(0x3C, 0x7006);  // AFE power configuration
 1103              		.loc 1 438 0
 1104 00ce 47F20601 		movw	r1, #28678
 1105 00d2 3C20     		movs	r0, #60
 1106 00d4 FFF7FEFF 		bl	ADPD1080_WriteReg
 1107              	.LVL167:
 439:ADPD1080.c    ****     // FIFO setup
 440:ADPD1080.c    ****     ADPD1080_WriteReg(0x11, 0x3131); 
 1108              		.loc 1 440 0
 1109 00d8 43F23111 		movw	r1, #12593
 1110 00dc 1120     		movs	r0, #17
 1111 00de FFF7FEFF 		bl	ADPD1080_WriteReg
 1112              	.LVL168:
 441:ADPD1080.c    ****     ADPD1080_WriteReg(0x06, 0x1F00);
 1113              		.loc 1 441 0
 1114 00e2 4FF4F851 		mov	r1, #7936
 1115 00e6 0620     		movs	r0, #6
 1116 00e8 FFF7FEFF 		bl	ADPD1080_WriteReg
 1117              	.LVL169:
 442:ADPD1080.c    ****     ADPD1080_WriteReg(0x01, 0xC0FF);
 1118              		.loc 1 442 0
 1119 00ec 4CF2FF01 		movw	r1, #49407
 1120 00f0 0120     		movs	r0, #1
 1121 00f2 FFF7FEFF 		bl	ADPD1080_WriteReg
 1122              	.LVL170:
 443:ADPD1080.c    ****     ADPD1080_WriteReg(0x0B, 0x101);
 1123              		.loc 1 443 0
 1124 00f6 40F20111 		movw	r1, #257
 1125 00fa 0B20     		movs	r0, #11
 1126 00fc FFF7FEFF 		bl	ADPD1080_WriteReg
 1127              	.LVL171:
 444:ADPD1080.c    ****     ADPD1080_WriteReg(0x02, 0x05);
 1128              		.loc 1 444 0
 1129 0100 0521     		movs	r1, #5
 1130 0102 0220     		movs	r0, #2
 1131 0104 FFF7FEFF 		bl	ADPD1080_WriteReg
 1132              	.LVL172:
 445:ADPD1080.c    ****     
 446:ADPD1080.c    ****     ADPD1080_SetOperationMode(0x02);  // Set to normal operation
 1133              		.loc 1 446 0
 1134 0108 0220     		movs	r0, #2
 1135 010a FFF7FEFF 		bl	ADPD1080_SetOperationMode
 1136              	.LVL173:
 1137 010e 08BD     		pop	{r3, pc}
 1138              		.cfi_endproc
 1139              	.LFE557:
 1140              		.size	turbidity_Init, .-turbidity_Init
 1141              		.section	.text.turbidity_ReadDataInterrupt,"ax",%progbits
ARM GAS  C:\Users\thoma\AppData\Local\Temp\ccnG09iM.s 			page 29


 1142              		.align	2
 1143              		.global	turbidity_ReadDataInterrupt
 1144              		.thumb
 1145              		.thumb_func
 1146              		.type	turbidity_ReadDataInterrupt, %function
 1147              	turbidity_ReadDataInterrupt:
 1148              	.LFB558:
 447:ADPD1080.c    **** }
 448:ADPD1080.c    **** 
 449:ADPD1080.c    **** /* 
 450:ADPD1080.c    **** The interrupt handler must perform the following:
 451:ADPD1080.c    **** a. Read Register 0x00 and observe Bit 5 or Bit 6 to confirm
 452:ADPD1080.c    **** which interrupt occurred. This step is not required if
 453:ADPD1080.c    **** only one interrupt is in use.
 454:ADPD1080.c    **** b. Read the data registers before the next sample can be
 455:ADPD1080.c    **** written. The system must have interrupt latency and service time short enough to respond before 
 456:ADPD1080.c    **** the next data update, based on the output data rate.
 457:ADPD1080.c    **** c. Write a 1 to Bit 5 or Bit 6 in Register 0x00 to clear the interrupt.
 458:ADPD1080.c    **** */
 459:ADPD1080.c    **** void turbidity_ReadDataInterrupt(void) {
 1149              		.loc 1 459 0
 1150              		.cfi_startproc
 1151              		@ args = 0, pretend = 0, frame = 0
 1152              		@ frame_needed = 0, uses_anonymous_args = 0
 1153 0000 08B5     		push	{r3, lr}
 1154              		.cfi_def_cfa_offset 8
 1155              		.cfi_offset 3, -8
 1156              		.cfi_offset 14, -4
 460:ADPD1080.c    ****     ADPD1080_ReadReg(0x00);
 1157              		.loc 1 460 0
 1158 0002 0020     		movs	r0, #0
 1159 0004 FFF7FEFF 		bl	ADPD1080_ReadReg
 1160              	.LVL174:
 461:ADPD1080.c    ****     ADPD1080_ReadDataRegs(au16DataSlotA, au16DataSlotB, 4);
 1161              		.loc 1 461 0
 1162 0008 0548     		ldr	r0, .L67
 1163 000a 0422     		movs	r2, #4
 1164 000c 0146     		mov	r1, r0
 1165 000e 0830     		adds	r0, r0, #8
 1166 0010 FFF7FEFF 		bl	ADPD1080_ReadDataRegs
 1167              	.LVL175:
 462:ADPD1080.c    ****   
 463:ADPD1080.c    ****     // Clear interrupt
 464:ADPD1080.c    ****     ADPD1080_WriteReg(0x00, 0xFF);      
 1168              		.loc 1 464 0
 1169 0014 FF21     		movs	r1, #255
 1170 0016 0020     		movs	r0, #0
 1171 0018 FFF7FEFF 		bl	ADPD1080_WriteReg
 1172              	.LVL176:
 1173 001c 08BD     		pop	{r3, pc}
 1174              	.L68:
 1175 001e 00BF     		.align	2
 1176              	.L67:
 1177 0020 00000000 		.word	.LANCHOR0
 1178              		.cfi_endproc
 1179              	.LFE558:
 1180              		.size	turbidity_ReadDataInterrupt, .-turbidity_ReadDataInterrupt
ARM GAS  C:\Users\thoma\AppData\Local\Temp\ccnG09iM.s 			page 30


 1181              		.section	.text.turbidity_ChannelOffsetCalibration,"ax",%progbits
 1182              		.align	2
 1183              		.global	turbidity_ChannelOffsetCalibration
 1184              		.thumb
 1185              		.thumb_func
 1186              		.type	turbidity_ChannelOffsetCalibration, %function
 1187              	turbidity_ChannelOffsetCalibration:
 1188              	.LFB559:
 465:ADPD1080.c    **** }
 466:ADPD1080.c    **** 
 467:ADPD1080.c    **** void turbidity_ChannelOffsetCalibration(void) {
 1189              		.loc 1 467 0
 1190              		.cfi_startproc
 1191              		@ args = 0, pretend = 0, frame = 0
 1192              		@ frame_needed = 0, uses_anonymous_args = 0
 1193 0000 08B5     		push	{r3, lr}
 1194              		.cfi_def_cfa_offset 8
 1195              		.cfi_offset 3, -8
 1196              		.cfi_offset 14, -4
 468:ADPD1080.c    ****     ADPD1080_SetOperationMode(0x01);  // Set to program mode
 1197              		.loc 1 468 0
 1198 0002 0120     		movs	r0, #1
 1199 0004 FFF7FEFF 		bl	ADPD1080_SetOperationMode
 1200              	.LVL177:
 469:ADPD1080.c    ****     // ADPD1080_WriteReg(0x34, 0x0100);  // Disable LED
 470:ADPD1080.c    ****     // ADPD1080_WriteReg(0x34, 0x0100);  // Disable LED/////////
 471:ADPD1080.c    ****     //uint16_t reg34Value = ADPD1080_ReadReg(0x34);
 472:ADPD1080.c    ****     //reg34Value |= 0x0300;
 473:ADPD1080.c    ****     //ADPD1080_WriteReg(0x34, reg34Value);  // Disable LED/////////
 474:ADPD1080.c    ****     ADPD1080_DisableLed(0);
 1201              		.loc 1 474 0
 1202 0008 0020     		movs	r0, #0
 1203 000a FFF7FEFF 		bl	ADPD1080_DisableLed
 1204              	.LVL178:
 475:ADPD1080.c    ****     //ADPD1080_DisableLed(1);
 476:ADPD1080.c    **** 
 477:ADPD1080.c    ****     //ADPD1080_WriteReg(0x18, 0x2078);  // Channel offset////////////////
 478:ADPD1080.c    ****     //ADPD1080_WriteReg(0x19, 0x0000);  // Channel offset
 479:ADPD1080.c    ****     //ADPD1080_WriteReg(0x1A, 0x0000);  // Channel offset
 480:ADPD1080.c    ****     //ADPD1080_WriteReg(0x1B, 0x0000);  // Channel offset
 481:ADPD1080.c    **** 
 482:ADPD1080.c    ****     //ADPD1080_WriteReg(0x1E, 0x2078);  // Channel offset
 483:ADPD1080.c    ****     //ADPD1080_WriteReg(0x1F, 0x0000);  // Channel offset
 484:ADPD1080.c    ****     //ADPD1080_WriteReg(0x20, 0x0000);  // Channel offset
 485:ADPD1080.c    ****     //ADPD1080_WriteReg(0x21, 0x0000);  // Channel offset
 486:ADPD1080.c    **** 
 487:ADPD1080.c    ****     ADPD1080_WriteReg(0x31, 0x1019);  // Pulse number and period/////////////////
 1205              		.loc 1 487 0
 1206 000e 41F21901 		movw	r1, #4121
 1207 0012 3120     		movs	r0, #49
 1208 0014 FFF7FEFF 		bl	ADPD1080_WriteReg
 1209              	.LVL179:
 488:ADPD1080.c    ****     ADPD1080_WriteReg(0x36, 0x1019);  // Pulse number and period////////////////////
 1210              		.loc 1 488 0
 1211 0018 41F21901 		movw	r1, #4121
 1212 001c 3620     		movs	r0, #54
 1213 001e FFF7FEFF 		bl	ADPD1080_WriteReg
ARM GAS  C:\Users\thoma\AppData\Local\Temp\ccnG09iM.s 			page 31


 1214              	.LVL180:
 489:ADPD1080.c    **** 
 490:ADPD1080.c    ****     ADPD1080_SetOperationMode(0x02);  // Set to normal operation
 1215              		.loc 1 490 0
 1216 0022 0220     		movs	r0, #2
 1217 0024 FFF7FEFF 		bl	ADPD1080_SetOperationMode
 1218              	.LVL181:
 491:ADPD1080.c    ****     CyDelay(1000);
 1219              		.loc 1 491 0
 1220 0028 4FF47A70 		mov	r0, #1000
 1221 002c FFF7FEFF 		bl	Cy_SysLib_Delay
 1222              	.LVL182:
 492:ADPD1080.c    **** 
 493:ADPD1080.c    ****     ADPD1080_ReadDataRegs(au16DataSlotA, au16DataSlotB, 4);////////////////
 1223              		.loc 1 493 0
 1224 0030 1148     		ldr	r0, .L71
 1225 0032 0422     		movs	r2, #4
 1226 0034 0146     		mov	r1, r0
 1227 0036 0830     		adds	r0, r0, #8
 1228 0038 FFF7FEFF 		bl	ADPD1080_ReadDataRegs
 1229              	.LVL183:
 494:ADPD1080.c    **** 
 495:ADPD1080.c    ****     ADPD1080_SetOperationMode(0x01);  // Set to program mode
 1230              		.loc 1 495 0
 1231 003c 0120     		movs	r0, #1
 1232 003e FFF7FEFF 		bl	ADPD1080_SetOperationMode
 1233              	.LVL184:
 496:ADPD1080.c    ****     //ADPD1080_WriteReg(0x18, au16DataSlotA[0] - 100);  // Set offset for slot A
 497:ADPD1080.c    ****     //ADPD1080_WriteReg(0x1E, au16DataSlotB[0] - 100);  // Set offset for slot B
 498:ADPD1080.c    ****     
 499:ADPD1080.c    ****     ADPD1080_EnableLed(0);
 1234              		.loc 1 499 0
 1235 0042 0020     		movs	r0, #0
 1236 0044 FFF7FEFF 		bl	ADPD1080_EnableLed
 1237              	.LVL185:
 500:ADPD1080.c    ****     //ADPD1080_EnableLed(1);
 501:ADPD1080.c    **** 
 502:ADPD1080.c    ****     //reg34Value = ADPD1080_ReadReg(0x34);
 503:ADPD1080.c    ****     //reg34Value |= 0x0000;
 504:ADPD1080.c    ****     //ADPD1080_WriteReg(0x34, reg34Value);  // Enable LED
 505:ADPD1080.c    ****     //ADPD1080_WriteReg(0x34, 0x0300);  // Enable LED
 506:ADPD1080.c    **** 
 507:ADPD1080.c    ****     ADPD1080_SelectLED(0x02, 0x0);//!!!!!!!!!!!!!!!!!!!!!!!!!!!!!!!!!!!!!!!!!
 1238              		.loc 1 507 0
 1239 0048 0021     		movs	r1, #0
 1240 004a 0220     		movs	r0, #2
 1241 004c FFF7FEFF 		bl	ADPD1080_SelectLED
 1242              	.LVL186:
 508:ADPD1080.c    ****     //ADPD1080_SelectLED(0x01, 0x1);//????????????
 509:ADPD1080.c    ****     
 510:ADPD1080.c    ****     //uint16_t reg14Value = ADPD1080_ReadReg(0x14);
 511:ADPD1080.c    ****     //reg14Value = (reg14Value & 0xFCFF) | 0x0300;//!!!!!!!!!!!!!!!!!!!!!!!
 512:ADPD1080.c    ****     //ADPD1080_WriteReg(0x14, reg14Value);
 513:ADPD1080.c    ****     //ADPD1080_WriteReg(0x14, 0x0002);//??????????????????????????
 514:ADPD1080.c    ****     // ADPD1080_WriteReg(0x14, 0x000F);////////
 515:ADPD1080.c    **** 
 516:ADPD1080.c    ****     ADPD1080_WriteReg(0x31, 0x1019);  // Pulse number and period/////////////////
ARM GAS  C:\Users\thoma\AppData\Local\Temp\ccnG09iM.s 			page 32


 1243              		.loc 1 516 0
 1244 0050 41F21901 		movw	r1, #4121
 1245 0054 3120     		movs	r0, #49
 1246 0056 FFF7FEFF 		bl	ADPD1080_WriteReg
 1247              	.LVL187:
 517:ADPD1080.c    ****     ADPD1080_WriteReg(0x36, 0x1019);  // Pulse number and period////////////////////
 1248              		.loc 1 517 0
 1249 005a 41F21901 		movw	r1, #4121
 1250 005e 3620     		movs	r0, #54
 1251 0060 FFF7FEFF 		bl	ADPD1080_WriteReg
 1252              	.LVL188:
 518:ADPD1080.c    **** 
 519:ADPD1080.c    ****     ADPD1080_WriteReg(0x15, 0x0110); //?//////////////////
 1253              		.loc 1 519 0
 1254 0064 4FF48871 		mov	r1, #272
 1255 0068 1520     		movs	r0, #21
 1256 006a FFF7FEFF 		bl	ADPD1080_WriteReg
 1257              	.LVL189:
 520:ADPD1080.c    **** 
 521:ADPD1080.c    ****     ADPD1080_SetOperationMode(0x02);  // Set to normal operation
 1258              		.loc 1 521 0
 1259 006e 0220     		movs	r0, #2
 1260 0070 FFF7FEFF 		bl	ADPD1080_SetOperationMode
 1261              	.LVL190:
 1262 0074 08BD     		pop	{r3, pc}
 1263              	.L72:
 1264 0076 00BF     		.align	2
 1265              	.L71:
 1266 0078 00000000 		.word	.LANCHOR0
 1267              		.cfi_endproc
 1268              	.LFE559:
 1269              		.size	turbidity_ChannelOffsetCalibration, .-turbidity_ChannelOffsetCalibration
 1270              		.global	au16DataSlotB
 1271              		.global	au16DataSlotA
 1272              		.section	.rodata.str1.4,"aMS",%progbits,1
 1273              		.align	2
 1274              	.LC0:
 1275 0000 256400   		.ascii	"%d\000"
 1276              		.bss
 1277              		.align	2
 1278              		.set	.LANCHOR0,. + 0
 1279              		.type	au16DataSlotB, %object
 1280              		.size	au16DataSlotB, 8
 1281              	au16DataSlotB:
 1282 0000 00000000 		.space	8
 1282      00000000 
 1283              		.type	au16DataSlotA, %object
 1284              		.size	au16DataSlotA, 8
 1285              	au16DataSlotA:
 1286 0008 00000000 		.space	8
 1286      00000000 
 1287              		.text
 1288              	.Letext0:
 1289              		.file 2 "c:\\program files (x86)\\cypress\\psoc creator\\4.4\\psoc creator\\import\\gnu\\arm\\5.4.
 1290              		.file 3 "c:\\program files (x86)\\cypress\\psoc creator\\4.4\\psoc creator\\import\\gnu\\arm\\5.4.
 1291              		.file 4 "Generated_Source\\PSoC6\\pdl\\drivers/peripheral/device/cy_device.h"
 1292              		.file 5 "Generated_Source\\PSoC6\\pdl\\drivers/peripheral/sar/cy_sar.h"
ARM GAS  C:\Users\thoma\AppData\Local\Temp\ccnG09iM.s 			page 33


 1293              		.file 6 "Generated_Source\\PSoC6\\pdl\\drivers/peripheral/scb/cy_scb_uart.h"
 1294              		.file 7 "Generated_Source\\PSoC6/ADC.h"
 1295              		.file 8 "ADPD1080.h"
 1296              		.file 9 "Generated_Source\\PSoC6\\pdl\\cmsis/include/core_cm4.h"
 1297              		.file 10 "Generated_Source\\PSoC6/UART.h"
 1298              		.file 11 "Generated_Source\\PSoC6/I2C.h"
 1299              		.file 12 "c:\\program files (x86)\\cypress\\psoc creator\\4.4\\psoc creator\\import\\gnu\\arm\\5.4
 1300              		.file 13 "Generated_Source\\PSoC6\\pdl\\drivers/peripheral/syslib/cy_syslib.h"