ARM GAS  C:\Users\thoma\AppData\Local\Temp\ccRUrbHX.s 			page 1


   1              		.syntax unified
   2              		.cpu cortex-m4
   3              		.eabi_attribute 27, 1
   4              		.fpu fpv4-sp-d16
   5              		.eabi_attribute 20, 1
   6              		.eabi_attribute 21, 1
   7              		.eabi_attribute 23, 3
   8              		.eabi_attribute 24, 1
   9              		.eabi_attribute 25, 1
  10              		.eabi_attribute 26, 1
  11              		.eabi_attribute 30, 1
  12              		.eabi_attribute 34, 1
  13              		.eabi_attribute 18, 4
  14              		.thumb
  15              		.syntax unified
  16              		.file	"bq34z100.c"
  17              		.text
  18              	.Ltext0:
  19              		.cfi_sections	.debug_frame
  20              		.section	.text.write,"ax",%progbits
  21              		.align	2
  22              		.global	write
  23              		.thumb
  24              		.thumb_func
  25              		.type	write, %function
  26              	write:
  27              	.LFB672:
  28              		.file 1 "bq34z100.c"
   1:bq34z100.c    **** #include "project.h"  // Include global project header
   2:bq34z100.c    **** #include "bq34z100.h" // Include bq34z100 header
   3:bq34z100.c    **** #include <inttypes.h>  // Include C++-style integer types
   4:bq34z100.c    **** #include <stdio.h>  // Include standard I/O functions
   5:bq34z100.c    **** 
   6:bq34z100.c    **** // Initialization function
   7:bq34z100.c    **** // void bq34z100_init() {
   8:bq34z100.c    **** //     I2C_Start(); // Ensure your I2C hardware is configured and named appropriately
   9:bq34z100.c    **** // }
  10:bq34z100.c    **** 
  11:bq34z100.c    **** 
  12:bq34z100.c    **** void sendControlCommand(BQ34Z100_t *device, Control_t control) {
  13:bq34z100.c    ****     write_two_bytes(device, COMMAND_CONTROL, control & 0xFF, control >> 8);
  14:bq34z100.c    **** }
  15:bq34z100.c    **** 
  16:bq34z100.c    **** uint16_t readControlCommand(BQ34Z100_t *device, Control_t control) {
  17:bq34z100.c    ****     sendControlCommand(device, control);
  18:bq34z100.c    ****     return read(device, COMMAND_CONTROL, 2);
  19:bq34z100.c    **** }
  20:bq34z100.c    **** 
  21:bq34z100.c    **** void write(BQ34Z100_t *device, Command_t command, uint8_t cmd) {
  29              		.loc 1 21 0
  30              		.cfi_startproc
  31              		@ args = 0, pretend = 0, frame = 0
  32              		@ frame_needed = 0, uses_anonymous_args = 0
  33              	.LVL0:
  34 0000 38B5     		push	{r3, r4, r5, lr}
  35              		.cfi_def_cfa_offset 16
  36              		.cfi_offset 3, -16
ARM GAS  C:\Users\thoma\AppData\Local\Temp\ccRUrbHX.s 			page 2


  37              		.cfi_offset 4, -12
  38              		.cfi_offset 5, -8
  39              		.cfi_offset 14, -4
  40 0002 0D46     		mov	r5, r1
  41 0004 1446     		mov	r4, r2
  22:bq34z100.c    ****     (void) device;
  23:bq34z100.c    ****     I2C_MasterSendStart(BQ34Z100, I2C_WRITE_XFER_MODE);
  42              		.loc 1 23 0
  43 0006 0021     		movs	r1, #0
  44              	.LVL1:
  45 0008 AA20     		movs	r0, #170
  46              	.LVL2:
  47 000a FFF7FEFF 		bl	I2C_MasterSendStart
  48              	.LVL3:
  24:bq34z100.c    ****     I2C_MasterWriteByte(command);
  49              		.loc 1 24 0
  50 000e 2846     		mov	r0, r5
  51 0010 FFF7FEFF 		bl	I2C_MasterWriteByte
  52              	.LVL4:
  25:bq34z100.c    ****     I2C_MasterWriteByte(cmd);
  53              		.loc 1 25 0
  54 0014 2046     		mov	r0, r4
  55 0016 FFF7FEFF 		bl	I2C_MasterWriteByte
  56              	.LVL5:
  26:bq34z100.c    ****     I2C_MasterSendStop();
  57              		.loc 1 26 0
  58 001a FFF7FEFF 		bl	I2C_MasterSendStop
  59              	.LVL6:
  60 001e 38BD     		pop	{r3, r4, r5, pc}
  61              		.cfi_endproc
  62              	.LFE672:
  63              		.size	write, .-write
  64              		.section	.text.write_two_bytes,"ax",%progbits
  65              		.align	2
  66              		.global	write_two_bytes
  67              		.thumb
  68              		.thumb_func
  69              		.type	write_two_bytes, %function
  70              	write_two_bytes:
  71              	.LFB673:
  27:bq34z100.c    **** }
  28:bq34z100.c    **** 
  29:bq34z100.c    **** void write_two_bytes(BQ34Z100_t *device, Command_t command, uint8_t cmd1, uint8_t cmd2) {
  72              		.loc 1 29 0
  73              		.cfi_startproc
  74              		@ args = 0, pretend = 0, frame = 0
  75              		@ frame_needed = 0, uses_anonymous_args = 0
  76              	.LVL7:
  77 0000 70B5     		push	{r4, r5, r6, lr}
  78              		.cfi_def_cfa_offset 16
  79              		.cfi_offset 4, -16
  80              		.cfi_offset 5, -12
  81              		.cfi_offset 6, -8
  82              		.cfi_offset 14, -4
  83 0002 0E46     		mov	r6, r1
  84 0004 1546     		mov	r5, r2
  85 0006 1C46     		mov	r4, r3
ARM GAS  C:\Users\thoma\AppData\Local\Temp\ccRUrbHX.s 			page 3


  30:bq34z100.c    ****     (void) device;
  31:bq34z100.c    ****     I2C_MasterSendStart(BQ34Z100, I2C_WRITE_XFER_MODE);
  86              		.loc 1 31 0
  87 0008 0021     		movs	r1, #0
  88              	.LVL8:
  89 000a AA20     		movs	r0, #170
  90              	.LVL9:
  91 000c FFF7FEFF 		bl	I2C_MasterSendStart
  92              	.LVL10:
  32:bq34z100.c    ****     I2C_MasterWriteByte(command);
  93              		.loc 1 32 0
  94 0010 3046     		mov	r0, r6
  95 0012 FFF7FEFF 		bl	I2C_MasterWriteByte
  96              	.LVL11:
  33:bq34z100.c    ****     I2C_MasterWriteByte(cmd1);
  97              		.loc 1 33 0
  98 0016 2846     		mov	r0, r5
  99 0018 FFF7FEFF 		bl	I2C_MasterWriteByte
 100              	.LVL12:
  34:bq34z100.c    ****     I2C_MasterWriteByte(cmd2);
 101              		.loc 1 34 0
 102 001c 2046     		mov	r0, r4
 103 001e FFF7FEFF 		bl	I2C_MasterWriteByte
 104              	.LVL13:
  35:bq34z100.c    ****     I2C_MasterSendStop();
 105              		.loc 1 35 0
 106 0022 FFF7FEFF 		bl	I2C_MasterSendStop
 107              	.LVL14:
 108 0026 70BD     		pop	{r4, r5, r6, pc}
 109              		.cfi_endproc
 110              	.LFE673:
 111              		.size	write_two_bytes, .-write_two_bytes
 112              		.section	.text.sendControlCommand,"ax",%progbits
 113              		.align	2
 114              		.global	sendControlCommand
 115              		.thumb
 116              		.thumb_func
 117              		.type	sendControlCommand, %function
 118              	sendControlCommand:
 119              	.LFB670:
  12:bq34z100.c    ****     write_two_bytes(device, COMMAND_CONTROL, control & 0xFF, control >> 8);
 120              		.loc 1 12 0
 121              		.cfi_startproc
 122              		@ args = 0, pretend = 0, frame = 0
 123              		@ frame_needed = 0, uses_anonymous_args = 0
 124              	.LVL15:
 125 0000 08B5     		push	{r3, lr}
 126              		.cfi_def_cfa_offset 8
 127              		.cfi_offset 3, -8
 128              		.cfi_offset 14, -4
  13:bq34z100.c    **** }
 129              		.loc 1 13 0
 130 0002 0B0A     		lsrs	r3, r1, #8
 131 0004 CAB2     		uxtb	r2, r1
 132 0006 0021     		movs	r1, #0
 133              	.LVL16:
 134 0008 FFF7FEFF 		bl	write_two_bytes
ARM GAS  C:\Users\thoma\AppData\Local\Temp\ccRUrbHX.s 			page 4


 135              	.LVL17:
 136 000c 08BD     		pop	{r3, pc}
 137              		.cfi_endproc
 138              	.LFE670:
 139              		.size	sendControlCommand, .-sendControlCommand
 140 000e 00BF     		.section	.text.read,"ax",%progbits
 141              		.align	2
 142              		.global	read
 143              		.thumb
 144              		.thumb_func
 145              		.type	read, %function
 146              	read:
 147              	.LFB674:
  36:bq34z100.c    **** }
  37:bq34z100.c    **** 
  38:bq34z100.c    **** uint32_t read(BQ34Z100_t *device, Command_t command, uint8_t length) {
 148              		.loc 1 38 0
 149              		.cfi_startproc
 150              		@ args = 0, pretend = 0, frame = 0
 151              		@ frame_needed = 0, uses_anonymous_args = 0
 152              	.LVL18:
 153 0000 70B5     		push	{r4, r5, r6, lr}
 154              		.cfi_def_cfa_offset 16
 155              		.cfi_offset 4, -16
 156              		.cfi_offset 5, -12
 157              		.cfi_offset 6, -8
 158              		.cfi_offset 14, -4
 159 0002 0C46     		mov	r4, r1
 160 0004 1646     		mov	r6, r2
 161              	.LVL19:
  39:bq34z100.c    ****     (void) device;
  40:bq34z100.c    ****     uint32_t result = 0;
  41:bq34z100.c    ****     I2C_MasterSendStart(BQ34Z100, I2C_WRITE_XFER_MODE);
 162              		.loc 1 41 0
 163 0006 0021     		movs	r1, #0
 164              	.LVL20:
 165 0008 AA20     		movs	r0, #170
 166              	.LVL21:
 167 000a FFF7FEFF 		bl	I2C_MasterSendStart
 168              	.LVL22:
  42:bq34z100.c    ****     I2C_MasterWriteByte(command);
 169              		.loc 1 42 0
 170 000e 2046     		mov	r0, r4
 171 0010 FFF7FEFF 		bl	I2C_MasterWriteByte
 172              	.LVL23:
  43:bq34z100.c    ****     I2C_MasterSendRestart(BQ34Z100, I2C_READ_XFER_MODE);
 173              		.loc 1 43 0
 174 0014 0121     		movs	r1, #1
 175 0016 AA20     		movs	r0, #170
 176 0018 FFF7FEFF 		bl	I2C_MasterSendRestart
 177              	.LVL24:
 178              	.LBB2:
  44:bq34z100.c    **** 
  45:bq34z100.c    ****     for (uint8_t i = 0; i < length; i++) {
 179              		.loc 1 45 0
 180 001c 0024     		movs	r4, #0
 181              	.LBE2:
ARM GAS  C:\Users\thoma\AppData\Local\Temp\ccRUrbHX.s 			page 5


  40:bq34z100.c    ****     I2C_MasterSendStart(BQ34Z100, I2C_WRITE_XFER_MODE);
 182              		.loc 1 40 0
 183 001e 2546     		mov	r5, r4
 184              	.LBB4:
 185              		.loc 1 45 0
 186 0020 0AE0     		b	.L8
 187              	.LVL25:
 188              	.L9:
 189              	.LBB3:
  46:bq34z100.c    ****         uint8_t ack = (i == (length - 1)) ? I2C_NAK_DATA : I2C_ACK_DATA;
 190              		.loc 1 46 0 discriminator 3
 191 0022 701E     		subs	r0, r6, #1
 192              	.LVL26:
  47:bq34z100.c    ****         uint8_t byte = I2C_MasterReadByte(ack);
 193              		.loc 1 47 0 discriminator 3
 194 0024 201A     		subs	r0, r4, r0
 195              	.LVL27:
 196 0026 18BF     		it	ne
 197 0028 0120     		movne	r0, #1
 198 002a FFF7FEFF 		bl	I2C_MasterReadByte
 199              	.LVL28:
  48:bq34z100.c    ****         result |= (uint32_t)byte << (8 * i);
 200              		.loc 1 48 0 discriminator 3
 201 002e E300     		lsls	r3, r4, #3
 202 0030 9840     		lsls	r0, r0, r3
 203              	.LVL29:
 204 0032 0543     		orrs	r5, r5, r0
 205              	.LVL30:
 206              	.LBE3:
  45:bq34z100.c    ****         uint8_t ack = (i == (length - 1)) ? I2C_NAK_DATA : I2C_ACK_DATA;
 207              		.loc 1 45 0 discriminator 3
 208 0034 0134     		adds	r4, r4, #1
 209              	.LVL31:
 210 0036 E4B2     		uxtb	r4, r4
 211              	.LVL32:
 212              	.L8:
  45:bq34z100.c    ****         uint8_t ack = (i == (length - 1)) ? I2C_NAK_DATA : I2C_ACK_DATA;
 213              		.loc 1 45 0 is_stmt 0 discriminator 1
 214 0038 B442     		cmp	r4, r6
 215 003a F2D3     		bcc	.L9
 216              	.LBE4:
  49:bq34z100.c    ****     }
  50:bq34z100.c    **** 
  51:bq34z100.c    ****     I2C_MasterSendStop();
 217              		.loc 1 51 0 is_stmt 1
 218 003c FFF7FEFF 		bl	I2C_MasterSendStop
 219              	.LVL33:
  52:bq34z100.c    ****     return result;
  53:bq34z100.c    **** }
 220              		.loc 1 53 0
 221 0040 2846     		mov	r0, r5
 222 0042 70BD     		pop	{r4, r5, r6, pc}
 223              		.cfi_endproc
 224              	.LFE674:
 225              		.size	read, .-read
 226              		.section	.text.readControlCommand,"ax",%progbits
 227              		.align	2
ARM GAS  C:\Users\thoma\AppData\Local\Temp\ccRUrbHX.s 			page 6


 228              		.global	readControlCommand
 229              		.thumb
 230              		.thumb_func
 231              		.type	readControlCommand, %function
 232              	readControlCommand:
 233              	.LFB671:
  16:bq34z100.c    ****     sendControlCommand(device, control);
 234              		.loc 1 16 0
 235              		.cfi_startproc
 236              		@ args = 0, pretend = 0, frame = 0
 237              		@ frame_needed = 0, uses_anonymous_args = 0
 238              	.LVL34:
 239 0000 10B5     		push	{r4, lr}
 240              		.cfi_def_cfa_offset 8
 241              		.cfi_offset 4, -8
 242              		.cfi_offset 14, -4
 243 0002 0446     		mov	r4, r0
  17:bq34z100.c    ****     return read(device, COMMAND_CONTROL, 2);
 244              		.loc 1 17 0
 245 0004 FFF7FEFF 		bl	sendControlCommand
 246              	.LVL35:
  18:bq34z100.c    **** }
 247              		.loc 1 18 0
 248 0008 0222     		movs	r2, #2
 249 000a 0021     		movs	r1, #0
 250 000c 2046     		mov	r0, r4
 251 000e FFF7FEFF 		bl	read
 252              	.LVL36:
  19:bq34z100.c    **** 
 253              		.loc 1 19 0
 254 0012 80B2     		uxth	r0, r0
 255 0014 10BD     		pop	{r4, pc}
 256              		.cfi_endproc
 257              	.LFE671:
 258              		.size	readControlCommand, .-readControlCommand
 259 0016 00BF     		.section	.text.BQ34Z100_EnableCal,"ax",%progbits
 260              		.align	2
 261              		.global	BQ34Z100_EnableCal
 262              		.thumb
 263              		.thumb_func
 264              		.type	BQ34Z100_EnableCal, %function
 265              	BQ34Z100_EnableCal:
 266              	.LFB675:
  54:bq34z100.c    **** 
  55:bq34z100.c    **** void BQ34Z100_EnableCal(BQ34Z100_t *device) {
 267              		.loc 1 55 0
 268              		.cfi_startproc
 269              		@ args = 0, pretend = 0, frame = 0
 270              		@ frame_needed = 0, uses_anonymous_args = 0
 271              	.LVL37:
 272 0000 08B5     		push	{r3, lr}
 273              		.cfi_def_cfa_offset 8
 274              		.cfi_offset 3, -8
 275              		.cfi_offset 14, -4
  56:bq34z100.c    ****     sendControlCommand(device, CONTROL_CAL_ENABLE);
 276              		.loc 1 56 0
 277 0002 2D21     		movs	r1, #45
ARM GAS  C:\Users\thoma\AppData\Local\Temp\ccRUrbHX.s 			page 7


 278 0004 FFF7FEFF 		bl	sendControlCommand
 279              	.LVL38:
 280 0008 08BD     		pop	{r3, pc}
 281              		.cfi_endproc
 282              	.LFE675:
 283              		.size	BQ34Z100_EnableCal, .-BQ34Z100_EnableCal
 284 000a 00BF     		.section	.text.BQ34Z100_EnterCal,"ax",%progbits
 285              		.align	2
 286              		.global	BQ34Z100_EnterCal
 287              		.thumb
 288              		.thumb_func
 289              		.type	BQ34Z100_EnterCal, %function
 290              	BQ34Z100_EnterCal:
 291              	.LFB676:
  57:bq34z100.c    **** }
  58:bq34z100.c    **** 
  59:bq34z100.c    **** // Enter Calibration Mode
  60:bq34z100.c    **** void BQ34Z100_EnterCal(BQ34Z100_t *device) {
 292              		.loc 1 60 0
 293              		.cfi_startproc
 294              		@ args = 0, pretend = 0, frame = 0
 295              		@ frame_needed = 0, uses_anonymous_args = 0
 296              	.LVL39:
 297 0000 08B5     		push	{r3, lr}
 298              		.cfi_def_cfa_offset 8
 299              		.cfi_offset 3, -8
 300              		.cfi_offset 14, -4
  61:bq34z100.c    ****     sendControlCommand(device, CONTROL_ENTER_CAL);
 301              		.loc 1 61 0
 302 0002 8121     		movs	r1, #129
 303 0004 FFF7FEFF 		bl	sendControlCommand
 304              	.LVL40:
 305 0008 08BD     		pop	{r3, pc}
 306              		.cfi_endproc
 307              	.LFE676:
 308              		.size	BQ34Z100_EnterCal, .-BQ34Z100_EnterCal
 309 000a 00BF     		.section	.text.BQ34Z100_ExitCal,"ax",%progbits
 310              		.align	2
 311              		.global	BQ34Z100_ExitCal
 312              		.thumb
 313              		.thumb_func
 314              		.type	BQ34Z100_ExitCal, %function
 315              	BQ34Z100_ExitCal:
 316              	.LFB677:
  62:bq34z100.c    **** }
  63:bq34z100.c    **** 
  64:bq34z100.c    **** // Exit Calibration Mode
  65:bq34z100.c    **** void BQ34Z100_ExitCal(BQ34Z100_t *device) {
 317              		.loc 1 65 0
 318              		.cfi_startproc
 319              		@ args = 0, pretend = 0, frame = 0
 320              		@ frame_needed = 0, uses_anonymous_args = 0
 321              	.LVL41:
 322 0000 08B5     		push	{r3, lr}
 323              		.cfi_def_cfa_offset 8
 324              		.cfi_offset 3, -8
 325              		.cfi_offset 14, -4
ARM GAS  C:\Users\thoma\AppData\Local\Temp\ccRUrbHX.s 			page 8


  66:bq34z100.c    ****     sendControlCommand(device, CONTROL_EXIT_CAL);
 326              		.loc 1 66 0
 327 0002 8021     		movs	r1, #128
 328 0004 FFF7FEFF 		bl	sendControlCommand
 329              	.LVL42:
 330 0008 08BD     		pop	{r3, pc}
 331              		.cfi_endproc
 332              	.LFE677:
 333              		.size	BQ34Z100_ExitCal, .-BQ34Z100_ExitCal
 334 000a 00BF     		.section	.text.BQ34Z100_ITEnable,"ax",%progbits
 335              		.align	2
 336              		.global	BQ34Z100_ITEnable
 337              		.thumb
 338              		.thumb_func
 339              		.type	BQ34Z100_ITEnable, %function
 340              	BQ34Z100_ITEnable:
 341              	.LFB678:
  67:bq34z100.c    **** }
  68:bq34z100.c    **** 
  69:bq34z100.c    **** // Enable Impedance Track Algorithm
  70:bq34z100.c    **** void BQ34Z100_ITEnable(BQ34Z100_t *device) {
 342              		.loc 1 70 0
 343              		.cfi_startproc
 344              		@ args = 0, pretend = 0, frame = 0
 345              		@ frame_needed = 0, uses_anonymous_args = 0
 346              	.LVL43:
 347 0000 08B5     		push	{r3, lr}
 348              		.cfi_def_cfa_offset 8
 349              		.cfi_offset 3, -8
 350              		.cfi_offset 14, -4
  71:bq34z100.c    ****     sendControlCommand(device, CONTROL_IT_ENABLE);
 351              		.loc 1 71 0
 352 0002 2121     		movs	r1, #33
 353 0004 FFF7FEFF 		bl	sendControlCommand
 354              	.LVL44:
 355 0008 08BD     		pop	{r3, pc}
 356              		.cfi_endproc
 357              	.LFE678:
 358              		.size	BQ34Z100_ITEnable, .-BQ34Z100_ITEnable
 359 000a 00BF     		.section	.text.BQ34Z100_GetStatus,"ax",%progbits
 360              		.align	2
 361              		.global	BQ34Z100_GetStatus
 362              		.thumb
 363              		.thumb_func
 364              		.type	BQ34Z100_GetStatus, %function
 365              	BQ34Z100_GetStatus:
 366              	.LFB679:
  72:bq34z100.c    **** }
  73:bq34z100.c    **** 
  74:bq34z100.c    **** // Get Device Status
  75:bq34z100.c    **** uint16_t BQ34Z100_GetStatus(BQ34Z100_t *device) {
 367              		.loc 1 75 0
 368              		.cfi_startproc
 369              		@ args = 0, pretend = 0, frame = 0
 370              		@ frame_needed = 0, uses_anonymous_args = 0
 371              	.LVL45:
 372 0000 08B5     		push	{r3, lr}
ARM GAS  C:\Users\thoma\AppData\Local\Temp\ccRUrbHX.s 			page 9


 373              		.cfi_def_cfa_offset 8
 374              		.cfi_offset 3, -8
 375              		.cfi_offset 14, -4
  76:bq34z100.c    ****     return readControlCommand(device, CONTROL_CONTROL_STATUS);
 376              		.loc 1 76 0
 377 0002 0021     		movs	r1, #0
 378 0004 FFF7FEFF 		bl	readControlCommand
 379              	.LVL46:
  77:bq34z100.c    **** }
 380              		.loc 1 77 0
 381 0008 08BD     		pop	{r3, pc}
 382              		.cfi_endproc
 383              	.LFE679:
 384              		.size	BQ34Z100_GetStatus, .-BQ34Z100_GetStatus
 385 000a 00BF     		.section	.text.BQ34Z100_GetChemID,"ax",%progbits
 386              		.align	2
 387              		.global	BQ34Z100_GetChemID
 388              		.thumb
 389              		.thumb_func
 390              		.type	BQ34Z100_GetChemID, %function
 391              	BQ34Z100_GetChemID:
 392              	.LFB680:
  78:bq34z100.c    **** 
  79:bq34z100.c    **** // Get battery Chemistry ID
  80:bq34z100.c    **** uint16_t BQ34Z100_GetChemID(BQ34Z100_t *device) {
 393              		.loc 1 80 0
 394              		.cfi_startproc
 395              		@ args = 0, pretend = 0, frame = 0
 396              		@ frame_needed = 0, uses_anonymous_args = 0
 397              	.LVL47:
 398 0000 08B5     		push	{r3, lr}
 399              		.cfi_def_cfa_offset 8
 400              		.cfi_offset 3, -8
 401              		.cfi_offset 14, -4
  81:bq34z100.c    ****     return readControlCommand(device, CONTROL_CHEM_ID);
 402              		.loc 1 81 0
 403 0002 0821     		movs	r1, #8
 404 0004 FFF7FEFF 		bl	readControlCommand
 405              	.LVL48:
  82:bq34z100.c    **** }
 406              		.loc 1 82 0
 407 0008 08BD     		pop	{r3, pc}
 408              		.cfi_endproc
 409              	.LFE680:
 410              		.size	BQ34Z100_GetChemID, .-BQ34Z100_GetChemID
 411 000a 00BF     		.section	.text.BQ34Z100_GetStateOfHealth,"ax",%progbits
 412              		.align	2
 413              		.global	BQ34Z100_GetStateOfHealth
 414              		.thumb
 415              		.thumb_func
 416              		.type	BQ34Z100_GetStateOfHealth, %function
 417              	BQ34Z100_GetStateOfHealth:
 418              	.LFB681:
  83:bq34z100.c    **** 
  84:bq34z100.c    **** // Get State of Health of the battery
  85:bq34z100.c    **** uint16_t BQ34Z100_GetStateOfHealth(BQ34Z100_t *device) {
 419              		.loc 1 85 0
ARM GAS  C:\Users\thoma\AppData\Local\Temp\ccRUrbHX.s 			page 10


 420              		.cfi_startproc
 421              		@ args = 0, pretend = 0, frame = 0
 422              		@ frame_needed = 0, uses_anonymous_args = 0
 423              	.LVL49:
 424 0000 08B5     		push	{r3, lr}
 425              		.cfi_def_cfa_offset 8
 426              		.cfi_offset 3, -8
 427              		.cfi_offset 14, -4
  86:bq34z100.c    ****     return read(device, COMMAND_STATEOFHEALTH, 2);
 428              		.loc 1 86 0
 429 0002 0222     		movs	r2, #2
 430 0004 2E21     		movs	r1, #46
 431 0006 FFF7FEFF 		bl	read
 432              	.LVL50:
  87:bq34z100.c    **** }
 433              		.loc 1 87 0
 434 000a 80B2     		uxth	r0, r0
 435 000c 08BD     		pop	{r3, pc}
 436              		.cfi_endproc
 437              	.LFE681:
 438              		.size	BQ34Z100_GetStateOfHealth, .-BQ34Z100_GetStateOfHealth
 439 000e 00BF     		.section	.text.BQ34Z100_GetSOC,"ax",%progbits
 440              		.align	2
 441              		.global	BQ34Z100_GetSOC
 442              		.thumb
 443              		.thumb_func
 444              		.type	BQ34Z100_GetSOC, %function
 445              	BQ34Z100_GetSOC:
 446              	.LFB682:
  88:bq34z100.c    **** 
  89:bq34z100.c    **** // Get State of Charge
  90:bq34z100.c    **** uint8_t BQ34Z100_GetSOC(BQ34Z100_t *device) {
 447              		.loc 1 90 0
 448              		.cfi_startproc
 449              		@ args = 0, pretend = 0, frame = 0
 450              		@ frame_needed = 0, uses_anonymous_args = 0
 451              	.LVL51:
 452 0000 08B5     		push	{r3, lr}
 453              		.cfi_def_cfa_offset 8
 454              		.cfi_offset 3, -8
 455              		.cfi_offset 14, -4
  91:bq34z100.c    ****     return (uint8_t)read(device, COMMAND_STATEOFCHARGE, 1);
 456              		.loc 1 91 0
 457 0002 0122     		movs	r2, #1
 458 0004 0221     		movs	r1, #2
 459 0006 FFF7FEFF 		bl	read
 460              	.LVL52:
  92:bq34z100.c    **** }
 461              		.loc 1 92 0
 462 000a C0B2     		uxtb	r0, r0
 463 000c 08BD     		pop	{r3, pc}
 464              		.cfi_endproc
 465              	.LFE682:
 466              		.size	BQ34Z100_GetSOC, .-BQ34Z100_GetSOC
 467 000e 00BF     		.section	.text.BQ34Z100_GetError,"ax",%progbits
 468              		.align	2
 469              		.global	BQ34Z100_GetError
ARM GAS  C:\Users\thoma\AppData\Local\Temp\ccRUrbHX.s 			page 11


 470              		.thumb
 471              		.thumb_func
 472              		.type	BQ34Z100_GetError, %function
 473              	BQ34Z100_GetError:
 474              	.LFB683:
  93:bq34z100.c    **** 
  94:bq34z100.c    **** // Get the maximum error of SOC calculation
  95:bq34z100.c    **** uint16_t BQ34Z100_GetError(BQ34Z100_t *device) {
 475              		.loc 1 95 0
 476              		.cfi_startproc
 477              		@ args = 0, pretend = 0, frame = 0
 478              		@ frame_needed = 0, uses_anonymous_args = 0
 479              	.LVL53:
 480 0000 08B5     		push	{r3, lr}
 481              		.cfi_def_cfa_offset 8
 482              		.cfi_offset 3, -8
 483              		.cfi_offset 14, -4
  96:bq34z100.c    ****     return read(device, COMMAND_MAXERROR, 1);
 484              		.loc 1 96 0
 485 0002 0122     		movs	r2, #1
 486 0004 0321     		movs	r1, #3
 487 0006 FFF7FEFF 		bl	read
 488              	.LVL54:
  97:bq34z100.c    **** }
 489              		.loc 1 97 0
 490 000a 80B2     		uxth	r0, r0
 491 000c 08BD     		pop	{r3, pc}
 492              		.cfi_endproc
 493              	.LFE683:
 494              		.size	BQ34Z100_GetError, .-BQ34Z100_GetError
 495 000e 00BF     		.section	.text.BQ34Z100_GetRemaining,"ax",%progbits
 496              		.align	2
 497              		.global	BQ34Z100_GetRemaining
 498              		.thumb
 499              		.thumb_func
 500              		.type	BQ34Z100_GetRemaining, %function
 501              	BQ34Z100_GetRemaining:
 502              	.LFB684:
  98:bq34z100.c    **** 
  99:bq34z100.c    **** // Get remaining capacity
 100:bq34z100.c    **** uint16_t BQ34Z100_GetRemaining(BQ34Z100_t *device) {
 503              		.loc 1 100 0
 504              		.cfi_startproc
 505              		@ args = 0, pretend = 0, frame = 0
 506              		@ frame_needed = 0, uses_anonymous_args = 0
 507              	.LVL55:
 508 0000 08B5     		push	{r3, lr}
 509              		.cfi_def_cfa_offset 8
 510              		.cfi_offset 3, -8
 511              		.cfi_offset 14, -4
 101:bq34z100.c    ****     return read(device, COMMAND_REMAININGCAPACITY, 2);
 512              		.loc 1 101 0
 513 0002 0222     		movs	r2, #2
 514 0004 0421     		movs	r1, #4
 515 0006 FFF7FEFF 		bl	read
 516              	.LVL56:
 102:bq34z100.c    **** }
ARM GAS  C:\Users\thoma\AppData\Local\Temp\ccRUrbHX.s 			page 12


 517              		.loc 1 102 0
 518 000a 80B2     		uxth	r0, r0
 519 000c 08BD     		pop	{r3, pc}
 520              		.cfi_endproc
 521              	.LFE684:
 522              		.size	BQ34Z100_GetRemaining, .-BQ34Z100_GetRemaining
 523 000e 00BF     		.section	.text.BQ34Z100_GetVoltage,"ax",%progbits
 524              		.align	2
 525              		.global	BQ34Z100_GetVoltage
 526              		.thumb
 527              		.thumb_func
 528              		.type	BQ34Z100_GetVoltage, %function
 529              	BQ34Z100_GetVoltage:
 530              	.LFB685:
 103:bq34z100.c    **** 
 104:bq34z100.c    **** // Get battery voltage
 105:bq34z100.c    **** uint16_t BQ34Z100_GetVoltage(BQ34Z100_t *device) {
 531              		.loc 1 105 0
 532              		.cfi_startproc
 533              		@ args = 0, pretend = 0, frame = 0
 534              		@ frame_needed = 0, uses_anonymous_args = 0
 535              	.LVL57:
 536 0000 08B5     		push	{r3, lr}
 537              		.cfi_def_cfa_offset 8
 538              		.cfi_offset 3, -8
 539              		.cfi_offset 14, -4
 106:bq34z100.c    ****     return read(device, COMMAND_VOLTAGE, 2);
 540              		.loc 1 106 0
 541 0002 0222     		movs	r2, #2
 542 0004 0821     		movs	r1, #8
 543 0006 FFF7FEFF 		bl	read
 544              	.LVL58:
 107:bq34z100.c    **** }
 545              		.loc 1 107 0
 546 000a 80B2     		uxth	r0, r0
 547 000c 08BD     		pop	{r3, pc}
 548              		.cfi_endproc
 549              	.LFE685:
 550              		.size	BQ34Z100_GetVoltage, .-BQ34Z100_GetVoltage
 551 000e 00BF     		.section	.text.BQ34Z100_GetCurrent,"ax",%progbits
 552              		.align	2
 553              		.global	BQ34Z100_GetCurrent
 554              		.thumb
 555              		.thumb_func
 556              		.type	BQ34Z100_GetCurrent, %function
 557              	BQ34Z100_GetCurrent:
 558              	.LFB686:
 108:bq34z100.c    **** 
 109:bq34z100.c    **** // Get current flow through the device
 110:bq34z100.c    **** int16_t BQ34Z100_GetCurrent(BQ34Z100_t *device) {
 559              		.loc 1 110 0
 560              		.cfi_startproc
 561              		@ args = 0, pretend = 0, frame = 0
 562              		@ frame_needed = 0, uses_anonymous_args = 0
 563              	.LVL59:
 564 0000 08B5     		push	{r3, lr}
 565              		.cfi_def_cfa_offset 8
ARM GAS  C:\Users\thoma\AppData\Local\Temp\ccRUrbHX.s 			page 13


 566              		.cfi_offset 3, -8
 567              		.cfi_offset 14, -4
 111:bq34z100.c    ****     int16_t result = read(device, COMMAND_CURRENT, 2);
 568              		.loc 1 111 0
 569 0002 0222     		movs	r2, #2
 570 0004 1021     		movs	r1, #16
 571 0006 FFF7FEFF 		bl	read
 572              	.LVL60:
 573 000a 00B2     		sxth	r0, r0
 574              	.LVL61:
 112:bq34z100.c    ****     return result < 0 ? -result : result;  // Making sure the result is non-negative
 575              		.loc 1 112 0
 576 000c 0028     		cmp	r0, #0
 577 000e B8BF     		it	lt
 578 0010 4042     		rsblt	r0, r0, #0
 579              	.LVL62:
 113:bq34z100.c    **** }
 580              		.loc 1 113 0
 581 0012 00B2     		sxth	r0, r0
 582 0014 08BD     		pop	{r3, pc}
 583              		.cfi_endproc
 584              	.LFE686:
 585              		.size	BQ34Z100_GetCurrent, .-BQ34Z100_GetCurrent
 586              		.global	__aeabi_i2d
 587              		.global	__aeabi_ddiv
 588              		.global	__aeabi_dsub
 589 0016 00BF     		.section	.text.BQ34Z100_GetTemperature,"ax",%progbits
 590              		.align	2
 591              		.global	BQ34Z100_GetTemperature
 592              		.thumb
 593              		.thumb_func
 594              		.type	BQ34Z100_GetTemperature, %function
 595              	BQ34Z100_GetTemperature:
 596              	.LFB687:
 114:bq34z100.c    **** 
 115:bq34z100.c    **** // Get device internal temperature
 116:bq34z100.c    **** double BQ34Z100_GetTemperature(BQ34Z100_t *device) {
 597              		.loc 1 116 0
 598              		.cfi_startproc
 599              		@ args = 0, pretend = 0, frame = 0
 600              		@ frame_needed = 0, uses_anonymous_args = 0
 601              	.LVL63:
 602 0000 08B5     		push	{r3, lr}
 603              		.cfi_def_cfa_offset 8
 604              		.cfi_offset 3, -8
 605              		.cfi_offset 14, -4
 117:bq34z100.c    ****     int16_t rawTemp = read(device, COMMAND_TEMPERATURE, 2);
 606              		.loc 1 117 0
 607 0002 0222     		movs	r2, #2
 608 0004 0C21     		movs	r1, #12
 609 0006 FFF7FEFF 		bl	read
 610              	.LVL64:
 118:bq34z100.c    ****     return (rawTemp / 10.0) - 273.15;  // Convert from deci-Kelvin to Celsius
 611              		.loc 1 118 0
 612 000a 00B2     		sxth	r0, r0
 613 000c FFF7FEFF 		bl	__aeabi_i2d
 614              	.LVL65:
ARM GAS  C:\Users\thoma\AppData\Local\Temp\ccRUrbHX.s 			page 14


 615 0010 0022     		movs	r2, #0
 616 0012 074B     		ldr	r3, .L39+8
 617 0014 FFF7FEFF 		bl	__aeabi_ddiv
 618              	.LVL66:
 619 0018 03A3     		adr	r3, .L39
 620 001a D3E90023 		ldrd	r2, [r3]
 621 001e FFF7FEFF 		bl	__aeabi_dsub
 622              	.LVL67:
 119:bq34z100.c    **** }
 623              		.loc 1 119 0
 624 0022 08BD     		pop	{r3, pc}
 625              	.L40:
 626 0024 AFF30080 		.align	3
 627              	.L39:
 628 0028 66666666 		.word	1717986918
 629 002c 66127140 		.word	1081152102
 630 0030 00002440 		.word	1076101120
 631              		.cfi_endproc
 632              	.LFE687:
 633              		.size	BQ34Z100_GetTemperature, .-BQ34Z100_GetTemperature
 634              		.section	.text.BQ34Z100_GetSerial,"ax",%progbits
 635              		.align	2
 636              		.global	BQ34Z100_GetSerial
 637              		.thumb
 638              		.thumb_func
 639              		.type	BQ34Z100_GetSerial, %function
 640              	BQ34Z100_GetSerial:
 641              	.LFB688:
 120:bq34z100.c    **** 
 121:bq34z100.c    **** // Get Serial Number of the device
 122:bq34z100.c    **** int BQ34Z100_GetSerial(BQ34Z100_t *device) {
 642              		.loc 1 122 0
 643              		.cfi_startproc
 644              		@ args = 0, pretend = 0, frame = 0
 645              		@ frame_needed = 0, uses_anonymous_args = 0
 646              	.LVL68:
 647 0000 08B5     		push	{r3, lr}
 648              		.cfi_def_cfa_offset 8
 649              		.cfi_offset 3, -8
 650              		.cfi_offset 14, -4
 123:bq34z100.c    ****     return read(device, COMMAND_SERIALNUMBER, 2);
 651              		.loc 1 123 0
 652 0002 0222     		movs	r2, #2
 653 0004 2821     		movs	r1, #40
 654 0006 FFF7FEFF 		bl	read
 655              	.LVL69:
 124:bq34z100.c    **** }
 656              		.loc 1 124 0
 657 000a 08BD     		pop	{r3, pc}
 658              		.cfi_endproc
 659              	.LFE688:
 660              		.size	BQ34Z100_GetSerial, .-BQ34Z100_GetSerial
 661              		.section	.text.BQ34Z100_Reset,"ax",%progbits
 662              		.align	2
 663              		.global	BQ34Z100_Reset
 664              		.thumb
 665              		.thumb_func
ARM GAS  C:\Users\thoma\AppData\Local\Temp\ccRUrbHX.s 			page 15


 666              		.type	BQ34Z100_Reset, %function
 667              	BQ34Z100_Reset:
 668              	.LFB689:
 125:bq34z100.c    **** 
 126:bq34z100.c    **** // Reset the device
 127:bq34z100.c    **** void BQ34Z100_Reset(BQ34Z100_t *device) {
 669              		.loc 1 127 0
 670              		.cfi_startproc
 671              		@ args = 0, pretend = 0, frame = 0
 672              		@ frame_needed = 0, uses_anonymous_args = 0
 673              	.LVL70:
 674 0000 08B5     		push	{r3, lr}
 675              		.cfi_def_cfa_offset 8
 676              		.cfi_offset 3, -8
 677              		.cfi_offset 14, -4
 128:bq34z100.c    ****     sendControlCommand(device, CONTROL_RESET);
 678              		.loc 1 128 0
 679 0002 4121     		movs	r1, #65
 680 0004 FFF7FEFF 		bl	sendControlCommand
 681              	.LVL71:
 129:bq34z100.c    ****     CyDelay(175);  // Wait for the device to reset properly
 682              		.loc 1 129 0
 683 0008 AF20     		movs	r0, #175
 684 000a FFF7FEFF 		bl	Cy_SysLib_Delay
 685              	.LVL72:
 686 000e 08BD     		pop	{r3, pc}
 687              		.cfi_endproc
 688              	.LFE689:
 689              		.size	BQ34Z100_Reset, .-BQ34Z100_Reset
 690              		.section	.text.BQ34Z100_Unseal,"ax",%progbits
 691              		.align	2
 692              		.global	BQ34Z100_Unseal
 693              		.thumb
 694              		.thumb_func
 695              		.type	BQ34Z100_Unseal, %function
 696              	BQ34Z100_Unseal:
 697              	.LFB690:
 130:bq34z100.c    **** }
 131:bq34z100.c    **** 
 132:bq34z100.c    **** // Unseal the device to access protected registers
 133:bq34z100.c    **** void BQ34Z100_Unseal(BQ34Z100_t *device) {
 698              		.loc 1 133 0
 699              		.cfi_startproc
 700              		@ args = 0, pretend = 0, frame = 0
 701              		@ frame_needed = 0, uses_anonymous_args = 0
 702              	.LVL73:
 703 0000 10B5     		push	{r4, lr}
 704              		.cfi_def_cfa_offset 8
 705              		.cfi_offset 4, -8
 706              		.cfi_offset 14, -4
 707 0002 0446     		mov	r4, r0
 134:bq34z100.c    ****     sendControlCommand(device, CONTROL_UNSEAL_KEY1);
 708              		.loc 1 134 0
 709 0004 40F21441 		movw	r1, #1044
 710 0008 FFF7FEFF 		bl	sendControlCommand
 711              	.LVL74:
 135:bq34z100.c    ****     sendControlCommand(device, CONTROL_UNSEAL_KEY2);
ARM GAS  C:\Users\thoma\AppData\Local\Temp\ccRUrbHX.s 			page 16


 712              		.loc 1 135 0
 713 000c 43F27261 		movw	r1, #13938
 714 0010 2046     		mov	r0, r4
 715 0012 FFF7FEFF 		bl	sendControlCommand
 716              	.LVL75:
 717 0016 10BD     		pop	{r4, pc}
 718              		.cfi_endproc
 719              	.LFE690:
 720              		.size	BQ34Z100_Unseal, .-BQ34Z100_Unseal
 721              		.section	.text.BQ34Z100_Seal,"ax",%progbits
 722              		.align	2
 723              		.global	BQ34Z100_Seal
 724              		.thumb
 725              		.thumb_func
 726              		.type	BQ34Z100_Seal, %function
 727              	BQ34Z100_Seal:
 728              	.LFB691:
 136:bq34z100.c    **** }
 137:bq34z100.c    **** 
 138:bq34z100.c    **** // Seal the device to protect registers
 139:bq34z100.c    **** void BQ34Z100_Seal(BQ34Z100_t *device) {
 729              		.loc 1 139 0
 730              		.cfi_startproc
 731              		@ args = 0, pretend = 0, frame = 0
 732              		@ frame_needed = 0, uses_anonymous_args = 0
 733              	.LVL76:
 734 0000 08B5     		push	{r3, lr}
 735              		.cfi_def_cfa_offset 8
 736              		.cfi_offset 3, -8
 737              		.cfi_offset 14, -4
 140:bq34z100.c    ****     sendControlCommand(device, CONTROL_SEALED);
 738              		.loc 1 140 0
 739 0002 2021     		movs	r1, #32
 740 0004 FFF7FEFF 		bl	sendControlCommand
 741              	.LVL77:
 742 0008 08BD     		pop	{r3, pc}
 743              		.cfi_endproc
 744              	.LFE691:
 745              		.size	BQ34Z100_Seal, .-BQ34Z100_Seal
 746 000a 00BF     		.section	.text.BQ34Z100_ChangePage,"ax",%progbits
 747              		.align	2
 748              		.global	BQ34Z100_ChangePage
 749              		.thumb
 750              		.thumb_func
 751              		.type	BQ34Z100_ChangePage, %function
 752              	BQ34Z100_ChangePage:
 753              	.LFB692:
 141:bq34z100.c    **** }
 142:bq34z100.c    **** 
 143:bq34z100.c    **** 
 144:bq34z100.c    **** void BQ34Z100_ChangePage(BQ34Z100_t *device, char subclass, uint16_t offset) {
 754              		.loc 1 144 0
 755              		.cfi_startproc
 756              		@ args = 0, pretend = 0, frame = 0
 757              		@ frame_needed = 0, uses_anonymous_args = 0
 758              	.LVL78:
 759 0000 70B5     		push	{r4, r5, r6, lr}
ARM GAS  C:\Users\thoma\AppData\Local\Temp\ccRUrbHX.s 			page 17


 760              		.cfi_def_cfa_offset 16
 761              		.cfi_offset 4, -16
 762              		.cfi_offset 5, -12
 763              		.cfi_offset 6, -8
 764              		.cfi_offset 14, -4
 765 0002 0446     		mov	r4, r0
 766 0004 0E46     		mov	r6, r1
 767 0006 1546     		mov	r5, r2
 145:bq34z100.c    ****     // Delay function call, assuming CyDelay is available. Adjust as per actual delay function used
 146:bq34z100.c    ****     CyDelay(10); // Delay 10 milliseconds
 768              		.loc 1 146 0
 769 0008 0A20     		movs	r0, #10
 770              	.LVL79:
 771 000a FFF7FEFF 		bl	Cy_SysLib_Delay
 772              	.LVL80:
 147:bq34z100.c    **** 
 148:bq34z100.c    ****     // Enable block data flash control (single byte write)
 149:bq34z100.c    ****     write(device, COMMAND_BLOCKDATACONTROL, 0x00);
 773              		.loc 1 149 0
 774 000e 0022     		movs	r2, #0
 775 0010 6121     		movs	r1, #97
 776 0012 2046     		mov	r0, r4
 777 0014 FFF7FEFF 		bl	write
 778              	.LVL81:
 150:bq34z100.c    ****     CyDelay(10); // Delay 10 milliseconds
 779              		.loc 1 150 0
 780 0018 0A20     		movs	r0, #10
 781 001a FFF7FEFF 		bl	Cy_SysLib_Delay
 782              	.LVL82:
 151:bq34z100.c    **** 
 152:bq34z100.c    ****     // Use DataFlashClass() command to access the subclass
 153:bq34z100.c    ****     write(device, COMMAND_DATAFLASHCLASS, subclass);
 783              		.loc 1 153 0
 784 001e 3246     		mov	r2, r6
 785 0020 3E21     		movs	r1, #62
 786 0022 2046     		mov	r0, r4
 787 0024 FFF7FEFF 		bl	write
 788              	.LVL83:
 154:bq34z100.c    ****     device->currFlashPage = subclass;
 789              		.loc 1 154 0
 790 0028 84F82060 		strb	r6, [r4, #32]
 155:bq34z100.c    ****     CyDelay(10); // Delay 10 milliseconds
 791              		.loc 1 155 0
 792 002c 0A20     		movs	r0, #10
 793 002e FFF7FEFF 		bl	Cy_SysLib_Delay
 794              	.LVL84:
 156:bq34z100.c    **** 
 157:bq34z100.c    ****     // Select the block offset location
 158:bq34z100.c    ****     // Blocks are 32 in size, so the offset is which block the data sits in
 159:bq34z100.c    ****     // Ex: 16 is block 0x00, 52 is block 0x01 (called "index" variable)
 160:bq34z100.c    ****     device->currFlashBlockIndex = (uint8_t)(offset / 32);
 795              		.loc 1 160 0
 796 0032 C5F34712 		ubfx	r2, r5, #5, #8
 797 0036 84F82120 		strb	r2, [r4, #33]
 161:bq34z100.c    ****     write(device, COMMAND_DATAFLASHBLOCK, device->currFlashBlockIndex);
 798              		.loc 1 161 0
 799 003a 3F21     		movs	r1, #63
ARM GAS  C:\Users\thoma\AppData\Local\Temp\ccRUrbHX.s 			page 18


 800 003c 2046     		mov	r0, r4
 801 003e FFF7FEFF 		bl	write
 802              	.LVL85:
 162:bq34z100.c    ****     CyDelay(20); // Delay 20 milliseconds
 803              		.loc 1 162 0
 804 0042 1420     		movs	r0, #20
 805 0044 FFF7FEFF 		bl	Cy_SysLib_Delay
 806              	.LVL86:
 807 0048 70BD     		pop	{r4, r5, r6, pc}
 808              		.cfi_endproc
 809              	.LFE692:
 810              		.size	BQ34Z100_ChangePage, .-BQ34Z100_ChangePage
 811 004a 00BF     		.section	.text.BQ34Z100_WriteFlash,"ax",%progbits
 812              		.align	2
 813              		.global	BQ34Z100_WriteFlash
 814              		.thumb
 815              		.thumb_func
 816              		.type	BQ34Z100_WriteFlash, %function
 817              	BQ34Z100_WriteFlash:
 818              	.LFB695:
 163:bq34z100.c    **** }
 164:bq34z100.c    **** 
 165:bq34z100.c    **** 
 166:bq34z100.c    **** void BQ34Z100_UpdateChecksum(BQ34Z100_t *device) {
 167:bq34z100.c    ****     uint8_t newChecksum = calcChecksum(device->flashbytes);
 168:bq34z100.c    **** 
 169:bq34z100.c    ****     // Send new checksum through I2C
 170:bq34z100.c    ****     write(device, COMMAND_BLOCKDATACHECKSUM, newChecksum);
 171:bq34z100.c    ****     printf("Writing new checksum for page %" PRIu8 " block %" PRIu8 ": 0x%" PRIx8 "\r\n",
 172:bq34z100.c    ****            device->currFlashPage, device->currFlashBlockIndex, newChecksum);
 173:bq34z100.c    **** 
 174:bq34z100.c    ****     CyDelay(50); // Wait for BQ34Z100 to process, may be totally overkill
 175:bq34z100.c    **** }
 176:bq34z100.c    **** 
 177:bq34z100.c    **** 
 178:bq34z100.c    **** void BQ34Z100_ReadFlash(BQ34Z100_t *device) {
 179:bq34z100.c    ****     char command = COMMAND_BLOCKDATA; // Command to read Data Flash
 180:bq34z100.c    **** 
 181:bq34z100.c    ****     // Request read flash
 182:bq34z100.c    ****     if (I2C_MasterSendStart(BQ34Z100, I2C_WRITE_XFER_MODE) != I2C_MSTR_NO_ERROR) {
 183:bq34z100.c    ****         printf("A write error has occurred when transmitting address.\r\n");
 184:bq34z100.c    ****         //return;
 185:bq34z100.c    ****     }
 186:bq34z100.c    ****     I2C_MasterWriteByte(command);
 187:bq34z100.c    ****     I2C_MasterSendStop();
 188:bq34z100.c    **** 
 189:bq34z100.c    ****     // Read all bytes from page (which is 32 bytes long)
 190:bq34z100.c    ****     if (I2C_MasterSendStart(BQ34Z100, I2C_READ_XFER_MODE) != I2C_MSTR_NO_ERROR) {
 191:bq34z100.c    ****         printf("A read error has occurred when setting read mode.\r\n");
 192:bq34z100.c    ****         return;
 193:bq34z100.c    ****     }
 194:bq34z100.c    ****     for (int i = 0; i < 32; i++) {
 195:bq34z100.c    ****         device->flashbytes[i] = I2C_MasterReadByte((i < 31) ? I2C_ACK_DATA : I2C_NAK_DATA);
 196:bq34z100.c    ****     }
 197:bq34z100.c    ****     I2C_MasterSendStop();
 198:bq34z100.c    **** 
 199:bq34z100.c    ****     // Checksum verification
ARM GAS  C:\Users\thoma\AppData\Local\Temp\ccRUrbHX.s 			page 19


 200:bq34z100.c    ****     uint8_t expectedChecksum = read(device, COMMAND_BLOCKDATACHECKSUM, 1);
 201:bq34z100.c    ****     uint8_t calculatedChecksum = calcChecksum(device->flashbytes);
 202:bq34z100.c    **** 
 203:bq34z100.c    ****     if (expectedChecksum != calculatedChecksum) {
 204:bq34z100.c    ****         printf("ERROR: Checksum of flash memory block does not match. I2C read was likely corrupted
 205:bq34z100.c    ****     }
 206:bq34z100.c    **** 
 207:bq34z100.c    ****     printf("Page %" PRIu8 " block %" PRIu8 " contents:", device->currFlashPage, device->currFlashBl
 208:bq34z100.c    ****     for (size_t byteIndex = 0; byteIndex < 32; ++byteIndex) {
 209:bq34z100.c    ****         printf(" %" PRIx8, device->flashbytes[byteIndex]);
 210:bq34z100.c    ****     }
 211:bq34z100.c    ****     printf("\r\n");
 212:bq34z100.c    ****     printf("Checksum: 0x%" PRIx8 "\r\n", expectedChecksum);
 213:bq34z100.c    **** 
 214:bq34z100.c    ****     CyDelay(10); // Wait to ensure I2C bus stability or BQ34Z100 processing; adjust as necessary
 215:bq34z100.c    **** }
 216:bq34z100.c    **** 
 217:bq34z100.c    **** 
 218:bq34z100.c    **** void BQ34Z100_WriteFlash(BQ34Z100_t *device, uint8_t index, uint32_t value, int len) {
 819              		.loc 1 218 0
 820              		.cfi_startproc
 821              		@ args = 0, pretend = 0, frame = 0
 822              		@ frame_needed = 0, uses_anonymous_args = 0
 823              	.LVL87:
 824 0000 2DE9F843 		push	{r3, r4, r5, r6, r7, r8, r9, lr}
 825              		.cfi_def_cfa_offset 32
 826              		.cfi_offset 3, -32
 827              		.cfi_offset 4, -28
 828              		.cfi_offset 5, -24
 829              		.cfi_offset 6, -20
 830              		.cfi_offset 7, -16
 831              		.cfi_offset 8, -12
 832              		.cfi_offset 9, -8
 833              		.cfi_offset 14, -4
 834 0004 0646     		mov	r6, r0
 835 0006 0F46     		mov	r7, r1
 836 0008 9146     		mov	r9, r2
 837 000a 9846     		mov	r8, r3
 219:bq34z100.c    ****     // Ensure index is within the valid range
 220:bq34z100.c    ****     if (index > 31) index %= 32;
 838              		.loc 1 220 0
 839 000c 1F29     		cmp	r1, #31
 840 000e 01D9     		bls	.L52
 841              		.loc 1 220 0 is_stmt 0 discriminator 1
 842 0010 01F01F07 		and	r7, r1, #31
 843              	.LVL88:
 844              	.L52:
 221:bq34z100.c    **** 
 222:bq34z100.c    ****     // Write to I2C bus and update the flashbytes array at the same time
 223:bq34z100.c    ****     if (len == 1) {
 845              		.loc 1 223 0 is_stmt 1
 846 0014 B8F1010F 		cmp	r8, #1
 847 0018 0FD1     		bne	.L53
 224:bq34z100.c    ****         device->flashbytes[index] = (uint8_t)value;
 848              		.loc 1 224 0
 849 001a 5FFA89F2 		uxtb	r2, r9
 850              	.LVL89:
ARM GAS  C:\Users\thoma\AppData\Local\Temp\ccRUrbHX.s 			page 20


 851 001e F255     		strb	r2, [r6, r7]
 225:bq34z100.c    ****         write(device, COMMAND_BLOCKDATA + index, (unsigned char)value);
 852              		.loc 1 225 0
 853 0020 07F14001 		add	r1, r7, #64
 854 0024 C9B2     		uxtb	r1, r1
 855 0026 3046     		mov	r0, r6
 856              	.LVL90:
 857 0028 FFF7FEFF 		bl	write
 858              	.LVL91:
 226:bq34z100.c    ****         printf("Flash[%d] <- 0x%" PRIx8 "\n", index, device->flashbytes[index]);
 859              		.loc 1 226 0
 860 002c F25D     		ldrb	r2, [r6, r7]	@ zero_extendqisi2
 861 002e 3946     		mov	r1, r7
 862 0030 1B48     		ldr	r0, .L59
 863 0032 FFF7FEFF 		bl	printf
 864              	.LVL92:
 865 0036 BDE8F883 		pop	{r3, r4, r5, r6, r7, r8, r9, pc}
 866              	.LVL93:
 867              	.L53:
 227:bq34z100.c    ****     } else if (len > 1) {
 868              		.loc 1 227 0
 869 003a B8F1010F 		cmp	r8, #1
 870 003e 15DC     		bgt	.L57
 871 0040 BDE8F883 		pop	{r3, r4, r5, r6, r7, r8, r9, pc}
 872              	.LVL94:
 873              	.L56:
 874              	.LBB5:
 228:bq34z100.c    ****         // Process every byte except the last
 229:bq34z100.c    ****         for (int i = 0; i < len - 1; i++) {
 230:bq34z100.c    ****             device->flashbytes[index + i] = (uint8_t)(value >> (8 * ((len - 1) - i)));
 875              		.loc 1 230 0 discriminator 3
 876 0044 3D19     		adds	r5, r7, r4
 877 0046 1A1B     		subs	r2, r3, r4
 878 0048 D200     		lsls	r2, r2, #3
 879 004a 29FA02F2 		lsr	r2, r9, r2
 880 004e D2B2     		uxtb	r2, r2
 881 0050 7255     		strb	r2, [r6, r5]
 231:bq34z100.c    ****             printf("Flash[%d] <- 0x%" PRIx8 "\n", index + i, device->flashbytes[index + i]);
 882              		.loc 1 231 0 discriminator 3
 883 0052 2946     		mov	r1, r5
 884 0054 1248     		ldr	r0, .L59
 885 0056 FFF7FEFF 		bl	printf
 886              	.LVL95:
 232:bq34z100.c    ****             write(device, COMMAND_BLOCKDATA + index + i, device->flashbytes[index + i]);
 887              		.loc 1 232 0 discriminator 3
 888 005a 2946     		mov	r1, r5
 889 005c 4031     		adds	r1, r1, #64
 890 005e 725D     		ldrb	r2, [r6, r5]	@ zero_extendqisi2
 891 0060 C9B2     		uxtb	r1, r1
 892 0062 3046     		mov	r0, r6
 893 0064 FFF7FEFF 		bl	write
 894              	.LVL96:
 229:bq34z100.c    ****             device->flashbytes[index + i] = (uint8_t)(value >> (8 * ((len - 1) - i)));
 895              		.loc 1 229 0 discriminator 3
 896 0068 0134     		adds	r4, r4, #1
 897              	.LVL97:
 898 006a 00E0     		b	.L55
ARM GAS  C:\Users\thoma\AppData\Local\Temp\ccRUrbHX.s 			page 21


 899              	.LVL98:
 900              	.L57:
 901              	.LBE5:
 902 006c 0024     		movs	r4, #0
 903              	.LVL99:
 904              	.L55:
 905              	.LBB6:
 229:bq34z100.c    ****             device->flashbytes[index + i] = (uint8_t)(value >> (8 * ((len - 1) - i)));
 906              		.loc 1 229 0 is_stmt 0 discriminator 1
 907 006e 08F1FF33 		add	r3, r8, #-1
 908 0072 9C42     		cmp	r4, r3
 909 0074 E6DB     		blt	.L56
 910              	.LBE6:
 233:bq34z100.c    ****         }
 234:bq34z100.c    ****         // Last byte (lower byte)
 235:bq34z100.c    ****         device->flashbytes[index + len - 1] = (uint8_t)(value & 0xFF);
 911              		.loc 1 235 0 is_stmt 1
 912 0076 07EB0804 		add	r4, r7, r8
 913              	.LVL100:
 914 007a 013C     		subs	r4, r4, #1
 915 007c 5FFA89F2 		uxtb	r2, r9
 916 0080 3255     		strb	r2, [r6, r4]
 236:bq34z100.c    ****         printf("Flash[%d] <- 0x%" PRIx8 "\n", index + len - 1, device->flashbytes[index + len - 1])
 917              		.loc 1 236 0
 918 0082 2146     		mov	r1, r4
 919 0084 0648     		ldr	r0, .L59
 920 0086 FFF7FEFF 		bl	printf
 921              	.LVL101:
 237:bq34z100.c    ****         write(device, COMMAND_BLOCKDATA + index + len - 1, device->flashbytes[index + len - 1]);
 922              		.loc 1 237 0
 923 008a 4744     		add	r7, r7, r8
 924              	.LVL102:
 925 008c 07F13F01 		add	r1, r7, #63
 926 0090 325D     		ldrb	r2, [r6, r4]	@ zero_extendqisi2
 927 0092 C9B2     		uxtb	r1, r1
 928 0094 3046     		mov	r0, r6
 929 0096 FFF7FEFF 		bl	write
 930              	.LVL103:
 931 009a BDE8F883 		pop	{r3, r4, r5, r6, r7, r8, r9, pc}
 932              	.LVL104:
 933              	.L60:
 934 009e 00BF     		.align	2
 935              	.L59:
 936 00a0 00000000 		.word	.LC0
 937              		.cfi_endproc
 938              	.LFE695:
 939              		.size	BQ34Z100_WriteFlash, .-BQ34Z100_WriteFlash
 940              		.section	.text.BQ34Z100_GetFlashBytes,"ax",%progbits
 941              		.align	2
 942              		.global	BQ34Z100_GetFlashBytes
 943              		.thumb
 944              		.thumb_func
 945              		.type	BQ34Z100_GetFlashBytes, %function
 946              	BQ34Z100_GetFlashBytes:
 947              	.LFB696:
 238:bq34z100.c    ****     }
 239:bq34z100.c    **** }
ARM GAS  C:\Users\thoma\AppData\Local\Temp\ccRUrbHX.s 			page 22


 240:bq34z100.c    **** 
 241:bq34z100.c    **** // Function to retrieve the pointer to the flashbytes array
 242:bq34z100.c    **** uint8_t* BQ34Z100_GetFlashBytes(BQ34Z100_t *device) {
 948              		.loc 1 242 0
 949              		.cfi_startproc
 950              		@ args = 0, pretend = 0, frame = 0
 951              		@ frame_needed = 0, uses_anonymous_args = 0
 952              		@ link register save eliminated.
 953              	.LVL105:
 243:bq34z100.c    ****     return device->flashbytes;
 244:bq34z100.c    **** }
 954              		.loc 1 244 0
 955 0000 7047     		bx	lr
 956              		.cfi_endproc
 957              	.LFE696:
 958              		.size	BQ34Z100_GetFlashBytes, .-BQ34Z100_GetFlashBytes
 959 0002 00BF     		.section	.text.BQ34Z100_ReadDeviceType,"ax",%progbits
 960              		.align	2
 961              		.global	BQ34Z100_ReadDeviceType
 962              		.thumb
 963              		.thumb_func
 964              		.type	BQ34Z100_ReadDeviceType, %function
 965              	BQ34Z100_ReadDeviceType:
 966              	.LFB705:
 245:bq34z100.c    **** 
 246:bq34z100.c    **** // Change to Page 48 and update design capacity and energy
 247:bq34z100.c    **** void BQ34Z100_ChangePage48(BQ34Z100_t *device) {
 248:bq34z100.c    ****     BQ34Z100_ChangePage(device, 48, 0);
 249:bq34z100.c    ****     BQ34Z100_ReadFlash(device);
 250:bq34z100.c    ****     BQ34Z100_WriteFlash(device, 11, DESIGNCAP, 2);
 251:bq34z100.c    ****     BQ34Z100_WriteFlash(device, 13, DESIGNENERGY, 2);
 252:bq34z100.c    ****     BQ34Z100_UpdateChecksum(device);
 253:bq34z100.c    ****     CyDelay(300);  // Delay for 300ms for settings to take effect
 254:bq34z100.c    **** }
 255:bq34z100.c    **** 
 256:bq34z100.c    **** // Change to Page 64 and modify configuration settings
 257:bq34z100.c    **** void BQ34Z100_ChangePage64(BQ34Z100_t *device) {
 258:bq34z100.c    ****     BQ34Z100_ChangePage(device, 64, 0);
 259:bq34z100.c    ****     BQ34Z100_ReadFlash(device);
 260:bq34z100.c    **** 
 261:bq34z100.c    ****     uint8_t packConfig_high = device->flashbytes[0];
 262:bq34z100.c    ****     uint8_t packConfig_low = device->flashbytes[1];
 263:bq34z100.c    **** 
 264:bq34z100.c    ****     if (VOLTSEL) {
 265:bq34z100.c    ****         packConfig_high |= 0x08;  // Enable external voltage divider
 266:bq34z100.c    ****     }
 267:bq34z100.c    ****     packConfig_high |= 0x40;  // Enable calibration
 268:bq34z100.c    **** 
 269:bq34z100.c    ****     packConfig_low &= ~(1);
 270:bq34z100.c    ****     packConfig_low |= USE_EXTERNAL_THERMISTOR;
 271:bq34z100.c    **** 
 272:bq34z100.c    ****     BQ34Z100_WriteFlash(device, 0, packConfig_high, 1);
 273:bq34z100.c    ****     BQ34Z100_WriteFlash(device, 1, packConfig_low, 1);
 274:bq34z100.c    **** 
 275:bq34z100.c    ****     uint8_t packConfigB = device->flashbytes[2];
 276:bq34z100.c    ****     packConfigB &= ~1;  // Disable fast convergence
 277:bq34z100.c    ****     BQ34Z100_WriteFlash(device, 2, packConfigB, 1);
ARM GAS  C:\Users\thoma\AppData\Local\Temp\ccRUrbHX.s 			page 23


 278:bq34z100.c    **** 
 279:bq34z100.c    ****     BQ34Z100_WriteFlash(device, 4, LEDCONFIG, 1);
 280:bq34z100.c    ****     BQ34Z100_WriteFlash(device, 7, 0x04, 1);  // Set number of cells
 281:bq34z100.c    ****     BQ34Z100_UpdateChecksum(device);
 282:bq34z100.c    ****     CyDelay(300);
 283:bq34z100.c    **** }
 284:bq34z100.c    **** 
 285:bq34z100.c    **** // Change to Page 80 and adjust load configuration
 286:bq34z100.c    **** void BQ34Z100_ChangePage80(BQ34Z100_t *device) {
 287:bq34z100.c    ****     BQ34Z100_ChangePage(device, 80, 0);
 288:bq34z100.c    ****     BQ34Z100_ReadFlash(device);
 289:bq34z100.c    **** 
 290:bq34z100.c    ****     BQ34Z100_WriteFlash(device, 0, LOADSELECT, 1);
 291:bq34z100.c    ****     BQ34Z100_WriteFlash(device, 1, LOADMODE, 1);
 292:bq34z100.c    ****     BQ34Z100_WriteFlash(device, 10, 10, 2);
 293:bq34z100.c    ****     BQ34Z100_UpdateChecksum(device);
 294:bq34z100.c    ****     CyDelay(300);
 295:bq34z100.c    **** 
 296:bq34z100.c    ****     BQ34Z100_ChangePage(device, 80, 53);
 297:bq34z100.c    ****     BQ34Z100_ReadFlash(device);
 298:bq34z100.c    **** 
 299:bq34z100.c    ****     BQ34Z100_WriteFlash(device, 53, ZEROCHARGEVOLT, 2);
 300:bq34z100.c    ****     BQ34Z100_UpdateChecksum(device);
 301:bq34z100.c    ****     CyDelay(300);
 302:bq34z100.c    **** }
 303:bq34z100.c    **** 
 304:bq34z100.c    **** // Change to Page 82 and update QMax
 305:bq34z100.c    **** void BQ34Z100_ChangePage82(BQ34Z100_t *device) {
 306:bq34z100.c    ****     BQ34Z100_ChangePage(device, 82, 0);
 307:bq34z100.c    ****     BQ34Z100_ReadFlash(device);
 308:bq34z100.c    ****     BQ34Z100_WriteFlash(device, 0, QMAX0, 2);
 309:bq34z100.c    ****     BQ34Z100_UpdateChecksum(device);
 310:bq34z100.c    ****     CyDelay(300);
 311:bq34z100.c    **** }
 312:bq34z100.c    **** 
 313:bq34z100.c    **** uint16_t BQ34Z100_CalibrateVoltage(BQ34Z100_t *device, uint16_t currentVoltage) {
 314:bq34z100.c    ****     BQ34Z100_ChangePage(device, 104, 0);
 315:bq34z100.c    ****     BQ34Z100_ReadFlash(device);
 316:bq34z100.c    **** 
 317:bq34z100.c    ****     // Gets the voltage divider value stored in flash
 318:bq34z100.c    ****     uint16_t flashVoltage = (uint16_t)(device->flashbytes[14] << 8);
 319:bq34z100.c    ****     flashVoltage |= (uint16_t)(device->flashbytes[15]);
 320:bq34z100.c    **** 
 321:bq34z100.c    ****     float readVoltage = (float)BQ34Z100_GetVoltage(device);
 322:bq34z100.c    ****     float newSetting = ((float)(currentVoltage) / readVoltage) * (float)(flashVoltage);
 323:bq34z100.c    ****     uint16_t writeSetting; // This 2-byte integer will be written to the chip
 324:bq34z100.c    ****     if (newSetting > 65535.0f) {
 325:bq34z100.c    ****         writeSetting = 65535;
 326:bq34z100.c    ****     } else if (newSetting < 0.0f) {
 327:bq34z100.c    ****         writeSetting = 0;
 328:bq34z100.c    ****     } else {
 329:bq34z100.c    ****         writeSetting = (uint16_t)(newSetting);
 330:bq34z100.c    ****     }
 331:bq34z100.c    ****     BQ34Z100_WriteFlash(device, 14, writeSetting, 2);
 332:bq34z100.c    ****     BQ34Z100_UpdateChecksum(device);
 333:bq34z100.c    ****     CyDelay(10); // Delay for 10ms
 334:bq34z100.c    **** 
ARM GAS  C:\Users\thoma\AppData\Local\Temp\ccRUrbHX.s 			page 24


 335:bq34z100.c    ****     // Also change the "Flash Update OK Cell Volt" as the datasheet says to:
 336:bq34z100.c    ****     BQ34Z100_ChangePage(device, 68, 0);
 337:bq34z100.c    ****     BQ34Z100_ReadFlash(device);
 338:bq34z100.c    **** 
 339:bq34z100.c    ****     int16_t oldUpdateOK = 0;
 340:bq34z100.c    ****     oldUpdateOK |= (uint16_t)(device->flashbytes[0] << 8);
 341:bq34z100.c    ****     oldUpdateOK |= device->flashbytes[1];
 342:bq34z100.c    **** 
 343:bq34z100.c    ****     int16_t newUpdateOK = (int16_t)(round(FLASH_UPDATE_OK_VOLT * CELLCOUNT * (5000.0f / writeSettin
 344:bq34z100.c    ****     printf("Changing Flash Update OK Voltage from %" PRIi16 " to %" PRIi16 "\r\n", oldUpdateOK, new
 345:bq34z100.c    **** 
 346:bq34z100.c    ****     BQ34Z100_WriteFlash(device, 0, newUpdateOK, 2);
 347:bq34z100.c    ****     BQ34Z100_UpdateChecksum(device);
 348:bq34z100.c    **** 
 349:bq34z100.c    ****     // Test output
 350:bq34z100.c    ****     printf("Register (voltage divider): %d\r\n", flashVoltage);
 351:bq34z100.c    ****     printf("New Ratio: %f\r\n", ((float)(currentVoltage) / readVoltage));
 352:bq34z100.c    ****     printf("READ VOLTAGE (mv): %f\r\n", readVoltage);
 353:bq34z100.c    ****     return writeSetting;
 354:bq34z100.c    **** }
 355:bq34z100.c    **** 
 356:bq34z100.c    **** void BQ34Z100_ResetVoltageDivider(BQ34Z100_t *device) {
 357:bq34z100.c    ****     BQ34Z100_ChangePage(device, 104, 0); // Change to page 104, offset 0
 358:bq34z100.c    ****     BQ34Z100_ReadFlash(device); // Read current settings from flash
 359:bq34z100.c    ****     BQ34Z100_WriteFlash(device, 14, RESETVOLTAGE, 2); // Write the RESETVOLTAGE value to the approp
 360:bq34z100.c    ****     BQ34Z100_UpdateChecksum(device); // Update checksum to ensure data integrity
 361:bq34z100.c    ****     CyDelay(300); // Wait for 300ms for settings to take effect
 362:bq34z100.c    **** }
 363:bq34z100.c    **** 
 364:bq34z100.c    **** void BQ34Z100_CalibrateShunt(BQ34Z100_t *device, int16_t calCurrent) {
 365:bq34z100.c    ****     if (calCurrent < 0) calCurrent = -calCurrent;
 366:bq34z100.c    **** 
 367:bq34z100.c    ****     int16_t currentReading = BQ34Z100_GetCurrent(device);
 368:bq34z100.c    ****     if (currentReading < 0) currentReading = -currentReading;
 369:bq34z100.c    **** 
 370:bq34z100.c    ****     BQ34Z100_ChangePage(device, 104, 0); // Change to page 104, offset 0 as per table 11 in datashe
 371:bq34z100.c    ****     BQ34Z100_ReadFlash(device); // Read current settings from flash
 372:bq34z100.c    ****     CyDelay(30); // Wait for 30ms
 373:bq34z100.c    **** 
 374:bq34z100.c    ****     // Read and convert CC Gain
 375:bq34z100.c    ****     uint32_t currentGainDF = ((uint32_t)device->flashbytes[0] << 24) | ((uint32_t)device->flashbyte
 376:bq34z100.c    ****                              ((uint32_t)device->flashbytes[2] << 8) | (uint32_t)device->flashbytes[
 377:bq34z100.c    ****     float currentGainResistance = (4.768f / xemicsToFloat(currentGainDF));
 378:bq34z100.c    **** 
 379:bq34z100.c    ****     uint32_t currentDeltaDF = ((uint32_t)device->flashbytes[4] << 24) | ((uint32_t)device->flashbyt
 380:bq34z100.c    ****                               ((uint32_t)device->flashbytes[6] << 8) | (uint32_t)device->flashbytes
 381:bq34z100.c    ****     float currentDeltaResistance = (5677445 / xemicsToFloat(currentGainDF));
 382:bq34z100.c    **** 
 383:bq34z100.c    ****     float newGain = (((float)currentReading) / ((float)calCurrent)) * currentGainResistance;
 384:bq34z100.c    **** 
 385:bq34z100.c    ****     uint32_t newGainDF = floatToXemics(4.768 / newGain);
 386:bq34z100.c    ****     float DeltaDF = floatToXemics(5677445 / newGain);
 387:bq34z100.c    **** 
 388:bq34z100.c    ****     printf("currentGainDF = 0x%" PRIx32 ", currentGainResistance = %f, currentDeltaDF = %" PRIx32 "
 389:bq34z100.c    ****            currentGainDF, currentGainResistance, currentDeltaDF, currentDeltaResistance, newGain, n
 390:bq34z100.c    **** 
 391:bq34z100.c    ****     BQ34Z100_WriteFlash(device, 0, newGainDF, 4);
ARM GAS  C:\Users\thoma\AppData\Local\Temp\ccRUrbHX.s 			page 25


 392:bq34z100.c    ****     BQ34Z100_WriteFlash(device, 4, DeltaDF, 4);
 393:bq34z100.c    **** 
 394:bq34z100.c    ****     BQ34Z100_UpdateChecksum(device);
 395:bq34z100.c    ****     CyDelay(300); // Delay for 300ms for settings to take effect
 396:bq34z100.c    **** }
 397:bq34z100.c    **** 
 398:bq34z100.c    **** void BQ34Z100_SetSenseResistor(BQ34Z100_t *device) {
 399:bq34z100.c    ****     BQ34Z100_ChangePage(device, 104, 0);
 400:bq34z100.c    ****     BQ34Z100_ReadFlash(device);
 401:bq34z100.c    ****     CyDelay(30); // Delay to ensure data is ready
 402:bq34z100.c    **** 
 403:bq34z100.c    ****     // Constants used to convert mOhm to the BQ34Z100 data flash units
 404:bq34z100.c    ****     uint32_t GainDF = floatToXemics(4.768 / SENSE_RES);
 405:bq34z100.c    ****     uint32_t DeltaDF = floatToXemics(5677445 / SENSE_RES);
 406:bq34z100.c    ****     BQ34Z100_WriteFlash(device, 0, GainDF, 4);
 407:bq34z100.c    ****     BQ34Z100_WriteFlash(device, 4, DeltaDF, 4);
 408:bq34z100.c    **** 
 409:bq34z100.c    ****     printf("newGain = %f, GainDF = 0x%" PRIx32 "\n", SENSE_RES, GainDF);
 410:bq34z100.c    **** 
 411:bq34z100.c    ****     BQ34Z100_UpdateChecksum(device);
 412:bq34z100.c    ****     CyDelay(300); // Wait for changes to take effect
 413:bq34z100.c    **** }
 414:bq34z100.c    **** 
 415:bq34z100.c    **** uint16_t BQ34Z100_ReadDeviceType(BQ34Z100_t *device) {
 967              		.loc 1 415 0
 968              		.cfi_startproc
 969              		@ args = 0, pretend = 0, frame = 0
 970              		@ frame_needed = 0, uses_anonymous_args = 0
 971              	.LVL106:
 972 0000 08B5     		push	{r3, lr}
 973              		.cfi_def_cfa_offset 8
 974              		.cfi_offset 3, -8
 975              		.cfi_offset 14, -4
 416:bq34z100.c    ****     return readControlCommand(device, CONTROL_DEVICE_TYPE);
 976              		.loc 1 416 0
 977 0002 0121     		movs	r1, #1
 978 0004 FFF7FEFF 		bl	readControlCommand
 979              	.LVL107:
 417:bq34z100.c    **** }
 980              		.loc 1 417 0
 981 0008 08BD     		pop	{r3, pc}
 982              		.cfi_endproc
 983              	.LFE705:
 984              		.size	BQ34Z100_ReadDeviceType, .-BQ34Z100_ReadDeviceType
 985 000a 00BF     		.section	.text.BQ34Z100_ReadFWVersion,"ax",%progbits
 986              		.align	2
 987              		.global	BQ34Z100_ReadFWVersion
 988              		.thumb
 989              		.thumb_func
 990              		.type	BQ34Z100_ReadFWVersion, %function
 991              	BQ34Z100_ReadFWVersion:
 992              	.LFB706:
 418:bq34z100.c    **** 
 419:bq34z100.c    **** uint16_t BQ34Z100_ReadFWVersion(BQ34Z100_t *device) {
 993              		.loc 1 419 0
 994              		.cfi_startproc
 995              		@ args = 0, pretend = 0, frame = 0
ARM GAS  C:\Users\thoma\AppData\Local\Temp\ccRUrbHX.s 			page 26


 996              		@ frame_needed = 0, uses_anonymous_args = 0
 997              	.LVL108:
 998 0000 08B5     		push	{r3, lr}
 999              		.cfi_def_cfa_offset 8
 1000              		.cfi_offset 3, -8
 1001              		.cfi_offset 14, -4
 420:bq34z100.c    ****     return readControlCommand(device, CONTROL_FW_VERSION);
 1002              		.loc 1 420 0
 1003 0002 0221     		movs	r1, #2
 1004 0004 FFF7FEFF 		bl	readControlCommand
 1005              	.LVL109:
 421:bq34z100.c    **** }
 1006              		.loc 1 421 0
 1007 0008 08BD     		pop	{r3, pc}
 1008              		.cfi_endproc
 1009              	.LFE706:
 1010              		.size	BQ34Z100_ReadFWVersion, .-BQ34Z100_ReadFWVersion
 1011 000a 00BF     		.section	.text.BQ34Z100_ReadHWVersion,"ax",%progbits
 1012              		.align	2
 1013              		.global	BQ34Z100_ReadHWVersion
 1014              		.thumb
 1015              		.thumb_func
 1016              		.type	BQ34Z100_ReadHWVersion, %function
 1017              	BQ34Z100_ReadHWVersion:
 1018              	.LFB707:
 422:bq34z100.c    **** 
 423:bq34z100.c    **** uint16_t BQ34Z100_ReadHWVersion(BQ34Z100_t *device) {
 1019              		.loc 1 423 0
 1020              		.cfi_startproc
 1021              		@ args = 0, pretend = 0, frame = 0
 1022              		@ frame_needed = 0, uses_anonymous_args = 0
 1023              	.LVL110:
 1024 0000 08B5     		push	{r3, lr}
 1025              		.cfi_def_cfa_offset 8
 1026              		.cfi_offset 3, -8
 1027              		.cfi_offset 14, -4
 424:bq34z100.c    ****     return readControlCommand(device, CONTROL_HW_VERSION);
 1028              		.loc 1 424 0
 1029 0002 0321     		movs	r1, #3
 1030 0004 FFF7FEFF 		bl	readControlCommand
 1031              	.LVL111:
 425:bq34z100.c    **** }
 1032              		.loc 1 425 0
 1033 0008 08BD     		pop	{r3, pc}
 1034              		.cfi_endproc
 1035              	.LFE707:
 1036              		.size	BQ34Z100_ReadHWVersion, .-BQ34Z100_ReadHWVersion
 1037              		.global	__aeabi_f2d
 1038              		.global	__aeabi_dadd
 1039              		.global	__aeabi_d2iz
 1040              		.global	__aeabi_d2f
 1041              		.global	__aeabi_dmul
 1042 000a 00BF     		.section	.text.floatToXemics,"ax",%progbits
 1043              		.align	2
 1044              		.global	floatToXemics
 1045              		.thumb
 1046              		.thumb_func
ARM GAS  C:\Users\thoma\AppData\Local\Temp\ccRUrbHX.s 			page 27


 1047              		.type	floatToXemics, %function
 1048              	floatToXemics:
 1049              	.LFB708:
 426:bq34z100.c    **** 
 427:bq34z100.c    **** 
 428:bq34z100.c    **** // Convert float to Xemics floating point format
 429:bq34z100.c    **** uint32_t floatToXemics(float value) {
 1050              		.loc 1 429 0
 1051              		.cfi_startproc
 1052              		@ args = 0, pretend = 0, frame = 0
 1053              		@ frame_needed = 0, uses_anonymous_args = 0
 1054              	.LVL112:
 1055 0000 2DE9F843 		push	{r3, r4, r5, r6, r7, r8, r9, lr}
 1056              		.cfi_def_cfa_offset 32
 1057              		.cfi_offset 3, -32
 1058              		.cfi_offset 4, -28
 1059              		.cfi_offset 5, -24
 1060              		.cfi_offset 6, -20
 1061              		.cfi_offset 7, -16
 1062              		.cfi_offset 8, -12
 1063              		.cfi_offset 9, -8
 1064              		.cfi_offset 14, -4
 1065 0004 07EE900A 		vmov	s15, r0
 1066              	.LVL113:
 430:bq34z100.c    ****     int iByte1, iByte2, iByte3, iByte4, iExp;
 431:bq34z100.c    ****     bool bNegative = false;
 432:bq34z100.c    ****     float fMantissa;
 433:bq34z100.c    ****     
 434:bq34z100.c    ****     // Handle zero input gracefully
 435:bq34z100.c    ****     if (value == 0) value = 0.00001F;
 1067              		.loc 1 435 0
 1068 0008 F5EE407A 		vcmp.f32	s15, #0
 1069 000c F1EE10FA 		vmrs	APSR_nzcv, FPSCR
 1070 0010 01D1     		bne	.L69
 1071 0012 DFED3B7A 		vldr.32	s15, .L78+8
 1072              	.L69:
 1073              	.LVL114:
 436:bq34z100.c    **** 
 437:bq34z100.c    ****     if (value < 0) {
 1074              		.loc 1 437 0
 1075 0016 F5EEC07A 		vcmpe.f32	s15, #0
 1076 001a F1EE10FA 		vmrs	APSR_nzcv, FPSCR
 1077 001e 03D5     		bpl	.L76
 1078              	.LVL115:
 438:bq34z100.c    ****         bNegative = true;
 439:bq34z100.c    ****         value = -value;
 1079              		.loc 1 439 0
 1080 0020 F1EE677A 		vneg.f32	s15, s15
 1081              	.LVL116:
 438:bq34z100.c    ****         bNegative = true;
 1082              		.loc 1 438 0
 1083 0024 0127     		movs	r7, #1
 1084 0026 00E0     		b	.L70
 1085              	.LVL117:
 1086              	.L76:
 431:bq34z100.c    ****     float fMantissa;
 1087              		.loc 1 431 0
ARM GAS  C:\Users\thoma\AppData\Local\Temp\ccRUrbHX.s 			page 28


 1088 0028 0027     		movs	r7, #0
 1089              	.LVL118:
 1090              	.L70:
 440:bq34z100.c    ****     }
 441:bq34z100.c    **** 
 442:bq34z100.c    ****     // Calculate exponent
 443:bq34z100.c    ****     iExp = (int)(log(value) / log(2) + 1);
 1091              		.loc 1 443 0
 1092 002a 17EE900A 		vmov	r0, s15
 1093 002e FFF7FEFF 		bl	__aeabi_f2d
 1094              	.LVL119:
 1095 0032 0446     		mov	r4, r0
 1096 0034 0D46     		mov	r5, r1
 1097 0036 FFF7FEFF 		bl	log
 1098              	.LVL120:
 1099 003a 2FA3     		adr	r3, .L78
 1100 003c D3E90023 		ldrd	r2, [r3]
 1101 0040 FFF7FEFF 		bl	__aeabi_ddiv
 1102              	.LVL121:
 1103 0044 0022     		movs	r2, #0
 1104 0046 2F4B     		ldr	r3, .L78+12
 1105 0048 FFF7FEFF 		bl	__aeabi_dadd
 1106              	.LVL122:
 1107 004c FFF7FEFF 		bl	__aeabi_d2iz
 1108              	.LVL123:
 444:bq34z100.c    **** 
 445:bq34z100.c    ****     // MS byte is the exponent + 0x80
 446:bq34z100.c    ****     iByte1 = iExp + 128;
 1109              		.loc 1 446 0
 1110 0050 00F18006 		add	r6, r0, #128
 1111              	.LVL124:
 447:bq34z100.c    **** 
 448:bq34z100.c    ****     // Calculate mantissa
 449:bq34z100.c    ****     fMantissa = value / pow(2, iExp);
 1112              		.loc 1 449 0
 1113 0054 FFF7FEFF 		bl	__aeabi_i2d
 1114              	.LVL125:
 1115 0058 0246     		mov	r2, r0
 1116 005a 0B46     		mov	r3, r1
 1117 005c 0020     		movs	r0, #0
 1118 005e 4FF08041 		mov	r1, #1073741824
 1119 0062 FFF7FEFF 		bl	pow
 1120              	.LVL126:
 1121 0066 0246     		mov	r2, r0
 1122 0068 0B46     		mov	r3, r1
 1123 006a 2046     		mov	r0, r4
 1124 006c 2946     		mov	r1, r5
 1125 006e FFF7FEFF 		bl	__aeabi_ddiv
 1126              	.LVL127:
 1127 0072 FFF7FEFF 		bl	__aeabi_d2f
 1128              	.LVL128:
 450:bq34z100.c    ****     fMantissa = fMantissa / pow(2, -24);
 451:bq34z100.c    **** 
 452:bq34z100.c    ****     // Convert mantissa into three bytes
 453:bq34z100.c    ****     iByte2 = (int)(fMantissa / pow(2, 16));
 1129              		.loc 1 453 0
 1130 0076 DFED247A 		vldr.32	s15, .L78+16
ARM GAS  C:\Users\thoma\AppData\Local\Temp\ccRUrbHX.s 			page 29


 1131 007a 07EE100A 		vmov	s14, r0
 1132 007e 67EE277A 		vmul.f32	s15, s14, s15
 1133              	.LVL129:
 1134 0082 17EE900A 		vmov	r0, s15
 1135 0086 FFF7FEFF 		bl	__aeabi_f2d
 1136              	.LVL130:
 1137 008a 8046     		mov	r8, r0
 1138 008c 8946     		mov	r9, r1
 1139 008e 0022     		movs	r2, #0
 1140 0090 1E4B     		ldr	r3, .L78+20
 1141 0092 FFF7FEFF 		bl	__aeabi_dmul
 1142              	.LVL131:
 1143 0096 FFF7FEFF 		bl	__aeabi_d2iz
 1144              	.LVL132:
 1145 009a 0446     		mov	r4, r0
 1146              	.LVL133:
 454:bq34z100.c    ****     iByte3 = (int)((fMantissa - (iByte2 * pow(2, 16))) / pow(2, 8));
 1147              		.loc 1 454 0
 1148 009c FFF7FEFF 		bl	__aeabi_i2d
 1149              	.LVL134:
 1150 00a0 0022     		movs	r2, #0
 1151 00a2 1B4B     		ldr	r3, .L78+24
 1152 00a4 FFF7FEFF 		bl	__aeabi_dmul
 1153              	.LVL135:
 1154 00a8 0246     		mov	r2, r0
 1155 00aa 0B46     		mov	r3, r1
 1156 00ac 4046     		mov	r0, r8
 1157 00ae 4946     		mov	r1, r9
 1158 00b0 FFF7FEFF 		bl	__aeabi_dsub
 1159              	.LVL136:
 1160 00b4 8046     		mov	r8, r0
 1161 00b6 8946     		mov	r9, r1
 1162 00b8 0022     		movs	r2, #0
 1163 00ba 164B     		ldr	r3, .L78+28
 1164 00bc FFF7FEFF 		bl	__aeabi_dmul
 1165              	.LVL137:
 1166 00c0 FFF7FEFF 		bl	__aeabi_d2iz
 1167              	.LVL138:
 1168 00c4 0546     		mov	r5, r0
 1169              	.LVL139:
 455:bq34z100.c    ****     iByte4 = (int)(fMantissa - (iByte2 * pow(2, 16)) - (iByte3 * pow(2, 8)));
 1170              		.loc 1 455 0
 1171 00c6 FFF7FEFF 		bl	__aeabi_i2d
 1172              	.LVL140:
 1173 00ca 0022     		movs	r2, #0
 1174 00cc 124B     		ldr	r3, .L78+32
 1175 00ce FFF7FEFF 		bl	__aeabi_dmul
 1176              	.LVL141:
 1177 00d2 0246     		mov	r2, r0
 1178 00d4 0B46     		mov	r3, r1
 1179 00d6 4046     		mov	r0, r8
 1180 00d8 4946     		mov	r1, r9
 1181 00da FFF7FEFF 		bl	__aeabi_dsub
 1182              	.LVL142:
 1183 00de FFF7FEFF 		bl	__aeabi_d2iz
 1184              	.LVL143:
 456:bq34z100.c    **** 
ARM GAS  C:\Users\thoma\AppData\Local\Temp\ccRUrbHX.s 			page 30


 457:bq34z100.c    ****     // Apply sign bit condition
 458:bq34z100.c    ****     if (!bNegative) {
 1185              		.loc 1 458 0
 1186 00e2 0FB9     		cbnz	r7, .L72
 459:bq34z100.c    ****         iByte2 = iByte2 & 0x7F;
 1187              		.loc 1 459 0
 1188 00e4 04F07F04 		and	r4, r4, #127
 1189              	.LVL144:
 1190              	.L72:
 460:bq34z100.c    ****     }
 461:bq34z100.c    **** 
 462:bq34z100.c    ****     return (uint32_t)(iByte1 << 24 | iByte2 << 16 | iByte3 << 8 | iByte4);
 1191              		.loc 1 462 0
 1192 00e8 2304     		lsls	r3, r4, #16
 1193 00ea 43EA0664 		orr	r4, r3, r6, lsl #24
 1194              	.LVL145:
 1195 00ee 44EA0524 		orr	r4, r4, r5, lsl #8
 463:bq34z100.c    **** }
 1196              		.loc 1 463 0
 1197 00f2 2043     		orrs	r0, r0, r4
 1198              	.LVL146:
 1199 00f4 BDE8F883 		pop	{r3, r4, r5, r6, r7, r8, r9, pc}
 1200              	.LVL147:
 1201              	.L79:
 1202              		.align	3
 1203              	.L78:
 1204 00f8 EF39FAFE 		.word	-17155601
 1205 00fc 422EE63F 		.word	1072049730
 1206 0100 ACC52737 		.word	925353388
 1207 0104 0000F03F 		.word	1072693248
 1208 0108 0000804B 		.word	1266679808
 1209 010c 0000F03E 		.word	1055916032
 1210 0110 0000F040 		.word	1089470464
 1211 0114 0000703F 		.word	1064304640
 1212 0118 00007040 		.word	1081081856
 1213              		.cfi_endproc
 1214              	.LFE708:
 1215              		.size	floatToXemics, .-floatToXemics
 1216              		.section	.text.xemicsToFloat,"ax",%progbits
 1217              		.align	2
 1218              		.global	xemicsToFloat
 1219              		.thumb
 1220              		.thumb_func
 1221              		.type	xemicsToFloat, %function
 1222              	xemicsToFloat:
 1223              	.LFB709:
 464:bq34z100.c    **** 
 465:bq34z100.c    **** // Convert Xemics floating point format to float
 466:bq34z100.c    **** float xemicsToFloat(uint32_t xemics) {
 1224              		.loc 1 466 0
 1225              		.cfi_startproc
 1226              		@ args = 0, pretend = 0, frame = 0
 1227              		@ frame_needed = 0, uses_anonymous_args = 0
 1228              	.LVL148:
 1229 0000 F8B5     		push	{r3, r4, r5, r6, r7, lr}
 1230              		.cfi_def_cfa_offset 24
 1231              		.cfi_offset 3, -24
ARM GAS  C:\Users\thoma\AppData\Local\Temp\ccRUrbHX.s 			page 31


 1232              		.cfi_offset 4, -20
 1233              		.cfi_offset 5, -16
 1234              		.cfi_offset 6, -12
 1235              		.cfi_offset 7, -8
 1236              		.cfi_offset 14, -4
 1237 0002 0446     		mov	r4, r0
 1238              	.LVL149:
 467:bq34z100.c    ****     bool bIsPositive = true;
 468:bq34z100.c    ****     float fExponent, fResult;
 469:bq34z100.c    ****     uint8_t vMSByte = (uint8_t)(xemics >> 24);
 1239              		.loc 1 469 0
 1240 0004 000E     		lsrs	r0, r0, #24
 1241              	.LVL150:
 470:bq34z100.c    ****     uint8_t vMidHiByte = (uint8_t)(xemics >> 16);
 1242              		.loc 1 470 0
 1243 0006 230C     		lsrs	r3, r4, #16
 1244 0008 DEB2     		uxtb	r6, r3
 1245              	.LVL151:
 471:bq34z100.c    ****     uint8_t vMidLoByte = (uint8_t)(xemics >> 8);
 1246              		.loc 1 471 0
 1247 000a 250A     		lsrs	r5, r4, #8
 1248              	.LVL152:
 472:bq34z100.c    ****     uint8_t vLSByte = (uint8_t)xemics;
 473:bq34z100.c    **** 
 474:bq34z100.c    ****     // Determine sign from the mid-high byte
 475:bq34z100.c    ****     if (vMidHiByte & 0x80) {
 1249              		.loc 1 475 0
 1250 000c 13F0800F 		tst	r3, #128
 1251 0010 01D1     		bne	.L83
 467:bq34z100.c    ****     float fExponent, fResult;
 1252              		.loc 1 467 0
 1253 0012 0127     		movs	r7, #1
 1254 0014 00E0     		b	.L81
 1255              	.L83:
 476:bq34z100.c    ****         bIsPositive = false;
 1256              		.loc 1 476 0
 1257 0016 0027     		movs	r7, #0
 1258              	.L81:
 1259              	.LVL153:
 477:bq34z100.c    ****     }
 478:bq34z100.c    **** 
 479:bq34z100.c    ****     // Extract exponent
 480:bq34z100.c    ****     fExponent = pow(2, (vMSByte - 128));
 1260              		.loc 1 480 0
 1261 0018 8038     		subs	r0, r0, #128
 1262              	.LVL154:
 1263 001a FFF7FEFF 		bl	__aeabi_i2d
 1264              	.LVL155:
 1265 001e 0246     		mov	r2, r0
 1266 0020 0B46     		mov	r3, r1
 1267 0022 0020     		movs	r0, #0
 1268 0024 4FF08041 		mov	r1, #1073741824
 1269 0028 FFF7FEFF 		bl	pow
 1270              	.LVL156:
 1271 002c FFF7FEFF 		bl	__aeabi_d2f
 1272              	.LVL157:
 481:bq34z100.c    **** 
ARM GAS  C:\Users\thoma\AppData\Local\Temp\ccRUrbHX.s 			page 32


 482:bq34z100.c    ****     // Restore mantissa
 483:bq34z100.c    ****     vMidHiByte |= 0x80;
 1273              		.loc 1 483 0
 1274 0030 46F08006 		orr	r6, r6, #128
 1275              	.LVL158:
 484:bq34z100.c    ****     fResult = vMidHiByte * 65536 + vMidLoByte * 256 + vLSByte;
 1276              		.loc 1 484 0
 1277 0034 EDB2     		uxtb	r5, r5
 1278 0036 05EB0625 		add	r5, r5, r6, lsl #8
 1279              	.LVL159:
 1280 003a E4B2     		uxtb	r4, r4
 1281              	.LVL160:
 1282 003c 04EB0523 		add	r3, r4, r5, lsl #8
 1283 0040 07EE903A 		vmov	s15, r3	@ int
 1284 0044 F8EEE77A 		vcvt.f32.s32	s15, s15
 1285              	.LVL161:
 485:bq34z100.c    ****     fResult = fResult * pow(2, -24); // Convert to fraction
 1286              		.loc 1 485 0
 1287 0048 9FED087A 		vldr.32	s14, .L86
 1288 004c 67EE877A 		vmul.f32	s15, s15, s14
 1289              	.LVL162:
 486:bq34z100.c    ****     fResult = fResult * fExponent;   // Apply exponent
 1290              		.loc 1 486 0
 1291 0050 07EE100A 		vmov	s14, r0
 1292 0054 67EE277A 		vmul.f32	s15, s14, s15
 1293              	.LVL163:
 487:bq34z100.c    **** 
 488:bq34z100.c    ****     // Apply sign
 489:bq34z100.c    ****     return bIsPositive ? fResult : -fResult;
 1294              		.loc 1 489 0
 1295 0058 27B9     		cbnz	r7, .L84
 1296              		.loc 1 489 0 is_stmt 0 discriminator 2
 1297 005a F1EE677A 		vneg.f32	s15, s15
 1298              	.LVL164:
 1299 005e 17EE900A 		vmov	r0, s15
 1300              	.LVL165:
 1301 0062 F8BD     		pop	{r3, r4, r5, r6, r7, pc}
 1302              	.LVL166:
 1303              	.L84:
 1304              		.loc 1 489 0
 1305 0064 17EE900A 		vmov	r0, s15
 1306              	.LVL167:
 490:bq34z100.c    **** }
 1307              		.loc 1 490 0 is_stmt 1
 1308 0068 F8BD     		pop	{r3, r4, r5, r6, r7, pc}
 1309              	.LVL168:
 1310              	.L87:
 1311 006a 00BF     		.align	2
 1312              	.L86:
 1313 006c 00008033 		.word	864026624
 1314              		.cfi_endproc
 1315              	.LFE709:
 1316              		.size	xemicsToFloat, .-xemicsToFloat
 1317              		.section	.text.BQ34Z100_GetFlags,"ax",%progbits
 1318              		.align	2
 1319              		.global	BQ34Z100_GetFlags
 1320              		.thumb
ARM GAS  C:\Users\thoma\AppData\Local\Temp\ccRUrbHX.s 			page 33


 1321              		.thumb_func
 1322              		.type	BQ34Z100_GetFlags, %function
 1323              	BQ34Z100_GetFlags:
 1324              	.LFB711:
 491:bq34z100.c    **** 
 492:bq34z100.c    **** uint8_t BQ34Z100_GetUpdateStatus(BQ34Z100_t *device) {
 493:bq34z100.c    ****     BQ34Z100_ChangePage(device, 82, 0); // Change to page 82, offset 0
 494:bq34z100.c    ****     BQ34Z100_ReadFlash(device); // Read the data from flash into the buffer
 495:bq34z100.c    ****     return device->flashbytes[4]; // Return the status byte from the flash memory buffer
 496:bq34z100.c    **** }
 497:bq34z100.c    **** 
 498:bq34z100.c    **** BQ34Z100_Flags_t BQ34Z100_GetFlags(BQ34Z100_t *device) {
 1325              		.loc 1 498 0
 1326              		.cfi_startproc
 1327              		@ args = 0, pretend = 0, frame = 8
 1328              		@ frame_needed = 0, uses_anonymous_args = 0
 1329              	.LVL169:
 1330 0000 30B5     		push	{r4, r5, lr}
 1331              		.cfi_def_cfa_offset 12
 1332              		.cfi_offset 4, -12
 1333              		.cfi_offset 5, -8
 1334              		.cfi_offset 14, -4
 1335 0002 83B0     		sub	sp, sp, #12
 1336              		.cfi_def_cfa_offset 24
 1337 0004 0546     		mov	r5, r0
 499:bq34z100.c    ****     uint16_t flags = read(device, COMMAND_FLAGS, 2);
 1338              		.loc 1 499 0
 1339 0006 0222     		movs	r2, #2
 1340 0008 0E21     		movs	r1, #14
 1341 000a FFF7FEFF 		bl	read
 1342              	.LVL170:
 1343 000e 84B2     		uxth	r4, r0
 1344              	.LVL171:
 500:bq34z100.c    ****     uint16_t flagsB = read(device, COMMAND_FLAGSB, 2);
 1345              		.loc 1 500 0
 1346 0010 0222     		movs	r2, #2
 1347 0012 1221     		movs	r1, #18
 1348 0014 2846     		mov	r0, r5
 1349 0016 FFF7FEFF 		bl	read
 1350              	.LVL172:
 501:bq34z100.c    **** 
 502:bq34z100.c    ****     BQ34Z100_Flags_t result;
 503:bq34z100.c    ****     result.flagA = flags;
 1351              		.loc 1 503 0
 1352 001a ADF80040 		strh	r4, [sp]	@ movhi
 504:bq34z100.c    ****     result.flagB = flagsB;
 1353              		.loc 1 504 0
 1354 001e ADF80200 		strh	r0, [sp, #2]	@ movhi
 505:bq34z100.c    **** 
 506:bq34z100.c    ****     return result;
 1355              		.loc 1 506 0
 1356 0022 009B     		ldr	r3, [sp]
 1357 0024 0020     		movs	r0, #0
 1358              	.LVL173:
 1359 0026 9AB2     		uxth	r2, r3
 1360 0028 62F30F00 		bfi	r0, r2, #0, #16
 1361 002c 1B0C     		lsrs	r3, r3, #16
ARM GAS  C:\Users\thoma\AppData\Local\Temp\ccRUrbHX.s 			page 34


 1362 002e 63F31F40 		bfi	r0, r3, #16, #16
 507:bq34z100.c    **** }
 1363              		.loc 1 507 0
 1364 0032 03B0     		add	sp, sp, #12
 1365              		.cfi_def_cfa_offset 12
 1366              		@ sp needed
 1367 0034 30BD     		pop	{r4, r5, pc}
 1368              		.cfi_endproc
 1369              	.LFE711:
 1370              		.size	BQ34Z100_GetFlags, .-BQ34Z100_GetFlags
 1371 0036 00BF     		.section	.text.calcChecksum,"ax",%progbits
 1372              		.align	2
 1373              		.global	calcChecksum
 1374              		.thumb
 1375              		.thumb_func
 1376              		.type	calcChecksum, %function
 1377              	calcChecksum:
 1378              	.LFB712:
 508:bq34z100.c    **** 
 509:bq34z100.c    **** uint8_t calcChecksum(uint8_t *flashbytes) {
 1379              		.loc 1 509 0
 1380              		.cfi_startproc
 1381              		@ args = 0, pretend = 0, frame = 0
 1382              		@ frame_needed = 0, uses_anonymous_args = 0
 1383              		@ link register save eliminated.
 1384              	.LVL174:
 1385              	.LBB7:
 510:bq34z100.c    ****     uint8_t sum = 0;
 511:bq34z100.c    ****     for (int i = 0; i < 32; i++) {
 1386              		.loc 1 511 0
 1387 0000 0022     		movs	r2, #0
 1388              	.LBE7:
 510:bq34z100.c    ****     uint8_t sum = 0;
 1389              		.loc 1 510 0
 1390 0002 1346     		mov	r3, r2
 1391              	.LBB8:
 1392              		.loc 1 511 0
 1393 0004 03E0     		b	.L91
 1394              	.LVL175:
 1395              	.L92:
 512:bq34z100.c    ****         sum += flashbytes[i];
 1396              		.loc 1 512 0 discriminator 3
 1397 0006 815C     		ldrb	r1, [r0, r2]	@ zero_extendqisi2
 1398 0008 0B44     		add	r3, r3, r1
 1399              	.LVL176:
 1400 000a DBB2     		uxtb	r3, r3
 1401              	.LVL177:
 511:bq34z100.c    ****         sum += flashbytes[i];
 1402              		.loc 1 511 0 discriminator 3
 1403 000c 0132     		adds	r2, r2, #1
 1404              	.LVL178:
 1405              	.L91:
 511:bq34z100.c    ****         sum += flashbytes[i];
 1406              		.loc 1 511 0 is_stmt 0 discriminator 1
 1407 000e 1F2A     		cmp	r2, #31
 1408 0010 F9DD     		ble	.L92
 1409              	.LBE8:
ARM GAS  C:\Users\thoma\AppData\Local\Temp\ccRUrbHX.s 			page 35


 513:bq34z100.c    ****     }
 514:bq34z100.c    ****     return 255 - sum;
 1410              		.loc 1 514 0 is_stmt 1
 1411 0012 D843     		mvns	r0, r3
 1412              	.LVL179:
 515:bq34z100.c    **** }
 1413              		.loc 1 515 0
 1414 0014 C0B2     		uxtb	r0, r0
 1415 0016 7047     		bx	lr
 1416              		.cfi_endproc
 1417              	.LFE712:
 1418              		.size	calcChecksum, .-calcChecksum
 1419              		.section	.text.BQ34Z100_UpdateChecksum,"ax",%progbits
 1420              		.align	2
 1421              		.global	BQ34Z100_UpdateChecksum
 1422              		.thumb
 1423              		.thumb_func
 1424              		.type	BQ34Z100_UpdateChecksum, %function
 1425              	BQ34Z100_UpdateChecksum:
 1426              	.LFB693:
 166:bq34z100.c    ****     uint8_t newChecksum = calcChecksum(device->flashbytes);
 1427              		.loc 1 166 0
 1428              		.cfi_startproc
 1429              		@ args = 0, pretend = 0, frame = 0
 1430              		@ frame_needed = 0, uses_anonymous_args = 0
 1431              	.LVL180:
 1432 0000 38B5     		push	{r3, r4, r5, lr}
 1433              		.cfi_def_cfa_offset 16
 1434              		.cfi_offset 3, -16
 1435              		.cfi_offset 4, -12
 1436              		.cfi_offset 5, -8
 1437              		.cfi_offset 14, -4
 1438 0002 0446     		mov	r4, r0
 167:bq34z100.c    **** 
 1439              		.loc 1 167 0
 1440 0004 FFF7FEFF 		bl	calcChecksum
 1441              	.LVL181:
 1442 0008 0546     		mov	r5, r0
 1443              	.LVL182:
 170:bq34z100.c    ****     printf("Writing new checksum for page %" PRIu8 " block %" PRIu8 ": 0x%" PRIx8 "\r\n",
 1444              		.loc 1 170 0
 1445 000a 0246     		mov	r2, r0
 1446 000c 6021     		movs	r1, #96
 1447 000e 2046     		mov	r0, r4
 1448              	.LVL183:
 1449 0010 FFF7FEFF 		bl	write
 1450              	.LVL184:
 171:bq34z100.c    ****            device->currFlashPage, device->currFlashBlockIndex, newChecksum);
 1451              		.loc 1 171 0
 1452 0014 2B46     		mov	r3, r5
 1453 0016 94F82120 		ldrb	r2, [r4, #33]	@ zero_extendqisi2
 1454 001a 94F82010 		ldrb	r1, [r4, #32]	@ zero_extendqisi2
 1455 001e 0348     		ldr	r0, .L95
 1456 0020 FFF7FEFF 		bl	printf
 1457              	.LVL185:
 174:bq34z100.c    **** }
 1458              		.loc 1 174 0
ARM GAS  C:\Users\thoma\AppData\Local\Temp\ccRUrbHX.s 			page 36


 1459 0024 3220     		movs	r0, #50
 1460 0026 FFF7FEFF 		bl	Cy_SysLib_Delay
 1461              	.LVL186:
 1462 002a 38BD     		pop	{r3, r4, r5, pc}
 1463              	.LVL187:
 1464              	.L96:
 1465              		.align	2
 1466              	.L95:
 1467 002c 18000000 		.word	.LC1
 1468              		.cfi_endproc
 1469              	.LFE693:
 1470              		.size	BQ34Z100_UpdateChecksum, .-BQ34Z100_UpdateChecksum
 1471              		.section	.text.BQ34Z100_ReadFlash,"ax",%progbits
 1472              		.align	2
 1473              		.global	BQ34Z100_ReadFlash
 1474              		.thumb
 1475              		.thumb_func
 1476              		.type	BQ34Z100_ReadFlash, %function
 1477              	BQ34Z100_ReadFlash:
 1478              	.LFB694:
 178:bq34z100.c    ****     char command = COMMAND_BLOCKDATA; // Command to read Data Flash
 1479              		.loc 1 178 0
 1480              		.cfi_startproc
 1481              		@ args = 0, pretend = 0, frame = 0
 1482              		@ frame_needed = 0, uses_anonymous_args = 0
 1483              	.LVL188:
 1484 0000 70B5     		push	{r4, r5, r6, lr}
 1485              		.cfi_def_cfa_offset 16
 1486              		.cfi_offset 4, -16
 1487              		.cfi_offset 5, -12
 1488              		.cfi_offset 6, -8
 1489              		.cfi_offset 14, -4
 1490 0002 0546     		mov	r5, r0
 1491              	.LVL189:
 182:bq34z100.c    ****         printf("A write error has occurred when transmitting address.\r\n");
 1492              		.loc 1 182 0
 1493 0004 0021     		movs	r1, #0
 1494 0006 AA20     		movs	r0, #170
 1495              	.LVL190:
 1496 0008 FFF7FEFF 		bl	I2C_MasterSendStart
 1497              	.LVL191:
 1498 000c 10B1     		cbz	r0, .L98
 183:bq34z100.c    ****         //return;
 1499              		.loc 1 183 0
 1500 000e 2548     		ldr	r0, .L109
 1501 0010 FFF7FEFF 		bl	puts
 1502              	.LVL192:
 1503              	.L98:
 186:bq34z100.c    ****     I2C_MasterSendStop();
 1504              		.loc 1 186 0
 1505 0014 4020     		movs	r0, #64
 1506 0016 FFF7FEFF 		bl	I2C_MasterWriteByte
 1507              	.LVL193:
 187:bq34z100.c    **** 
 1508              		.loc 1 187 0
 1509 001a FFF7FEFF 		bl	I2C_MasterSendStop
 1510              	.LVL194:
ARM GAS  C:\Users\thoma\AppData\Local\Temp\ccRUrbHX.s 			page 37


 190:bq34z100.c    ****         printf("A read error has occurred when setting read mode.\r\n");
 1511              		.loc 1 190 0
 1512 001e 0121     		movs	r1, #1
 1513 0020 AA20     		movs	r0, #170
 1514 0022 FFF7FEFF 		bl	I2C_MasterSendStart
 1515              	.LVL195:
 1516 0026 0646     		mov	r6, r0
 1517 0028 68B1     		cbz	r0, .L106
 191:bq34z100.c    ****         return;
 1518              		.loc 1 191 0
 1519 002a 1F48     		ldr	r0, .L109+4
 1520 002c FFF7FEFF 		bl	puts
 1521              	.LVL196:
 192:bq34z100.c    ****     }
 1522              		.loc 1 192 0
 1523 0030 70BD     		pop	{r4, r5, r6, pc}
 1524              	.LVL197:
 1525              	.L102:
 1526              	.LBB9:
 195:bq34z100.c    ****     }
 1527              		.loc 1 195 0
 1528 0032 1E2C     		cmp	r4, #30
 1529 0034 01DC     		bgt	.L107
 1530 0036 0120     		movs	r0, #1
 1531 0038 00E0     		b	.L101
 1532              	.L107:
 1533 003a 3046     		mov	r0, r6
 1534              	.L101:
 195:bq34z100.c    ****     }
 1535              		.loc 1 195 0 is_stmt 0 discriminator 4
 1536 003c FFF7FEFF 		bl	I2C_MasterReadByte
 1537              	.LVL198:
 1538 0040 2855     		strb	r0, [r5, r4]
 194:bq34z100.c    ****         device->flashbytes[i] = I2C_MasterReadByte((i < 31) ? I2C_ACK_DATA : I2C_NAK_DATA);
 1539              		.loc 1 194 0 is_stmt 1 discriminator 4
 1540 0042 0134     		adds	r4, r4, #1
 1541              	.LVL199:
 1542 0044 00E0     		b	.L99
 1543              	.LVL200:
 1544              	.L106:
 1545              	.LBE9:
 1546 0046 0024     		movs	r4, #0
 1547              	.L99:
 1548              	.LVL201:
 1549              	.LBB10:
 194:bq34z100.c    ****         device->flashbytes[i] = I2C_MasterReadByte((i < 31) ? I2C_ACK_DATA : I2C_NAK_DATA);
 1550              		.loc 1 194 0 is_stmt 0 discriminator 2
 1551 0048 1F2C     		cmp	r4, #31
 1552 004a F2DD     		ble	.L102
 1553              	.LBE10:
 197:bq34z100.c    **** 
 1554              		.loc 1 197 0 is_stmt 1
 1555 004c FFF7FEFF 		bl	I2C_MasterSendStop
 1556              	.LVL202:
 200:bq34z100.c    ****     uint8_t calculatedChecksum = calcChecksum(device->flashbytes);
 1557              		.loc 1 200 0
 1558 0050 0122     		movs	r2, #1
ARM GAS  C:\Users\thoma\AppData\Local\Temp\ccRUrbHX.s 			page 38


 1559 0052 6021     		movs	r1, #96
 1560 0054 2846     		mov	r0, r5
 1561 0056 FFF7FEFF 		bl	read
 1562              	.LVL203:
 1563 005a 0646     		mov	r6, r0
 1564 005c C4B2     		uxtb	r4, r0
 1565              	.LVL204:
 201:bq34z100.c    **** 
 1566              		.loc 1 201 0
 1567 005e 2846     		mov	r0, r5
 1568 0060 FFF7FEFF 		bl	calcChecksum
 1569              	.LVL205:
 203:bq34z100.c    ****         printf("ERROR: Checksum of flash memory block does not match. I2C read was likely corrupted
 1570              		.loc 1 203 0
 1571 0064 8442     		cmp	r4, r0
 1572 0066 02D0     		beq	.L103
 204:bq34z100.c    ****     }
 1573              		.loc 1 204 0
 1574 0068 1048     		ldr	r0, .L109+8
 1575              	.LVL206:
 1576 006a FFF7FEFF 		bl	puts
 1577              	.LVL207:
 1578              	.L103:
 207:bq34z100.c    ****     for (size_t byteIndex = 0; byteIndex < 32; ++byteIndex) {
 1579              		.loc 1 207 0
 1580 006e 95F82120 		ldrb	r2, [r5, #33]	@ zero_extendqisi2
 1581 0072 95F82010 		ldrb	r1, [r5, #32]	@ zero_extendqisi2
 1582 0076 0E48     		ldr	r0, .L109+12
 1583 0078 FFF7FEFF 		bl	printf
 1584              	.LVL208:
 1585              	.LBB11:
 208:bq34z100.c    ****         printf(" %" PRIx8, device->flashbytes[byteIndex]);
 1586              		.loc 1 208 0
 1587 007c 0024     		movs	r4, #0
 1588              	.LVL209:
 1589 007e 04E0     		b	.L104
 1590              	.LVL210:
 1591              	.L105:
 209:bq34z100.c    ****     }
 1592              		.loc 1 209 0 discriminator 3
 1593 0080 295D     		ldrb	r1, [r5, r4]	@ zero_extendqisi2
 1594 0082 0C48     		ldr	r0, .L109+16
 1595 0084 FFF7FEFF 		bl	printf
 1596              	.LVL211:
 208:bq34z100.c    ****         printf(" %" PRIx8, device->flashbytes[byteIndex]);
 1597              		.loc 1 208 0 discriminator 3
 1598 0088 0134     		adds	r4, r4, #1
 1599              	.LVL212:
 1600              	.L104:
 208:bq34z100.c    ****         printf(" %" PRIx8, device->flashbytes[byteIndex]);
 1601              		.loc 1 208 0 is_stmt 0 discriminator 1
 1602 008a 1F2C     		cmp	r4, #31
 1603 008c F8D9     		bls	.L105
 1604              	.LBE11:
 211:bq34z100.c    ****     printf("Checksum: 0x%" PRIx8 "\r\n", expectedChecksum);
 1605              		.loc 1 211 0 is_stmt 1
 1606 008e 0A48     		ldr	r0, .L109+20
ARM GAS  C:\Users\thoma\AppData\Local\Temp\ccRUrbHX.s 			page 39


 1607 0090 FFF7FEFF 		bl	puts
 1608              	.LVL213:
 212:bq34z100.c    **** 
 1609              		.loc 1 212 0
 1610 0094 F1B2     		uxtb	r1, r6
 1611 0096 0948     		ldr	r0, .L109+24
 1612 0098 FFF7FEFF 		bl	printf
 1613              	.LVL214:
 214:bq34z100.c    **** }
 1614              		.loc 1 214 0
 1615 009c 0A20     		movs	r0, #10
 1616 009e FFF7FEFF 		bl	Cy_SysLib_Delay
 1617              	.LVL215:
 1618 00a2 70BD     		pop	{r4, r5, r6, pc}
 1619              	.LVL216:
 1620              	.L110:
 1621              		.align	2
 1622              	.L109:
 1623 00a4 50000000 		.word	.LC2
 1624 00a8 88000000 		.word	.LC3
 1625 00ac BC000000 		.word	.LC4
 1626 00b0 14010000 		.word	.LC5
 1627 00b4 34010000 		.word	.LC6
 1628 00b8 3C010000 		.word	.LC7
 1629 00bc 40010000 		.word	.LC8
 1630              		.cfi_endproc
 1631              	.LFE694:
 1632              		.size	BQ34Z100_ReadFlash, .-BQ34Z100_ReadFlash
 1633              		.section	.text.BQ34Z100_ChangePage48,"ax",%progbits
 1634              		.align	2
 1635              		.global	BQ34Z100_ChangePage48
 1636              		.thumb
 1637              		.thumb_func
 1638              		.type	BQ34Z100_ChangePage48, %function
 1639              	BQ34Z100_ChangePage48:
 1640              	.LFB697:
 247:bq34z100.c    ****     BQ34Z100_ChangePage(device, 48, 0);
 1641              		.loc 1 247 0
 1642              		.cfi_startproc
 1643              		@ args = 0, pretend = 0, frame = 0
 1644              		@ frame_needed = 0, uses_anonymous_args = 0
 1645              	.LVL217:
 1646 0000 10B5     		push	{r4, lr}
 1647              		.cfi_def_cfa_offset 8
 1648              		.cfi_offset 4, -8
 1649              		.cfi_offset 14, -4
 1650 0002 0446     		mov	r4, r0
 248:bq34z100.c    ****     BQ34Z100_ReadFlash(device);
 1651              		.loc 1 248 0
 1652 0004 0022     		movs	r2, #0
 1653 0006 3021     		movs	r1, #48
 1654 0008 FFF7FEFF 		bl	BQ34Z100_ChangePage
 1655              	.LVL218:
 249:bq34z100.c    ****     BQ34Z100_WriteFlash(device, 11, DESIGNCAP, 2);
 1656              		.loc 1 249 0
 1657 000c 2046     		mov	r0, r4
 1658 000e FFF7FEFF 		bl	BQ34Z100_ReadFlash
ARM GAS  C:\Users\thoma\AppData\Local\Temp\ccRUrbHX.s 			page 40


 1659              	.LVL219:
 250:bq34z100.c    ****     BQ34Z100_WriteFlash(device, 13, DESIGNENERGY, 2);
 1660              		.loc 1 250 0
 1661 0012 0223     		movs	r3, #2
 1662 0014 4FF4AF62 		mov	r2, #1400
 1663 0018 0B21     		movs	r1, #11
 1664 001a 2046     		mov	r0, r4
 1665 001c FFF7FEFF 		bl	BQ34Z100_WriteFlash
 1666              	.LVL220:
 251:bq34z100.c    ****     BQ34Z100_UpdateChecksum(device);
 1667              		.loc 1 251 0
 1668 0020 0223     		movs	r3, #2
 1669 0022 41F23C42 		movw	r2, #5180
 1670 0026 0D21     		movs	r1, #13
 1671 0028 2046     		mov	r0, r4
 1672 002a FFF7FEFF 		bl	BQ34Z100_WriteFlash
 1673              	.LVL221:
 252:bq34z100.c    ****     CyDelay(300);  // Delay for 300ms for settings to take effect
 1674              		.loc 1 252 0
 1675 002e 2046     		mov	r0, r4
 1676 0030 FFF7FEFF 		bl	BQ34Z100_UpdateChecksum
 1677              	.LVL222:
 253:bq34z100.c    **** }
 1678              		.loc 1 253 0
 1679 0034 4FF49670 		mov	r0, #300
 1680 0038 FFF7FEFF 		bl	Cy_SysLib_Delay
 1681              	.LVL223:
 1682 003c 10BD     		pop	{r4, pc}
 1683              		.cfi_endproc
 1684              	.LFE697:
 1685              		.size	BQ34Z100_ChangePage48, .-BQ34Z100_ChangePage48
 1686 003e 00BF     		.section	.text.BQ34Z100_ChangePage64,"ax",%progbits
 1687              		.align	2
 1688              		.global	BQ34Z100_ChangePage64
 1689              		.thumb
 1690              		.thumb_func
 1691              		.type	BQ34Z100_ChangePage64, %function
 1692              	BQ34Z100_ChangePage64:
 1693              	.LFB698:
 257:bq34z100.c    ****     BQ34Z100_ChangePage(device, 64, 0);
 1694              		.loc 1 257 0
 1695              		.cfi_startproc
 1696              		@ args = 0, pretend = 0, frame = 0
 1697              		@ frame_needed = 0, uses_anonymous_args = 0
 1698              	.LVL224:
 1699 0000 38B5     		push	{r3, r4, r5, lr}
 1700              		.cfi_def_cfa_offset 16
 1701              		.cfi_offset 3, -16
 1702              		.cfi_offset 4, -12
 1703              		.cfi_offset 5, -8
 1704              		.cfi_offset 14, -4
 1705 0002 0446     		mov	r4, r0
 258:bq34z100.c    ****     BQ34Z100_ReadFlash(device);
 1706              		.loc 1 258 0
 1707 0004 0022     		movs	r2, #0
 1708 0006 4021     		movs	r1, #64
 1709 0008 FFF7FEFF 		bl	BQ34Z100_ChangePage
ARM GAS  C:\Users\thoma\AppData\Local\Temp\ccRUrbHX.s 			page 41


 1710              	.LVL225:
 259:bq34z100.c    **** 
 1711              		.loc 1 259 0
 1712 000c 2046     		mov	r0, r4
 1713 000e FFF7FEFF 		bl	BQ34Z100_ReadFlash
 1714              	.LVL226:
 261:bq34z100.c    ****     uint8_t packConfig_low = device->flashbytes[1];
 1715              		.loc 1 261 0
 1716 0012 2278     		ldrb	r2, [r4]	@ zero_extendqisi2
 1717              	.LVL227:
 262:bq34z100.c    **** 
 1718              		.loc 1 262 0
 1719 0014 6578     		ldrb	r5, [r4, #1]	@ zero_extendqisi2
 1720              	.LVL228:
 269:bq34z100.c    ****     packConfig_low |= USE_EXTERNAL_THERMISTOR;
 1721              		.loc 1 269 0
 1722 0016 05F0FE05 		and	r5, r5, #254
 1723              	.LVL229:
 272:bq34z100.c    ****     BQ34Z100_WriteFlash(device, 1, packConfig_low, 1);
 1724              		.loc 1 272 0
 1725 001a 0123     		movs	r3, #1
 1726 001c 42F04802 		orr	r2, r2, #72
 1727              	.LVL230:
 1728 0020 0021     		movs	r1, #0
 1729 0022 2046     		mov	r0, r4
 1730 0024 FFF7FEFF 		bl	BQ34Z100_WriteFlash
 1731              	.LVL231:
 273:bq34z100.c    **** 
 1732              		.loc 1 273 0
 1733 0028 0123     		movs	r3, #1
 1734 002a 2A46     		mov	r2, r5
 1735 002c 1946     		mov	r1, r3
 1736 002e 2046     		mov	r0, r4
 1737 0030 FFF7FEFF 		bl	BQ34Z100_WriteFlash
 1738              	.LVL232:
 275:bq34z100.c    ****     packConfigB &= ~1;  // Disable fast convergence
 1739              		.loc 1 275 0
 1740 0034 A278     		ldrb	r2, [r4, #2]	@ zero_extendqisi2
 1741              	.LVL233:
 277:bq34z100.c    **** 
 1742              		.loc 1 277 0
 1743 0036 0123     		movs	r3, #1
 1744 0038 02F0FE02 		and	r2, r2, #254
 1745              	.LVL234:
 1746 003c 0221     		movs	r1, #2
 1747 003e 2046     		mov	r0, r4
 1748 0040 FFF7FEFF 		bl	BQ34Z100_WriteFlash
 1749              	.LVL235:
 279:bq34z100.c    ****     BQ34Z100_WriteFlash(device, 7, 0x04, 1);  // Set number of cells
 1750              		.loc 1 279 0
 1751 0044 0123     		movs	r3, #1
 1752 0046 4B22     		movs	r2, #75
 1753 0048 0421     		movs	r1, #4
 1754 004a 2046     		mov	r0, r4
 1755 004c FFF7FEFF 		bl	BQ34Z100_WriteFlash
 1756              	.LVL236:
 280:bq34z100.c    ****     BQ34Z100_UpdateChecksum(device);
ARM GAS  C:\Users\thoma\AppData\Local\Temp\ccRUrbHX.s 			page 42


 1757              		.loc 1 280 0
 1758 0050 0123     		movs	r3, #1
 1759 0052 0422     		movs	r2, #4
 1760 0054 0721     		movs	r1, #7
 1761 0056 2046     		mov	r0, r4
 1762 0058 FFF7FEFF 		bl	BQ34Z100_WriteFlash
 1763              	.LVL237:
 281:bq34z100.c    ****     CyDelay(300);
 1764              		.loc 1 281 0
 1765 005c 2046     		mov	r0, r4
 1766 005e FFF7FEFF 		bl	BQ34Z100_UpdateChecksum
 1767              	.LVL238:
 282:bq34z100.c    **** }
 1768              		.loc 1 282 0
 1769 0062 4FF49670 		mov	r0, #300
 1770 0066 FFF7FEFF 		bl	Cy_SysLib_Delay
 1771              	.LVL239:
 1772 006a 38BD     		pop	{r3, r4, r5, pc}
 1773              		.cfi_endproc
 1774              	.LFE698:
 1775              		.size	BQ34Z100_ChangePage64, .-BQ34Z100_ChangePage64
 1776              		.section	.text.BQ34Z100_ChangePage80,"ax",%progbits
 1777              		.align	2
 1778              		.global	BQ34Z100_ChangePage80
 1779              		.thumb
 1780              		.thumb_func
 1781              		.type	BQ34Z100_ChangePage80, %function
 1782              	BQ34Z100_ChangePage80:
 1783              	.LFB699:
 286:bq34z100.c    ****     BQ34Z100_ChangePage(device, 80, 0);
 1784              		.loc 1 286 0
 1785              		.cfi_startproc
 1786              		@ args = 0, pretend = 0, frame = 0
 1787              		@ frame_needed = 0, uses_anonymous_args = 0
 1788              	.LVL240:
 1789 0000 10B5     		push	{r4, lr}
 1790              		.cfi_def_cfa_offset 8
 1791              		.cfi_offset 4, -8
 1792              		.cfi_offset 14, -4
 1793 0002 0446     		mov	r4, r0
 287:bq34z100.c    ****     BQ34Z100_ReadFlash(device);
 1794              		.loc 1 287 0
 1795 0004 0022     		movs	r2, #0
 1796 0006 5021     		movs	r1, #80
 1797 0008 FFF7FEFF 		bl	BQ34Z100_ChangePage
 1798              	.LVL241:
 288:bq34z100.c    **** 
 1799              		.loc 1 288 0
 1800 000c 2046     		mov	r0, r4
 1801 000e FFF7FEFF 		bl	BQ34Z100_ReadFlash
 1802              	.LVL242:
 290:bq34z100.c    ****     BQ34Z100_WriteFlash(device, 1, LOADMODE, 1);
 1803              		.loc 1 290 0
 1804 0012 0123     		movs	r3, #1
 1805 0014 1A46     		mov	r2, r3
 1806 0016 0021     		movs	r1, #0
 1807 0018 2046     		mov	r0, r4
ARM GAS  C:\Users\thoma\AppData\Local\Temp\ccRUrbHX.s 			page 43


 1808 001a FFF7FEFF 		bl	BQ34Z100_WriteFlash
 1809              	.LVL243:
 291:bq34z100.c    ****     BQ34Z100_WriteFlash(device, 10, 10, 2);
 1810              		.loc 1 291 0
 1811 001e 0123     		movs	r3, #1
 1812 0020 0022     		movs	r2, #0
 1813 0022 1946     		mov	r1, r3
 1814 0024 2046     		mov	r0, r4
 1815 0026 FFF7FEFF 		bl	BQ34Z100_WriteFlash
 1816              	.LVL244:
 292:bq34z100.c    ****     BQ34Z100_UpdateChecksum(device);
 1817              		.loc 1 292 0
 1818 002a 0223     		movs	r3, #2
 1819 002c 0A22     		movs	r2, #10
 1820 002e 1146     		mov	r1, r2
 1821 0030 2046     		mov	r0, r4
 1822 0032 FFF7FEFF 		bl	BQ34Z100_WriteFlash
 1823              	.LVL245:
 293:bq34z100.c    ****     CyDelay(300);
 1824              		.loc 1 293 0
 1825 0036 2046     		mov	r0, r4
 1826 0038 FFF7FEFF 		bl	BQ34Z100_UpdateChecksum
 1827              	.LVL246:
 294:bq34z100.c    **** 
 1828              		.loc 1 294 0
 1829 003c 4FF49670 		mov	r0, #300
 1830 0040 FFF7FEFF 		bl	Cy_SysLib_Delay
 1831              	.LVL247:
 296:bq34z100.c    ****     BQ34Z100_ReadFlash(device);
 1832              		.loc 1 296 0
 1833 0044 3522     		movs	r2, #53
 1834 0046 5021     		movs	r1, #80
 1835 0048 2046     		mov	r0, r4
 1836 004a FFF7FEFF 		bl	BQ34Z100_ChangePage
 1837              	.LVL248:
 297:bq34z100.c    **** 
 1838              		.loc 1 297 0
 1839 004e 2046     		mov	r0, r4
 1840 0050 FFF7FEFF 		bl	BQ34Z100_ReadFlash
 1841              	.LVL249:
 299:bq34z100.c    ****     BQ34Z100_UpdateChecksum(device);
 1842              		.loc 1 299 0
 1843 0054 0223     		movs	r3, #2
 1844 0056 40F62F52 		movw	r2, #3375
 1845 005a 3521     		movs	r1, #53
 1846 005c 2046     		mov	r0, r4
 1847 005e FFF7FEFF 		bl	BQ34Z100_WriteFlash
 1848              	.LVL250:
 300:bq34z100.c    ****     CyDelay(300);
 1849              		.loc 1 300 0
 1850 0062 2046     		mov	r0, r4
 1851 0064 FFF7FEFF 		bl	BQ34Z100_UpdateChecksum
 1852              	.LVL251:
 301:bq34z100.c    **** }
 1853              		.loc 1 301 0
 1854 0068 4FF49670 		mov	r0, #300
 1855 006c FFF7FEFF 		bl	Cy_SysLib_Delay
ARM GAS  C:\Users\thoma\AppData\Local\Temp\ccRUrbHX.s 			page 44


 1856              	.LVL252:
 1857 0070 10BD     		pop	{r4, pc}
 1858              		.cfi_endproc
 1859              	.LFE699:
 1860              		.size	BQ34Z100_ChangePage80, .-BQ34Z100_ChangePage80
 1861 0072 00BF     		.section	.text.BQ34Z100_ChangePage82,"ax",%progbits
 1862              		.align	2
 1863              		.global	BQ34Z100_ChangePage82
 1864              		.thumb
 1865              		.thumb_func
 1866              		.type	BQ34Z100_ChangePage82, %function
 1867              	BQ34Z100_ChangePage82:
 1868              	.LFB700:
 305:bq34z100.c    ****     BQ34Z100_ChangePage(device, 82, 0);
 1869              		.loc 1 305 0
 1870              		.cfi_startproc
 1871              		@ args = 0, pretend = 0, frame = 0
 1872              		@ frame_needed = 0, uses_anonymous_args = 0
 1873              	.LVL253:
 1874 0000 10B5     		push	{r4, lr}
 1875              		.cfi_def_cfa_offset 8
 1876              		.cfi_offset 4, -8
 1877              		.cfi_offset 14, -4
 1878 0002 0446     		mov	r4, r0
 306:bq34z100.c    ****     BQ34Z100_ReadFlash(device);
 1879              		.loc 1 306 0
 1880 0004 0022     		movs	r2, #0
 1881 0006 5221     		movs	r1, #82
 1882 0008 FFF7FEFF 		bl	BQ34Z100_ChangePage
 1883              	.LVL254:
 307:bq34z100.c    ****     BQ34Z100_WriteFlash(device, 0, QMAX0, 2);
 1884              		.loc 1 307 0
 1885 000c 2046     		mov	r0, r4
 1886 000e FFF7FEFF 		bl	BQ34Z100_ReadFlash
 1887              	.LVL255:
 308:bq34z100.c    ****     BQ34Z100_UpdateChecksum(device);
 1888              		.loc 1 308 0
 1889 0012 0223     		movs	r3, #2
 1890 0014 4FF4AF62 		mov	r2, #1400
 1891 0018 0021     		movs	r1, #0
 1892 001a 2046     		mov	r0, r4
 1893 001c FFF7FEFF 		bl	BQ34Z100_WriteFlash
 1894              	.LVL256:
 309:bq34z100.c    ****     CyDelay(300);
 1895              		.loc 1 309 0
 1896 0020 2046     		mov	r0, r4
 1897 0022 FFF7FEFF 		bl	BQ34Z100_UpdateChecksum
 1898              	.LVL257:
 310:bq34z100.c    **** }
 1899              		.loc 1 310 0
 1900 0026 4FF49670 		mov	r0, #300
 1901 002a FFF7FEFF 		bl	Cy_SysLib_Delay
 1902              	.LVL258:
 1903 002e 10BD     		pop	{r4, pc}
 1904              		.cfi_endproc
 1905              	.LFE700:
 1906              		.size	BQ34Z100_ChangePage82, .-BQ34Z100_ChangePage82
ARM GAS  C:\Users\thoma\AppData\Local\Temp\ccRUrbHX.s 			page 45


 1907              		.section	.text.BQ34Z100_CalibrateVoltage,"ax",%progbits
 1908              		.align	2
 1909              		.global	BQ34Z100_CalibrateVoltage
 1910              		.thumb
 1911              		.thumb_func
 1912              		.type	BQ34Z100_CalibrateVoltage, %function
 1913              	BQ34Z100_CalibrateVoltage:
 1914              	.LFB701:
 313:bq34z100.c    ****     BQ34Z100_ChangePage(device, 104, 0);
 1915              		.loc 1 313 0
 1916              		.cfi_startproc
 1917              		@ args = 0, pretend = 0, frame = 8
 1918              		@ frame_needed = 0, uses_anonymous_args = 0
 1919              	.LVL259:
 1920 0000 2DE9F041 		push	{r4, r5, r6, r7, r8, lr}
 1921              		.cfi_def_cfa_offset 24
 1922              		.cfi_offset 4, -24
 1923              		.cfi_offset 5, -20
 1924              		.cfi_offset 6, -16
 1925              		.cfi_offset 7, -12
 1926              		.cfi_offset 8, -8
 1927              		.cfi_offset 14, -4
 1928 0004 2DED048B 		vpush.64	{d8, d9}
 1929              		.cfi_def_cfa_offset 40
 1930              		.cfi_offset 80, -40
 1931              		.cfi_offset 81, -36
 1932              		.cfi_offset 82, -32
 1933              		.cfi_offset 83, -28
 1934 0008 82B0     		sub	sp, sp, #8
 1935              		.cfi_def_cfa_offset 48
 1936 000a 0446     		mov	r4, r0
 1937 000c 08EE101A 		vmov	s16, r1	@ int
 314:bq34z100.c    ****     BQ34Z100_ReadFlash(device);
 1938              		.loc 1 314 0
 1939 0010 0022     		movs	r2, #0
 1940 0012 6821     		movs	r1, #104
 1941              	.LVL260:
 1942 0014 FFF7FEFF 		bl	BQ34Z100_ChangePage
 1943              	.LVL261:
 315:bq34z100.c    **** 
 1944              		.loc 1 315 0
 1945 0018 2046     		mov	r0, r4
 1946 001a FFF7FEFF 		bl	BQ34Z100_ReadFlash
 1947              	.LVL262:
 318:bq34z100.c    ****     flashVoltage |= (uint16_t)(device->flashbytes[15]);
 1948              		.loc 1 318 0
 1949 001e A57B     		ldrb	r5, [r4, #14]	@ zero_extendqisi2
 1950              	.LVL263:
 319:bq34z100.c    **** 
 1951              		.loc 1 319 0
 1952 0020 E37B     		ldrb	r3, [r4, #15]	@ zero_extendqisi2
 1953 0022 43EA0525 		orr	r5, r3, r5, lsl #8
 1954              	.LVL264:
 321:bq34z100.c    ****     float newSetting = ((float)(currentVoltage) / readVoltage) * (float)(flashVoltage);
 1955              		.loc 1 321 0
 1956 0026 2046     		mov	r0, r4
 1957 0028 FFF7FEFF 		bl	BQ34Z100_GetVoltage
ARM GAS  C:\Users\thoma\AppData\Local\Temp\ccRUrbHX.s 			page 46


 1958              	.LVL265:
 1959 002c 07EE900A 		vmov	s15, r0	@ int
 1960 0030 F8EE678A 		vcvt.f32.u32	s17, s15
 1961              	.LVL266:
 322:bq34z100.c    ****     uint16_t writeSetting; // This 2-byte integer will be written to the chip
 1962              		.loc 1 322 0
 1963 0034 B8EE488A 		vcvt.f32.u32	s16, s16
 1964 0038 88EE289A 		vdiv.f32	s18, s16, s17
 1965 003c 07EE905A 		vmov	s15, r5	@ int
 1966 0040 F8EE677A 		vcvt.f32.u32	s15, s15
 1967 0044 69EE277A 		vmul.f32	s15, s18, s15
 1968              	.LVL267:
 324:bq34z100.c    ****         writeSetting = 65535;
 1969              		.loc 1 324 0
 1970 0048 9FED377A 		vldr.32	s14, .L124
 1971 004c F4EEC77A 		vcmpe.f32	s15, s14
 1972 0050 F1EE10FA 		vmrs	APSR_nzcv, FPSCR
 1973 0054 0BDC     		bgt	.L121
 326:bq34z100.c    ****         writeSetting = 0;
 1974              		.loc 1 326 0
 1975 0056 F5EEC07A 		vcmpe.f32	s15, #0
 1976 005a F1EE10FA 		vmrs	APSR_nzcv, FPSCR
 1977 005e 09D4     		bmi	.L122
 329:bq34z100.c    ****     }
 1978              		.loc 1 329 0
 1979 0060 FCEEE77A 		vcvt.u32.f32	s15, s15
 1980              	.LVL268:
 1981 0064 CDED017A 		vstr.32	s15, [sp, #4]	@ int
 1982 0068 BDF80460 		ldrh	r6, [sp, #4]
 1983              	.LVL269:
 1984 006c 03E0     		b	.L120
 1985              	.LVL270:
 1986              	.L121:
 325:bq34z100.c    ****     } else if (newSetting < 0.0f) {
 1987              		.loc 1 325 0
 1988 006e 4FF6FF76 		movw	r6, #65535
 1989 0072 00E0     		b	.L120
 1990              	.L122:
 327:bq34z100.c    ****     } else {
 1991              		.loc 1 327 0
 1992 0074 0026     		movs	r6, #0
 1993              	.LVL271:
 1994              	.L120:
 331:bq34z100.c    ****     BQ34Z100_UpdateChecksum(device);
 1995              		.loc 1 331 0
 1996 0076 0223     		movs	r3, #2
 1997 0078 3246     		mov	r2, r6
 1998 007a 0E21     		movs	r1, #14
 1999 007c 2046     		mov	r0, r4
 2000 007e FFF7FEFF 		bl	BQ34Z100_WriteFlash
 2001              	.LVL272:
 332:bq34z100.c    ****     CyDelay(10); // Delay for 10ms
 2002              		.loc 1 332 0
 2003 0082 2046     		mov	r0, r4
 2004 0084 FFF7FEFF 		bl	BQ34Z100_UpdateChecksum
 2005              	.LVL273:
 333:bq34z100.c    **** 
ARM GAS  C:\Users\thoma\AppData\Local\Temp\ccRUrbHX.s 			page 47


 2006              		.loc 1 333 0
 2007 0088 0A20     		movs	r0, #10
 2008 008a FFF7FEFF 		bl	Cy_SysLib_Delay
 2009              	.LVL274:
 336:bq34z100.c    ****     BQ34Z100_ReadFlash(device);
 2010              		.loc 1 336 0
 2011 008e 0022     		movs	r2, #0
 2012 0090 4421     		movs	r1, #68
 2013 0092 2046     		mov	r0, r4
 2014 0094 FFF7FEFF 		bl	BQ34Z100_ChangePage
 2015              	.LVL275:
 337:bq34z100.c    **** 
 2016              		.loc 1 337 0
 2017 0098 2046     		mov	r0, r4
 2018 009a FFF7FEFF 		bl	BQ34Z100_ReadFlash
 2019              	.LVL276:
 340:bq34z100.c    ****     oldUpdateOK |= device->flashbytes[1];
 2020              		.loc 1 340 0
 2021 009e 2378     		ldrb	r3, [r4]	@ zero_extendqisi2
 2022 00a0 1B02     		lsls	r3, r3, #8
 2023 00a2 1BB2     		sxth	r3, r3
 2024              	.LVL277:
 341:bq34z100.c    **** 
 2025              		.loc 1 341 0
 2026 00a4 6778     		ldrb	r7, [r4, #1]	@ zero_extendqisi2
 2027 00a6 1F43     		orrs	r7, r7, r3
 2028              	.LVL278:
 343:bq34z100.c    ****     printf("Changing Flash Update OK Voltage from %" PRIi16 " to %" PRIi16 "\r\n", oldUpdateOK, new
 2029              		.loc 1 343 0
 2030 00a8 07EE906A 		vmov	s15, r6	@ int
 2031 00ac F8EEE77A 		vcvt.f32.s32	s15, s15
 2032 00b0 DFED1E6A 		vldr.32	s13, .L124+4
 2033 00b4 86EEA77A 		vdiv.f32	s14, s13, s15
 2034 00b8 DFED1D7A 		vldr.32	s15, .L124+8
 2035 00bc 67EE277A 		vmul.f32	s15, s14, s15
 2036 00c0 17EE900A 		vmov	r0, s15
 2037 00c4 FFF7FEFF 		bl	__aeabi_f2d
 2038              	.LVL279:
 2039 00c8 FFF7FEFF 		bl	round
 2040              	.LVL280:
 2041 00cc FFF7FEFF 		bl	__aeabi_d2iz
 2042              	.LVL281:
 2043 00d0 0FFA80F8 		sxth	r8, r0
 2044              	.LVL282:
 344:bq34z100.c    **** 
 2045              		.loc 1 344 0
 2046 00d4 4246     		mov	r2, r8
 2047 00d6 3946     		mov	r1, r7
 2048 00d8 1648     		ldr	r0, .L124+12
 2049 00da FFF7FEFF 		bl	printf
 2050              	.LVL283:
 346:bq34z100.c    ****     BQ34Z100_UpdateChecksum(device);
 2051              		.loc 1 346 0
 2052 00de 0223     		movs	r3, #2
 2053 00e0 4246     		mov	r2, r8
 2054 00e2 0021     		movs	r1, #0
 2055 00e4 2046     		mov	r0, r4
ARM GAS  C:\Users\thoma\AppData\Local\Temp\ccRUrbHX.s 			page 48


 2056 00e6 FFF7FEFF 		bl	BQ34Z100_WriteFlash
 2057              	.LVL284:
 347:bq34z100.c    **** 
 2058              		.loc 1 347 0
 2059 00ea 2046     		mov	r0, r4
 2060 00ec FFF7FEFF 		bl	BQ34Z100_UpdateChecksum
 2061              	.LVL285:
 350:bq34z100.c    ****     printf("New Ratio: %f\r\n", ((float)(currentVoltage) / readVoltage));
 2062              		.loc 1 350 0
 2063 00f0 2946     		mov	r1, r5
 2064 00f2 1148     		ldr	r0, .L124+16
 2065 00f4 FFF7FEFF 		bl	printf
 2066              	.LVL286:
 351:bq34z100.c    ****     printf("READ VOLTAGE (mv): %f\r\n", readVoltage);
 2067              		.loc 1 351 0
 2068 00f8 19EE100A 		vmov	r0, s18
 2069 00fc FFF7FEFF 		bl	__aeabi_f2d
 2070              	.LVL287:
 2071 0100 0246     		mov	r2, r0
 2072 0102 0B46     		mov	r3, r1
 2073 0104 0D48     		ldr	r0, .L124+20
 2074 0106 FFF7FEFF 		bl	printf
 2075              	.LVL288:
 352:bq34z100.c    ****     return writeSetting;
 2076              		.loc 1 352 0
 2077 010a 18EE900A 		vmov	r0, s17
 2078 010e FFF7FEFF 		bl	__aeabi_f2d
 2079              	.LVL289:
 2080 0112 0246     		mov	r2, r0
 2081 0114 0B46     		mov	r3, r1
 2082 0116 0A48     		ldr	r0, .L124+24
 2083 0118 FFF7FEFF 		bl	printf
 2084              	.LVL290:
 354:bq34z100.c    **** 
 2085              		.loc 1 354 0
 2086 011c 3046     		mov	r0, r6
 2087 011e 02B0     		add	sp, sp, #8
 2088              		.cfi_def_cfa_offset 40
 2089              		@ sp needed
 2090 0120 BDEC048B 		vldm	sp!, {d8-d9}
 2091              		.cfi_restore 82
 2092              		.cfi_restore 83
 2093              		.cfi_restore 80
 2094              		.cfi_restore 81
 2095              		.cfi_def_cfa_offset 24
 2096              	.LVL291:
 2097 0124 BDE8F081 		pop	{r4, r5, r6, r7, r8, pc}
 2098              	.LVL292:
 2099              	.L125:
 2100              		.align	2
 2101              	.L124:
 2102 0128 00FF7F47 		.word	1199570688
 2103 012c 00409C45 		.word	1167867904
 2104 0130 00002F46 		.word	1177485312
 2105 0134 54010000 		.word	.LC9
 2106 0138 88010000 		.word	.LC10
 2107 013c AC010000 		.word	.LC11
ARM GAS  C:\Users\thoma\AppData\Local\Temp\ccRUrbHX.s 			page 49


 2108 0140 BC010000 		.word	.LC12
 2109              		.cfi_endproc
 2110              	.LFE701:
 2111              		.size	BQ34Z100_CalibrateVoltage, .-BQ34Z100_CalibrateVoltage
 2112              		.section	.text.BQ34Z100_ResetVoltageDivider,"ax",%progbits
 2113              		.align	2
 2114              		.global	BQ34Z100_ResetVoltageDivider
 2115              		.thumb
 2116              		.thumb_func
 2117              		.type	BQ34Z100_ResetVoltageDivider, %function
 2118              	BQ34Z100_ResetVoltageDivider:
 2119              	.LFB702:
 356:bq34z100.c    ****     BQ34Z100_ChangePage(device, 104, 0); // Change to page 104, offset 0
 2120              		.loc 1 356 0
 2121              		.cfi_startproc
 2122              		@ args = 0, pretend = 0, frame = 0
 2123              		@ frame_needed = 0, uses_anonymous_args = 0
 2124              	.LVL293:
 2125 0000 10B5     		push	{r4, lr}
 2126              		.cfi_def_cfa_offset 8
 2127              		.cfi_offset 4, -8
 2128              		.cfi_offset 14, -4
 2129 0002 0446     		mov	r4, r0
 357:bq34z100.c    ****     BQ34Z100_ReadFlash(device); // Read current settings from flash
 2130              		.loc 1 357 0
 2131 0004 0022     		movs	r2, #0
 2132 0006 6821     		movs	r1, #104
 2133 0008 FFF7FEFF 		bl	BQ34Z100_ChangePage
 2134              	.LVL294:
 358:bq34z100.c    ****     BQ34Z100_WriteFlash(device, 14, RESETVOLTAGE, 2); // Write the RESETVOLTAGE value to the approp
 2135              		.loc 1 358 0
 2136 000c 2046     		mov	r0, r4
 2137 000e FFF7FEFF 		bl	BQ34Z100_ReadFlash
 2138              	.LVL295:
 359:bq34z100.c    ****     BQ34Z100_UpdateChecksum(device); // Update checksum to ensure data integrity
 2139              		.loc 1 359 0
 2140 0012 0223     		movs	r3, #2
 2141 0014 45F2B862 		movw	r2, #22200
 2142 0018 0E21     		movs	r1, #14
 2143 001a 2046     		mov	r0, r4
 2144 001c FFF7FEFF 		bl	BQ34Z100_WriteFlash
 2145              	.LVL296:
 360:bq34z100.c    ****     CyDelay(300); // Wait for 300ms for settings to take effect
 2146              		.loc 1 360 0
 2147 0020 2046     		mov	r0, r4
 2148 0022 FFF7FEFF 		bl	BQ34Z100_UpdateChecksum
 2149              	.LVL297:
 361:bq34z100.c    **** }
 2150              		.loc 1 361 0
 2151 0026 4FF49670 		mov	r0, #300
 2152 002a FFF7FEFF 		bl	Cy_SysLib_Delay
 2153              	.LVL298:
 2154 002e 10BD     		pop	{r4, pc}
 2155              		.cfi_endproc
 2156              	.LFE702:
 2157              		.size	BQ34Z100_ResetVoltageDivider, .-BQ34Z100_ResetVoltageDivider
 2158              		.section	.text.BQ34Z100_CalibrateShunt,"ax",%progbits
ARM GAS  C:\Users\thoma\AppData\Local\Temp\ccRUrbHX.s 			page 50


 2159              		.align	2
 2160              		.global	BQ34Z100_CalibrateShunt
 2161              		.thumb
 2162              		.thumb_func
 2163              		.type	BQ34Z100_CalibrateShunt, %function
 2164              	BQ34Z100_CalibrateShunt:
 2165              	.LFB703:
 364:bq34z100.c    ****     if (calCurrent < 0) calCurrent = -calCurrent;
 2166              		.loc 1 364 0
 2167              		.cfi_startproc
 2168              		@ args = 0, pretend = 0, frame = 0
 2169              		@ frame_needed = 0, uses_anonymous_args = 0
 2170              	.LVL299:
 2171 0000 2DE9F04F 		push	{r4, r5, r6, r7, r8, r9, r10, fp, lr}
 2172              		.cfi_def_cfa_offset 36
 2173              		.cfi_offset 4, -36
 2174              		.cfi_offset 5, -32
 2175              		.cfi_offset 6, -28
 2176              		.cfi_offset 7, -24
 2177              		.cfi_offset 8, -20
 2178              		.cfi_offset 9, -16
 2179              		.cfi_offset 10, -12
 2180              		.cfi_offset 11, -8
 2181              		.cfi_offset 14, -4
 2182 0004 2DED048B 		vpush.64	{d8, d9}
 2183              		.cfi_def_cfa_offset 52
 2184              		.cfi_offset 80, -52
 2185              		.cfi_offset 81, -48
 2186              		.cfi_offset 82, -44
 2187              		.cfi_offset 83, -40
 2188 0008 89B0     		sub	sp, sp, #36
 2189              		.cfi_def_cfa_offset 88
 2190 000a 0446     		mov	r4, r0
 365:bq34z100.c    **** 
 2191              		.loc 1 365 0
 2192 000c 0F1E     		subs	r7, r1, #0
 2193 000e 01DA     		bge	.L129
 365:bq34z100.c    **** 
 2194              		.loc 1 365 0 is_stmt 0 discriminator 1
 2195 0010 7F42     		negs	r7, r7
 2196 0012 3FB2     		sxth	r7, r7
 2197              	.LVL300:
 2198              	.L129:
 367:bq34z100.c    ****     if (currentReading < 0) currentReading = -currentReading;
 2199              		.loc 1 367 0 is_stmt 1
 2200 0014 2046     		mov	r0, r4
 2201              	.LVL301:
 2202 0016 FFF7FEFF 		bl	BQ34Z100_GetCurrent
 2203              	.LVL302:
 368:bq34z100.c    **** 
 2204              		.loc 1 368 0
 2205 001a 061E     		subs	r6, r0, #0
 2206 001c 01DA     		bge	.L130
 368:bq34z100.c    **** 
 2207              		.loc 1 368 0 is_stmt 0 discriminator 1
 2208 001e 7642     		negs	r6, r6
 2209 0020 36B2     		sxth	r6, r6
ARM GAS  C:\Users\thoma\AppData\Local\Temp\ccRUrbHX.s 			page 51


 2210              	.LVL303:
 2211              	.L130:
 370:bq34z100.c    ****     BQ34Z100_ReadFlash(device); // Read current settings from flash
 2212              		.loc 1 370 0 is_stmt 1
 2213 0022 0022     		movs	r2, #0
 2214 0024 6821     		movs	r1, #104
 2215 0026 2046     		mov	r0, r4
 2216 0028 FFF7FEFF 		bl	BQ34Z100_ChangePage
 2217              	.LVL304:
 371:bq34z100.c    ****     CyDelay(30); // Wait for 30ms
 2218              		.loc 1 371 0
 2219 002c 2046     		mov	r0, r4
 2220 002e FFF7FEFF 		bl	BQ34Z100_ReadFlash
 2221              	.LVL305:
 372:bq34z100.c    **** 
 2222              		.loc 1 372 0
 2223 0032 1E20     		movs	r0, #30
 2224 0034 FFF7FEFF 		bl	Cy_SysLib_Delay
 2225              	.LVL306:
 375:bq34z100.c    ****                              ((uint32_t)device->flashbytes[2] << 8) | (uint32_t)device->flashbytes[
 2226              		.loc 1 375 0
 2227 0038 2278     		ldrb	r2, [r4]	@ zero_extendqisi2
 2228 003a 6378     		ldrb	r3, [r4, #1]	@ zero_extendqisi2
 2229 003c 1B04     		lsls	r3, r3, #16
 2230 003e 43EA0263 		orr	r3, r3, r2, lsl #24
 376:bq34z100.c    ****     float currentGainResistance = (4.768f / xemicsToFloat(currentGainDF));
 2231              		.loc 1 376 0
 2232 0042 A278     		ldrb	r2, [r4, #2]	@ zero_extendqisi2
 375:bq34z100.c    ****                              ((uint32_t)device->flashbytes[2] << 8) | (uint32_t)device->flashbytes[
 2233              		.loc 1 375 0
 2234 0044 43EA0223 		orr	r3, r3, r2, lsl #8
 376:bq34z100.c    ****     float currentGainResistance = (4.768f / xemicsToFloat(currentGainDF));
 2235              		.loc 1 376 0
 2236 0048 E578     		ldrb	r5, [r4, #3]	@ zero_extendqisi2
 375:bq34z100.c    ****                              ((uint32_t)device->flashbytes[2] << 8) | (uint32_t)device->flashbytes[
 2237              		.loc 1 375 0
 2238 004a 1D43     		orrs	r5, r5, r3
 2239              	.LVL307:
 377:bq34z100.c    **** 
 2240              		.loc 1 377 0
 2241 004c 2846     		mov	r0, r5
 2242 004e FFF7FEFF 		bl	xemicsToFloat
 2243              	.LVL308:
 2244 0052 DFED3D7A 		vldr.32	s15, .L132+8
 2245 0056 07EE100A 		vmov	s14, r0
 2246 005a C7EE878A 		vdiv.f32	s17, s15, s14
 2247              	.LVL309:
 379:bq34z100.c    ****                               ((uint32_t)device->flashbytes[6] << 8) | (uint32_t)device->flashbytes
 2248              		.loc 1 379 0
 2249 005e 2279     		ldrb	r2, [r4, #4]	@ zero_extendqisi2
 2250 0060 6379     		ldrb	r3, [r4, #5]	@ zero_extendqisi2
 2251 0062 1B04     		lsls	r3, r3, #16
 2252 0064 43EA0263 		orr	r3, r3, r2, lsl #24
 380:bq34z100.c    ****     float currentDeltaResistance = (5677445 / xemicsToFloat(currentGainDF));
 2253              		.loc 1 380 0
 2254 0068 A279     		ldrb	r2, [r4, #6]	@ zero_extendqisi2
 379:bq34z100.c    ****                               ((uint32_t)device->flashbytes[6] << 8) | (uint32_t)device->flashbytes
ARM GAS  C:\Users\thoma\AppData\Local\Temp\ccRUrbHX.s 			page 52


 2255              		.loc 1 379 0
 2256 006a 43EA0223 		orr	r3, r3, r2, lsl #8
 380:bq34z100.c    ****     float currentDeltaResistance = (5677445 / xemicsToFloat(currentGainDF));
 2257              		.loc 1 380 0
 2258 006e 94F80780 		ldrb	r8, [r4, #7]	@ zero_extendqisi2
 379:bq34z100.c    ****                               ((uint32_t)device->flashbytes[6] << 8) | (uint32_t)device->flashbytes
 2259              		.loc 1 379 0
 2260 0072 43EA0808 		orr	r8, r3, r8
 2261              	.LVL310:
 381:bq34z100.c    **** 
 2262              		.loc 1 381 0
 2263 0076 2846     		mov	r0, r5
 2264 0078 FFF7FEFF 		bl	xemicsToFloat
 2265              	.LVL311:
 2266 007c 9FED339A 		vldr.32	s18, .L132+12
 2267 0080 07EE900A 		vmov	s15, r0
 2268 0084 C9EE279A 		vdiv.f32	s19, s18, s15
 2269              	.LVL312:
 383:bq34z100.c    **** 
 2270              		.loc 1 383 0
 2271 0088 07EE906A 		vmov	s15, r6	@ int
 2272 008c F8EEE77A 		vcvt.f32.s32	s15, s15
 2273 0090 07EE107A 		vmov	s14, r7	@ int
 2274 0094 B8EEC77A 		vcvt.f32.s32	s14, s14
 2275 0098 87EE878A 		vdiv.f32	s16, s15, s14
 2276 009c 28EE888A 		vmul.f32	s16, s17, s16
 2277              	.LVL313:
 385:bq34z100.c    ****     float DeltaDF = floatToXemics(5677445 / newGain);
 2278              		.loc 1 385 0
 2279 00a0 18EE100A 		vmov	r0, s16
 2280 00a4 FFF7FEFF 		bl	__aeabi_f2d
 2281              	.LVL314:
 2282 00a8 8246     		mov	r10, r0
 2283 00aa 8B46     		mov	fp, r1
 2284 00ac 0246     		mov	r2, r0
 2285 00ae 0B46     		mov	r3, r1
 2286 00b0 23A1     		adr	r1, .L132
 2287 00b2 D1E90001 		ldrd	r0, [r1]
 2288 00b6 FFF7FEFF 		bl	__aeabi_ddiv
 2289              	.LVL315:
 2290 00ba FFF7FEFF 		bl	__aeabi_d2f
 2291              	.LVL316:
 2292 00be FFF7FEFF 		bl	floatToXemics
 2293              	.LVL317:
 2294 00c2 8146     		mov	r9, r0
 2295              	.LVL318:
 386:bq34z100.c    **** 
 2296              		.loc 1 386 0
 2297 00c4 C9EE087A 		vdiv.f32	s15, s18, s16
 2298 00c8 17EE900A 		vmov	r0, s15
 2299              	.LVL319:
 2300 00cc FFF7FEFF 		bl	floatToXemics
 2301              	.LVL320:
 2302 00d0 07EE900A 		vmov	s15, r0	@ int
 2303 00d4 B8EE678A 		vcvt.f32.u32	s16, s15
 2304              	.LVL321:
 388:bq34z100.c    ****            currentGainDF, currentGainResistance, currentDeltaDF, currentDeltaResistance, newGain, n
ARM GAS  C:\Users\thoma\AppData\Local\Temp\ccRUrbHX.s 			page 53


 2305              		.loc 1 388 0
 2306 00d8 18EE900A 		vmov	r0, s17
 2307 00dc FFF7FEFF 		bl	__aeabi_f2d
 2308              	.LVL322:
 2309 00e0 0646     		mov	r6, r0
 2310              	.LVL323:
 2311 00e2 0F46     		mov	r7, r1
 2312              	.LVL324:
 2313 00e4 CDF81890 		str	r9, [sp, #24]
 2314 00e8 CDE904AB 		strd	r10, [sp, #16]
 2315 00ec 19EE900A 		vmov	r0, s19
 2316 00f0 FFF7FEFF 		bl	__aeabi_f2d
 2317              	.LVL325:
 2318 00f4 CDE90201 		strd	r0, [sp, #8]
 2319 00f8 CDF80080 		str	r8, [sp]
 2320 00fc 3246     		mov	r2, r6
 2321 00fe 3B46     		mov	r3, r7
 2322 0100 2946     		mov	r1, r5
 2323 0102 1348     		ldr	r0, .L132+16
 2324 0104 FFF7FEFF 		bl	printf
 2325              	.LVL326:
 391:bq34z100.c    ****     BQ34Z100_WriteFlash(device, 4, DeltaDF, 4);
 2326              		.loc 1 391 0
 2327 0108 0423     		movs	r3, #4
 2328 010a 4A46     		mov	r2, r9
 2329 010c 0021     		movs	r1, #0
 2330 010e 2046     		mov	r0, r4
 2331 0110 FFF7FEFF 		bl	BQ34Z100_WriteFlash
 2332              	.LVL327:
 392:bq34z100.c    **** 
 2333              		.loc 1 392 0
 2334 0114 0423     		movs	r3, #4
 2335 0116 FCEEC87A 		vcvt.u32.f32	s15, s16
 2336 011a 17EE902A 		vmov	r2, s15	@ int
 2337 011e 1946     		mov	r1, r3
 2338 0120 2046     		mov	r0, r4
 2339 0122 FFF7FEFF 		bl	BQ34Z100_WriteFlash
 2340              	.LVL328:
 394:bq34z100.c    ****     CyDelay(300); // Delay for 300ms for settings to take effect
 2341              		.loc 1 394 0
 2342 0126 2046     		mov	r0, r4
 2343 0128 FFF7FEFF 		bl	BQ34Z100_UpdateChecksum
 2344              	.LVL329:
 395:bq34z100.c    **** }
 2345              		.loc 1 395 0
 2346 012c 4FF49670 		mov	r0, #300
 2347 0130 FFF7FEFF 		bl	Cy_SysLib_Delay
 2348              	.LVL330:
 396:bq34z100.c    **** 
 2349              		.loc 1 396 0
 2350 0134 09B0     		add	sp, sp, #36
 2351              		.cfi_def_cfa_offset 52
 2352              		@ sp needed
 2353 0136 BDEC048B 		vldm	sp!, {d8-d9}
 2354              		.cfi_restore 82
 2355              		.cfi_restore 83
 2356              		.cfi_restore 80
ARM GAS  C:\Users\thoma\AppData\Local\Temp\ccRUrbHX.s 			page 54


 2357              		.cfi_restore 81
 2358              		.cfi_def_cfa_offset 36
 2359              	.LVL331:
 2360 013a BDE8F08F 		pop	{r4, r5, r6, r7, r8, r9, r10, fp, pc}
 2361              	.LVL332:
 2362              	.L133:
 2363 013e 00BF     		.align	3
 2364              	.L132:
 2365 0140 DF4F8D97 		.word	-1752346657
 2366 0144 6E121340 		.word	1074991726
 2367 0148 75939840 		.word	1083741045
 2368 014c 0A43AD4A 		.word	1252868874
 2369 0150 D4010000 		.word	.LC13
 2370              		.cfi_endproc
 2371              	.LFE703:
 2372              		.size	BQ34Z100_CalibrateShunt, .-BQ34Z100_CalibrateShunt
 2373              		.section	.text.BQ34Z100_SetSenseResistor,"ax",%progbits
 2374              		.align	2
 2375              		.global	BQ34Z100_SetSenseResistor
 2376              		.thumb
 2377              		.thumb_func
 2378              		.type	BQ34Z100_SetSenseResistor, %function
 2379              	BQ34Z100_SetSenseResistor:
 2380              	.LFB704:
 398:bq34z100.c    ****     BQ34Z100_ChangePage(device, 104, 0);
 2381              		.loc 1 398 0
 2382              		.cfi_startproc
 2383              		@ args = 0, pretend = 0, frame = 0
 2384              		@ frame_needed = 0, uses_anonymous_args = 0
 2385              	.LVL333:
 2386 0000 70B5     		push	{r4, r5, r6, lr}
 2387              		.cfi_def_cfa_offset 16
 2388              		.cfi_offset 4, -16
 2389              		.cfi_offset 5, -12
 2390              		.cfi_offset 6, -8
 2391              		.cfi_offset 14, -4
 2392 0002 82B0     		sub	sp, sp, #8
 2393              		.cfi_def_cfa_offset 24
 2394 0004 0446     		mov	r4, r0
 399:bq34z100.c    ****     BQ34Z100_ReadFlash(device);
 2395              		.loc 1 399 0
 2396 0006 0022     		movs	r2, #0
 2397 0008 6821     		movs	r1, #104
 2398 000a FFF7FEFF 		bl	BQ34Z100_ChangePage
 2399              	.LVL334:
 400:bq34z100.c    ****     CyDelay(30); // Delay to ensure data is ready
 2400              		.loc 1 400 0
 2401 000e 2046     		mov	r0, r4
 2402 0010 FFF7FEFF 		bl	BQ34Z100_ReadFlash
 2403              	.LVL335:
 401:bq34z100.c    **** 
 2404              		.loc 1 401 0
 2405 0014 1E20     		movs	r0, #30
 2406 0016 FFF7FEFF 		bl	Cy_SysLib_Delay
 2407              	.LVL336:
 404:bq34z100.c    ****     uint32_t DeltaDF = floatToXemics(5677445 / SENSE_RES);
 2408              		.loc 1 404 0
ARM GAS  C:\Users\thoma\AppData\Local\Temp\ccRUrbHX.s 			page 55


 2409 001a 1148     		ldr	r0, .L136
 2410 001c FFF7FEFF 		bl	floatToXemics
 2411              	.LVL337:
 2412 0020 0546     		mov	r5, r0
 2413              	.LVL338:
 405:bq34z100.c    ****     BQ34Z100_WriteFlash(device, 0, GainDF, 4);
 2414              		.loc 1 405 0
 2415 0022 1048     		ldr	r0, .L136+4
 2416              	.LVL339:
 2417 0024 FFF7FEFF 		bl	floatToXemics
 2418              	.LVL340:
 2419 0028 0646     		mov	r6, r0
 2420              	.LVL341:
 406:bq34z100.c    ****     BQ34Z100_WriteFlash(device, 4, DeltaDF, 4);
 2421              		.loc 1 406 0
 2422 002a 0423     		movs	r3, #4
 2423 002c 2A46     		mov	r2, r5
 2424 002e 0021     		movs	r1, #0
 2425 0030 2046     		mov	r0, r4
 2426              	.LVL342:
 2427 0032 FFF7FEFF 		bl	BQ34Z100_WriteFlash
 2428              	.LVL343:
 407:bq34z100.c    **** 
 2429              		.loc 1 407 0
 2430 0036 0423     		movs	r3, #4
 2431 0038 3246     		mov	r2, r6
 2432 003a 1946     		mov	r1, r3
 2433 003c 2046     		mov	r0, r4
 2434 003e FFF7FEFF 		bl	BQ34Z100_WriteFlash
 2435              	.LVL344:
 409:bq34z100.c    **** 
 2436              		.loc 1 409 0
 2437 0042 0095     		str	r5, [sp]
 2438 0044 0022     		movs	r2, #0
 2439 0046 084B     		ldr	r3, .L136+8
 2440 0048 0848     		ldr	r0, .L136+12
 2441 004a FFF7FEFF 		bl	printf
 2442              	.LVL345:
 411:bq34z100.c    ****     CyDelay(300); // Wait for changes to take effect
 2443              		.loc 1 411 0
 2444 004e 2046     		mov	r0, r4
 2445 0050 FFF7FEFF 		bl	BQ34Z100_UpdateChecksum
 2446              	.LVL346:
 412:bq34z100.c    **** }
 2447              		.loc 1 412 0
 2448 0054 4FF49670 		mov	r0, #300
 2449 0058 FFF7FEFF 		bl	Cy_SysLib_Delay
 2450              	.LVL347:
 413:bq34z100.c    **** 
 2451              		.loc 1 413 0
 2452 005c 02B0     		add	sp, sp, #8
 2453              		.cfi_def_cfa_offset 16
 2454              		@ sp needed
 2455 005e 70BD     		pop	{r4, r5, r6, pc}
 2456              	.LVL348:
 2457              	.L137:
 2458              		.align	2
ARM GAS  C:\Users\thoma\AppData\Local\Temp\ccRUrbHX.s 			page 56


 2459              	.L136:
 2460 0060 6BBFA23E 		.word	1050853227
 2461 0064 0BD0B848 		.word	1220071435
 2462 0068 00002E40 		.word	1076756480
 2463 006c 5C020000 		.word	.LC14
 2464              		.cfi_endproc
 2465              	.LFE704:
 2466              		.size	BQ34Z100_SetSenseResistor, .-BQ34Z100_SetSenseResistor
 2467              		.section	.text.BQ34Z100_GetUpdateStatus,"ax",%progbits
 2468              		.align	2
 2469              		.global	BQ34Z100_GetUpdateStatus
 2470              		.thumb
 2471              		.thumb_func
 2472              		.type	BQ34Z100_GetUpdateStatus, %function
 2473              	BQ34Z100_GetUpdateStatus:
 2474              	.LFB710:
 492:bq34z100.c    ****     BQ34Z100_ChangePage(device, 82, 0); // Change to page 82, offset 0
 2475              		.loc 1 492 0
 2476              		.cfi_startproc
 2477              		@ args = 0, pretend = 0, frame = 0
 2478              		@ frame_needed = 0, uses_anonymous_args = 0
 2479              	.LVL349:
 2480 0000 10B5     		push	{r4, lr}
 2481              		.cfi_def_cfa_offset 8
 2482              		.cfi_offset 4, -8
 2483              		.cfi_offset 14, -4
 2484 0002 0446     		mov	r4, r0
 493:bq34z100.c    ****     BQ34Z100_ReadFlash(device); // Read the data from flash into the buffer
 2485              		.loc 1 493 0
 2486 0004 0022     		movs	r2, #0
 2487 0006 5221     		movs	r1, #82
 2488 0008 FFF7FEFF 		bl	BQ34Z100_ChangePage
 2489              	.LVL350:
 494:bq34z100.c    ****     return device->flashbytes[4]; // Return the status byte from the flash memory buffer
 2490              		.loc 1 494 0
 2491 000c 2046     		mov	r0, r4
 2492 000e FFF7FEFF 		bl	BQ34Z100_ReadFlash
 2493              	.LVL351:
 496:bq34z100.c    **** 
 2494              		.loc 1 496 0
 2495 0012 2079     		ldrb	r0, [r4, #4]	@ zero_extendqisi2
 2496 0014 10BD     		pop	{r4, pc}
 2497              		.cfi_endproc
 2498              	.LFE710:
 2499              		.size	BQ34Z100_GetUpdateStatus, .-BQ34Z100_GetUpdateStatus
 2500 0016 00BF     		.section	.rodata.str1.4,"aMS",%progbits,1
 2501              		.align	2
 2502              	.LC0:
 2503 0000 466C6173 		.ascii	"Flash[%d] <- 0x%hhx\012\000"
 2503      685B2564 
 2503      5D203C2D 
 2503      20307825 
 2503      6868780A 
 2504 0015 000000   		.space	3
 2505              	.LC1:
 2506 0018 57726974 		.ascii	"Writing new checksum for page %hhu block %hhu: 0x%h"
 2506      696E6720 
ARM GAS  C:\Users\thoma\AppData\Local\Temp\ccRUrbHX.s 			page 57


 2506      6E657720 
 2506      63686563 
 2506      6B73756D 
 2507 004b 68780D0A 		.ascii	"hx\015\012\000"
 2507      00
 2508              	.LC2:
 2509 0050 41207772 		.ascii	"A write error has occurred when transmitting addres"
 2509      69746520 
 2509      6572726F 
 2509      72206861 
 2509      73206F63 
 2510 0083 732E0D00 		.ascii	"s.\015\000"
 2511 0087 00       		.space	1
 2512              	.LC3:
 2513 0088 41207265 		.ascii	"A read error has occurred when setting read mode.\015"
 2513      61642065 
 2513      72726F72 
 2513      20686173 
 2513      206F6363 
 2514 00ba 00       		.ascii	"\000"
 2515 00bb 00       		.space	1
 2516              	.LC4:
 2517 00bc 4552524F 		.ascii	"ERROR: Checksum of flash memory block does not matc"
 2517      523A2043 
 2517      6865636B 
 2517      73756D20 
 2517      6F662066 
 2518 00ef 682E2049 		.ascii	"h. I2C read was likely corrupted.\015\000"
 2518      32432072 
 2518      65616420 
 2518      77617320 
 2518      6C696B65 
 2519 0112 0000     		.space	2
 2520              	.LC5:
 2521 0114 50616765 		.ascii	"Page %hhu block %hhu contents:\000"
 2521      20256868 
 2521      7520626C 
 2521      6F636B20 
 2521      25686875 
 2522 0133 00       		.space	1
 2523              	.LC6:
 2524 0134 20256868 		.ascii	" %hhx\000"
 2524      7800
 2525 013a 0000     		.space	2
 2526              	.LC7:
 2527 013c 0D00     		.ascii	"\015\000"
 2528 013e 0000     		.space	2
 2529              	.LC8:
 2530 0140 43686563 		.ascii	"Checksum: 0x%hhx\015\012\000"
 2530      6B73756D 
 2530      3A203078 
 2530      25686878 
 2530      0D0A00
 2531 0153 00       		.space	1
 2532              	.LC9:
 2533 0154 4368616E 		.ascii	"Changing Flash Update OK Voltage from %hi to %hi\015"
 2533      67696E67 
ARM GAS  C:\Users\thoma\AppData\Local\Temp\ccRUrbHX.s 			page 58


 2533      20466C61 
 2533      73682055 
 2533      70646174 
 2534 0185 0A00     		.ascii	"\012\000"
 2535 0187 00       		.space	1
 2536              	.LC10:
 2537 0188 52656769 		.ascii	"Register (voltage divider): %d\015\012\000"
 2537      73746572 
 2537      2028766F 
 2537      6C746167 
 2537      65206469 
 2538 01a9 000000   		.space	3
 2539              	.LC11:
 2540 01ac 4E657720 		.ascii	"New Ratio: %f\015\012\000"
 2540      52617469 
 2540      6F3A2025 
 2540      660D0A00 
 2541              	.LC12:
 2542 01bc 52454144 		.ascii	"READ VOLTAGE (mv): %f\015\012\000"
 2542      20564F4C 
 2542      54414745 
 2542      20286D76 
 2542      293A2025 
 2543              	.LC13:
 2544 01d4 63757272 		.ascii	"currentGainDF = 0x%lx, currentGainResistance = %f, "
 2544      656E7447 
 2544      61696E44 
 2544      46203D20 
 2544      3078256C 
 2545 0207 63757272 		.ascii	"currentDeltaDF = %lx, currentDeltaResistance = %f, "
 2545      656E7444 
 2545      656C7461 
 2545      4446203D 
 2545      20256C78 
 2546 023a 6E657747 		.ascii	"newGain = %f, newGainDF = 0x%lx\012\000"
 2546      61696E20 
 2546      3D202566 
 2546      2C206E65 
 2546      77476169 
 2547 025b 00       		.space	1
 2548              	.LC14:
 2549 025c 6E657747 		.ascii	"newGain = %f, GainDF = 0x%lx\012\000"
 2549      61696E20 
 2549      3D202566 
 2549      2C204761 
 2549      696E4446 
 2550              		.text
 2551              	.Letext0:
 2552              		.file 2 "c:\\program files (x86)\\cypress\\psoc creator\\4.4\\psoc creator\\import\\gnu\\arm\\5.4.
 2553              		.file 3 "c:\\program files (x86)\\cypress\\psoc creator\\4.4\\psoc creator\\import\\gnu\\arm\\5.4.
 2554              		.file 4 "c:\\program files (x86)\\cypress\\psoc creator\\4.4\\psoc creator\\import\\gnu\\arm\\5.4.
 2555              		.file 5 "Generated_Source\\PSoC6\\pdl\\drivers/peripheral/device/cy_device.h"
 2556              		.file 6 "Generated_Source\\PSoC6\\pdl\\drivers/peripheral/sysclk/cy_sysclk.h"
 2557              		.file 7 "Generated_Source\\PSoC6\\pdl\\drivers/peripheral/ctdac/cy_ctdac.h"
 2558              		.file 8 "Generated_Source\\PSoC6\\pdl\\drivers/peripheral/sar/cy_sar.h"
 2559              		.file 9 "Generated_Source\\PSoC6\\pdl\\drivers/peripheral/scb/cy_scb_uart.h"
 2560              		.file 10 "Generated_Source\\PSoC6\\pdl\\drivers/peripheral/tcpwm/cy_tcpwm_counter.h"
ARM GAS  C:\Users\thoma\AppData\Local\Temp\ccRUrbHX.s 			page 59


 2561              		.file 11 "Generated_Source\\PSoC6/ADC.h"
 2562              		.file 12 "bq34z100.h"
 2563              		.file 13 "Generated_Source\\PSoC6\\pdl\\cmsis/include/core_cm4.h"
 2564              		.file 14 "Generated_Source\\PSoC6/UART.h"
 2565              		.file 15 "Generated_Source\\PSoC6/Timer.h"
 2566              		.file 16 "Generated_Source\\PSoC6/VDAC.h"
 2567              		.file 17 "Generated_Source\\PSoC6/UART_1.h"
 2568              		.file 18 "Generated_Source\\PSoC6/I2C.h"
 2569              		.file 19 "Generated_Source\\PSoC6\\pdl\\drivers/peripheral/syslib/cy_syslib.h"
 2570              		.file 20 "c:\\program files (x86)\\cypress\\psoc creator\\4.4\\psoc creator\\import\\gnu\\arm\\5.4
 2571              		.file 21 "c:\\program files (x86)\\cypress\\psoc creator\\4.4\\psoc creator\\import\\gnu\\arm\\5.4
 2572              		.file 22 "<built-in>"
 2573              		.section	.debug_info,"",%progbits
 2574              	.Ldebug_info0:
 2575 0000 28270000 		.4byte	0x2728
 2576 0004 0400     		.2byte	0x4
 2577 0006 00000000 		.4byte	.Ldebug_abbrev0
 2578 000a 04       		.byte	0x4
 2579 000b 01       		.uleb128 0x1
 2580 000c 49040000 		.4byte	.LASF392
 2581 0010 0C       		.byte	0xc
 2582 0011 D0030000 		.4byte	.LASF393
 2583 0015 C1170000 		.4byte	.LASF394
 2584 0019 60000000 		.4byte	.Ldebug_ranges0+0x60
 2585 001d 00000000 		.4byte	0
 2586 0021 00000000 		.4byte	.Ldebug_line0
 2587 0025 02       		.uleb128 0x2
 2588 0026 04       		.byte	0x4
 2589 0027 04       		.byte	0x4
 2590 0028 AA060000 		.4byte	.LASF0
 2591 002c 03       		.uleb128 0x3
 2592 002d 04       		.byte	0x4
 2593 002e 05       		.byte	0x5
 2594 002f 696E7400 		.ascii	"int\000"
 2595 0033 02       		.uleb128 0x2
 2596 0034 04       		.byte	0x4
 2597 0035 07       		.byte	0x7
 2598 0036 E60C0000 		.4byte	.LASF1
 2599 003a 02       		.uleb128 0x2
 2600 003b 08       		.byte	0x8
 2601 003c 04       		.byte	0x4
 2602 003d 230A0000 		.4byte	.LASF2
 2603 0041 02       		.uleb128 0x2
 2604 0042 02       		.byte	0x2
 2605 0043 05       		.byte	0x5
 2606 0044 FC110000 		.4byte	.LASF3
 2607 0048 02       		.uleb128 0x2
 2608 0049 01       		.byte	0x1
 2609 004a 06       		.byte	0x6
 2610 004b D9160000 		.4byte	.LASF4
 2611 004f 04       		.uleb128 0x4
 2612 0050 3A130000 		.4byte	.LASF6
 2613 0054 02       		.byte	0x2
 2614 0055 1D       		.byte	0x1d
 2615 0056 5A000000 		.4byte	0x5a
 2616 005a 02       		.uleb128 0x2
 2617 005b 01       		.byte	0x1
ARM GAS  C:\Users\thoma\AppData\Local\Temp\ccRUrbHX.s 			page 60


 2618 005c 08       		.byte	0x8
 2619 005d FD140000 		.4byte	.LASF5
 2620 0061 04       		.uleb128 0x4
 2621 0062 B00E0000 		.4byte	.LASF7
 2622 0066 02       		.byte	0x2
 2623 0067 29       		.byte	0x29
 2624 0068 41000000 		.4byte	0x41
 2625 006c 04       		.uleb128 0x4
 2626 006d 72080000 		.4byte	.LASF8
 2627 0071 02       		.byte	0x2
 2628 0072 2B       		.byte	0x2b
 2629 0073 77000000 		.4byte	0x77
 2630 0077 02       		.uleb128 0x2
 2631 0078 02       		.byte	0x2
 2632 0079 07       		.byte	0x7
 2633 007a 74100000 		.4byte	.LASF9
 2634 007e 04       		.uleb128 0x4
 2635 007f 9A020000 		.4byte	.LASF10
 2636 0083 02       		.byte	0x2
 2637 0084 3F       		.byte	0x3f
 2638 0085 89000000 		.4byte	0x89
 2639 0089 02       		.uleb128 0x2
 2640 008a 04       		.byte	0x4
 2641 008b 05       		.byte	0x5
 2642 008c 83120000 		.4byte	.LASF11
 2643 0090 04       		.uleb128 0x4
 2644 0091 FD100000 		.4byte	.LASF12
 2645 0095 02       		.byte	0x2
 2646 0096 41       		.byte	0x41
 2647 0097 9B000000 		.4byte	0x9b
 2648 009b 02       		.uleb128 0x2
 2649 009c 04       		.byte	0x4
 2650 009d 07       		.byte	0x7
 2651 009e 19140000 		.4byte	.LASF13
 2652 00a2 02       		.uleb128 0x2
 2653 00a3 08       		.byte	0x8
 2654 00a4 05       		.byte	0x5
 2655 00a5 1A0E0000 		.4byte	.LASF14
 2656 00a9 02       		.uleb128 0x2
 2657 00aa 08       		.byte	0x8
 2658 00ab 07       		.byte	0x7
 2659 00ac AB070000 		.4byte	.LASF15
 2660 00b0 04       		.uleb128 0x4
 2661 00b1 2D0D0000 		.4byte	.LASF16
 2662 00b5 03       		.byte	0x3
 2663 00b6 18       		.byte	0x18
 2664 00b7 4F000000 		.4byte	0x4f
 2665 00bb 04       		.uleb128 0x4
 2666 00bc 7C070000 		.4byte	.LASF17
 2667 00c0 03       		.byte	0x3
 2668 00c1 20       		.byte	0x20
 2669 00c2 61000000 		.4byte	0x61
 2670 00c6 04       		.uleb128 0x4
 2671 00c7 E4140000 		.4byte	.LASF18
 2672 00cb 03       		.byte	0x3
 2673 00cc 24       		.byte	0x24
 2674 00cd 6C000000 		.4byte	0x6c
ARM GAS  C:\Users\thoma\AppData\Local\Temp\ccRUrbHX.s 			page 61


 2675 00d1 04       		.uleb128 0x4
 2676 00d2 48140000 		.4byte	.LASF19
 2677 00d6 03       		.byte	0x3
 2678 00d7 2C       		.byte	0x2c
 2679 00d8 7E000000 		.4byte	0x7e
 2680 00dc 04       		.uleb128 0x4
 2681 00dd 14060000 		.4byte	.LASF20
 2682 00e1 03       		.byte	0x3
 2683 00e2 30       		.byte	0x30
 2684 00e3 90000000 		.4byte	0x90
 2685 00e7 02       		.uleb128 0x2
 2686 00e8 04       		.byte	0x4
 2687 00e9 07       		.byte	0x7
 2688 00ea A3110000 		.4byte	.LASF21
 2689 00ee 05       		.uleb128 0x5
 2690 00ef DC000000 		.4byte	0xdc
 2691 00f3 04       		.uleb128 0x4
 2692 00f4 AC090000 		.4byte	.LASF22
 2693 00f8 04       		.byte	0x4
 2694 00f9 D8       		.byte	0xd8
 2695 00fa 33000000 		.4byte	0x33
 2696 00fe 02       		.uleb128 0x2
 2697 00ff 08       		.byte	0x8
 2698 0100 04       		.byte	0x4
 2699 0101 A8100000 		.4byte	.LASF23
 2700 0105 06       		.uleb128 0x6
 2701 0106 B8       		.byte	0xb8
 2702 0107 05       		.byte	0x5
 2703 0108 34       		.byte	0x34
 2704 0109 16050000 		.4byte	0x516
 2705 010d 07       		.uleb128 0x7
 2706 010e CF020000 		.4byte	.LASF24
 2707 0112 05       		.byte	0x5
 2708 0113 37       		.byte	0x37
 2709 0114 DC000000 		.4byte	0xdc
 2710 0118 00       		.byte	0
 2711 0119 07       		.uleb128 0x7
 2712 011a 71070000 		.4byte	.LASF25
 2713 011e 05       		.byte	0x5
 2714 011f 38       		.byte	0x38
 2715 0120 DC000000 		.4byte	0xdc
 2716 0124 04       		.byte	0x4
 2717 0125 07       		.uleb128 0x7
 2718 0126 51010000 		.4byte	.LASF26
 2719 012a 05       		.byte	0x5
 2720 012b 39       		.byte	0x39
 2721 012c DC000000 		.4byte	0xdc
 2722 0130 08       		.byte	0x8
 2723 0131 07       		.uleb128 0x7
 2724 0132 0F010000 		.4byte	.LASF27
 2725 0136 05       		.byte	0x5
 2726 0137 3A       		.byte	0x3a
 2727 0138 DC000000 		.4byte	0xdc
 2728 013c 0C       		.byte	0xc
 2729 013d 07       		.uleb128 0x7
 2730 013e CD100000 		.4byte	.LASF28
 2731 0142 05       		.byte	0x5
ARM GAS  C:\Users\thoma\AppData\Local\Temp\ccRUrbHX.s 			page 62


 2732 0143 3B       		.byte	0x3b
 2733 0144 DC000000 		.4byte	0xdc
 2734 0148 10       		.byte	0x10
 2735 0149 07       		.uleb128 0x7
 2736 014a D80E0000 		.4byte	.LASF29
 2737 014e 05       		.byte	0x5
 2738 014f 3C       		.byte	0x3c
 2739 0150 DC000000 		.4byte	0xdc
 2740 0154 14       		.byte	0x14
 2741 0155 07       		.uleb128 0x7
 2742 0156 B30A0000 		.4byte	.LASF30
 2743 015a 05       		.byte	0x5
 2744 015b 3D       		.byte	0x3d
 2745 015c DC000000 		.4byte	0xdc
 2746 0160 18       		.byte	0x18
 2747 0161 07       		.uleb128 0x7
 2748 0162 67180000 		.4byte	.LASF31
 2749 0166 05       		.byte	0x5
 2750 0167 3E       		.byte	0x3e
 2751 0168 DC000000 		.4byte	0xdc
 2752 016c 1C       		.byte	0x1c
 2753 016d 07       		.uleb128 0x7
 2754 016e 280E0000 		.4byte	.LASF32
 2755 0172 05       		.byte	0x5
 2756 0173 3F       		.byte	0x3f
 2757 0174 DC000000 		.4byte	0xdc
 2758 0178 20       		.byte	0x20
 2759 0179 07       		.uleb128 0x7
 2760 017a 3B0E0000 		.4byte	.LASF33
 2761 017e 05       		.byte	0x5
 2762 017f 40       		.byte	0x40
 2763 0180 DC000000 		.4byte	0xdc
 2764 0184 24       		.byte	0x24
 2765 0185 07       		.uleb128 0x7
 2766 0186 8C120000 		.4byte	.LASF34
 2767 018a 05       		.byte	0x5
 2768 018b 43       		.byte	0x43
 2769 018c B0000000 		.4byte	0xb0
 2770 0190 28       		.byte	0x28
 2771 0191 07       		.uleb128 0x7
 2772 0192 B0060000 		.4byte	.LASF35
 2773 0196 05       		.byte	0x5
 2774 0197 44       		.byte	0x44
 2775 0198 B0000000 		.4byte	0xb0
 2776 019c 29       		.byte	0x29
 2777 019d 07       		.uleb128 0x7
 2778 019e 57110000 		.4byte	.LASF36
 2779 01a2 05       		.byte	0x5
 2780 01a3 45       		.byte	0x45
 2781 01a4 B0000000 		.4byte	0xb0
 2782 01a8 2A       		.byte	0x2a
 2783 01a9 07       		.uleb128 0x7
 2784 01aa C8120000 		.4byte	.LASF37
 2785 01ae 05       		.byte	0x5
 2786 01af 46       		.byte	0x46
 2787 01b0 B0000000 		.4byte	0xb0
 2788 01b4 2B       		.byte	0x2b
ARM GAS  C:\Users\thoma\AppData\Local\Temp\ccRUrbHX.s 			page 63


 2789 01b5 07       		.uleb128 0x7
 2790 01b6 B5120000 		.4byte	.LASF38
 2791 01ba 05       		.byte	0x5
 2792 01bb 47       		.byte	0x47
 2793 01bc B0000000 		.4byte	0xb0
 2794 01c0 2C       		.byte	0x2c
 2795 01c1 07       		.uleb128 0x7
 2796 01c2 EF130000 		.4byte	.LASF39
 2797 01c6 05       		.byte	0x5
 2798 01c7 48       		.byte	0x48
 2799 01c8 B0000000 		.4byte	0xb0
 2800 01cc 2D       		.byte	0x2d
 2801 01cd 07       		.uleb128 0x7
 2802 01ce 5F190000 		.4byte	.LASF40
 2803 01d2 05       		.byte	0x5
 2804 01d3 49       		.byte	0x49
 2805 01d4 B0000000 		.4byte	0xb0
 2806 01d8 2E       		.byte	0x2e
 2807 01d9 07       		.uleb128 0x7
 2808 01da 27180000 		.4byte	.LASF41
 2809 01de 05       		.byte	0x5
 2810 01df 4A       		.byte	0x4a
 2811 01e0 B0000000 		.4byte	0xb0
 2812 01e4 2F       		.byte	0x2f
 2813 01e5 07       		.uleb128 0x7
 2814 01e6 FC040000 		.4byte	.LASF42
 2815 01ea 05       		.byte	0x5
 2816 01eb 4B       		.byte	0x4b
 2817 01ec B0000000 		.4byte	0xb0
 2818 01f0 30       		.byte	0x30
 2819 01f1 07       		.uleb128 0x7
 2820 01f2 7E0F0000 		.4byte	.LASF43
 2821 01f6 05       		.byte	0x5
 2822 01f7 4E       		.byte	0x4e
 2823 01f8 B0000000 		.4byte	0xb0
 2824 01fc 31       		.byte	0x31
 2825 01fd 07       		.uleb128 0x7
 2826 01fe FF160000 		.4byte	.LASF44
 2827 0202 05       		.byte	0x5
 2828 0203 4F       		.byte	0x4f
 2829 0204 B0000000 		.4byte	0xb0
 2830 0208 32       		.byte	0x32
 2831 0209 07       		.uleb128 0x7
 2832 020a 3D0F0000 		.4byte	.LASF45
 2833 020e 05       		.byte	0x5
 2834 020f 50       		.byte	0x50
 2835 0210 B0000000 		.4byte	0xb0
 2836 0214 33       		.byte	0x33
 2837 0215 07       		.uleb128 0x7
 2838 0216 E80B0000 		.4byte	.LASF46
 2839 021a 05       		.byte	0x5
 2840 021b 51       		.byte	0x51
 2841 021c B0000000 		.4byte	0xb0
 2842 0220 34       		.byte	0x34
 2843 0221 07       		.uleb128 0x7
 2844 0222 F2070000 		.4byte	.LASF47
 2845 0226 05       		.byte	0x5
ARM GAS  C:\Users\thoma\AppData\Local\Temp\ccRUrbHX.s 			page 64


 2846 0227 52       		.byte	0x52
 2847 0228 BB000000 		.4byte	0xbb
 2848 022c 36       		.byte	0x36
 2849 022d 07       		.uleb128 0x7
 2850 022e E5020000 		.4byte	.LASF48
 2851 0232 05       		.byte	0x5
 2852 0233 53       		.byte	0x53
 2853 0234 BB000000 		.4byte	0xbb
 2854 0238 38       		.byte	0x38
 2855 0239 07       		.uleb128 0x7
 2856 023a 1D030000 		.4byte	.LASF49
 2857 023e 05       		.byte	0x5
 2858 023f 54       		.byte	0x54
 2859 0240 BB000000 		.4byte	0xbb
 2860 0244 3A       		.byte	0x3a
 2861 0245 07       		.uleb128 0x7
 2862 0246 98180000 		.4byte	.LASF50
 2863 024a 05       		.byte	0x5
 2864 024b 55       		.byte	0x55
 2865 024c B0000000 		.4byte	0xb0
 2866 0250 3C       		.byte	0x3c
 2867 0251 07       		.uleb128 0x7
 2868 0252 97090000 		.4byte	.LASF51
 2869 0256 05       		.byte	0x5
 2870 0257 56       		.byte	0x56
 2871 0258 B0000000 		.4byte	0xb0
 2872 025c 3D       		.byte	0x3d
 2873 025d 07       		.uleb128 0x7
 2874 025e 08110000 		.4byte	.LASF52
 2875 0262 05       		.byte	0x5
 2876 0263 57       		.byte	0x57
 2877 0264 B0000000 		.4byte	0xb0
 2878 0268 3E       		.byte	0x3e
 2879 0269 07       		.uleb128 0x7
 2880 026a CC0E0000 		.4byte	.LASF53
 2881 026e 05       		.byte	0x5
 2882 026f 58       		.byte	0x58
 2883 0270 B0000000 		.4byte	0xb0
 2884 0274 3F       		.byte	0x3f
 2885 0275 07       		.uleb128 0x7
 2886 0276 EC010000 		.4byte	.LASF54
 2887 027a 05       		.byte	0x5
 2888 027b 59       		.byte	0x59
 2889 027c B0000000 		.4byte	0xb0
 2890 0280 40       		.byte	0x40
 2891 0281 07       		.uleb128 0x7
 2892 0282 42030000 		.4byte	.LASF55
 2893 0286 05       		.byte	0x5
 2894 0287 5A       		.byte	0x5a
 2895 0288 B0000000 		.4byte	0xb0
 2896 028c 41       		.byte	0x41
 2897 028d 07       		.uleb128 0x7
 2898 028e 95160000 		.4byte	.LASF56
 2899 0292 05       		.byte	0x5
 2900 0293 5B       		.byte	0x5b
 2901 0294 B0000000 		.4byte	0xb0
 2902 0298 42       		.byte	0x42
ARM GAS  C:\Users\thoma\AppData\Local\Temp\ccRUrbHX.s 			page 65


 2903 0299 07       		.uleb128 0x7
 2904 029a 750C0000 		.4byte	.LASF57
 2905 029e 05       		.byte	0x5
 2906 029f 5C       		.byte	0x5c
 2907 02a0 B0000000 		.4byte	0xb0
 2908 02a4 43       		.byte	0x43
 2909 02a5 07       		.uleb128 0x7
 2910 02a6 930C0000 		.4byte	.LASF58
 2911 02aa 05       		.byte	0x5
 2912 02ab 5D       		.byte	0x5d
 2913 02ac B0000000 		.4byte	0xb0
 2914 02b0 44       		.byte	0x44
 2915 02b1 07       		.uleb128 0x7
 2916 02b2 D6120000 		.4byte	.LASF59
 2917 02b6 05       		.byte	0x5
 2918 02b7 5E       		.byte	0x5e
 2919 02b8 DC000000 		.4byte	0xdc
 2920 02bc 48       		.byte	0x48
 2921 02bd 07       		.uleb128 0x7
 2922 02be DB030000 		.4byte	.LASF60
 2923 02c2 05       		.byte	0x5
 2924 02c3 5F       		.byte	0x5f
 2925 02c4 DC000000 		.4byte	0xdc
 2926 02c8 4C       		.byte	0x4c
 2927 02c9 07       		.uleb128 0x7
 2928 02ca 49160000 		.4byte	.LASF61
 2929 02ce 05       		.byte	0x5
 2930 02cf 60       		.byte	0x60
 2931 02d0 B0000000 		.4byte	0xb0
 2932 02d4 50       		.byte	0x50
 2933 02d5 07       		.uleb128 0x7
 2934 02d6 F1090000 		.4byte	.LASF62
 2935 02da 05       		.byte	0x5
 2936 02db 61       		.byte	0x61
 2937 02dc B0000000 		.4byte	0xb0
 2938 02e0 51       		.byte	0x51
 2939 02e1 07       		.uleb128 0x7
 2940 02e2 710E0000 		.4byte	.LASF63
 2941 02e6 05       		.byte	0x5
 2942 02e7 62       		.byte	0x62
 2943 02e8 B0000000 		.4byte	0xb0
 2944 02ec 52       		.byte	0x52
 2945 02ed 07       		.uleb128 0x7
 2946 02ee F2060000 		.4byte	.LASF64
 2947 02f2 05       		.byte	0x5
 2948 02f3 63       		.byte	0x63
 2949 02f4 B0000000 		.4byte	0xb0
 2950 02f8 53       		.byte	0x53
 2951 02f9 07       		.uleb128 0x7
 2952 02fa ED150000 		.4byte	.LASF65
 2953 02fe 05       		.byte	0x5
 2954 02ff 64       		.byte	0x64
 2955 0300 B0000000 		.4byte	0xb0
 2956 0304 54       		.byte	0x54
 2957 0305 07       		.uleb128 0x7
 2958 0306 7B0A0000 		.4byte	.LASF66
 2959 030a 05       		.byte	0x5
ARM GAS  C:\Users\thoma\AppData\Local\Temp\ccRUrbHX.s 			page 66


 2960 030b 65       		.byte	0x65
 2961 030c B0000000 		.4byte	0xb0
 2962 0310 55       		.byte	0x55
 2963 0311 07       		.uleb128 0x7
 2964 0312 13000000 		.4byte	.LASF67
 2965 0316 05       		.byte	0x5
 2966 0317 66       		.byte	0x66
 2967 0318 B0000000 		.4byte	0xb0
 2968 031c 56       		.byte	0x56
 2969 031d 07       		.uleb128 0x7
 2970 031e 61110000 		.4byte	.LASF68
 2971 0322 05       		.byte	0x5
 2972 0323 67       		.byte	0x67
 2973 0324 B0000000 		.4byte	0xb0
 2974 0328 57       		.byte	0x57
 2975 0329 07       		.uleb128 0x7
 2976 032a 53090000 		.4byte	.LASF69
 2977 032e 05       		.byte	0x5
 2978 032f 68       		.byte	0x68
 2979 0330 B0000000 		.4byte	0xb0
 2980 0334 58       		.byte	0x58
 2981 0335 07       		.uleb128 0x7
 2982 0336 C1180000 		.4byte	.LASF70
 2983 033a 05       		.byte	0x5
 2984 033b 69       		.byte	0x69
 2985 033c B0000000 		.4byte	0xb0
 2986 0340 59       		.byte	0x59
 2987 0341 07       		.uleb128 0x7
 2988 0342 EC160000 		.4byte	.LASF71
 2989 0346 05       		.byte	0x5
 2990 0347 6E       		.byte	0x6e
 2991 0348 C6000000 		.4byte	0xc6
 2992 034c 5A       		.byte	0x5a
 2993 034d 07       		.uleb128 0x7
 2994 034e B5010000 		.4byte	.LASF72
 2995 0352 05       		.byte	0x5
 2996 0353 6F       		.byte	0x6f
 2997 0354 C6000000 		.4byte	0xc6
 2998 0358 5C       		.byte	0x5c
 2999 0359 07       		.uleb128 0x7
 3000 035a 74120000 		.4byte	.LASF73
 3001 035e 05       		.byte	0x5
 3002 035f 70       		.byte	0x70
 3003 0360 B0000000 		.4byte	0xb0
 3004 0364 5E       		.byte	0x5e
 3005 0365 07       		.uleb128 0x7
 3006 0366 29170000 		.4byte	.LASF74
 3007 036a 05       		.byte	0x5
 3008 036b 71       		.byte	0x71
 3009 036c B0000000 		.4byte	0xb0
 3010 0370 5F       		.byte	0x5f
 3011 0371 07       		.uleb128 0x7
 3012 0372 810B0000 		.4byte	.LASF75
 3013 0376 05       		.byte	0x5
 3014 0377 72       		.byte	0x72
 3015 0378 B0000000 		.4byte	0xb0
 3016 037c 60       		.byte	0x60
ARM GAS  C:\Users\thoma\AppData\Local\Temp\ccRUrbHX.s 			page 67


 3017 037d 07       		.uleb128 0x7
 3018 037e 8F0A0000 		.4byte	.LASF76
 3019 0382 05       		.byte	0x5
 3020 0383 73       		.byte	0x73
 3021 0384 DC000000 		.4byte	0xdc
 3022 0388 64       		.byte	0x64
 3023 0389 07       		.uleb128 0x7
 3024 038a 73190000 		.4byte	.LASF77
 3025 038e 05       		.byte	0x5
 3026 038f 76       		.byte	0x76
 3027 0390 C6000000 		.4byte	0xc6
 3028 0394 68       		.byte	0x68
 3029 0395 07       		.uleb128 0x7
 3030 0396 DE100000 		.4byte	.LASF78
 3031 039a 05       		.byte	0x5
 3032 039b 77       		.byte	0x77
 3033 039c C6000000 		.4byte	0xc6
 3034 03a0 6A       		.byte	0x6a
 3035 03a1 07       		.uleb128 0x7
 3036 03a2 E20E0000 		.4byte	.LASF79
 3037 03a6 05       		.byte	0x5
 3038 03a7 78       		.byte	0x78
 3039 03a8 C6000000 		.4byte	0xc6
 3040 03ac 6C       		.byte	0x6c
 3041 03ad 07       		.uleb128 0x7
 3042 03ae A3030000 		.4byte	.LASF80
 3043 03b2 05       		.byte	0x5
 3044 03b3 79       		.byte	0x79
 3045 03b4 C6000000 		.4byte	0xc6
 3046 03b8 6E       		.byte	0x6e
 3047 03b9 07       		.uleb128 0x7
 3048 03ba 850D0000 		.4byte	.LASF81
 3049 03be 05       		.byte	0x5
 3050 03bf 7B       		.byte	0x7b
 3051 03c0 B0000000 		.4byte	0xb0
 3052 03c4 70       		.byte	0x70
 3053 03c5 07       		.uleb128 0x7
 3054 03c6 60050000 		.4byte	.LASF82
 3055 03ca 05       		.byte	0x5
 3056 03cb 7C       		.byte	0x7c
 3057 03cc B0000000 		.4byte	0xb0
 3058 03d0 71       		.byte	0x71
 3059 03d1 07       		.uleb128 0x7
 3060 03d2 B0030000 		.4byte	.LASF83
 3061 03d6 05       		.byte	0x5
 3062 03d7 7D       		.byte	0x7d
 3063 03d8 B0000000 		.4byte	0xb0
 3064 03dc 72       		.byte	0x72
 3065 03dd 07       		.uleb128 0x7
 3066 03de 13020000 		.4byte	.LASF84
 3067 03e2 05       		.byte	0x5
 3068 03e3 7E       		.byte	0x7e
 3069 03e4 B0000000 		.4byte	0xb0
 3070 03e8 73       		.byte	0x73
 3071 03e9 07       		.uleb128 0x7
 3072 03ea EA110000 		.4byte	.LASF85
 3073 03ee 05       		.byte	0x5
ARM GAS  C:\Users\thoma\AppData\Local\Temp\ccRUrbHX.s 			page 68


 3074 03ef 80       		.byte	0x80
 3075 03f0 C6000000 		.4byte	0xc6
 3076 03f4 74       		.byte	0x74
 3077 03f5 07       		.uleb128 0x7
 3078 03f6 35100000 		.4byte	.LASF86
 3079 03fa 05       		.byte	0x5
 3080 03fb 81       		.byte	0x81
 3081 03fc C6000000 		.4byte	0xc6
 3082 0400 76       		.byte	0x76
 3083 0401 07       		.uleb128 0x7
 3084 0402 540C0000 		.4byte	.LASF87
 3085 0406 05       		.byte	0x5
 3086 0407 82       		.byte	0x82
 3087 0408 C6000000 		.4byte	0xc6
 3088 040c 78       		.byte	0x78
 3089 040d 07       		.uleb128 0x7
 3090 040e C2070000 		.4byte	.LASF88
 3091 0412 05       		.byte	0x5
 3092 0413 83       		.byte	0x83
 3093 0414 C6000000 		.4byte	0xc6
 3094 0418 7A       		.byte	0x7a
 3095 0419 07       		.uleb128 0x7
 3096 041a 54130000 		.4byte	.LASF89
 3097 041e 05       		.byte	0x5
 3098 041f 86       		.byte	0x86
 3099 0420 B0000000 		.4byte	0xb0
 3100 0424 7C       		.byte	0x7c
 3101 0425 07       		.uleb128 0x7
 3102 0426 6E160000 		.4byte	.LASF90
 3103 042a 05       		.byte	0x5
 3104 042b 87       		.byte	0x87
 3105 042c B0000000 		.4byte	0xb0
 3106 0430 7D       		.byte	0x7d
 3107 0431 07       		.uleb128 0x7
 3108 0432 84070000 		.4byte	.LASF91
 3109 0436 05       		.byte	0x5
 3110 0437 88       		.byte	0x88
 3111 0438 B0000000 		.4byte	0xb0
 3112 043c 7E       		.byte	0x7e
 3113 043d 07       		.uleb128 0x7
 3114 043e 62060000 		.4byte	.LASF92
 3115 0442 05       		.byte	0x5
 3116 0443 89       		.byte	0x89
 3117 0444 B0000000 		.4byte	0xb0
 3118 0448 7F       		.byte	0x7f
 3119 0449 07       		.uleb128 0x7
 3120 044a D7070000 		.4byte	.LASF93
 3121 044e 05       		.byte	0x5
 3122 044f 8A       		.byte	0x8a
 3123 0450 B0000000 		.4byte	0xb0
 3124 0454 80       		.byte	0x80
 3125 0455 07       		.uleb128 0x7
 3126 0456 D7000000 		.4byte	.LASF94
 3127 045a 05       		.byte	0x5
 3128 045b 8D       		.byte	0x8d
 3129 045c DC000000 		.4byte	0xdc
 3130 0460 84       		.byte	0x84
ARM GAS  C:\Users\thoma\AppData\Local\Temp\ccRUrbHX.s 			page 69


 3131 0461 07       		.uleb128 0x7
 3132 0462 8B130000 		.4byte	.LASF95
 3133 0466 05       		.byte	0x5
 3134 0467 8E       		.byte	0x8e
 3135 0468 DC000000 		.4byte	0xdc
 3136 046c 88       		.byte	0x88
 3137 046d 07       		.uleb128 0x7
 3138 046e 890F0000 		.4byte	.LASF96
 3139 0472 05       		.byte	0x5
 3140 0473 8F       		.byte	0x8f
 3141 0474 DC000000 		.4byte	0xdc
 3142 0478 8C       		.byte	0x8c
 3143 0479 07       		.uleb128 0x7
 3144 047a BC140000 		.4byte	.LASF97
 3145 047e 05       		.byte	0x5
 3146 047f 90       		.byte	0x90
 3147 0480 DC000000 		.4byte	0xdc
 3148 0484 90       		.byte	0x90
 3149 0485 07       		.uleb128 0x7
 3150 0486 25130000 		.4byte	.LASF98
 3151 048a 05       		.byte	0x5
 3152 048b 91       		.byte	0x91
 3153 048c DC000000 		.4byte	0xdc
 3154 0490 94       		.byte	0x94
 3155 0491 07       		.uleb128 0x7
 3156 0492 75050000 		.4byte	.LASF99
 3157 0496 05       		.byte	0x5
 3158 0497 92       		.byte	0x92
 3159 0498 DC000000 		.4byte	0xdc
 3160 049c 98       		.byte	0x98
 3161 049d 07       		.uleb128 0x7
 3162 049e B5130000 		.4byte	.LASF100
 3163 04a2 05       		.byte	0x5
 3164 04a3 93       		.byte	0x93
 3165 04a4 DC000000 		.4byte	0xdc
 3166 04a8 9C       		.byte	0x9c
 3167 04a9 07       		.uleb128 0x7
 3168 04aa 380B0000 		.4byte	.LASF101
 3169 04ae 05       		.byte	0x5
 3170 04af 94       		.byte	0x94
 3171 04b0 DC000000 		.4byte	0xdc
 3172 04b4 A0       		.byte	0xa0
 3173 04b5 07       		.uleb128 0x7
 3174 04b6 A0010000 		.4byte	.LASF102
 3175 04ba 05       		.byte	0x5
 3176 04bb 95       		.byte	0x95
 3177 04bc C6000000 		.4byte	0xc6
 3178 04c0 A4       		.byte	0xa4
 3179 04c1 07       		.uleb128 0x7
 3180 04c2 C4110000 		.4byte	.LASF103
 3181 04c6 05       		.byte	0x5
 3182 04c7 96       		.byte	0x96
 3183 04c8 C6000000 		.4byte	0xc6
 3184 04cc A6       		.byte	0xa6
 3185 04cd 07       		.uleb128 0x7
 3186 04ce 3C140000 		.4byte	.LASF104
 3187 04d2 05       		.byte	0x5
ARM GAS  C:\Users\thoma\AppData\Local\Temp\ccRUrbHX.s 			page 70


 3188 04d3 97       		.byte	0x97
 3189 04d4 C6000000 		.4byte	0xc6
 3190 04d8 A8       		.byte	0xa8
 3191 04d9 07       		.uleb128 0x7
 3192 04da 0C0E0000 		.4byte	.LASF105
 3193 04de 05       		.byte	0x5
 3194 04df 98       		.byte	0x98
 3195 04e0 C6000000 		.4byte	0xc6
 3196 04e4 AA       		.byte	0xaa
 3197 04e5 07       		.uleb128 0x7
 3198 04e6 F5030000 		.4byte	.LASF106
 3199 04ea 05       		.byte	0x5
 3200 04eb 99       		.byte	0x99
 3201 04ec C6000000 		.4byte	0xc6
 3202 04f0 AC       		.byte	0xac
 3203 04f1 07       		.uleb128 0x7
 3204 04f2 EA0F0000 		.4byte	.LASF107
 3205 04f6 05       		.byte	0x5
 3206 04f7 9A       		.byte	0x9a
 3207 04f8 C6000000 		.4byte	0xc6
 3208 04fc AE       		.byte	0xae
 3209 04fd 07       		.uleb128 0x7
 3210 04fe 03040000 		.4byte	.LASF108
 3211 0502 05       		.byte	0x5
 3212 0503 9D       		.byte	0x9d
 3213 0504 C6000000 		.4byte	0xc6
 3214 0508 B0       		.byte	0xb0
 3215 0509 07       		.uleb128 0x7
 3216 050a 32150000 		.4byte	.LASF109
 3217 050e 05       		.byte	0x5
 3218 050f 9E       		.byte	0x9e
 3219 0510 DC000000 		.4byte	0xdc
 3220 0514 B4       		.byte	0xb4
 3221 0515 00       		.byte	0
 3222 0516 04       		.uleb128 0x4
 3223 0517 BD050000 		.4byte	.LASF110
 3224 051b 05       		.byte	0x5
 3225 051c 9F       		.byte	0x9f
 3226 051d 05010000 		.4byte	0x105
 3227 0521 02       		.uleb128 0x2
 3228 0522 01       		.byte	0x1
 3229 0523 08       		.byte	0x8
 3230 0524 1E0C0000 		.4byte	.LASF111
 3231 0528 08       		.uleb128 0x8
 3232 0529 04       		.byte	0x4
 3233 052a B0000000 		.4byte	0xb0
 3234 052e 02       		.uleb128 0x2
 3235 052f 01       		.byte	0x1
 3236 0530 02       		.byte	0x2
 3237 0531 350A0000 		.4byte	.LASF112
 3238 0535 09       		.uleb128 0x9
 3239 0536 04       		.byte	0x4
 3240 0537 0A       		.uleb128 0xa
 3241 0538 01       		.byte	0x1
 3242 0539 5A000000 		.4byte	0x5a
 3243 053d 06       		.byte	0x6
 3244 053e 2107     		.2byte	0x721
ARM GAS  C:\Users\thoma\AppData\Local\Temp\ccRUrbHX.s 			page 71


 3245 0540 5D050000 		.4byte	0x55d
 3246 0544 0B       		.uleb128 0xb
 3247 0545 17010000 		.4byte	.LASF113
 3248 0549 00       		.byte	0
 3249 054a 0B       		.uleb128 0xb
 3250 054b 34110000 		.4byte	.LASF114
 3251 054f 01       		.byte	0x1
 3252 0550 0B       		.uleb128 0xb
 3253 0551 13100000 		.4byte	.LASF115
 3254 0555 02       		.byte	0x2
 3255 0556 0B       		.uleb128 0xb
 3256 0557 79150000 		.4byte	.LASF116
 3257 055b 03       		.byte	0x3
 3258 055c 00       		.byte	0
 3259 055d 0C       		.uleb128 0xc
 3260 055e 08160000 		.4byte	.LASF117
 3261 0562 06       		.byte	0x6
 3262 0563 2607     		.2byte	0x726
 3263 0565 37050000 		.4byte	0x537
 3264 0569 0A       		.uleb128 0xa
 3265 056a 01       		.byte	0x1
 3266 056b 5A000000 		.4byte	0x5a
 3267 056f 07       		.byte	0x7
 3268 0570 B101     		.2byte	0x1b1
 3269 0572 95050000 		.4byte	0x595
 3270 0576 0B       		.uleb128 0xb
 3271 0577 9A150000 		.4byte	.LASF118
 3272 057b 00       		.byte	0
 3273 057c 0B       		.uleb128 0xb
 3274 057d 3B0A0000 		.4byte	.LASF119
 3275 0581 01       		.byte	0x1
 3276 0582 0B       		.uleb128 0xb
 3277 0583 CD0A0000 		.4byte	.LASF120
 3278 0587 02       		.byte	0x2
 3279 0588 0B       		.uleb128 0xb
 3280 0589 7D030000 		.4byte	.LASF121
 3281 058d 03       		.byte	0x3
 3282 058e 0B       		.uleb128 0xb
 3283 058f FC130000 		.4byte	.LASF122
 3284 0593 04       		.byte	0x4
 3285 0594 00       		.byte	0
 3286 0595 0C       		.uleb128 0xc
 3287 0596 F80F0000 		.4byte	.LASF123
 3288 059a 07       		.byte	0x7
 3289 059b B701     		.2byte	0x1b7
 3290 059d 69050000 		.4byte	0x569
 3291 05a1 0A       		.uleb128 0xa
 3292 05a2 04       		.byte	0x4
 3293 05a3 33000000 		.4byte	0x33
 3294 05a7 07       		.byte	0x7
 3295 05a8 BC01     		.2byte	0x1bc
 3296 05aa BE050000 		.4byte	0x5be
 3297 05ae 0B       		.uleb128 0xb
 3298 05af 440D0000 		.4byte	.LASF124
 3299 05b3 00       		.byte	0
 3300 05b4 0D       		.uleb128 0xd
 3301 05b5 C0000000 		.4byte	.LASF125
ARM GAS  C:\Users\thoma\AppData\Local\Temp\ccRUrbHX.s 			page 72


 3302 05b9 00000001 		.4byte	0x1000000
 3303 05bd 00       		.byte	0
 3304 05be 0C       		.uleb128 0xc
 3305 05bf 7B170000 		.4byte	.LASF126
 3306 05c3 07       		.byte	0x7
 3307 05c4 BF01     		.2byte	0x1bf
 3308 05c6 A1050000 		.4byte	0x5a1
 3309 05ca 0A       		.uleb128 0xa
 3310 05cb 04       		.byte	0x4
 3311 05cc 33000000 		.4byte	0x33
 3312 05d0 07       		.byte	0x7
 3313 05d1 C401     		.2byte	0x1c4
 3314 05d3 E7050000 		.4byte	0x5e7
 3315 05d7 0B       		.uleb128 0xb
 3316 05d8 120D0000 		.4byte	.LASF127
 3317 05dc 00       		.byte	0
 3318 05dd 0D       		.uleb128 0xd
 3319 05de D3080000 		.4byte	.LASF128
 3320 05e2 00000040 		.4byte	0x40000000
 3321 05e6 00       		.byte	0
 3322 05e7 0C       		.uleb128 0xc
 3323 05e8 40180000 		.4byte	.LASF129
 3324 05ec 07       		.byte	0x7
 3325 05ed C701     		.2byte	0x1c7
 3326 05ef CA050000 		.4byte	0x5ca
 3327 05f3 0A       		.uleb128 0xa
 3328 05f4 04       		.byte	0x4
 3329 05f5 33000000 		.4byte	0x33
 3330 05f9 07       		.byte	0x7
 3331 05fa CC01     		.2byte	0x1cc
 3332 05fc 2B060000 		.4byte	0x62b
 3333 0600 0B       		.uleb128 0xb
 3334 0601 AB170000 		.4byte	.LASF130
 3335 0605 00       		.byte	0
 3336 0606 0D       		.uleb128 0xd
 3337 0607 FF070000 		.4byte	.LASF131
 3338 060b 00004000 		.4byte	0x400000
 3339 060f 0D       		.uleb128 0xd
 3340 0610 76060000 		.4byte	.LASF132
 3341 0614 0000C000 		.4byte	0xc00000
 3342 0618 0D       		.uleb128 0xd
 3343 0619 43050000 		.4byte	.LASF133
 3344 061d 00000008 		.4byte	0x8000000
 3345 0621 0D       		.uleb128 0xd
 3346 0622 D8150000 		.4byte	.LASF134
 3347 0626 00008008 		.4byte	0x8800000
 3348 062a 00       		.byte	0
 3349 062b 0C       		.uleb128 0xc
 3350 062c 71130000 		.4byte	.LASF135
 3351 0630 07       		.byte	0x7
 3352 0631 D401     		.2byte	0x1d4
 3353 0633 F3050000 		.4byte	0x5f3
 3354 0637 0A       		.uleb128 0xa
 3355 0638 02       		.byte	0x2
 3356 0639 77000000 		.4byte	0x77
 3357 063d 07       		.byte	0x7
 3358 063e DA01     		.2byte	0x1da
ARM GAS  C:\Users\thoma\AppData\Local\Temp\ccRUrbHX.s 			page 73


 3359 0640 60060000 		.4byte	0x660
 3360 0644 0B       		.uleb128 0xb
 3361 0645 90170000 		.4byte	.LASF136
 3362 0649 00       		.byte	0
 3363 064a 0E       		.uleb128 0xe
 3364 064b 5A0A0000 		.4byte	.LASF137
 3365 064f 0001     		.2byte	0x100
 3366 0651 0E       		.uleb128 0xe
 3367 0652 28120000 		.4byte	.LASF138
 3368 0656 0002     		.2byte	0x200
 3369 0658 0E       		.uleb128 0xe
 3370 0659 54170000 		.4byte	.LASF139
 3371 065d 0003     		.2byte	0x300
 3372 065f 00       		.byte	0
 3373 0660 0C       		.uleb128 0xc
 3374 0661 65020000 		.4byte	.LASF140
 3375 0665 07       		.byte	0x7
 3376 0666 E001     		.2byte	0x1e0
 3377 0668 37060000 		.4byte	0x637
 3378 066c 0A       		.uleb128 0xa
 3379 066d 01       		.byte	0x1
 3380 066e 5A000000 		.4byte	0x5a
 3381 0672 07       		.byte	0x7
 3382 0673 E701     		.2byte	0x1e7
 3383 0675 86060000 		.4byte	0x686
 3384 0679 0B       		.uleb128 0xb
 3385 067a 67090000 		.4byte	.LASF141
 3386 067e 00       		.byte	0
 3387 067f 0B       		.uleb128 0xb
 3388 0680 D20F0000 		.4byte	.LASF142
 3389 0684 01       		.byte	0x1
 3390 0685 00       		.byte	0
 3391 0686 0C       		.uleb128 0xc
 3392 0687 B4100000 		.4byte	.LASF143
 3393 068b 07       		.byte	0x7
 3394 068c EA01     		.2byte	0x1ea
 3395 068e 6C060000 		.4byte	0x66c
 3396 0692 0A       		.uleb128 0xa
 3397 0693 01       		.byte	0x1
 3398 0694 5A000000 		.4byte	0x5a
 3399 0698 07       		.byte	0x7
 3400 0699 F101     		.2byte	0x1f1
 3401 069b AC060000 		.4byte	0x6ac
 3402 069f 0B       		.uleb128 0xb
 3403 06a0 F6000000 		.4byte	.LASF144
 3404 06a4 00       		.byte	0
 3405 06a5 0B       		.uleb128 0xb
 3406 06a6 47120000 		.4byte	.LASF145
 3407 06aa 01       		.byte	0x1
 3408 06ab 00       		.byte	0
 3409 06ac 0C       		.uleb128 0xc
 3410 06ad CD050000 		.4byte	.LASF146
 3411 06b1 07       		.byte	0x7
 3412 06b2 F401     		.2byte	0x1f4
 3413 06b4 92060000 		.4byte	0x692
 3414 06b8 0F       		.uleb128 0xf
 3415 06b9 34       		.byte	0x34
ARM GAS  C:\Users\thoma\AppData\Local\Temp\ccRUrbHX.s 			page 74


 3416 06ba 07       		.byte	0x7
 3417 06bb 1702     		.2byte	0x217
 3418 06bd 92070000 		.4byte	0x792
 3419 06c1 10       		.uleb128 0x10
 3420 06c2 39050000 		.4byte	.LASF147
 3421 06c6 07       		.byte	0x7
 3422 06c7 1902     		.2byte	0x219
 3423 06c9 86060000 		.4byte	0x686
 3424 06cd 00       		.byte	0
 3425 06ce 10       		.uleb128 0x10
 3426 06cf 3E160000 		.4byte	.LASF148
 3427 06d3 07       		.byte	0x7
 3428 06d4 1A02     		.2byte	0x21a
 3429 06d6 BE050000 		.4byte	0x5be
 3430 06da 04       		.byte	0x4
 3431 06db 10       		.uleb128 0x10
 3432 06dc 2A100000 		.4byte	.LASF149
 3433 06e0 07       		.byte	0x7
 3434 06e1 1B02     		.2byte	0x21b
 3435 06e3 95050000 		.4byte	0x595
 3436 06e7 08       		.byte	0x8
 3437 06e8 10       		.uleb128 0x10
 3438 06e9 69140000 		.4byte	.LASF150
 3439 06ed 07       		.byte	0x7
 3440 06ee 1C02     		.2byte	0x21c
 3441 06f0 60060000 		.4byte	0x660
 3442 06f4 0A       		.byte	0xa
 3443 06f5 10       		.uleb128 0x10
 3444 06f6 54070000 		.4byte	.LASF151
 3445 06fa 07       		.byte	0x7
 3446 06fb 1D02     		.2byte	0x21d
 3447 06fd 2B060000 		.4byte	0x62b
 3448 0701 0C       		.byte	0xc
 3449 0702 10       		.uleb128 0x10
 3450 0703 25150000 		.4byte	.LASF152
 3451 0707 07       		.byte	0x7
 3452 0708 1E02     		.2byte	0x21e
 3453 070a AC060000 		.4byte	0x6ac
 3454 070e 10       		.byte	0x10
 3455 070f 10       		.uleb128 0x10
 3456 0710 F7120000 		.4byte	.LASF153
 3457 0714 07       		.byte	0x7
 3458 0715 1F02     		.2byte	0x21f
 3459 0717 E7050000 		.4byte	0x5e7
 3460 071b 14       		.byte	0x14
 3461 071c 10       		.uleb128 0x10
 3462 071d 11040000 		.4byte	.LASF154
 3463 0721 07       		.byte	0x7
 3464 0722 2002     		.2byte	0x220
 3465 0724 DC000000 		.4byte	0xdc
 3466 0728 18       		.byte	0x18
 3467 0729 10       		.uleb128 0x10
 3468 072a 2A090000 		.4byte	.LASF155
 3469 072e 07       		.byte	0x7
 3470 072f 2102     		.2byte	0x221
 3471 0731 D1000000 		.4byte	0xd1
 3472 0735 1C       		.byte	0x1c
ARM GAS  C:\Users\thoma\AppData\Local\Temp\ccRUrbHX.s 			page 75


 3473 0736 10       		.uleb128 0x10
 3474 0737 C6030000 		.4byte	.LASF156
 3475 073b 07       		.byte	0x7
 3476 073c 2202     		.2byte	0x222
 3477 073e D1000000 		.4byte	0xd1
 3478 0742 20       		.byte	0x20
 3479 0743 10       		.uleb128 0x10
 3480 0744 96080000 		.4byte	.LASF157
 3481 0748 07       		.byte	0x7
 3482 0749 2302     		.2byte	0x223
 3483 074b 2E050000 		.4byte	0x52e
 3484 074f 24       		.byte	0x24
 3485 0750 10       		.uleb128 0x10
 3486 0751 60030000 		.4byte	.LASF158
 3487 0755 07       		.byte	0x7
 3488 0756 2602     		.2byte	0x226
 3489 0758 2E050000 		.4byte	0x52e
 3490 075c 25       		.byte	0x25
 3491 075d 10       		.uleb128 0x10
 3492 075e 690C0000 		.4byte	.LASF159
 3493 0762 07       		.byte	0x7
 3494 0763 2702     		.2byte	0x227
 3495 0765 5D050000 		.4byte	0x55d
 3496 0769 26       		.byte	0x26
 3497 076a 10       		.uleb128 0x10
 3498 076b 5C080000 		.4byte	.LASF160
 3499 076f 07       		.byte	0x7
 3500 0770 2802     		.2byte	0x228
 3501 0772 DC000000 		.4byte	0xdc
 3502 0776 28       		.byte	0x28
 3503 0777 10       		.uleb128 0x10
 3504 0778 AB0B0000 		.4byte	.LASF161
 3505 077c 07       		.byte	0x7
 3506 077d 2902     		.2byte	0x229
 3507 077f DC000000 		.4byte	0xdc
 3508 0783 2C       		.byte	0x2c
 3509 0784 10       		.uleb128 0x10
 3510 0785 8B050000 		.4byte	.LASF162
 3511 0789 07       		.byte	0x7
 3512 078a 2A02     		.2byte	0x22a
 3513 078c DC000000 		.4byte	0xdc
 3514 0790 30       		.byte	0x30
 3515 0791 00       		.byte	0
 3516 0792 0C       		.uleb128 0xc
 3517 0793 7F160000 		.4byte	.LASF163
 3518 0797 07       		.byte	0x7
 3519 0798 2B02     		.2byte	0x22b
 3520 079a B8060000 		.4byte	0x6b8
 3521 079e 0A       		.uleb128 0xa
 3522 079f 01       		.byte	0x1
 3523 07a0 5A000000 		.4byte	0x5a
 3524 07a4 08       		.byte	0x8
 3525 07a5 1304     		.2byte	0x413
 3526 07a7 C4070000 		.4byte	0x7c4
 3527 07ab 0B       		.uleb128 0xb
 3528 07ac 08050000 		.4byte	.LASF164
 3529 07b0 00       		.byte	0
ARM GAS  C:\Users\thoma\AppData\Local\Temp\ccRUrbHX.s 			page 76


 3530 07b1 0B       		.uleb128 0xb
 3531 07b2 7D080000 		.4byte	.LASF165
 3532 07b6 01       		.byte	0x1
 3533 07b7 0B       		.uleb128 0xb
 3534 07b8 060C0000 		.4byte	.LASF166
 3535 07bc 02       		.byte	0x2
 3536 07bd 0B       		.uleb128 0xb
 3537 07be F9010000 		.4byte	.LASF167
 3538 07c2 03       		.byte	0x3
 3539 07c3 00       		.byte	0
 3540 07c4 0C       		.uleb128 0xc
 3541 07c5 10190000 		.4byte	.LASF168
 3542 07c9 08       		.byte	0x8
 3543 07ca 1804     		.2byte	0x418
 3544 07cc 9E070000 		.4byte	0x79e
 3545 07d0 0F       		.uleb128 0xf
 3546 07d1 78       		.byte	0x78
 3547 07d2 08       		.byte	0x8
 3548 07d3 0205     		.2byte	0x502
 3549 07d5 9D080000 		.4byte	0x89d
 3550 07d9 10       		.uleb128 0x10
 3551 07da CE080000 		.4byte	.LASF169
 3552 07de 08       		.byte	0x8
 3553 07df 0405     		.2byte	0x504
 3554 07e1 DC000000 		.4byte	0xdc
 3555 07e5 00       		.byte	0
 3556 07e6 10       		.uleb128 0x10
 3557 07e7 D1140000 		.4byte	.LASF170
 3558 07eb 08       		.byte	0x8
 3559 07ec 0505     		.2byte	0x505
 3560 07ee DC000000 		.4byte	0xdc
 3561 07f2 04       		.byte	0x4
 3562 07f3 10       		.uleb128 0x10
 3563 07f4 F0100000 		.4byte	.LASF171
 3564 07f8 08       		.byte	0x8
 3565 07f9 0605     		.2byte	0x506
 3566 07fb DC000000 		.4byte	0xdc
 3567 07ff 08       		.byte	0x8
 3568 0800 10       		.uleb128 0x10
 3569 0801 CB130000 		.4byte	.LASF172
 3570 0805 08       		.byte	0x8
 3571 0806 0705     		.2byte	0x507
 3572 0808 DC000000 		.4byte	0xdc
 3573 080c 0C       		.byte	0xc
 3574 080d 10       		.uleb128 0x10
 3575 080e 60150000 		.4byte	.LASF173
 3576 0812 08       		.byte	0x8
 3577 0813 0805     		.2byte	0x508
 3578 0815 DC000000 		.4byte	0xdc
 3579 0819 10       		.byte	0x10
 3580 081a 10       		.uleb128 0x10
 3581 081b 020E0000 		.4byte	.LASF174
 3582 081f 08       		.byte	0x8
 3583 0820 0905     		.2byte	0x509
 3584 0822 C4070000 		.4byte	0x7c4
 3585 0826 14       		.byte	0x14
 3586 0827 10       		.uleb128 0x10
ARM GAS  C:\Users\thoma\AppData\Local\Temp\ccRUrbHX.s 			page 77


 3587 0828 3F0C0000 		.4byte	.LASF175
 3588 082c 08       		.byte	0x8
 3589 082d 0A05     		.2byte	0x50a
 3590 082f DC000000 		.4byte	0xdc
 3591 0833 18       		.byte	0x18
 3592 0834 10       		.uleb128 0x10
 3593 0835 49170000 		.4byte	.LASF176
 3594 0839 08       		.byte	0x8
 3595 083a 0B05     		.2byte	0x50b
 3596 083c 9D080000 		.4byte	0x89d
 3597 0840 1C       		.byte	0x1c
 3598 0841 10       		.uleb128 0x10
 3599 0842 6A190000 		.4byte	.LASF177
 3600 0846 08       		.byte	0x8
 3601 0847 0C05     		.2byte	0x50c
 3602 0849 DC000000 		.4byte	0xdc
 3603 084d 5C       		.byte	0x5c
 3604 084e 10       		.uleb128 0x10
 3605 084f E9030000 		.4byte	.LASF178
 3606 0853 08       		.byte	0x8
 3607 0854 0D05     		.2byte	0x50d
 3608 0856 DC000000 		.4byte	0xdc
 3609 085a 60       		.byte	0x60
 3610 085b 10       		.uleb128 0x10
 3611 085c EC180000 		.4byte	.LASF179
 3612 0860 08       		.byte	0x8
 3613 0861 0E05     		.2byte	0x50e
 3614 0863 DC000000 		.4byte	0xdc
 3615 0867 64       		.byte	0x64
 3616 0868 10       		.uleb128 0x10
 3617 0869 6A100000 		.4byte	.LASF180
 3618 086d 08       		.byte	0x8
 3619 086e 0F05     		.2byte	0x50f
 3620 0870 DC000000 		.4byte	0xdc
 3621 0874 68       		.byte	0x68
 3622 0875 10       		.uleb128 0x10
 3623 0876 C10D0000 		.4byte	.LASF181
 3624 087a 08       		.byte	0x8
 3625 087b 1005     		.2byte	0x510
 3626 087d DC000000 		.4byte	0xdc
 3627 0881 6C       		.byte	0x6c
 3628 0882 10       		.uleb128 0x10
 3629 0883 59180000 		.4byte	.LASF182
 3630 0887 08       		.byte	0x8
 3631 0888 1105     		.2byte	0x511
 3632 088a 2E050000 		.4byte	0x52e
 3633 088e 70       		.byte	0x70
 3634 088f 10       		.uleb128 0x10
 3635 0890 CC0B0000 		.4byte	.LASF183
 3636 0894 08       		.byte	0x8
 3637 0895 1205     		.2byte	0x512
 3638 0897 DC000000 		.4byte	0xdc
 3639 089b 74       		.byte	0x74
 3640 089c 00       		.byte	0
 3641 089d 11       		.uleb128 0x11
 3642 089e DC000000 		.4byte	0xdc
 3643 08a2 AD080000 		.4byte	0x8ad
ARM GAS  C:\Users\thoma\AppData\Local\Temp\ccRUrbHX.s 			page 78


 3644 08a6 12       		.uleb128 0x12
 3645 08a7 E7000000 		.4byte	0xe7
 3646 08ab 0F       		.byte	0xf
 3647 08ac 00       		.byte	0
 3648 08ad 0C       		.uleb128 0xc
 3649 08ae A6080000 		.4byte	.LASF184
 3650 08b2 08       		.byte	0x8
 3651 08b3 1305     		.2byte	0x513
 3652 08b5 D0070000 		.4byte	0x7d0
 3653 08b9 08       		.uleb128 0x8
 3654 08ba 04       		.byte	0x4
 3655 08bb BF080000 		.4byte	0x8bf
 3656 08bf 13       		.uleb128 0x13
 3657 08c0 CA080000 		.4byte	0x8ca
 3658 08c4 14       		.uleb128 0x14
 3659 08c5 DC000000 		.4byte	0xdc
 3660 08c9 00       		.byte	0
 3661 08ca 0C       		.uleb128 0xc
 3662 08cb E30D0000 		.4byte	.LASF185
 3663 08cf 09       		.byte	0x9
 3664 08d0 D901     		.2byte	0x1d9
 3665 08d2 B9080000 		.4byte	0x8b9
 3666 08d6 15       		.uleb128 0x15
 3667 08d7 26070000 		.4byte	.LASF201
 3668 08db 38       		.byte	0x38
 3669 08dc 09       		.byte	0x9
 3670 08dd 7502     		.2byte	0x275
 3671 08df 9A090000 		.4byte	0x99a
 3672 08e3 10       		.uleb128 0x10
 3673 08e4 48010000 		.4byte	.LASF186
 3674 08e8 09       		.byte	0x9
 3675 08e9 7802     		.2byte	0x278
 3676 08eb EE000000 		.4byte	0xee
 3677 08ef 00       		.byte	0
 3678 08f0 10       		.uleb128 0x10
 3679 08f1 A8050000 		.4byte	.LASF187
 3680 08f5 09       		.byte	0x9
 3681 08f6 7902     		.2byte	0x279
 3682 08f8 EE000000 		.4byte	0xee
 3683 08fc 04       		.byte	0x4
 3684 08fd 10       		.uleb128 0x10
 3685 08fe 9E100000 		.4byte	.LASF188
 3686 0902 09       		.byte	0x9
 3687 0903 7B02     		.2byte	0x27b
 3688 0905 35050000 		.4byte	0x535
 3689 0909 08       		.byte	0x8
 3690 090a 10       		.uleb128 0x10
 3691 090b 52030000 		.4byte	.LASF189
 3692 090f 09       		.byte	0x9
 3693 0910 7C02     		.2byte	0x27c
 3694 0912 DC000000 		.4byte	0xdc
 3695 0916 0C       		.byte	0xc
 3696 0917 10       		.uleb128 0x10
 3697 0918 280F0000 		.4byte	.LASF190
 3698 091c 09       		.byte	0x9
 3699 091d 7D02     		.2byte	0x27d
 3700 091f EE000000 		.4byte	0xee
ARM GAS  C:\Users\thoma\AppData\Local\Temp\ccRUrbHX.s 			page 79


 3701 0923 10       		.byte	0x10
 3702 0924 10       		.uleb128 0x10
 3703 0925 460C0000 		.4byte	.LASF191
 3704 0929 09       		.byte	0x9
 3705 092a 7E02     		.2byte	0x27e
 3706 092c EE000000 		.4byte	0xee
 3707 0930 14       		.byte	0x14
 3708 0931 10       		.uleb128 0x10
 3709 0932 4D090000 		.4byte	.LASF192
 3710 0936 09       		.byte	0x9
 3711 0937 8002     		.2byte	0x280
 3712 0939 35050000 		.4byte	0x535
 3713 093d 18       		.byte	0x18
 3714 093e 10       		.uleb128 0x10
 3715 093f 83190000 		.4byte	.LASF193
 3716 0943 09       		.byte	0x9
 3717 0944 8102     		.2byte	0x281
 3718 0946 DC000000 		.4byte	0xdc
 3719 094a 1C       		.byte	0x1c
 3720 094b 10       		.uleb128 0x10
 3721 094c DD0C0000 		.4byte	.LASF194
 3722 0950 09       		.byte	0x9
 3723 0951 8202     		.2byte	0x282
 3724 0953 EE000000 		.4byte	0xee
 3725 0957 20       		.byte	0x20
 3726 0958 10       		.uleb128 0x10
 3727 0959 0D100000 		.4byte	.LASF195
 3728 095d 09       		.byte	0x9
 3729 095e 8402     		.2byte	0x284
 3730 0960 35050000 		.4byte	0x535
 3731 0964 24       		.byte	0x24
 3732 0965 10       		.uleb128 0x10
 3733 0966 6C0F0000 		.4byte	.LASF196
 3734 096a 09       		.byte	0x9
 3735 096b 8502     		.2byte	0x285
 3736 096d DC000000 		.4byte	0xdc
 3737 0971 28       		.byte	0x28
 3738 0972 10       		.uleb128 0x10
 3739 0973 0B130000 		.4byte	.LASF197
 3740 0977 09       		.byte	0x9
 3741 0978 8602     		.2byte	0x286
 3742 097a EE000000 		.4byte	0xee
 3743 097e 2C       		.byte	0x2c
 3744 097f 10       		.uleb128 0x10
 3745 0980 030A0000 		.4byte	.LASF198
 3746 0984 09       		.byte	0x9
 3747 0985 8B02     		.2byte	0x28b
 3748 0987 CA080000 		.4byte	0x8ca
 3749 098b 30       		.byte	0x30
 3750 098c 10       		.uleb128 0x10
 3751 098d F7160000 		.4byte	.LASF199
 3752 0991 09       		.byte	0x9
 3753 0992 8E02     		.2byte	0x28e
 3754 0994 DC000000 		.4byte	0xdc
 3755 0998 34       		.byte	0x34
 3756 0999 00       		.byte	0
 3757 099a 0C       		.uleb128 0xc
ARM GAS  C:\Users\thoma\AppData\Local\Temp\ccRUrbHX.s 			page 80


 3758 099b D8060000 		.4byte	.LASF200
 3759 099f 09       		.byte	0x9
 3760 09a0 9102     		.2byte	0x291
 3761 09a2 D6080000 		.4byte	0x8d6
 3762 09a6 16       		.uleb128 0x16
 3763 09a7 0D170000 		.4byte	.LASF202
 3764 09ab 4C       		.byte	0x4c
 3765 09ac 0A       		.byte	0xa
 3766 09ad 2F       		.byte	0x2f
 3767 09ae 970A0000 		.4byte	0xa97
 3768 09b2 07       		.uleb128 0x7
 3769 09b3 E5160000 		.4byte	.LASF203
 3770 09b7 0A       		.byte	0xa
 3771 09b8 31       		.byte	0x31
 3772 09b9 DC000000 		.4byte	0xdc
 3773 09bd 00       		.byte	0
 3774 09be 07       		.uleb128 0x7
 3775 09bf AF0C0000 		.4byte	.LASF204
 3776 09c3 0A       		.byte	0xa
 3777 09c4 33       		.byte	0x33
 3778 09c5 DC000000 		.4byte	0xdc
 3779 09c9 04       		.byte	0x4
 3780 09ca 07       		.uleb128 0x7
 3781 09cb D6100000 		.4byte	.LASF205
 3782 09cf 0A       		.byte	0xa
 3783 09d0 34       		.byte	0x34
 3784 09d1 DC000000 		.4byte	0xdc
 3785 09d5 08       		.byte	0x8
 3786 09d6 07       		.uleb128 0x7
 3787 09d7 E8120000 		.4byte	.LASF206
 3788 09db 0A       		.byte	0xa
 3789 09dc 35       		.byte	0x35
 3790 09dd DC000000 		.4byte	0xdc
 3791 09e1 0C       		.byte	0xc
 3792 09e2 07       		.uleb128 0x7
 3793 09e3 D9110000 		.4byte	.LASF207
 3794 09e7 0A       		.byte	0xa
 3795 09e8 37       		.byte	0x37
 3796 09e9 DC000000 		.4byte	0xdc
 3797 09ed 10       		.byte	0x10
 3798 09ee 07       		.uleb128 0x7
 3799 09ef 37040000 		.4byte	.LASF208
 3800 09f3 0A       		.byte	0xa
 3801 09f4 38       		.byte	0x38
 3802 09f5 DC000000 		.4byte	0xdc
 3803 09f9 14       		.byte	0x14
 3804 09fa 07       		.uleb128 0x7
 3805 09fb 40040000 		.4byte	.LASF209
 3806 09ff 0A       		.byte	0xa
 3807 0a00 39       		.byte	0x39
 3808 0a01 DC000000 		.4byte	0xdc
 3809 0a05 18       		.byte	0x18
 3810 0a06 07       		.uleb128 0x7
 3811 0a07 62120000 		.4byte	.LASF210
 3812 0a0b 0A       		.byte	0xa
 3813 0a0c 3A       		.byte	0x3a
 3814 0a0d 2E050000 		.4byte	0x52e
ARM GAS  C:\Users\thoma\AppData\Local\Temp\ccRUrbHX.s 			page 81


 3815 0a11 1C       		.byte	0x1c
 3816 0a12 07       		.uleb128 0x7
 3817 0a13 03060000 		.4byte	.LASF211
 3818 0a17 0A       		.byte	0xa
 3819 0a18 3C       		.byte	0x3c
 3820 0a19 DC000000 		.4byte	0xdc
 3821 0a1d 20       		.byte	0x20
 3822 0a1e 07       		.uleb128 0x7
 3823 0a1f ED080000 		.4byte	.LASF212
 3824 0a23 0A       		.byte	0xa
 3825 0a24 3D       		.byte	0x3d
 3826 0a25 DC000000 		.4byte	0xdc
 3827 0a29 24       		.byte	0x24
 3828 0a2a 07       		.uleb128 0x7
 3829 0a2b F90B0000 		.4byte	.LASF213
 3830 0a2f 0A       		.byte	0xa
 3831 0a30 3F       		.byte	0x3f
 3832 0a31 DC000000 		.4byte	0xdc
 3833 0a35 28       		.byte	0x28
 3834 0a36 07       		.uleb128 0x7
 3835 0a37 500F0000 		.4byte	.LASF214
 3836 0a3b 0A       		.byte	0xa
 3837 0a3c 40       		.byte	0x40
 3838 0a3d DC000000 		.4byte	0xdc
 3839 0a41 2C       		.byte	0x2c
 3840 0a42 07       		.uleb128 0x7
 3841 0a43 8D190000 		.4byte	.LASF215
 3842 0a47 0A       		.byte	0xa
 3843 0a48 42       		.byte	0x42
 3844 0a49 DC000000 		.4byte	0xdc
 3845 0a4d 30       		.byte	0x30
 3846 0a4e 07       		.uleb128 0x7
 3847 0a4f 4D0E0000 		.4byte	.LASF216
 3848 0a53 0A       		.byte	0xa
 3849 0a54 43       		.byte	0x43
 3850 0a55 DC000000 		.4byte	0xdc
 3851 0a59 34       		.byte	0x34
 3852 0a5a 07       		.uleb128 0x7
 3853 0a5b 7C020000 		.4byte	.LASF217
 3854 0a5f 0A       		.byte	0xa
 3855 0a60 45       		.byte	0x45
 3856 0a61 DC000000 		.4byte	0xdc
 3857 0a65 38       		.byte	0x38
 3858 0a66 07       		.uleb128 0x7
 3859 0a67 63000000 		.4byte	.LASF218
 3860 0a6b 0A       		.byte	0xa
 3861 0a6c 46       		.byte	0x46
 3862 0a6d DC000000 		.4byte	0xdc
 3863 0a71 3C       		.byte	0x3c
 3864 0a72 07       		.uleb128 0x7
 3865 0a73 90150000 		.4byte	.LASF219
 3866 0a77 0A       		.byte	0xa
 3867 0a78 48       		.byte	0x48
 3868 0a79 DC000000 		.4byte	0xdc
 3869 0a7d 40       		.byte	0x40
 3870 0a7e 07       		.uleb128 0x7
 3871 0a7f A6120000 		.4byte	.LASF220
ARM GAS  C:\Users\thoma\AppData\Local\Temp\ccRUrbHX.s 			page 82


 3872 0a83 0A       		.byte	0xa
 3873 0a84 49       		.byte	0x49
 3874 0a85 DC000000 		.4byte	0xdc
 3875 0a89 44       		.byte	0x44
 3876 0a8a 07       		.uleb128 0x7
 3877 0a8b A40C0000 		.4byte	.LASF221
 3878 0a8f 0A       		.byte	0xa
 3879 0a90 4B       		.byte	0x4b
 3880 0a91 DC000000 		.4byte	0xdc
 3881 0a95 48       		.byte	0x48
 3882 0a96 00       		.byte	0
 3883 0a97 04       		.uleb128 0x4
 3884 0a98 16110000 		.4byte	.LASF222
 3885 0a9c 0A       		.byte	0xa
 3886 0a9d 4C       		.byte	0x4c
 3887 0a9e A6090000 		.4byte	0x9a6
 3888 0aa2 06       		.uleb128 0x6
 3889 0aa3 14       		.byte	0x14
 3890 0aa4 0B       		.byte	0xb
 3891 0aa5 3B       		.byte	0x3b
 3892 0aa6 E70A0000 		.4byte	0xae7
 3893 0aaa 07       		.uleb128 0x7
 3894 0aab D9020000 		.4byte	.LASF223
 3895 0aaf 0B       		.byte	0xb
 3896 0ab0 3D       		.byte	0x3d
 3897 0ab1 DC000000 		.4byte	0xdc
 3898 0ab5 00       		.byte	0
 3899 0ab6 07       		.uleb128 0x7
 3900 0ab7 1A070000 		.4byte	.LASF224
 3901 0abb 0B       		.byte	0xb
 3902 0abc 3E       		.byte	0x3e
 3903 0abd DC000000 		.4byte	0xdc
 3904 0ac1 04       		.byte	0x4
 3905 0ac2 07       		.uleb128 0x7
 3906 0ac3 06030000 		.4byte	.LASF225
 3907 0ac7 0B       		.byte	0xb
 3908 0ac8 3F       		.byte	0x3f
 3909 0ac9 E70A0000 		.4byte	0xae7
 3910 0acd 08       		.byte	0x8
 3911 0ace 07       		.uleb128 0x7
 3912 0acf 44130000 		.4byte	.LASF226
 3913 0ad3 0B       		.byte	0xb
 3914 0ad4 40       		.byte	0x40
 3915 0ad5 DC000000 		.4byte	0xdc
 3916 0ad9 0C       		.byte	0xc
 3917 0ada 07       		.uleb128 0x7
 3918 0adb FD150000 		.4byte	.LASF227
 3919 0adf 0B       		.byte	0xb
 3920 0ae0 45       		.byte	0x45
 3921 0ae1 DC000000 		.4byte	0xdc
 3922 0ae5 10       		.byte	0x10
 3923 0ae6 00       		.byte	0
 3924 0ae7 08       		.uleb128 0x8
 3925 0ae8 04       		.byte	0x4
 3926 0ae9 ED0A0000 		.4byte	0xaed
 3927 0aed 17       		.uleb128 0x17
 3928 0aee AD080000 		.4byte	0x8ad
ARM GAS  C:\Users\thoma\AppData\Local\Temp\ccRUrbHX.s 			page 83


 3929 0af2 04       		.uleb128 0x4
 3930 0af3 AF0D0000 		.4byte	.LASF228
 3931 0af7 0B       		.byte	0xb
 3932 0af8 48       		.byte	0x48
 3933 0af9 A20A0000 		.4byte	0xaa2
 3934 0afd 18       		.uleb128 0x18
 3935 0afe 01       		.byte	0x1
 3936 0aff 5A000000 		.4byte	0x5a
 3937 0b03 0C       		.byte	0xc
 3938 0b04 21       		.byte	0x21
 3939 0b05 820B0000 		.4byte	0xb82
 3940 0b09 0B       		.uleb128 0xb
 3941 0b0a 76140000 		.4byte	.LASF229
 3942 0b0e 00       		.byte	0
 3943 0b0f 0B       		.uleb128 0xb
 3944 0b10 32010000 		.4byte	.LASF230
 3945 0b14 02       		.byte	0x2
 3946 0b15 0B       		.uleb128 0xb
 3947 0b16 6C030000 		.4byte	.LASF231
 3948 0b1a 03       		.byte	0x3
 3949 0b1b 0B       		.uleb128 0xb
 3950 0b1c 46150000 		.4byte	.LASF232
 3951 0b20 04       		.byte	0x4
 3952 0b21 0B       		.uleb128 0xb
 3953 0b22 75110000 		.4byte	.LASF233
 3954 0b26 06       		.byte	0x6
 3955 0b27 0B       		.uleb128 0xb
 3956 0b28 32030000 		.4byte	.LASF234
 3957 0b2c 08       		.byte	0x8
 3958 0b2d 0B       		.uleb128 0xb
 3959 0b2e 45080000 		.4byte	.LASF235
 3960 0b32 0A       		.byte	0xa
 3961 0b33 0B       		.uleb128 0xb
 3962 0b34 5A160000 		.4byte	.LASF236
 3963 0b38 0C       		.byte	0xc
 3964 0b39 0B       		.uleb128 0xb
 3965 0b3a 49110000 		.4byte	.LASF237
 3966 0b3e 0E       		.byte	0xe
 3967 0b3f 0B       		.uleb128 0xb
 3968 0b40 5A010000 		.4byte	.LASF238
 3969 0b44 10       		.byte	0x10
 3970 0b45 0B       		.uleb128 0xb
 3971 0b46 030D0000 		.4byte	.LASF239
 3972 0b4a 12       		.byte	0x12
 3973 0b4b 0B       		.uleb128 0xb
 3974 0b4c 5C0E0000 		.4byte	.LASF240
 3975 0b50 28       		.byte	0x28
 3976 0b51 0B       		.uleb128 0xb
 3977 0b52 230C0000 		.4byte	.LASF241
 3978 0b56 2A       		.byte	0x2a
 3979 0b57 0B       		.uleb128 0xb
 3980 0b58 8D010000 		.4byte	.LASF242
 3981 0b5c 2C       		.byte	0x2c
 3982 0b5d 0B       		.uleb128 0xb
 3983 0b5e 120F0000 		.4byte	.LASF243
 3984 0b62 2E       		.byte	0x2e
 3985 0b63 0B       		.uleb128 0xb
ARM GAS  C:\Users\thoma\AppData\Local\Temp\ccRUrbHX.s 			page 84


 3986 0b64 D8130000 		.4byte	.LASF244
 3987 0b68 3E       		.byte	0x3e
 3988 0b69 0B       		.uleb128 0xb
 3989 0b6a 87100000 		.4byte	.LASF245
 3990 0b6e 3F       		.byte	0x3f
 3991 0b6f 0B       		.uleb128 0xb
 3992 0b70 2A020000 		.4byte	.LASF246
 3993 0b74 40       		.byte	0x40
 3994 0b75 0B       		.uleb128 0xb
 3995 0b76 34060000 		.4byte	.LASF247
 3996 0b7a 60       		.byte	0x60
 3997 0b7b 0B       		.uleb128 0xb
 3998 0b7c 20050000 		.4byte	.LASF248
 3999 0b80 61       		.byte	0x61
 4000 0b81 00       		.byte	0
 4001 0b82 04       		.uleb128 0x4
 4002 0b83 3F170000 		.4byte	.LASF249
 4003 0b87 0C       		.byte	0xc
 4004 0b88 36       		.byte	0x36
 4005 0b89 FD0A0000 		.4byte	0xafd
 4006 0b8d 18       		.uleb128 0x18
 4007 0b8e 02       		.byte	0x2
 4008 0b8f 77000000 		.4byte	0x77
 4009 0b93 0C       		.byte	0xc
 4010 0b94 38       		.byte	0x38
 4011 0b95 200C0000 		.4byte	0xc20
 4012 0b99 0B       		.uleb128 0xb
 4013 0b9a D5180000 		.4byte	.LASF250
 4014 0b9e 00       		.byte	0
 4015 0b9f 0B       		.uleb128 0xb
 4016 0ba0 97000000 		.4byte	.LASF251
 4017 0ba4 01       		.byte	0x1
 4018 0ba5 0B       		.uleb128 0xb
 4019 0ba6 BC020000 		.4byte	.LASF252
 4020 0baa 02       		.byte	0x2
 4021 0bab 0B       		.uleb128 0xb
 4022 0bac B3090000 		.4byte	.LASF253
 4023 0bb0 03       		.byte	0x3
 4024 0bb1 0B       		.uleb128 0xb
 4025 0bb2 00000000 		.4byte	.LASF254
 4026 0bb6 05       		.byte	0x5
 4027 0bb7 0B       		.uleb128 0xb
 4028 0bb8 FA180000 		.4byte	.LASF255
 4029 0bbc 07       		.byte	0x7
 4030 0bbd 0B       		.uleb128 0xb
 4031 0bbe E1090000 		.4byte	.LASF256
 4032 0bc2 08       		.byte	0x8
 4033 0bc3 0B       		.uleb128 0xb
 4034 0bc4 AB000000 		.4byte	.LASF257
 4035 0bc8 09       		.byte	0x9
 4036 0bc9 0B       		.uleb128 0xb
 4037 0bca BA0E0000 		.4byte	.LASF258
 4038 0bce 0A       		.byte	0xa
 4039 0bcf 0B       		.uleb128 0xb
 4040 0bd0 1D060000 		.4byte	.LASF259
 4041 0bd4 0B       		.byte	0xb
 4042 0bd5 0B       		.uleb128 0xb
ARM GAS  C:\Users\thoma\AppData\Local\Temp\ccRUrbHX.s 			page 85


 4043 0bd6 A2130000 		.4byte	.LASF260
 4044 0bda 0C       		.byte	0xc
 4045 0bdb 0B       		.uleb128 0xb
 4046 0bdc 4F020000 		.4byte	.LASF261
 4047 0be0 10       		.byte	0x10
 4048 0be1 0B       		.uleb128 0xb
 4049 0be2 0D090000 		.4byte	.LASF262
 4050 0be6 17       		.byte	0x17
 4051 0be7 0B       		.uleb128 0xb
 4052 0be8 C9060000 		.4byte	.LASF263
 4053 0bec 20       		.byte	0x20
 4054 0bed 0B       		.uleb128 0xb
 4055 0bee D10D0000 		.4byte	.LASF264
 4056 0bf2 21       		.byte	0x21
 4057 0bf3 0B       		.uleb128 0xb
 4058 0bf4 3A090000 		.4byte	.LASF265
 4059 0bf8 2D       		.byte	0x2d
 4060 0bf9 0B       		.uleb128 0xb
 4061 0bfa 040F0000 		.4byte	.LASF266
 4062 0bfe 41       		.byte	0x41
 4063 0bff 0B       		.uleb128 0xb
 4064 0c00 BB0B0000 		.4byte	.LASF267
 4065 0c04 80       		.byte	0x80
 4066 0c05 0B       		.uleb128 0xb
 4067 0c06 AD0F0000 		.4byte	.LASF268
 4068 0c0a 81       		.byte	0x81
 4069 0c0b 0B       		.uleb128 0xb
 4070 0c0c F10E0000 		.4byte	.LASF269
 4071 0c10 82       		.byte	0x82
 4072 0c11 0E       		.uleb128 0xe
 4073 0c12 5D0D0000 		.4byte	.LASF270
 4074 0c16 1404     		.2byte	0x414
 4075 0c18 0E       		.uleb128 0xe
 4076 0c19 710D0000 		.4byte	.LASF271
 4077 0c1d 7236     		.2byte	0x3672
 4078 0c1f 00       		.byte	0
 4079 0c20 04       		.uleb128 0x4
 4080 0c21 C5010000 		.4byte	.LASF272
 4081 0c25 0C       		.byte	0xc
 4082 0c26 4F       		.byte	0x4f
 4083 0c27 8D0B0000 		.4byte	0xb8d
 4084 0c2b 06       		.uleb128 0x6
 4085 0c2c 22       		.byte	0x22
 4086 0c2d 0C       		.byte	0xc
 4087 0c2e 54       		.byte	0x54
 4088 0c2f 580C0000 		.4byte	0xc58
 4089 0c33 07       		.uleb128 0x7
 4090 0c34 12030000 		.4byte	.LASF273
 4091 0c38 0C       		.byte	0xc
 4092 0c39 55       		.byte	0x55
 4093 0c3a 580C0000 		.4byte	0xc58
 4094 0c3e 00       		.byte	0
 4095 0c3f 07       		.uleb128 0x7
 4096 0c40 6B150000 		.4byte	.LASF274
 4097 0c44 0C       		.byte	0xc
 4098 0c45 56       		.byte	0x56
 4099 0c46 B0000000 		.4byte	0xb0
ARM GAS  C:\Users\thoma\AppData\Local\Temp\ccRUrbHX.s 			page 86


 4100 0c4a 20       		.byte	0x20
 4101 0c4b 07       		.uleb128 0x7
 4102 0c4c 21080000 		.4byte	.LASF275
 4103 0c50 0C       		.byte	0xc
 4104 0c51 57       		.byte	0x57
 4105 0c52 B0000000 		.4byte	0xb0
 4106 0c56 21       		.byte	0x21
 4107 0c57 00       		.byte	0
 4108 0c58 11       		.uleb128 0x11
 4109 0c59 B0000000 		.4byte	0xb0
 4110 0c5d 680C0000 		.4byte	0xc68
 4111 0c61 12       		.uleb128 0x12
 4112 0c62 E7000000 		.4byte	0xe7
 4113 0c66 1F       		.byte	0x1f
 4114 0c67 00       		.byte	0
 4115 0c68 04       		.uleb128 0x4
 4116 0c69 BE060000 		.4byte	.LASF276
 4117 0c6d 0C       		.byte	0xc
 4118 0c6e 58       		.byte	0x58
 4119 0c6f 2B0C0000 		.4byte	0xc2b
 4120 0c73 06       		.uleb128 0x6
 4121 0c74 04       		.byte	0x4
 4122 0c75 0C       		.byte	0xc
 4123 0c76 5A       		.byte	0x5a
 4124 0c77 940C0000 		.4byte	0xc94
 4125 0c7b 07       		.uleb128 0x7
 4126 0c7c 4C000000 		.4byte	.LASF277
 4127 0c80 0C       		.byte	0xc
 4128 0c81 5B       		.byte	0x5b
 4129 0c82 C6000000 		.4byte	0xc6
 4130 0c86 00       		.byte	0
 4131 0c87 07       		.uleb128 0x7
 4132 0c88 52000000 		.4byte	.LASF278
 4133 0c8c 0C       		.byte	0xc
 4134 0c8d 5C       		.byte	0x5c
 4135 0c8e C6000000 		.4byte	0xc6
 4136 0c92 02       		.byte	0x2
 4137 0c93 00       		.byte	0
 4138 0c94 04       		.uleb128 0x4
 4139 0c95 D0090000 		.4byte	.LASF279
 4140 0c99 0C       		.byte	0xc
 4141 0c9a 5D       		.byte	0x5d
 4142 0c9b 730C0000 		.4byte	0xc73
 4143 0c9f 19       		.uleb128 0x19
 4144 0ca0 350E0000 		.4byte	.LASF282
 4145 0ca4 01       		.byte	0x1
 4146 0ca5 15       		.byte	0x15
 4147 0ca6 00000000 		.4byte	.LFB672
 4148 0caa 20000000 		.4byte	.LFE672-.LFB672
 4149 0cae 01       		.uleb128 0x1
 4150 0caf 9C       		.byte	0x9c
 4151 0cb0 2C0D0000 		.4byte	0xd2c
 4152 0cb4 1A       		.uleb128 0x1a
 4153 0cb5 FC050000 		.4byte	.LASF280
 4154 0cb9 01       		.byte	0x1
 4155 0cba 15       		.byte	0x15
 4156 0cbb 2C0D0000 		.4byte	0xd2c
ARM GAS  C:\Users\thoma\AppData\Local\Temp\ccRUrbHX.s 			page 87


 4157 0cbf 00000000 		.4byte	.LLST0
 4158 0cc3 1A       		.uleb128 0x1a
 4159 0cc4 760F0000 		.4byte	.LASF281
 4160 0cc8 01       		.byte	0x1
 4161 0cc9 15       		.byte	0x15
 4162 0cca 820B0000 		.4byte	0xb82
 4163 0cce 21000000 		.4byte	.LLST1
 4164 0cd2 1B       		.uleb128 0x1b
 4165 0cd3 636D6400 		.ascii	"cmd\000"
 4166 0cd7 01       		.byte	0x1
 4167 0cd8 15       		.byte	0x15
 4168 0cd9 B0000000 		.4byte	0xb0
 4169 0cdd 42000000 		.4byte	.LLST2
 4170 0ce1 1C       		.uleb128 0x1c
 4171 0ce2 0E000000 		.4byte	.LVL3
 4172 0ce6 AC260000 		.4byte	0x26ac
 4173 0cea FA0C0000 		.4byte	0xcfa
 4174 0cee 1D       		.uleb128 0x1d
 4175 0cef 01       		.uleb128 0x1
 4176 0cf0 50       		.byte	0x50
 4177 0cf1 02       		.uleb128 0x2
 4178 0cf2 09       		.byte	0x9
 4179 0cf3 AA       		.byte	0xaa
 4180 0cf4 1D       		.uleb128 0x1d
 4181 0cf5 01       		.uleb128 0x1
 4182 0cf6 51       		.byte	0x51
 4183 0cf7 01       		.uleb128 0x1
 4184 0cf8 30       		.byte	0x30
 4185 0cf9 00       		.byte	0
 4186 0cfa 1C       		.uleb128 0x1c
 4187 0cfb 14000000 		.4byte	.LVL4
 4188 0cff B7260000 		.4byte	0x26b7
 4189 0d03 0E0D0000 		.4byte	0xd0e
 4190 0d07 1D       		.uleb128 0x1d
 4191 0d08 01       		.uleb128 0x1
 4192 0d09 50       		.byte	0x50
 4193 0d0a 02       		.uleb128 0x2
 4194 0d0b 75       		.byte	0x75
 4195 0d0c 00       		.sleb128 0
 4196 0d0d 00       		.byte	0
 4197 0d0e 1C       		.uleb128 0x1c
 4198 0d0f 1A000000 		.4byte	.LVL5
 4199 0d13 B7260000 		.4byte	0x26b7
 4200 0d17 220D0000 		.4byte	0xd22
 4201 0d1b 1D       		.uleb128 0x1d
 4202 0d1c 01       		.uleb128 0x1
 4203 0d1d 50       		.byte	0x50
 4204 0d1e 02       		.uleb128 0x2
 4205 0d1f 74       		.byte	0x74
 4206 0d20 00       		.sleb128 0
 4207 0d21 00       		.byte	0
 4208 0d22 1E       		.uleb128 0x1e
 4209 0d23 1E000000 		.4byte	.LVL6
 4210 0d27 C2260000 		.4byte	0x26c2
 4211 0d2b 00       		.byte	0
 4212 0d2c 08       		.uleb128 0x8
 4213 0d2d 04       		.byte	0x4
ARM GAS  C:\Users\thoma\AppData\Local\Temp\ccRUrbHX.s 			page 88


 4214 0d2e 680C0000 		.4byte	0xc68
 4215 0d32 19       		.uleb128 0x19
 4216 0d33 F30C0000 		.4byte	.LASF283
 4217 0d37 01       		.byte	0x1
 4218 0d38 1D       		.byte	0x1d
 4219 0d39 00000000 		.4byte	.LFB673
 4220 0d3d 28000000 		.4byte	.LFE673-.LFB673
 4221 0d41 01       		.uleb128 0x1
 4222 0d42 9C       		.byte	0x9c
 4223 0d43 E20D0000 		.4byte	0xde2
 4224 0d47 1A       		.uleb128 0x1a
 4225 0d48 FC050000 		.4byte	.LASF280
 4226 0d4c 01       		.byte	0x1
 4227 0d4d 1D       		.byte	0x1d
 4228 0d4e 2C0D0000 		.4byte	0xd2c
 4229 0d52 63000000 		.4byte	.LLST3
 4230 0d56 1A       		.uleb128 0x1a
 4231 0d57 760F0000 		.4byte	.LASF281
 4232 0d5b 01       		.byte	0x1
 4233 0d5c 1D       		.byte	0x1d
 4234 0d5d 820B0000 		.4byte	0xb82
 4235 0d61 84000000 		.4byte	.LLST4
 4236 0d65 1A       		.uleb128 0x1a
 4237 0d66 AB0E0000 		.4byte	.LASF284
 4238 0d6a 01       		.byte	0x1
 4239 0d6b 1D       		.byte	0x1d
 4240 0d6c B0000000 		.4byte	0xb0
 4241 0d70 A5000000 		.4byte	.LLST5
 4242 0d74 1A       		.uleb128 0x1a
 4243 0d75 A2090000 		.4byte	.LASF285
 4244 0d79 01       		.byte	0x1
 4245 0d7a 1D       		.byte	0x1d
 4246 0d7b B0000000 		.4byte	0xb0
 4247 0d7f C6000000 		.4byte	.LLST6
 4248 0d83 1C       		.uleb128 0x1c
 4249 0d84 10000000 		.4byte	.LVL10
 4250 0d88 AC260000 		.4byte	0x26ac
 4251 0d8c 9C0D0000 		.4byte	0xd9c
 4252 0d90 1D       		.uleb128 0x1d
 4253 0d91 01       		.uleb128 0x1
 4254 0d92 50       		.byte	0x50
 4255 0d93 02       		.uleb128 0x2
 4256 0d94 09       		.byte	0x9
 4257 0d95 AA       		.byte	0xaa
 4258 0d96 1D       		.uleb128 0x1d
 4259 0d97 01       		.uleb128 0x1
 4260 0d98 51       		.byte	0x51
 4261 0d99 01       		.uleb128 0x1
 4262 0d9a 30       		.byte	0x30
 4263 0d9b 00       		.byte	0
 4264 0d9c 1C       		.uleb128 0x1c
 4265 0d9d 16000000 		.4byte	.LVL11
 4266 0da1 B7260000 		.4byte	0x26b7
 4267 0da5 B00D0000 		.4byte	0xdb0
 4268 0da9 1D       		.uleb128 0x1d
 4269 0daa 01       		.uleb128 0x1
 4270 0dab 50       		.byte	0x50
ARM GAS  C:\Users\thoma\AppData\Local\Temp\ccRUrbHX.s 			page 89


 4271 0dac 02       		.uleb128 0x2
 4272 0dad 76       		.byte	0x76
 4273 0dae 00       		.sleb128 0
 4274 0daf 00       		.byte	0
 4275 0db0 1C       		.uleb128 0x1c
 4276 0db1 1C000000 		.4byte	.LVL12
 4277 0db5 B7260000 		.4byte	0x26b7
 4278 0db9 C40D0000 		.4byte	0xdc4
 4279 0dbd 1D       		.uleb128 0x1d
 4280 0dbe 01       		.uleb128 0x1
 4281 0dbf 50       		.byte	0x50
 4282 0dc0 02       		.uleb128 0x2
 4283 0dc1 75       		.byte	0x75
 4284 0dc2 00       		.sleb128 0
 4285 0dc3 00       		.byte	0
 4286 0dc4 1C       		.uleb128 0x1c
 4287 0dc5 22000000 		.4byte	.LVL13
 4288 0dc9 B7260000 		.4byte	0x26b7
 4289 0dcd D80D0000 		.4byte	0xdd8
 4290 0dd1 1D       		.uleb128 0x1d
 4291 0dd2 01       		.uleb128 0x1
 4292 0dd3 50       		.byte	0x50
 4293 0dd4 02       		.uleb128 0x2
 4294 0dd5 74       		.byte	0x74
 4295 0dd6 00       		.sleb128 0
 4296 0dd7 00       		.byte	0
 4297 0dd8 1E       		.uleb128 0x1e
 4298 0dd9 26000000 		.4byte	.LVL14
 4299 0ddd C2260000 		.4byte	0x26c2
 4300 0de1 00       		.byte	0
 4301 0de2 19       		.uleb128 0x19
 4302 0de3 640B0000 		.4byte	.LASF286
 4303 0de7 01       		.byte	0x1
 4304 0de8 0C       		.byte	0xc
 4305 0de9 00000000 		.4byte	.LFB670
 4306 0ded 0E000000 		.4byte	.LFE670-.LFB670
 4307 0df1 01       		.uleb128 0x1
 4308 0df2 9C       		.byte	0x9c
 4309 0df3 330E0000 		.4byte	0xe33
 4310 0df7 1A       		.uleb128 0x1a
 4311 0df8 FC050000 		.4byte	.LASF280
 4312 0dfc 01       		.byte	0x1
 4313 0dfd 0C       		.byte	0xc
 4314 0dfe 2C0D0000 		.4byte	0xd2c
 4315 0e02 E7000000 		.4byte	.LLST7
 4316 0e06 1A       		.uleb128 0x1a
 4317 0e07 D6010000 		.4byte	.LASF287
 4318 0e0b 01       		.byte	0x1
 4319 0e0c 0C       		.byte	0xc
 4320 0e0d 200C0000 		.4byte	0xc20
 4321 0e11 08010000 		.4byte	.LLST8
 4322 0e15 1F       		.uleb128 0x1f
 4323 0e16 0C000000 		.4byte	.LVL17
 4324 0e1a 320D0000 		.4byte	0xd32
 4325 0e1e 1D       		.uleb128 0x1d
 4326 0e1f 01       		.uleb128 0x1
 4327 0e20 50       		.byte	0x50
ARM GAS  C:\Users\thoma\AppData\Local\Temp\ccRUrbHX.s 			page 90


 4328 0e21 03       		.uleb128 0x3
 4329 0e22 F3       		.byte	0xf3
 4330 0e23 01       		.uleb128 0x1
 4331 0e24 50       		.byte	0x50
 4332 0e25 1D       		.uleb128 0x1d
 4333 0e26 01       		.uleb128 0x1
 4334 0e27 51       		.byte	0x51
 4335 0e28 01       		.uleb128 0x1
 4336 0e29 30       		.byte	0x30
 4337 0e2a 1D       		.uleb128 0x1d
 4338 0e2b 01       		.uleb128 0x1
 4339 0e2c 52       		.byte	0x52
 4340 0e2d 03       		.uleb128 0x3
 4341 0e2e F3       		.byte	0xf3
 4342 0e2f 01       		.uleb128 0x1
 4343 0e30 51       		.byte	0x51
 4344 0e31 00       		.byte	0
 4345 0e32 00       		.byte	0
 4346 0e33 20       		.uleb128 0x20
 4347 0e34 4F130000 		.4byte	.LASF291
 4348 0e38 01       		.byte	0x1
 4349 0e39 26       		.byte	0x26
 4350 0e3a DC000000 		.4byte	0xdc
 4351 0e3e 00000000 		.4byte	.LFB674
 4352 0e42 44000000 		.4byte	.LFE674-.LFB674
 4353 0e46 01       		.uleb128 0x1
 4354 0e47 9C       		.byte	0x9c
 4355 0e48 3A0F0000 		.4byte	0xf3a
 4356 0e4c 1A       		.uleb128 0x1a
 4357 0e4d FC050000 		.4byte	.LASF280
 4358 0e51 01       		.byte	0x1
 4359 0e52 26       		.byte	0x26
 4360 0e53 2C0D0000 		.4byte	0xd2c
 4361 0e57 29010000 		.4byte	.LLST9
 4362 0e5b 1A       		.uleb128 0x1a
 4363 0e5c 760F0000 		.4byte	.LASF281
 4364 0e60 01       		.byte	0x1
 4365 0e61 26       		.byte	0x26
 4366 0e62 820B0000 		.4byte	0xb82
 4367 0e66 4A010000 		.4byte	.LLST10
 4368 0e6a 1A       		.uleb128 0x1a
 4369 0e6b C1120000 		.4byte	.LASF288
 4370 0e6f 01       		.byte	0x1
 4371 0e70 26       		.byte	0x26
 4372 0e71 B0000000 		.4byte	0xb0
 4373 0e75 6B010000 		.4byte	.LLST11
 4374 0e79 21       		.uleb128 0x21
 4375 0e7a 97070000 		.4byte	.LASF289
 4376 0e7e 01       		.byte	0x1
 4377 0e7f 28       		.byte	0x28
 4378 0e80 DC000000 		.4byte	0xdc
 4379 0e84 8C010000 		.4byte	.LLST12
 4380 0e88 22       		.uleb128 0x22
 4381 0e89 00000000 		.4byte	.Ldebug_ranges0+0
 4382 0e8d EA0E0000 		.4byte	0xeea
 4383 0e91 23       		.uleb128 0x23
 4384 0e92 6900     		.ascii	"i\000"
ARM GAS  C:\Users\thoma\AppData\Local\Temp\ccRUrbHX.s 			page 91


 4385 0e94 01       		.byte	0x1
 4386 0e95 2D       		.byte	0x2d
 4387 0e96 B0000000 		.4byte	0xb0
 4388 0e9a AB010000 		.4byte	.LLST13
 4389 0e9e 24       		.uleb128 0x24
 4390 0e9f 22000000 		.4byte	.LBB3
 4391 0ea3 12000000 		.4byte	.LBE3-.LBB3
 4392 0ea7 23       		.uleb128 0x23
 4393 0ea8 61636B00 		.ascii	"ack\000"
 4394 0eac 01       		.byte	0x1
 4395 0ead 2E       		.byte	0x2e
 4396 0eae B0000000 		.4byte	0xb0
 4397 0eb2 D5010000 		.4byte	.LLST14
 4398 0eb6 21       		.uleb128 0x21
 4399 0eb7 AD140000 		.4byte	.LASF290
 4400 0ebb 01       		.byte	0x1
 4401 0ebc 2F       		.byte	0x2f
 4402 0ebd B0000000 		.4byte	0xb0
 4403 0ec1 0D020000 		.4byte	.LLST15
 4404 0ec5 1F       		.uleb128 0x1f
 4405 0ec6 2E000000 		.4byte	.LVL28
 4406 0eca CD260000 		.4byte	0x26cd
 4407 0ece 1D       		.uleb128 0x1d
 4408 0ecf 01       		.uleb128 0x1
 4409 0ed0 50       		.byte	0x50
 4410 0ed1 15       		.uleb128 0x15
 4411 0ed2 31       		.byte	0x31
 4412 0ed3 74       		.byte	0x74
 4413 0ed4 00       		.sleb128 0
 4414 0ed5 76       		.byte	0x76
 4415 0ed6 00       		.sleb128 0
 4416 0ed7 1C       		.byte	0x1c
 4417 0ed8 23       		.byte	0x23
 4418 0ed9 01       		.uleb128 0x1
 4419 0eda 74       		.byte	0x74
 4420 0edb 00       		.sleb128 0
 4421 0edc 76       		.byte	0x76
 4422 0edd 00       		.sleb128 0
 4423 0ede 1C       		.byte	0x1c
 4424 0edf 09       		.byte	0x9
 4425 0ee0 FF       		.byte	0xff
 4426 0ee1 2E       		.byte	0x2e
 4427 0ee2 28       		.byte	0x28
 4428 0ee3 0100     		.2byte	0x1
 4429 0ee5 16       		.byte	0x16
 4430 0ee6 13       		.byte	0x13
 4431 0ee7 00       		.byte	0
 4432 0ee8 00       		.byte	0
 4433 0ee9 00       		.byte	0
 4434 0eea 1C       		.uleb128 0x1c
 4435 0eeb 0E000000 		.4byte	.LVL22
 4436 0eef AC260000 		.4byte	0x26ac
 4437 0ef3 030F0000 		.4byte	0xf03
 4438 0ef7 1D       		.uleb128 0x1d
 4439 0ef8 01       		.uleb128 0x1
 4440 0ef9 50       		.byte	0x50
 4441 0efa 02       		.uleb128 0x2
ARM GAS  C:\Users\thoma\AppData\Local\Temp\ccRUrbHX.s 			page 92


 4442 0efb 09       		.byte	0x9
 4443 0efc AA       		.byte	0xaa
 4444 0efd 1D       		.uleb128 0x1d
 4445 0efe 01       		.uleb128 0x1
 4446 0eff 51       		.byte	0x51
 4447 0f00 01       		.uleb128 0x1
 4448 0f01 30       		.byte	0x30
 4449 0f02 00       		.byte	0
 4450 0f03 1C       		.uleb128 0x1c
 4451 0f04 14000000 		.4byte	.LVL23
 4452 0f08 B7260000 		.4byte	0x26b7
 4453 0f0c 170F0000 		.4byte	0xf17
 4454 0f10 1D       		.uleb128 0x1d
 4455 0f11 01       		.uleb128 0x1
 4456 0f12 50       		.byte	0x50
 4457 0f13 02       		.uleb128 0x2
 4458 0f14 74       		.byte	0x74
 4459 0f15 00       		.sleb128 0
 4460 0f16 00       		.byte	0
 4461 0f17 1C       		.uleb128 0x1c
 4462 0f18 1C000000 		.4byte	.LVL24
 4463 0f1c D8260000 		.4byte	0x26d8
 4464 0f20 300F0000 		.4byte	0xf30
 4465 0f24 1D       		.uleb128 0x1d
 4466 0f25 01       		.uleb128 0x1
 4467 0f26 50       		.byte	0x50
 4468 0f27 02       		.uleb128 0x2
 4469 0f28 09       		.byte	0x9
 4470 0f29 AA       		.byte	0xaa
 4471 0f2a 1D       		.uleb128 0x1d
 4472 0f2b 01       		.uleb128 0x1
 4473 0f2c 51       		.byte	0x51
 4474 0f2d 01       		.uleb128 0x1
 4475 0f2e 31       		.byte	0x31
 4476 0f2f 00       		.byte	0
 4477 0f30 1E       		.uleb128 0x1e
 4478 0f31 40000000 		.4byte	.LVL33
 4479 0f35 C2260000 		.4byte	0x26c2
 4480 0f39 00       		.byte	0
 4481 0f3a 20       		.uleb128 0x20
 4482 0f3b 250B0000 		.4byte	.LASF292
 4483 0f3f 01       		.byte	0x1
 4484 0f40 10       		.byte	0x10
 4485 0f41 C6000000 		.4byte	0xc6
 4486 0f45 00000000 		.4byte	.LFB671
 4487 0f49 16000000 		.4byte	.LFE671-.LFB671
 4488 0f4d 01       		.uleb128 0x1
 4489 0f4e 9C       		.byte	0x9c
 4490 0f4f A00F0000 		.4byte	0xfa0
 4491 0f53 1A       		.uleb128 0x1a
 4492 0f54 FC050000 		.4byte	.LASF280
 4493 0f58 01       		.byte	0x1
 4494 0f59 10       		.byte	0x10
 4495 0f5a 2C0D0000 		.4byte	0xd2c
 4496 0f5e 20020000 		.4byte	.LLST16
 4497 0f62 1A       		.uleb128 0x1a
 4498 0f63 D6010000 		.4byte	.LASF287
ARM GAS  C:\Users\thoma\AppData\Local\Temp\ccRUrbHX.s 			page 93


 4499 0f67 01       		.byte	0x1
 4500 0f68 10       		.byte	0x10
 4501 0f69 200C0000 		.4byte	0xc20
 4502 0f6d 3E020000 		.4byte	.LLST17
 4503 0f71 1C       		.uleb128 0x1c
 4504 0f72 08000000 		.4byte	.LVL35
 4505 0f76 E20D0000 		.4byte	0xde2
 4506 0f7a 850F0000 		.4byte	0xf85
 4507 0f7e 1D       		.uleb128 0x1d
 4508 0f7f 01       		.uleb128 0x1
 4509 0f80 50       		.byte	0x50
 4510 0f81 02       		.uleb128 0x2
 4511 0f82 74       		.byte	0x74
 4512 0f83 00       		.sleb128 0
 4513 0f84 00       		.byte	0
 4514 0f85 1F       		.uleb128 0x1f
 4515 0f86 12000000 		.4byte	.LVL36
 4516 0f8a 330E0000 		.4byte	0xe33
 4517 0f8e 1D       		.uleb128 0x1d
 4518 0f8f 01       		.uleb128 0x1
 4519 0f90 50       		.byte	0x50
 4520 0f91 02       		.uleb128 0x2
 4521 0f92 74       		.byte	0x74
 4522 0f93 00       		.sleb128 0
 4523 0f94 1D       		.uleb128 0x1d
 4524 0f95 01       		.uleb128 0x1
 4525 0f96 51       		.byte	0x51
 4526 0f97 01       		.uleb128 0x1
 4527 0f98 30       		.byte	0x30
 4528 0f99 1D       		.uleb128 0x1d
 4529 0f9a 01       		.uleb128 0x1
 4530 0f9b 52       		.byte	0x52
 4531 0f9c 01       		.uleb128 0x1
 4532 0f9d 32       		.byte	0x32
 4533 0f9e 00       		.byte	0
 4534 0f9f 00       		.byte	0
 4535 0fa0 19       		.uleb128 0x19
 4536 0fa1 BF0F0000 		.4byte	.LASF293
 4537 0fa5 01       		.byte	0x1
 4538 0fa6 37       		.byte	0x37
 4539 0fa7 00000000 		.4byte	.LFB675
 4540 0fab 0A000000 		.4byte	.LFE675-.LFB675
 4541 0faf 01       		.uleb128 0x1
 4542 0fb0 9C       		.byte	0x9c
 4543 0fb1 DC0F0000 		.4byte	0xfdc
 4544 0fb5 1A       		.uleb128 0x1a
 4545 0fb6 FC050000 		.4byte	.LASF280
 4546 0fba 01       		.byte	0x1
 4547 0fbb 37       		.byte	0x37
 4548 0fbc 2C0D0000 		.4byte	0xd2c
 4549 0fc0 5F020000 		.4byte	.LLST18
 4550 0fc4 1F       		.uleb128 0x1f
 4551 0fc5 08000000 		.4byte	.LVL38
 4552 0fc9 E20D0000 		.4byte	0xde2
 4553 0fcd 1D       		.uleb128 0x1d
 4554 0fce 01       		.uleb128 0x1
 4555 0fcf 50       		.byte	0x50
ARM GAS  C:\Users\thoma\AppData\Local\Temp\ccRUrbHX.s 			page 94


 4556 0fd0 03       		.uleb128 0x3
 4557 0fd1 F3       		.byte	0xf3
 4558 0fd2 01       		.uleb128 0x1
 4559 0fd3 50       		.byte	0x50
 4560 0fd4 1D       		.uleb128 0x1d
 4561 0fd5 01       		.uleb128 0x1
 4562 0fd6 51       		.byte	0x51
 4563 0fd7 02       		.uleb128 0x2
 4564 0fd8 08       		.byte	0x8
 4565 0fd9 2D       		.byte	0x2d
 4566 0fda 00       		.byte	0
 4567 0fdb 00       		.byte	0
 4568 0fdc 19       		.uleb128 0x19
 4569 0fdd 5F070000 		.4byte	.LASF294
 4570 0fe1 01       		.byte	0x1
 4571 0fe2 3C       		.byte	0x3c
 4572 0fe3 00000000 		.4byte	.LFB676
 4573 0fe7 0A000000 		.4byte	.LFE676-.LFB676
 4574 0feb 01       		.uleb128 0x1
 4575 0fec 9C       		.byte	0x9c
 4576 0fed 18100000 		.4byte	0x1018
 4577 0ff1 1A       		.uleb128 0x1a
 4578 0ff2 FC050000 		.4byte	.LASF280
 4579 0ff6 01       		.byte	0x1
 4580 0ff7 3C       		.byte	0x3c
 4581 0ff8 2C0D0000 		.4byte	0xd2c
 4582 0ffc 80020000 		.4byte	.LLST19
 4583 1000 1F       		.uleb128 0x1f
 4584 1001 08000000 		.4byte	.LVL40
 4585 1005 E20D0000 		.4byte	0xde2
 4586 1009 1D       		.uleb128 0x1d
 4587 100a 01       		.uleb128 0x1
 4588 100b 50       		.byte	0x50
 4589 100c 03       		.uleb128 0x3
 4590 100d F3       		.byte	0xf3
 4591 100e 01       		.uleb128 0x1
 4592 100f 50       		.byte	0x50
 4593 1010 1D       		.uleb128 0x1d
 4594 1011 01       		.uleb128 0x1
 4595 1012 51       		.byte	0x51
 4596 1013 02       		.uleb128 0x2
 4597 1014 08       		.byte	0x8
 4598 1015 81       		.byte	0x81
 4599 1016 00       		.byte	0
 4600 1017 00       		.byte	0
 4601 1018 19       		.uleb128 0x19
 4602 1019 2B140000 		.4byte	.LASF295
 4603 101d 01       		.byte	0x1
 4604 101e 41       		.byte	0x41
 4605 101f 00000000 		.4byte	.LFB677
 4606 1023 0A000000 		.4byte	.LFE677-.LFB677
 4607 1027 01       		.uleb128 0x1
 4608 1028 9C       		.byte	0x9c
 4609 1029 54100000 		.4byte	0x1054
 4610 102d 1A       		.uleb128 0x1a
 4611 102e FC050000 		.4byte	.LASF280
 4612 1032 01       		.byte	0x1
ARM GAS  C:\Users\thoma\AppData\Local\Temp\ccRUrbHX.s 			page 95


 4613 1033 41       		.byte	0x41
 4614 1034 2C0D0000 		.4byte	0xd2c
 4615 1038 A1020000 		.4byte	.LLST20
 4616 103c 1F       		.uleb128 0x1f
 4617 103d 08000000 		.4byte	.LVL42
 4618 1041 E20D0000 		.4byte	0xde2
 4619 1045 1D       		.uleb128 0x1d
 4620 1046 01       		.uleb128 0x1
 4621 1047 50       		.byte	0x50
 4622 1048 03       		.uleb128 0x3
 4623 1049 F3       		.byte	0xf3
 4624 104a 01       		.uleb128 0x1
 4625 104b 50       		.byte	0x50
 4626 104c 1D       		.uleb128 0x1d
 4627 104d 01       		.uleb128 0x1
 4628 104e 51       		.byte	0x51
 4629 104f 02       		.uleb128 0x2
 4630 1050 08       		.byte	0x8
 4631 1051 80       		.byte	0x80
 4632 1052 00       		.byte	0
 4633 1053 00       		.byte	0
 4634 1054 19       		.uleb128 0x19
 4635 1055 86180000 		.4byte	.LASF296
 4636 1059 01       		.byte	0x1
 4637 105a 46       		.byte	0x46
 4638 105b 00000000 		.4byte	.LFB678
 4639 105f 0A000000 		.4byte	.LFE678-.LFB678
 4640 1063 01       		.uleb128 0x1
 4641 1064 9C       		.byte	0x9c
 4642 1065 90100000 		.4byte	0x1090
 4643 1069 1A       		.uleb128 0x1a
 4644 106a FC050000 		.4byte	.LASF280
 4645 106e 01       		.byte	0x1
 4646 106f 46       		.byte	0x46
 4647 1070 2C0D0000 		.4byte	0xd2c
 4648 1074 C2020000 		.4byte	.LLST21
 4649 1078 1F       		.uleb128 0x1f
 4650 1079 08000000 		.4byte	.LVL44
 4651 107d E20D0000 		.4byte	0xde2
 4652 1081 1D       		.uleb128 0x1d
 4653 1082 01       		.uleb128 0x1
 4654 1083 50       		.byte	0x50
 4655 1084 03       		.uleb128 0x3
 4656 1085 F3       		.byte	0xf3
 4657 1086 01       		.uleb128 0x1
 4658 1087 50       		.byte	0x50
 4659 1088 1D       		.uleb128 0x1d
 4660 1089 01       		.uleb128 0x1
 4661 108a 51       		.byte	0x51
 4662 108b 02       		.uleb128 0x2
 4663 108c 08       		.byte	0x8
 4664 108d 21       		.byte	0x21
 4665 108e 00       		.byte	0
 4666 108f 00       		.byte	0
 4667 1090 20       		.uleb128 0x20
 4668 1091 3C020000 		.4byte	.LASF297
 4669 1095 01       		.byte	0x1
ARM GAS  C:\Users\thoma\AppData\Local\Temp\ccRUrbHX.s 			page 96


 4670 1096 4B       		.byte	0x4b
 4671 1097 C6000000 		.4byte	0xc6
 4672 109b 00000000 		.4byte	.LFB679
 4673 109f 0A000000 		.4byte	.LFE679-.LFB679
 4674 10a3 01       		.uleb128 0x1
 4675 10a4 9C       		.byte	0x9c
 4676 10a5 CF100000 		.4byte	0x10cf
 4677 10a9 1A       		.uleb128 0x1a
 4678 10aa FC050000 		.4byte	.LASF280
 4679 10ae 01       		.byte	0x1
 4680 10af 4B       		.byte	0x4b
 4681 10b0 2C0D0000 		.4byte	0xd2c
 4682 10b4 E3020000 		.4byte	.LLST22
 4683 10b8 1F       		.uleb128 0x1f
 4684 10b9 08000000 		.4byte	.LVL46
 4685 10bd 3A0F0000 		.4byte	0xf3a
 4686 10c1 1D       		.uleb128 0x1d
 4687 10c2 01       		.uleb128 0x1
 4688 10c3 50       		.byte	0x50
 4689 10c4 03       		.uleb128 0x3
 4690 10c5 F3       		.byte	0xf3
 4691 10c6 01       		.uleb128 0x1
 4692 10c7 50       		.byte	0x50
 4693 10c8 1D       		.uleb128 0x1d
 4694 10c9 01       		.uleb128 0x1
 4695 10ca 51       		.byte	0x51
 4696 10cb 01       		.uleb128 0x1
 4697 10cc 30       		.byte	0x30
 4698 10cd 00       		.byte	0
 4699 10ce 00       		.byte	0
 4700 10cf 20       		.uleb128 0x20
 4701 10d0 87020000 		.4byte	.LASF298
 4702 10d4 01       		.byte	0x1
 4703 10d5 50       		.byte	0x50
 4704 10d6 C6000000 		.4byte	0xc6
 4705 10da 00000000 		.4byte	.LFB680
 4706 10de 0A000000 		.4byte	.LFE680-.LFB680
 4707 10e2 01       		.uleb128 0x1
 4708 10e3 9C       		.byte	0x9c
 4709 10e4 0E110000 		.4byte	0x110e
 4710 10e8 1A       		.uleb128 0x1a
 4711 10e9 FC050000 		.4byte	.LASF280
 4712 10ed 01       		.byte	0x1
 4713 10ee 50       		.byte	0x50
 4714 10ef 2C0D0000 		.4byte	0xd2c
 4715 10f3 04030000 		.4byte	.LLST23
 4716 10f7 1F       		.uleb128 0x1f
 4717 10f8 08000000 		.4byte	.LVL48
 4718 10fc 3A0F0000 		.4byte	0xf3a
 4719 1100 1D       		.uleb128 0x1d
 4720 1101 01       		.uleb128 0x1
 4721 1102 50       		.byte	0x50
 4722 1103 03       		.uleb128 0x3
 4723 1104 F3       		.byte	0xf3
 4724 1105 01       		.uleb128 0x1
 4725 1106 50       		.byte	0x50
 4726 1107 1D       		.uleb128 0x1d
ARM GAS  C:\Users\thoma\AppData\Local\Temp\ccRUrbHX.s 			page 97


 4727 1108 01       		.uleb128 0x1
 4728 1109 51       		.byte	0x51
 4729 110a 01       		.uleb128 0x1
 4730 110b 38       		.byte	0x38
 4731 110c 00       		.byte	0
 4732 110d 00       		.byte	0
 4733 110e 20       		.uleb128 0x20
 4734 110f 0B150000 		.4byte	.LASF299
 4735 1113 01       		.byte	0x1
 4736 1114 55       		.byte	0x55
 4737 1115 C6000000 		.4byte	0xc6
 4738 1119 00000000 		.4byte	.LFB681
 4739 111d 0E000000 		.4byte	.LFE681-.LFB681
 4740 1121 01       		.uleb128 0x1
 4741 1122 9C       		.byte	0x9c
 4742 1123 53110000 		.4byte	0x1153
 4743 1127 1A       		.uleb128 0x1a
 4744 1128 FC050000 		.4byte	.LASF280
 4745 112c 01       		.byte	0x1
 4746 112d 55       		.byte	0x55
 4747 112e 2C0D0000 		.4byte	0xd2c
 4748 1132 25030000 		.4byte	.LLST24
 4749 1136 1F       		.uleb128 0x1f
 4750 1137 0A000000 		.4byte	.LVL50
 4751 113b 330E0000 		.4byte	0xe33
 4752 113f 1D       		.uleb128 0x1d
 4753 1140 01       		.uleb128 0x1
 4754 1141 50       		.byte	0x50
 4755 1142 03       		.uleb128 0x3
 4756 1143 F3       		.byte	0xf3
 4757 1144 01       		.uleb128 0x1
 4758 1145 50       		.byte	0x50
 4759 1146 1D       		.uleb128 0x1d
 4760 1147 01       		.uleb128 0x1
 4761 1148 51       		.byte	0x51
 4762 1149 02       		.uleb128 0x2
 4763 114a 08       		.byte	0x8
 4764 114b 2E       		.byte	0x2e
 4765 114c 1D       		.uleb128 0x1d
 4766 114d 01       		.uleb128 0x1
 4767 114e 52       		.byte	0x52
 4768 114f 01       		.uleb128 0x1
 4769 1150 32       		.byte	0x32
 4770 1151 00       		.byte	0
 4771 1152 00       		.byte	0
 4772 1153 20       		.uleb128 0x20
 4773 1154 35080000 		.4byte	.LASF300
 4774 1158 01       		.byte	0x1
 4775 1159 5A       		.byte	0x5a
 4776 115a B0000000 		.4byte	0xb0
 4777 115e 00000000 		.4byte	.LFB682
 4778 1162 0E000000 		.4byte	.LFE682-.LFB682
 4779 1166 01       		.uleb128 0x1
 4780 1167 9C       		.byte	0x9c
 4781 1168 97110000 		.4byte	0x1197
 4782 116c 1A       		.uleb128 0x1a
 4783 116d FC050000 		.4byte	.LASF280
ARM GAS  C:\Users\thoma\AppData\Local\Temp\ccRUrbHX.s 			page 98


 4784 1171 01       		.byte	0x1
 4785 1172 5A       		.byte	0x5a
 4786 1173 2C0D0000 		.4byte	0xd2c
 4787 1177 46030000 		.4byte	.LLST25
 4788 117b 1F       		.uleb128 0x1f
 4789 117c 0A000000 		.4byte	.LVL52
 4790 1180 330E0000 		.4byte	0xe33
 4791 1184 1D       		.uleb128 0x1d
 4792 1185 01       		.uleb128 0x1
 4793 1186 50       		.byte	0x50
 4794 1187 03       		.uleb128 0x3
 4795 1188 F3       		.byte	0xf3
 4796 1189 01       		.uleb128 0x1
 4797 118a 50       		.byte	0x50
 4798 118b 1D       		.uleb128 0x1d
 4799 118c 01       		.uleb128 0x1
 4800 118d 51       		.byte	0x51
 4801 118e 01       		.uleb128 0x1
 4802 118f 32       		.byte	0x32
 4803 1190 1D       		.uleb128 0x1d
 4804 1191 01       		.uleb128 0x1
 4805 1192 52       		.byte	0x52
 4806 1193 01       		.uleb128 0x1
 4807 1194 31       		.byte	0x31
 4808 1195 00       		.byte	0
 4809 1196 00       		.byte	0
 4810 1197 20       		.uleb128 0x20
 4811 1198 B7150000 		.4byte	.LASF301
 4812 119c 01       		.byte	0x1
 4813 119d 5F       		.byte	0x5f
 4814 119e C6000000 		.4byte	0xc6
 4815 11a2 00000000 		.4byte	.LFB683
 4816 11a6 0E000000 		.4byte	.LFE683-.LFB683
 4817 11aa 01       		.uleb128 0x1
 4818 11ab 9C       		.byte	0x9c
 4819 11ac DB110000 		.4byte	0x11db
 4820 11b0 1A       		.uleb128 0x1a
 4821 11b1 FC050000 		.4byte	.LASF280
 4822 11b5 01       		.byte	0x1
 4823 11b6 5F       		.byte	0x5f
 4824 11b7 2C0D0000 		.4byte	0xd2c
 4825 11bb 67030000 		.4byte	.LLST26
 4826 11bf 1F       		.uleb128 0x1f
 4827 11c0 0A000000 		.4byte	.LVL54
 4828 11c4 330E0000 		.4byte	0xe33
 4829 11c8 1D       		.uleb128 0x1d
 4830 11c9 01       		.uleb128 0x1
 4831 11ca 50       		.byte	0x50
 4832 11cb 03       		.uleb128 0x3
 4833 11cc F3       		.byte	0xf3
 4834 11cd 01       		.uleb128 0x1
 4835 11ce 50       		.byte	0x50
 4836 11cf 1D       		.uleb128 0x1d
 4837 11d0 01       		.uleb128 0x1
 4838 11d1 51       		.byte	0x51
 4839 11d2 01       		.uleb128 0x1
 4840 11d3 33       		.byte	0x33
ARM GAS  C:\Users\thoma\AppData\Local\Temp\ccRUrbHX.s 			page 99


 4841 11d4 1D       		.uleb128 0x1d
 4842 11d5 01       		.uleb128 0x1
 4843 11d6 52       		.byte	0x52
 4844 11d7 01       		.uleb128 0x1
 4845 11d8 31       		.byte	0x31
 4846 11d9 00       		.byte	0
 4847 11da 00       		.byte	0
 4848 11db 20       		.uleb128 0x20
 4849 11dc 3E070000 		.4byte	.LASF302
 4850 11e0 01       		.byte	0x1
 4851 11e1 64       		.byte	0x64
 4852 11e2 C6000000 		.4byte	0xc6
 4853 11e6 00000000 		.4byte	.LFB684
 4854 11ea 0E000000 		.4byte	.LFE684-.LFB684
 4855 11ee 01       		.uleb128 0x1
 4856 11ef 9C       		.byte	0x9c
 4857 11f0 1F120000 		.4byte	0x121f
 4858 11f4 1A       		.uleb128 0x1a
 4859 11f5 FC050000 		.4byte	.LASF280
 4860 11f9 01       		.byte	0x1
 4861 11fa 64       		.byte	0x64
 4862 11fb 2C0D0000 		.4byte	0xd2c
 4863 11ff 88030000 		.4byte	.LLST27
 4864 1203 1F       		.uleb128 0x1f
 4865 1204 0A000000 		.4byte	.LVL56
 4866 1208 330E0000 		.4byte	0xe33
 4867 120c 1D       		.uleb128 0x1d
 4868 120d 01       		.uleb128 0x1
 4869 120e 50       		.byte	0x50
 4870 120f 03       		.uleb128 0x3
 4871 1210 F3       		.byte	0xf3
 4872 1211 01       		.uleb128 0x1
 4873 1212 50       		.byte	0x50
 4874 1213 1D       		.uleb128 0x1d
 4875 1214 01       		.uleb128 0x1
 4876 1215 51       		.byte	0x51
 4877 1216 01       		.uleb128 0x1
 4878 1217 34       		.byte	0x34
 4879 1218 1D       		.uleb128 0x1d
 4880 1219 01       		.uleb128 0x1
 4881 121a 52       		.byte	0x52
 4882 121b 01       		.uleb128 0x1
 4883 121c 32       		.byte	0x32
 4884 121d 00       		.byte	0
 4885 121e 00       		.byte	0
 4886 121f 20       		.uleb128 0x20
 4887 1220 BA080000 		.4byte	.LASF303
 4888 1224 01       		.byte	0x1
 4889 1225 69       		.byte	0x69
 4890 1226 C6000000 		.4byte	0xc6
 4891 122a 00000000 		.4byte	.LFB685
 4892 122e 0E000000 		.4byte	.LFE685-.LFB685
 4893 1232 01       		.uleb128 0x1
 4894 1233 9C       		.byte	0x9c
 4895 1234 63120000 		.4byte	0x1263
 4896 1238 1A       		.uleb128 0x1a
 4897 1239 FC050000 		.4byte	.LASF280
ARM GAS  C:\Users\thoma\AppData\Local\Temp\ccRUrbHX.s 			page 100


 4898 123d 01       		.byte	0x1
 4899 123e 69       		.byte	0x69
 4900 123f 2C0D0000 		.4byte	0xd2c
 4901 1243 A9030000 		.4byte	.LLST28
 4902 1247 1F       		.uleb128 0x1f
 4903 1248 0A000000 		.4byte	.LVL58
 4904 124c 330E0000 		.4byte	0xe33
 4905 1250 1D       		.uleb128 0x1d
 4906 1251 01       		.uleb128 0x1
 4907 1252 50       		.byte	0x50
 4908 1253 03       		.uleb128 0x3
 4909 1254 F3       		.byte	0xf3
 4910 1255 01       		.uleb128 0x1
 4911 1256 50       		.byte	0x50
 4912 1257 1D       		.uleb128 0x1d
 4913 1258 01       		.uleb128 0x1
 4914 1259 51       		.byte	0x51
 4915 125a 01       		.uleb128 0x1
 4916 125b 38       		.byte	0x38
 4917 125c 1D       		.uleb128 0x1d
 4918 125d 01       		.uleb128 0x1
 4919 125e 52       		.byte	0x52
 4920 125f 01       		.uleb128 0x1
 4921 1260 32       		.byte	0x32
 4922 1261 00       		.byte	0
 4923 1262 00       		.byte	0
 4924 1263 20       		.uleb128 0x20
 4925 1264 4E060000 		.4byte	.LASF304
 4926 1268 01       		.byte	0x1
 4927 1269 6E       		.byte	0x6e
 4928 126a BB000000 		.4byte	0xbb
 4929 126e 00000000 		.4byte	.LFB686
 4930 1272 16000000 		.4byte	.LFE686-.LFB686
 4931 1276 01       		.uleb128 0x1
 4932 1277 9C       		.byte	0x9c
 4933 1278 B6120000 		.4byte	0x12b6
 4934 127c 1A       		.uleb128 0x1a
 4935 127d FC050000 		.4byte	.LASF280
 4936 1281 01       		.byte	0x1
 4937 1282 6E       		.byte	0x6e
 4938 1283 2C0D0000 		.4byte	0xd2c
 4939 1287 CA030000 		.4byte	.LLST29
 4940 128b 21       		.uleb128 0x21
 4941 128c 97070000 		.4byte	.LASF289
 4942 1290 01       		.byte	0x1
 4943 1291 6F       		.byte	0x6f
 4944 1292 BB000000 		.4byte	0xbb
 4945 1296 EB030000 		.4byte	.LLST30
 4946 129a 1F       		.uleb128 0x1f
 4947 129b 0A000000 		.4byte	.LVL60
 4948 129f 330E0000 		.4byte	0xe33
 4949 12a3 1D       		.uleb128 0x1d
 4950 12a4 01       		.uleb128 0x1
 4951 12a5 50       		.byte	0x50
 4952 12a6 03       		.uleb128 0x3
 4953 12a7 F3       		.byte	0xf3
 4954 12a8 01       		.uleb128 0x1
ARM GAS  C:\Users\thoma\AppData\Local\Temp\ccRUrbHX.s 			page 101


 4955 12a9 50       		.byte	0x50
 4956 12aa 1D       		.uleb128 0x1d
 4957 12ab 01       		.uleb128 0x1
 4958 12ac 51       		.byte	0x51
 4959 12ad 01       		.uleb128 0x1
 4960 12ae 40       		.byte	0x40
 4961 12af 1D       		.uleb128 0x1d
 4962 12b0 01       		.uleb128 0x1
 4963 12b1 52       		.byte	0x52
 4964 12b2 01       		.uleb128 0x1
 4965 12b3 32       		.byte	0x32
 4966 12b4 00       		.byte	0
 4967 12b5 00       		.byte	0
 4968 12b6 25       		.uleb128 0x25
 4969 12b7 A4020000 		.4byte	.LASF305
 4970 12bb 01       		.byte	0x1
 4971 12bc 74       		.byte	0x74
 4972 12bd 3A000000 		.4byte	0x3a
 4973 12c1 00000000 		.4byte	.LFB687
 4974 12c5 34000000 		.4byte	.LFE687-.LFB687
 4975 12c9 01       		.uleb128 0x1
 4976 12ca 9C       		.byte	0x9c
 4977 12cb 09130000 		.4byte	0x1309
 4978 12cf 1A       		.uleb128 0x1a
 4979 12d0 FC050000 		.4byte	.LASF280
 4980 12d4 01       		.byte	0x1
 4981 12d5 74       		.byte	0x74
 4982 12d6 2C0D0000 		.4byte	0xd2c
 4983 12da FE030000 		.4byte	.LLST31
 4984 12de 21       		.uleb128 0x21
 4985 12df EE000000 		.4byte	.LASF306
 4986 12e3 01       		.byte	0x1
 4987 12e4 75       		.byte	0x75
 4988 12e5 BB000000 		.4byte	0xbb
 4989 12e9 1F040000 		.4byte	.LLST32
 4990 12ed 1F       		.uleb128 0x1f
 4991 12ee 0A000000 		.4byte	.LVL64
 4992 12f2 330E0000 		.4byte	0xe33
 4993 12f6 1D       		.uleb128 0x1d
 4994 12f7 01       		.uleb128 0x1
 4995 12f8 50       		.byte	0x50
 4996 12f9 03       		.uleb128 0x3
 4997 12fa F3       		.byte	0xf3
 4998 12fb 01       		.uleb128 0x1
 4999 12fc 50       		.byte	0x50
 5000 12fd 1D       		.uleb128 0x1d
 5001 12fe 01       		.uleb128 0x1
 5002 12ff 51       		.byte	0x51
 5003 1300 01       		.uleb128 0x1
 5004 1301 3C       		.byte	0x3c
 5005 1302 1D       		.uleb128 0x1d
 5006 1303 01       		.uleb128 0x1
 5007 1304 52       		.byte	0x52
 5008 1305 01       		.uleb128 0x1
 5009 1306 32       		.byte	0x32
 5010 1307 00       		.byte	0
 5011 1308 00       		.byte	0
ARM GAS  C:\Users\thoma\AppData\Local\Temp\ccRUrbHX.s 			page 102


 5012 1309 20       		.uleb128 0x20
 5013 130a A00A0000 		.4byte	.LASF307
 5014 130e 01       		.byte	0x1
 5015 130f 7A       		.byte	0x7a
 5016 1310 2C000000 		.4byte	0x2c
 5017 1314 00000000 		.4byte	.LFB688
 5018 1318 0C000000 		.4byte	.LFE688-.LFB688
 5019 131c 01       		.uleb128 0x1
 5020 131d 9C       		.byte	0x9c
 5021 131e 4E130000 		.4byte	0x134e
 5022 1322 1A       		.uleb128 0x1a
 5023 1323 FC050000 		.4byte	.LASF280
 5024 1327 01       		.byte	0x1
 5025 1328 7A       		.byte	0x7a
 5026 1329 2C0D0000 		.4byte	0xd2c
 5027 132d 32040000 		.4byte	.LLST33
 5028 1331 1F       		.uleb128 0x1f
 5029 1332 0A000000 		.4byte	.LVL69
 5030 1336 330E0000 		.4byte	0xe33
 5031 133a 1D       		.uleb128 0x1d
 5032 133b 01       		.uleb128 0x1
 5033 133c 50       		.byte	0x50
 5034 133d 03       		.uleb128 0x3
 5035 133e F3       		.byte	0xf3
 5036 133f 01       		.uleb128 0x1
 5037 1340 50       		.byte	0x50
 5038 1341 1D       		.uleb128 0x1d
 5039 1342 01       		.uleb128 0x1
 5040 1343 51       		.byte	0x51
 5041 1344 02       		.uleb128 0x2
 5042 1345 08       		.byte	0x8
 5043 1346 28       		.byte	0x28
 5044 1347 1D       		.uleb128 0x1d
 5045 1348 01       		.uleb128 0x1
 5046 1349 52       		.byte	0x52
 5047 134a 01       		.uleb128 0x1
 5048 134b 32       		.byte	0x32
 5049 134c 00       		.byte	0
 5050 134d 00       		.byte	0
 5051 134e 19       		.uleb128 0x19
 5052 134f FE080000 		.4byte	.LASF308
 5053 1353 01       		.byte	0x1
 5054 1354 7F       		.byte	0x7f
 5055 1355 00000000 		.4byte	.LFB689
 5056 1359 10000000 		.4byte	.LFE689-.LFB689
 5057 135d 01       		.uleb128 0x1
 5058 135e 9C       		.byte	0x9c
 5059 135f 9E130000 		.4byte	0x139e
 5060 1363 1A       		.uleb128 0x1a
 5061 1364 FC050000 		.4byte	.LASF280
 5062 1368 01       		.byte	0x1
 5063 1369 7F       		.byte	0x7f
 5064 136a 2C0D0000 		.4byte	0xd2c
 5065 136e 53040000 		.4byte	.LLST34
 5066 1372 1C       		.uleb128 0x1c
 5067 1373 08000000 		.4byte	.LVL71
 5068 1377 E20D0000 		.4byte	0xde2
ARM GAS  C:\Users\thoma\AppData\Local\Temp\ccRUrbHX.s 			page 103


 5069 137b 8D130000 		.4byte	0x138d
 5070 137f 1D       		.uleb128 0x1d
 5071 1380 01       		.uleb128 0x1
 5072 1381 50       		.byte	0x50
 5073 1382 03       		.uleb128 0x3
 5074 1383 F3       		.byte	0xf3
 5075 1384 01       		.uleb128 0x1
 5076 1385 50       		.byte	0x50
 5077 1386 1D       		.uleb128 0x1d
 5078 1387 01       		.uleb128 0x1
 5079 1388 51       		.byte	0x51
 5080 1389 02       		.uleb128 0x2
 5081 138a 08       		.byte	0x8
 5082 138b 41       		.byte	0x41
 5083 138c 00       		.byte	0
 5084 138d 1F       		.uleb128 0x1f
 5085 138e 0E000000 		.4byte	.LVL72
 5086 1392 E3260000 		.4byte	0x26e3
 5087 1396 1D       		.uleb128 0x1d
 5088 1397 01       		.uleb128 0x1
 5089 1398 50       		.byte	0x50
 5090 1399 02       		.uleb128 0x2
 5091 139a 08       		.byte	0x8
 5092 139b AF       		.byte	0xaf
 5093 139c 00       		.byte	0
 5094 139d 00       		.byte	0
 5095 139e 19       		.uleb128 0x19
 5096 139f D80B0000 		.4byte	.LASF309
 5097 13a3 01       		.byte	0x1
 5098 13a4 85       		.byte	0x85
 5099 13a5 00000000 		.4byte	.LFB690
 5100 13a9 18000000 		.4byte	.LFE690-.LFB690
 5101 13ad 01       		.uleb128 0x1
 5102 13ae 9C       		.byte	0x9c
 5103 13af F5130000 		.4byte	0x13f5
 5104 13b3 1A       		.uleb128 0x1a
 5105 13b4 FC050000 		.4byte	.LASF280
 5106 13b8 01       		.byte	0x1
 5107 13b9 85       		.byte	0x85
 5108 13ba 2C0D0000 		.4byte	0xd2c
 5109 13be 74040000 		.4byte	.LLST35
 5110 13c2 1C       		.uleb128 0x1c
 5111 13c3 0C000000 		.4byte	.LVL74
 5112 13c7 E20D0000 		.4byte	0xde2
 5113 13cb DD130000 		.4byte	0x13dd
 5114 13cf 1D       		.uleb128 0x1d
 5115 13d0 01       		.uleb128 0x1
 5116 13d1 50       		.byte	0x50
 5117 13d2 02       		.uleb128 0x2
 5118 13d3 74       		.byte	0x74
 5119 13d4 00       		.sleb128 0
 5120 13d5 1D       		.uleb128 0x1d
 5121 13d6 01       		.uleb128 0x1
 5122 13d7 51       		.byte	0x51
 5123 13d8 03       		.uleb128 0x3
 5124 13d9 0A       		.byte	0xa
 5125 13da 1404     		.2byte	0x414
ARM GAS  C:\Users\thoma\AppData\Local\Temp\ccRUrbHX.s 			page 104


 5126 13dc 00       		.byte	0
 5127 13dd 1F       		.uleb128 0x1f
 5128 13de 16000000 		.4byte	.LVL75
 5129 13e2 E20D0000 		.4byte	0xde2
 5130 13e6 1D       		.uleb128 0x1d
 5131 13e7 01       		.uleb128 0x1
 5132 13e8 50       		.byte	0x50
 5133 13e9 02       		.uleb128 0x2
 5134 13ea 74       		.byte	0x74
 5135 13eb 00       		.sleb128 0
 5136 13ec 1D       		.uleb128 0x1d
 5137 13ed 01       		.uleb128 0x1
 5138 13ee 51       		.byte	0x51
 5139 13ef 03       		.uleb128 0x3
 5140 13f0 0A       		.byte	0xa
 5141 13f1 7236     		.2byte	0x3672
 5142 13f3 00       		.byte	0
 5143 13f4 00       		.byte	0
 5144 13f5 19       		.uleb128 0x19
 5145 13f6 3E000000 		.4byte	.LASF310
 5146 13fa 01       		.byte	0x1
 5147 13fb 8B       		.byte	0x8b
 5148 13fc 00000000 		.4byte	.LFB691
 5149 1400 0A000000 		.4byte	.LFE691-.LFB691
 5150 1404 01       		.uleb128 0x1
 5151 1405 9C       		.byte	0x9c
 5152 1406 31140000 		.4byte	0x1431
 5153 140a 1A       		.uleb128 0x1a
 5154 140b FC050000 		.4byte	.LASF280
 5155 140f 01       		.byte	0x1
 5156 1410 8B       		.byte	0x8b
 5157 1411 2C0D0000 		.4byte	0xd2c
 5158 1415 92040000 		.4byte	.LLST36
 5159 1419 1F       		.uleb128 0x1f
 5160 141a 08000000 		.4byte	.LVL77
 5161 141e E20D0000 		.4byte	0xde2
 5162 1422 1D       		.uleb128 0x1d
 5163 1423 01       		.uleb128 0x1
 5164 1424 50       		.byte	0x50
 5165 1425 03       		.uleb128 0x3
 5166 1426 F3       		.byte	0xf3
 5167 1427 01       		.uleb128 0x1
 5168 1428 50       		.byte	0x50
 5169 1429 1D       		.uleb128 0x1d
 5170 142a 01       		.uleb128 0x1
 5171 142b 51       		.byte	0x51
 5172 142c 02       		.uleb128 0x2
 5173 142d 08       		.byte	0x8
 5174 142e 20       		.byte	0x20
 5175 142f 00       		.byte	0
 5176 1430 00       		.byte	0
 5177 1431 19       		.uleb128 0x19
 5178 1432 970E0000 		.4byte	.LASF311
 5179 1436 01       		.byte	0x1
 5180 1437 90       		.byte	0x90
 5181 1438 00000000 		.4byte	.LFB692
 5182 143c 4A000000 		.4byte	.LFE692-.LFB692
ARM GAS  C:\Users\thoma\AppData\Local\Temp\ccRUrbHX.s 			page 105


 5183 1440 01       		.uleb128 0x1
 5184 1441 9C       		.byte	0x9c
 5185 1442 21150000 		.4byte	0x1521
 5186 1446 1A       		.uleb128 0x1a
 5187 1447 FC050000 		.4byte	.LASF280
 5188 144b 01       		.byte	0x1
 5189 144c 90       		.byte	0x90
 5190 144d 2C0D0000 		.4byte	0xd2c
 5191 1451 B3040000 		.4byte	.LLST37
 5192 1455 1A       		.uleb128 0x1a
 5193 1456 1C130000 		.4byte	.LASF312
 5194 145a 01       		.byte	0x1
 5195 145b 90       		.byte	0x90
 5196 145c 21050000 		.4byte	0x521
 5197 1460 D1040000 		.4byte	.LLST38
 5198 1464 1A       		.uleb128 0x1a
 5199 1465 EB070000 		.4byte	.LASF313
 5200 1469 01       		.byte	0x1
 5201 146a 90       		.byte	0x90
 5202 146b C6000000 		.4byte	0xc6
 5203 146f F2040000 		.4byte	.LLST39
 5204 1473 1C       		.uleb128 0x1c
 5205 1474 0E000000 		.4byte	.LVL80
 5206 1478 E3260000 		.4byte	0x26e3
 5207 147c 86140000 		.4byte	0x1486
 5208 1480 1D       		.uleb128 0x1d
 5209 1481 01       		.uleb128 0x1
 5210 1482 50       		.byte	0x50
 5211 1483 01       		.uleb128 0x1
 5212 1484 3A       		.byte	0x3a
 5213 1485 00       		.byte	0
 5214 1486 1C       		.uleb128 0x1c
 5215 1487 18000000 		.4byte	.LVL81
 5216 148b 9F0C0000 		.4byte	0xc9f
 5217 148f A5140000 		.4byte	0x14a5
 5218 1493 1D       		.uleb128 0x1d
 5219 1494 01       		.uleb128 0x1
 5220 1495 50       		.byte	0x50
 5221 1496 02       		.uleb128 0x2
 5222 1497 74       		.byte	0x74
 5223 1498 00       		.sleb128 0
 5224 1499 1D       		.uleb128 0x1d
 5225 149a 01       		.uleb128 0x1
 5226 149b 51       		.byte	0x51
 5227 149c 02       		.uleb128 0x2
 5228 149d 08       		.byte	0x8
 5229 149e 61       		.byte	0x61
 5230 149f 1D       		.uleb128 0x1d
 5231 14a0 01       		.uleb128 0x1
 5232 14a1 52       		.byte	0x52
 5233 14a2 01       		.uleb128 0x1
 5234 14a3 30       		.byte	0x30
 5235 14a4 00       		.byte	0
 5236 14a5 1C       		.uleb128 0x1c
 5237 14a6 1E000000 		.4byte	.LVL82
 5238 14aa E3260000 		.4byte	0x26e3
 5239 14ae B8140000 		.4byte	0x14b8
ARM GAS  C:\Users\thoma\AppData\Local\Temp\ccRUrbHX.s 			page 106


 5240 14b2 1D       		.uleb128 0x1d
 5241 14b3 01       		.uleb128 0x1
 5242 14b4 50       		.byte	0x50
 5243 14b5 01       		.uleb128 0x1
 5244 14b6 3A       		.byte	0x3a
 5245 14b7 00       		.byte	0
 5246 14b8 1C       		.uleb128 0x1c
 5247 14b9 28000000 		.4byte	.LVL83
 5248 14bd 9F0C0000 		.4byte	0xc9f
 5249 14c1 D8140000 		.4byte	0x14d8
 5250 14c5 1D       		.uleb128 0x1d
 5251 14c6 01       		.uleb128 0x1
 5252 14c7 50       		.byte	0x50
 5253 14c8 02       		.uleb128 0x2
 5254 14c9 74       		.byte	0x74
 5255 14ca 00       		.sleb128 0
 5256 14cb 1D       		.uleb128 0x1d
 5257 14cc 01       		.uleb128 0x1
 5258 14cd 51       		.byte	0x51
 5259 14ce 02       		.uleb128 0x2
 5260 14cf 08       		.byte	0x8
 5261 14d0 3E       		.byte	0x3e
 5262 14d1 1D       		.uleb128 0x1d
 5263 14d2 01       		.uleb128 0x1
 5264 14d3 52       		.byte	0x52
 5265 14d4 02       		.uleb128 0x2
 5266 14d5 76       		.byte	0x76
 5267 14d6 00       		.sleb128 0
 5268 14d7 00       		.byte	0
 5269 14d8 1C       		.uleb128 0x1c
 5270 14d9 32000000 		.4byte	.LVL84
 5271 14dd E3260000 		.4byte	0x26e3
 5272 14e1 EB140000 		.4byte	0x14eb
 5273 14e5 1D       		.uleb128 0x1d
 5274 14e6 01       		.uleb128 0x1
 5275 14e7 50       		.byte	0x50
 5276 14e8 01       		.uleb128 0x1
 5277 14e9 3A       		.byte	0x3a
 5278 14ea 00       		.byte	0
 5279 14eb 1C       		.uleb128 0x1c
 5280 14ec 42000000 		.4byte	.LVL85
 5281 14f0 9F0C0000 		.4byte	0xc9f
 5282 14f4 11150000 		.4byte	0x1511
 5283 14f8 1D       		.uleb128 0x1d
 5284 14f9 01       		.uleb128 0x1
 5285 14fa 50       		.byte	0x50
 5286 14fb 02       		.uleb128 0x2
 5287 14fc 74       		.byte	0x74
 5288 14fd 00       		.sleb128 0
 5289 14fe 1D       		.uleb128 0x1d
 5290 14ff 01       		.uleb128 0x1
 5291 1500 51       		.byte	0x51
 5292 1501 02       		.uleb128 0x2
 5293 1502 08       		.byte	0x8
 5294 1503 3F       		.byte	0x3f
 5295 1504 1D       		.uleb128 0x1d
 5296 1505 01       		.uleb128 0x1
ARM GAS  C:\Users\thoma\AppData\Local\Temp\ccRUrbHX.s 			page 107


 5297 1506 52       		.byte	0x52
 5298 1507 08       		.uleb128 0x8
 5299 1508 75       		.byte	0x75
 5300 1509 00       		.sleb128 0
 5301 150a 09       		.byte	0x9
 5302 150b F7       		.byte	0xf7
 5303 150c 24       		.byte	0x24
 5304 150d 09       		.byte	0x9
 5305 150e FC       		.byte	0xfc
 5306 150f 25       		.byte	0x25
 5307 1510 00       		.byte	0
 5308 1511 1F       		.uleb128 0x1f
 5309 1512 48000000 		.4byte	.LVL86
 5310 1516 E3260000 		.4byte	0x26e3
 5311 151a 1D       		.uleb128 0x1d
 5312 151b 01       		.uleb128 0x1
 5313 151c 50       		.byte	0x50
 5314 151d 01       		.uleb128 0x1
 5315 151e 44       		.byte	0x44
 5316 151f 00       		.byte	0
 5317 1520 00       		.byte	0
 5318 1521 19       		.uleb128 0x19
 5319 1522 C5160000 		.4byte	.LASF314
 5320 1526 01       		.byte	0x1
 5321 1527 DA       		.byte	0xda
 5322 1528 00000000 		.4byte	.LFB695
 5323 152c A4000000 		.4byte	.LFE695-.LFB695
 5324 1530 01       		.uleb128 0x1
 5325 1531 9C       		.byte	0x9c
 5326 1532 4A160000 		.4byte	0x164a
 5327 1536 1A       		.uleb128 0x1a
 5328 1537 FC050000 		.4byte	.LASF280
 5329 153b 01       		.byte	0x1
 5330 153c DA       		.byte	0xda
 5331 153d 2C0D0000 		.4byte	0xd2c
 5332 1541 13050000 		.4byte	.LLST40
 5333 1545 1A       		.uleb128 0x1a
 5334 1546 14070000 		.4byte	.LASF315
 5335 154a 01       		.byte	0x1
 5336 154b DA       		.byte	0xda
 5337 154c B0000000 		.4byte	0xb0
 5338 1550 6B050000 		.4byte	.LLST41
 5339 1554 1A       		.uleb128 0x1a
 5340 1555 2A090000 		.4byte	.LASF155
 5341 1559 01       		.byte	0x1
 5342 155a DA       		.byte	0xda
 5343 155b DC000000 		.4byte	0xdc
 5344 155f 89050000 		.4byte	.LLST42
 5345 1563 1B       		.uleb128 0x1b
 5346 1564 6C656E00 		.ascii	"len\000"
 5347 1568 01       		.byte	0x1
 5348 1569 DA       		.byte	0xda
 5349 156a 2C000000 		.4byte	0x2c
 5350 156e E1050000 		.4byte	.LLST43
 5351 1572 22       		.uleb128 0x22
 5352 1573 18000000 		.4byte	.Ldebug_ranges0+0x18
 5353 1577 CF150000 		.4byte	0x15cf
ARM GAS  C:\Users\thoma\AppData\Local\Temp\ccRUrbHX.s 			page 108


 5354 157b 23       		.uleb128 0x23
 5355 157c 6900     		.ascii	"i\000"
 5356 157e 01       		.byte	0x1
 5357 157f E5       		.byte	0xe5
 5358 1580 2C000000 		.4byte	0x2c
 5359 1584 39060000 		.4byte	.LLST44
 5360 1588 1C       		.uleb128 0x1c
 5361 1589 5A000000 		.4byte	.LVL95
 5362 158d EF260000 		.4byte	0x26ef
 5363 1591 B7150000 		.4byte	0x15b7
 5364 1595 1D       		.uleb128 0x1d
 5365 1596 01       		.uleb128 0x1
 5366 1597 50       		.byte	0x50
 5367 1598 05       		.uleb128 0x5
 5368 1599 03       		.byte	0x3
 5369 159a 00000000 		.4byte	.LC0
 5370 159e 1D       		.uleb128 0x1d
 5371 159f 01       		.uleb128 0x1
 5372 15a0 51       		.byte	0x51
 5373 15a1 02       		.uleb128 0x2
 5374 15a2 75       		.byte	0x75
 5375 15a3 00       		.sleb128 0
 5376 15a4 1D       		.uleb128 0x1d
 5377 15a5 01       		.uleb128 0x1
 5378 15a6 52       		.byte	0x52
 5379 15a7 0E       		.uleb128 0xe
 5380 15a8 79       		.byte	0x79
 5381 15a9 00       		.sleb128 0
 5382 15aa 74       		.byte	0x74
 5383 15ab 00       		.sleb128 0
 5384 15ac 20       		.byte	0x20
 5385 15ad 78       		.byte	0x78
 5386 15ae 00       		.sleb128 0
 5387 15af 22       		.byte	0x22
 5388 15b0 33       		.byte	0x33
 5389 15b1 24       		.byte	0x24
 5390 15b2 25       		.byte	0x25
 5391 15b3 08       		.byte	0x8
 5392 15b4 FF       		.byte	0xff
 5393 15b5 1A       		.byte	0x1a
 5394 15b6 00       		.byte	0
 5395 15b7 1F       		.uleb128 0x1f
 5396 15b8 68000000 		.4byte	.LVL96
 5397 15bc 9F0C0000 		.4byte	0xc9f
 5398 15c0 1D       		.uleb128 0x1d
 5399 15c1 01       		.uleb128 0x1
 5400 15c2 50       		.byte	0x50
 5401 15c3 02       		.uleb128 0x2
 5402 15c4 76       		.byte	0x76
 5403 15c5 00       		.sleb128 0
 5404 15c6 1D       		.uleb128 0x1d
 5405 15c7 01       		.uleb128 0x1
 5406 15c8 51       		.byte	0x51
 5407 15c9 03       		.uleb128 0x3
 5408 15ca 75       		.byte	0x75
 5409 15cb C000     		.sleb128 64
 5410 15cd 00       		.byte	0
ARM GAS  C:\Users\thoma\AppData\Local\Temp\ccRUrbHX.s 			page 109


 5411 15ce 00       		.byte	0
 5412 15cf 1C       		.uleb128 0x1c
 5413 15d0 2C000000 		.4byte	.LVL91
 5414 15d4 9F0C0000 		.4byte	0xc9f
 5415 15d8 F0150000 		.4byte	0x15f0
 5416 15dc 1D       		.uleb128 0x1d
 5417 15dd 01       		.uleb128 0x1
 5418 15de 50       		.byte	0x50
 5419 15df 02       		.uleb128 0x2
 5420 15e0 76       		.byte	0x76
 5421 15e1 00       		.sleb128 0
 5422 15e2 1D       		.uleb128 0x1d
 5423 15e3 01       		.uleb128 0x1
 5424 15e4 51       		.byte	0x51
 5425 15e5 03       		.uleb128 0x3
 5426 15e6 77       		.byte	0x77
 5427 15e7 C000     		.sleb128 64
 5428 15e9 1D       		.uleb128 0x1d
 5429 15ea 01       		.uleb128 0x1
 5430 15eb 52       		.byte	0x52
 5431 15ec 02       		.uleb128 0x2
 5432 15ed 79       		.byte	0x79
 5433 15ee 00       		.sleb128 0
 5434 15ef 00       		.byte	0
 5435 15f0 1C       		.uleb128 0x1c
 5436 15f1 36000000 		.4byte	.LVL92
 5437 15f5 EF260000 		.4byte	0x26ef
 5438 15f9 0D160000 		.4byte	0x160d
 5439 15fd 1D       		.uleb128 0x1d
 5440 15fe 01       		.uleb128 0x1
 5441 15ff 50       		.byte	0x50
 5442 1600 05       		.uleb128 0x5
 5443 1601 03       		.byte	0x3
 5444 1602 00000000 		.4byte	.LC0
 5445 1606 1D       		.uleb128 0x1d
 5446 1607 01       		.uleb128 0x1
 5447 1608 51       		.byte	0x51
 5448 1609 02       		.uleb128 0x2
 5449 160a 77       		.byte	0x77
 5450 160b 00       		.sleb128 0
 5451 160c 00       		.byte	0
 5452 160d 1C       		.uleb128 0x1c
 5453 160e 8A000000 		.4byte	.LVL101
 5454 1612 EF260000 		.4byte	0x26ef
 5455 1616 33160000 		.4byte	0x1633
 5456 161a 1D       		.uleb128 0x1d
 5457 161b 01       		.uleb128 0x1
 5458 161c 50       		.byte	0x50
 5459 161d 05       		.uleb128 0x5
 5460 161e 03       		.byte	0x3
 5461 161f 00000000 		.4byte	.LC0
 5462 1623 1D       		.uleb128 0x1d
 5463 1624 01       		.uleb128 0x1
 5464 1625 51       		.byte	0x51
 5465 1626 02       		.uleb128 0x2
 5466 1627 74       		.byte	0x74
 5467 1628 00       		.sleb128 0
ARM GAS  C:\Users\thoma\AppData\Local\Temp\ccRUrbHX.s 			page 110


 5468 1629 1D       		.uleb128 0x1d
 5469 162a 01       		.uleb128 0x1
 5470 162b 52       		.byte	0x52
 5471 162c 05       		.uleb128 0x5
 5472 162d 79       		.byte	0x79
 5473 162e 00       		.sleb128 0
 5474 162f 08       		.byte	0x8
 5475 1630 FF       		.byte	0xff
 5476 1631 1A       		.byte	0x1a
 5477 1632 00       		.byte	0
 5478 1633 1F       		.uleb128 0x1f
 5479 1634 9A000000 		.4byte	.LVL103
 5480 1638 9F0C0000 		.4byte	0xc9f
 5481 163c 1D       		.uleb128 0x1d
 5482 163d 01       		.uleb128 0x1
 5483 163e 50       		.byte	0x50
 5484 163f 02       		.uleb128 0x2
 5485 1640 76       		.byte	0x76
 5486 1641 00       		.sleb128 0
 5487 1642 1D       		.uleb128 0x1d
 5488 1643 01       		.uleb128 0x1
 5489 1644 51       		.byte	0x51
 5490 1645 02       		.uleb128 0x2
 5491 1646 77       		.byte	0x77
 5492 1647 3F       		.sleb128 63
 5493 1648 00       		.byte	0
 5494 1649 00       		.byte	0
 5495 164a 20       		.uleb128 0x20
 5496 164b 27000000 		.4byte	.LASF316
 5497 164f 01       		.byte	0x1
 5498 1650 F2       		.byte	0xf2
 5499 1651 28050000 		.4byte	0x528
 5500 1655 00000000 		.4byte	.LFB696
 5501 1659 02000000 		.4byte	.LFE696-.LFB696
 5502 165d 01       		.uleb128 0x1
 5503 165e 9C       		.byte	0x9c
 5504 165f 71160000 		.4byte	0x1671
 5505 1663 26       		.uleb128 0x26
 5506 1664 FC050000 		.4byte	.LASF280
 5507 1668 01       		.byte	0x1
 5508 1669 F2       		.byte	0xf2
 5509 166a 2C0D0000 		.4byte	0xd2c
 5510 166e 01       		.uleb128 0x1
 5511 166f 50       		.byte	0x50
 5512 1670 00       		.byte	0
 5513 1671 27       		.uleb128 0x27
 5514 1672 BE0C0000 		.4byte	.LASF317
 5515 1676 01       		.byte	0x1
 5516 1677 9F01     		.2byte	0x19f
 5517 1679 C6000000 		.4byte	0xc6
 5518 167d 00000000 		.4byte	.LFB705
 5519 1681 0A000000 		.4byte	.LFE705-.LFB705
 5520 1685 01       		.uleb128 0x1
 5521 1686 9C       		.byte	0x9c
 5522 1687 B2160000 		.4byte	0x16b2
 5523 168b 28       		.uleb128 0x28
 5524 168c FC050000 		.4byte	.LASF280
ARM GAS  C:\Users\thoma\AppData\Local\Temp\ccRUrbHX.s 			page 111


 5525 1690 01       		.byte	0x1
 5526 1691 9F01     		.2byte	0x19f
 5527 1693 2C0D0000 		.4byte	0xd2c
 5528 1697 57060000 		.4byte	.LLST45
 5529 169b 1F       		.uleb128 0x1f
 5530 169c 08000000 		.4byte	.LVL107
 5531 16a0 3A0F0000 		.4byte	0xf3a
 5532 16a4 1D       		.uleb128 0x1d
 5533 16a5 01       		.uleb128 0x1
 5534 16a6 50       		.byte	0x50
 5535 16a7 03       		.uleb128 0x3
 5536 16a8 F3       		.byte	0xf3
 5537 16a9 01       		.uleb128 0x1
 5538 16aa 50       		.byte	0x50
 5539 16ab 1D       		.uleb128 0x1d
 5540 16ac 01       		.uleb128 0x1
 5541 16ad 51       		.byte	0x51
 5542 16ae 01       		.uleb128 0x1
 5543 16af 31       		.byte	0x31
 5544 16b0 00       		.byte	0
 5545 16b1 00       		.byte	0
 5546 16b2 27       		.uleb128 0x27
 5547 16b3 0C0A0000 		.4byte	.LASF318
 5548 16b7 01       		.byte	0x1
 5549 16b8 A301     		.2byte	0x1a3
 5550 16ba C6000000 		.4byte	0xc6
 5551 16be 00000000 		.4byte	.LFB706
 5552 16c2 0A000000 		.4byte	.LFE706-.LFB706
 5553 16c6 01       		.uleb128 0x1
 5554 16c7 9C       		.byte	0x9c
 5555 16c8 F3160000 		.4byte	0x16f3
 5556 16cc 28       		.uleb128 0x28
 5557 16cd FC050000 		.4byte	.LASF280
 5558 16d1 01       		.byte	0x1
 5559 16d2 A301     		.2byte	0x1a3
 5560 16d4 2C0D0000 		.4byte	0xd2c
 5561 16d8 78060000 		.4byte	.LLST46
 5562 16dc 1F       		.uleb128 0x1f
 5563 16dd 08000000 		.4byte	.LVL109
 5564 16e1 3A0F0000 		.4byte	0xf3a
 5565 16e5 1D       		.uleb128 0x1d
 5566 16e6 01       		.uleb128 0x1
 5567 16e7 50       		.byte	0x50
 5568 16e8 03       		.uleb128 0x3
 5569 16e9 F3       		.byte	0xf3
 5570 16ea 01       		.uleb128 0x1
 5571 16eb 50       		.byte	0x50
 5572 16ec 1D       		.uleb128 0x1d
 5573 16ed 01       		.uleb128 0x1
 5574 16ee 51       		.byte	0x51
 5575 16ef 01       		.uleb128 0x1
 5576 16f0 32       		.byte	0x32
 5577 16f1 00       		.byte	0
 5578 16f2 00       		.byte	0
 5579 16f3 27       		.uleb128 0x27
 5580 16f4 AE160000 		.4byte	.LASF319
 5581 16f8 01       		.byte	0x1
ARM GAS  C:\Users\thoma\AppData\Local\Temp\ccRUrbHX.s 			page 112


 5582 16f9 A701     		.2byte	0x1a7
 5583 16fb C6000000 		.4byte	0xc6
 5584 16ff 00000000 		.4byte	.LFB707
 5585 1703 0A000000 		.4byte	.LFE707-.LFB707
 5586 1707 01       		.uleb128 0x1
 5587 1708 9C       		.byte	0x9c
 5588 1709 34170000 		.4byte	0x1734
 5589 170d 28       		.uleb128 0x28
 5590 170e FC050000 		.4byte	.LASF280
 5591 1712 01       		.byte	0x1
 5592 1713 A701     		.2byte	0x1a7
 5593 1715 2C0D0000 		.4byte	0xd2c
 5594 1719 99060000 		.4byte	.LLST47
 5595 171d 1F       		.uleb128 0x1f
 5596 171e 08000000 		.4byte	.LVL111
 5597 1722 3A0F0000 		.4byte	0xf3a
 5598 1726 1D       		.uleb128 0x1d
 5599 1727 01       		.uleb128 0x1
 5600 1728 50       		.byte	0x50
 5601 1729 03       		.uleb128 0x3
 5602 172a F3       		.byte	0xf3
 5603 172b 01       		.uleb128 0x1
 5604 172c 50       		.byte	0x50
 5605 172d 1D       		.uleb128 0x1d
 5606 172e 01       		.uleb128 0x1
 5607 172f 51       		.byte	0x51
 5608 1730 01       		.uleb128 0x1
 5609 1731 33       		.byte	0x33
 5610 1732 00       		.byte	0
 5611 1733 00       		.byte	0
 5612 1734 29       		.uleb128 0x29
 5613 1735 5C100000 		.4byte	.LASF320
 5614 1739 01       		.byte	0x1
 5615 173a AD01     		.2byte	0x1ad
 5616 173c DC000000 		.4byte	0xdc
 5617 1740 00000000 		.4byte	.LFB708
 5618 1744 1C010000 		.4byte	.LFE708-.LFB708
 5619 1748 01       		.uleb128 0x1
 5620 1749 9C       		.byte	0x9c
 5621 174a E1170000 		.4byte	0x17e1
 5622 174e 28       		.uleb128 0x28
 5623 174f 2A090000 		.4byte	.LASF155
 5624 1753 01       		.byte	0x1
 5625 1754 AD01     		.2byte	0x1ad
 5626 1756 25000000 		.4byte	0x25
 5627 175a BA060000 		.4byte	.LLST48
 5628 175e 2A       		.uleb128 0x2a
 5629 175f 360F0000 		.4byte	.LASF321
 5630 1763 01       		.byte	0x1
 5631 1764 AE01     		.2byte	0x1ae
 5632 1766 2C000000 		.4byte	0x2c
 5633 176a D9060000 		.4byte	.LLST49
 5634 176e 2A       		.uleb128 0x2a
 5635 176f BE010000 		.4byte	.LASF322
 5636 1773 01       		.byte	0x1
 5637 1774 AE01     		.2byte	0x1ae
 5638 1776 2C000000 		.4byte	0x2c
ARM GAS  C:\Users\thoma\AppData\Local\Temp\ccRUrbHX.s 			page 113


 5639 177a EC060000 		.4byte	.LLST50
 5640 177e 2A       		.uleb128 0x2a
 5641 177f 490F0000 		.4byte	.LASF323
 5642 1783 01       		.byte	0x1
 5643 1784 AE01     		.2byte	0x1ae
 5644 1786 2C000000 		.4byte	0x2c
 5645 178a 0A070000 		.4byte	.LLST51
 5646 178e 2A       		.uleb128 0x2a
 5647 178f CF010000 		.4byte	.LASF324
 5648 1793 01       		.byte	0x1
 5649 1794 AE01     		.2byte	0x1ae
 5650 1796 2C000000 		.4byte	0x2c
 5651 179a 28070000 		.4byte	.LLST52
 5652 179e 2A       		.uleb128 0x2a
 5653 179f 300E0000 		.4byte	.LASF325
 5654 17a3 01       		.byte	0x1
 5655 17a4 AE01     		.2byte	0x1ae
 5656 17a6 2C000000 		.4byte	0x2c
 5657 17aa 3B070000 		.4byte	.LLST53
 5658 17ae 2A       		.uleb128 0x2a
 5659 17af B2140000 		.4byte	.LASF326
 5660 17b3 01       		.byte	0x1
 5661 17b4 AF01     		.2byte	0x1af
 5662 17b6 2E050000 		.4byte	0x52e
 5663 17ba 5C070000 		.4byte	.LLST54
 5664 17be 2A       		.uleb128 0x2a
 5665 17bf 770B0000 		.4byte	.LASF327
 5666 17c3 01       		.byte	0x1
 5667 17c4 B001     		.2byte	0x1b0
 5668 17c6 25000000 		.4byte	0x25
 5669 17ca 93070000 		.4byte	.LLST55
 5670 17ce 1E       		.uleb128 0x1e
 5671 17cf 3A000000 		.4byte	.LVL120
 5672 17d3 FA260000 		.4byte	0x26fa
 5673 17d7 1E       		.uleb128 0x1e
 5674 17d8 66000000 		.4byte	.LVL126
 5675 17dc 05270000 		.4byte	0x2705
 5676 17e0 00       		.byte	0
 5677 17e1 29       		.uleb128 0x29
 5678 17e2 B3180000 		.4byte	.LASF328
 5679 17e6 01       		.byte	0x1
 5680 17e7 D201     		.2byte	0x1d2
 5681 17e9 25000000 		.4byte	0x25
 5682 17ed 00000000 		.4byte	.LFB709
 5683 17f1 70000000 		.4byte	.LFE709-.LFB709
 5684 17f5 01       		.uleb128 0x1
 5685 17f6 9C       		.byte	0x9c
 5686 17f7 85180000 		.4byte	0x1885
 5687 17fb 28       		.uleb128 0x28
 5688 17fc 2B010000 		.4byte	.LASF329
 5689 1800 01       		.byte	0x1
 5690 1801 D201     		.2byte	0x1d2
 5691 1803 DC000000 		.4byte	0xdc
 5692 1807 BD070000 		.4byte	.LLST56
 5693 180b 2A       		.uleb128 0x2a
 5694 180c 600F0000 		.4byte	.LASF330
 5695 1810 01       		.byte	0x1
ARM GAS  C:\Users\thoma\AppData\Local\Temp\ccRUrbHX.s 			page 114


 5696 1811 D301     		.2byte	0x1d3
 5697 1813 2E050000 		.4byte	0x52e
 5698 1817 E9070000 		.4byte	.LLST57
 5699 181b 2A       		.uleb128 0x2a
 5700 181c 30090000 		.4byte	.LASF331
 5701 1820 01       		.byte	0x1
 5702 1821 D401     		.2byte	0x1d4
 5703 1823 25000000 		.4byte	0x25
 5704 1827 08080000 		.4byte	.LLST58
 5705 182b 2A       		.uleb128 0x2a
 5706 182c 69130000 		.4byte	.LASF332
 5707 1830 01       		.byte	0x1
 5708 1831 D401     		.2byte	0x1d4
 5709 1833 25000000 		.4byte	0x25
 5710 1837 3E080000 		.4byte	.LLST59
 5711 183b 2A       		.uleb128 0x2a
 5712 183c 61140000 		.4byte	.LASF333
 5713 1840 01       		.byte	0x1
 5714 1841 D501     		.2byte	0x1d5
 5715 1843 B0000000 		.4byte	0xb0
 5716 1847 98080000 		.4byte	.LLST60
 5717 184b 2A       		.uleb128 0x2a
 5718 184c 58000000 		.4byte	.LASF334
 5719 1850 01       		.byte	0x1
 5720 1851 D601     		.2byte	0x1d6
 5721 1853 B0000000 		.4byte	0xb0
 5722 1857 D8080000 		.4byte	.LLST61
 5723 185b 2A       		.uleb128 0x2a
 5724 185c 67080000 		.4byte	.LASF335
 5725 1860 01       		.byte	0x1
 5726 1861 D701     		.2byte	0x1d7
 5727 1863 B0000000 		.4byte	0xb0
 5728 1867 01090000 		.4byte	.LLST62
 5729 186b 2A       		.uleb128 0x2a
 5730 186c 58050000 		.4byte	.LASF336
 5731 1870 01       		.byte	0x1
 5732 1871 D801     		.2byte	0x1d8
 5733 1873 B0000000 		.4byte	0xb0
 5734 1877 33090000 		.4byte	.LLST63
 5735 187b 1E       		.uleb128 0x1e
 5736 187c 2C000000 		.4byte	.LVL156
 5737 1880 05270000 		.4byte	0x2705
 5738 1884 00       		.byte	0
 5739 1885 27       		.uleb128 0x27
 5740 1886 4D190000 		.4byte	.LASF337
 5741 188a 01       		.byte	0x1
 5742 188b F201     		.2byte	0x1f2
 5743 188d 940C0000 		.4byte	0xc94
 5744 1891 00000000 		.4byte	.LFB711
 5745 1895 36000000 		.4byte	.LFE711-.LFB711
 5746 1899 01       		.uleb128 0x1
 5747 189a 9C       		.byte	0x9c
 5748 189b 15190000 		.4byte	0x1915
 5749 189f 28       		.uleb128 0x28
 5750 18a0 FC050000 		.4byte	.LASF280
 5751 18a4 01       		.byte	0x1
 5752 18a5 F201     		.2byte	0x1f2
ARM GAS  C:\Users\thoma\AppData\Local\Temp\ccRUrbHX.s 			page 115


 5753 18a7 2C0D0000 		.4byte	0xd2c
 5754 18ab 54090000 		.4byte	.LLST64
 5755 18af 2B       		.uleb128 0x2b
 5756 18b0 87010000 		.4byte	.LASF338
 5757 18b4 01       		.byte	0x1
 5758 18b5 F301     		.2byte	0x1f3
 5759 18b7 C6000000 		.4byte	0xc6
 5760 18bb 01       		.uleb128 0x1
 5761 18bc 54       		.byte	0x54
 5762 18bd 2A       		.uleb128 0x2a
 5763 18be 900E0000 		.4byte	.LASF339
 5764 18c2 01       		.byte	0x1
 5765 18c3 F401     		.2byte	0x1f4
 5766 18c5 C6000000 		.4byte	0xc6
 5767 18c9 72090000 		.4byte	.LLST65
 5768 18cd 2B       		.uleb128 0x2b
 5769 18ce 97070000 		.4byte	.LASF289
 5770 18d2 01       		.byte	0x1
 5771 18d3 F601     		.2byte	0x1f6
 5772 18d5 940C0000 		.4byte	0xc94
 5773 18d9 02       		.uleb128 0x2
 5774 18da 91       		.byte	0x91
 5775 18db 68       		.sleb128 -24
 5776 18dc 1C       		.uleb128 0x1c
 5777 18dd 0E000000 		.4byte	.LVL170
 5778 18e1 330E0000 		.4byte	0xe33
 5779 18e5 FA180000 		.4byte	0x18fa
 5780 18e9 1D       		.uleb128 0x1d
 5781 18ea 01       		.uleb128 0x1
 5782 18eb 50       		.byte	0x50
 5783 18ec 02       		.uleb128 0x2
 5784 18ed 75       		.byte	0x75
 5785 18ee 00       		.sleb128 0
 5786 18ef 1D       		.uleb128 0x1d
 5787 18f0 01       		.uleb128 0x1
 5788 18f1 51       		.byte	0x51
 5789 18f2 01       		.uleb128 0x1
 5790 18f3 3E       		.byte	0x3e
 5791 18f4 1D       		.uleb128 0x1d
 5792 18f5 01       		.uleb128 0x1
 5793 18f6 52       		.byte	0x52
 5794 18f7 01       		.uleb128 0x1
 5795 18f8 32       		.byte	0x32
 5796 18f9 00       		.byte	0
 5797 18fa 1F       		.uleb128 0x1f
 5798 18fb 1A000000 		.4byte	.LVL172
 5799 18ff 330E0000 		.4byte	0xe33
 5800 1903 1D       		.uleb128 0x1d
 5801 1904 01       		.uleb128 0x1
 5802 1905 50       		.byte	0x50
 5803 1906 02       		.uleb128 0x2
 5804 1907 75       		.byte	0x75
 5805 1908 00       		.sleb128 0
 5806 1909 1D       		.uleb128 0x1d
 5807 190a 01       		.uleb128 0x1
 5808 190b 51       		.byte	0x51
 5809 190c 01       		.uleb128 0x1
ARM GAS  C:\Users\thoma\AppData\Local\Temp\ccRUrbHX.s 			page 116


 5810 190d 42       		.byte	0x42
 5811 190e 1D       		.uleb128 0x1d
 5812 190f 01       		.uleb128 0x1
 5813 1910 52       		.byte	0x52
 5814 1911 01       		.uleb128 0x1
 5815 1912 32       		.byte	0x32
 5816 1913 00       		.byte	0
 5817 1914 00       		.byte	0
 5818 1915 27       		.uleb128 0x27
 5819 1916 9E070000 		.4byte	.LASF340
 5820 191a 01       		.byte	0x1
 5821 191b FD01     		.2byte	0x1fd
 5822 191d B0000000 		.4byte	0xb0
 5823 1921 00000000 		.4byte	.LFB712
 5824 1925 18000000 		.4byte	.LFE712-.LFB712
 5825 1929 01       		.uleb128 0x1
 5826 192a 9C       		.byte	0x9c
 5827 192b 64190000 		.4byte	0x1964
 5828 192f 28       		.uleb128 0x28
 5829 1930 12030000 		.4byte	.LASF273
 5830 1934 01       		.byte	0x1
 5831 1935 FD01     		.2byte	0x1fd
 5832 1937 28050000 		.4byte	0x528
 5833 193b 91090000 		.4byte	.LLST66
 5834 193f 2C       		.uleb128 0x2c
 5835 1940 73756D00 		.ascii	"sum\000"
 5836 1944 01       		.byte	0x1
 5837 1945 FE01     		.2byte	0x1fe
 5838 1947 B0000000 		.4byte	0xb0
 5839 194b B2090000 		.4byte	.LLST67
 5840 194f 2D       		.uleb128 0x2d
 5841 1950 30000000 		.4byte	.Ldebug_ranges0+0x30
 5842 1954 2C       		.uleb128 0x2c
 5843 1955 6900     		.ascii	"i\000"
 5844 1957 01       		.byte	0x1
 5845 1958 FF01     		.2byte	0x1ff
 5846 195a 2C000000 		.4byte	0x2c
 5847 195e DC090000 		.4byte	.LLST68
 5848 1962 00       		.byte	0
 5849 1963 00       		.byte	0
 5850 1964 19       		.uleb128 0x19
 5851 1965 AC110000 		.4byte	.LASF341
 5852 1969 01       		.byte	0x1
 5853 196a A6       		.byte	0xa6
 5854 196b 00000000 		.4byte	.LFB693
 5855 196f 30000000 		.4byte	.LFE693-.LFB693
 5856 1973 01       		.uleb128 0x1
 5857 1974 9C       		.byte	0x9c
 5858 1975 F9190000 		.4byte	0x19f9
 5859 1979 1A       		.uleb128 0x1a
 5860 197a FC050000 		.4byte	.LASF280
 5861 197e 01       		.byte	0x1
 5862 197f A6       		.byte	0xa6
 5863 1980 2C0D0000 		.4byte	0xd2c
 5864 1984 FB090000 		.4byte	.LLST69
 5865 1988 21       		.uleb128 0x21
 5866 1989 A7180000 		.4byte	.LASF342
ARM GAS  C:\Users\thoma\AppData\Local\Temp\ccRUrbHX.s 			page 117


 5867 198d 01       		.byte	0x1
 5868 198e A7       		.byte	0xa7
 5869 198f B0000000 		.4byte	0xb0
 5870 1993 270A0000 		.4byte	.LLST70
 5871 1997 1C       		.uleb128 0x1c
 5872 1998 08000000 		.4byte	.LVL181
 5873 199c 15190000 		.4byte	0x1915
 5874 19a0 AB190000 		.4byte	0x19ab
 5875 19a4 1D       		.uleb128 0x1d
 5876 19a5 01       		.uleb128 0x1
 5877 19a6 50       		.byte	0x50
 5878 19a7 02       		.uleb128 0x2
 5879 19a8 74       		.byte	0x74
 5880 19a9 00       		.sleb128 0
 5881 19aa 00       		.byte	0
 5882 19ab 1C       		.uleb128 0x1c
 5883 19ac 14000000 		.4byte	.LVL184
 5884 19b0 9F0C0000 		.4byte	0xc9f
 5885 19b4 CB190000 		.4byte	0x19cb
 5886 19b8 1D       		.uleb128 0x1d
 5887 19b9 01       		.uleb128 0x1
 5888 19ba 50       		.byte	0x50
 5889 19bb 02       		.uleb128 0x2
 5890 19bc 74       		.byte	0x74
 5891 19bd 00       		.sleb128 0
 5892 19be 1D       		.uleb128 0x1d
 5893 19bf 01       		.uleb128 0x1
 5894 19c0 51       		.byte	0x51
 5895 19c1 02       		.uleb128 0x2
 5896 19c2 08       		.byte	0x8
 5897 19c3 60       		.byte	0x60
 5898 19c4 1D       		.uleb128 0x1d
 5899 19c5 01       		.uleb128 0x1
 5900 19c6 52       		.byte	0x52
 5901 19c7 02       		.uleb128 0x2
 5902 19c8 75       		.byte	0x75
 5903 19c9 00       		.sleb128 0
 5904 19ca 00       		.byte	0
 5905 19cb 1C       		.uleb128 0x1c
 5906 19cc 24000000 		.4byte	.LVL185
 5907 19d0 EF260000 		.4byte	0x26ef
 5908 19d4 E8190000 		.4byte	0x19e8
 5909 19d8 1D       		.uleb128 0x1d
 5910 19d9 01       		.uleb128 0x1
 5911 19da 50       		.byte	0x50
 5912 19db 05       		.uleb128 0x5
 5913 19dc 03       		.byte	0x3
 5914 19dd 18000000 		.4byte	.LC1
 5915 19e1 1D       		.uleb128 0x1d
 5916 19e2 01       		.uleb128 0x1
 5917 19e3 53       		.byte	0x53
 5918 19e4 02       		.uleb128 0x2
 5919 19e5 75       		.byte	0x75
 5920 19e6 00       		.sleb128 0
 5921 19e7 00       		.byte	0
 5922 19e8 1F       		.uleb128 0x1f
 5923 19e9 2A000000 		.4byte	.LVL186
ARM GAS  C:\Users\thoma\AppData\Local\Temp\ccRUrbHX.s 			page 118


 5924 19ed E3260000 		.4byte	0x26e3
 5925 19f1 1D       		.uleb128 0x1d
 5926 19f2 01       		.uleb128 0x1
 5927 19f3 50       		.byte	0x50
 5928 19f4 02       		.uleb128 0x2
 5929 19f5 08       		.byte	0x8
 5930 19f6 32       		.byte	0x32
 5931 19f7 00       		.byte	0
 5932 19f8 00       		.byte	0
 5933 19f9 19       		.uleb128 0x19
 5934 19fa 06120000 		.4byte	.LASF343
 5935 19fe 01       		.byte	0x1
 5936 19ff B2       		.byte	0xb2
 5937 1a00 00000000 		.4byte	.LFB694
 5938 1a04 C0000000 		.4byte	.LFE694-.LFB694
 5939 1a08 01       		.uleb128 0x1
 5940 1a09 9C       		.byte	0x9c
 5941 1a0a C51B0000 		.4byte	0x1bc5
 5942 1a0e 1A       		.uleb128 0x1a
 5943 1a0f FC050000 		.4byte	.LASF280
 5944 1a13 01       		.byte	0x1
 5945 1a14 B2       		.byte	0xb2
 5946 1a15 2C0D0000 		.4byte	0xd2c
 5947 1a19 3A0A0000 		.4byte	.LLST71
 5948 1a1d 2E       		.uleb128 0x2e
 5949 1a1e 760F0000 		.4byte	.LASF281
 5950 1a22 01       		.byte	0x1
 5951 1a23 B3       		.byte	0xb3
 5952 1a24 21050000 		.4byte	0x521
 5953 1a28 40       		.byte	0x40
 5954 1a29 21       		.uleb128 0x21
 5955 1a2a BC0A0000 		.4byte	.LASF344
 5956 1a2e 01       		.byte	0x1
 5957 1a2f C8       		.byte	0xc8
 5958 1a30 B0000000 		.4byte	0xb0
 5959 1a34 660A0000 		.4byte	.LLST72
 5960 1a38 21       		.uleb128 0x21
 5961 1a39 90110000 		.4byte	.LASF345
 5962 1a3d 01       		.byte	0x1
 5963 1a3e C9       		.byte	0xc9
 5964 1a3f B0000000 		.4byte	0xb0
 5965 1a43 790A0000 		.4byte	.LLST73
 5966 1a47 22       		.uleb128 0x22
 5967 1a48 48000000 		.4byte	.Ldebug_ranges0+0x48
 5968 1a4c 671A0000 		.4byte	0x1a67
 5969 1a50 23       		.uleb128 0x23
 5970 1a51 6900     		.ascii	"i\000"
 5971 1a53 01       		.byte	0x1
 5972 1a54 C2       		.byte	0xc2
 5973 1a55 2C000000 		.4byte	0x2c
 5974 1a59 8C0A0000 		.4byte	.LLST74
 5975 1a5d 1E       		.uleb128 0x1e
 5976 1a5e 40000000 		.4byte	.LVL198
 5977 1a62 CD260000 		.4byte	0x26cd
 5978 1a66 00       		.byte	0
 5979 1a67 2F       		.uleb128 0x2f
 5980 1a68 7C000000 		.4byte	.LBB11
ARM GAS  C:\Users\thoma\AppData\Local\Temp\ccRUrbHX.s 			page 119


 5981 1a6c 12000000 		.4byte	.LBE11-.LBB11
 5982 1a70 971A0000 		.4byte	0x1a97
 5983 1a74 21       		.uleb128 0x21
 5984 1a75 C6090000 		.4byte	.LASF346
 5985 1a79 01       		.byte	0x1
 5986 1a7a D0       		.byte	0xd0
 5987 1a7b F3000000 		.4byte	0xf3
 5988 1a7f AA0A0000 		.4byte	.LLST75
 5989 1a83 1F       		.uleb128 0x1f
 5990 1a84 88000000 		.4byte	.LVL211
 5991 1a88 EF260000 		.4byte	0x26ef
 5992 1a8c 1D       		.uleb128 0x1d
 5993 1a8d 01       		.uleb128 0x1
 5994 1a8e 50       		.byte	0x50
 5995 1a8f 05       		.uleb128 0x5
 5996 1a90 03       		.byte	0x3
 5997 1a91 34010000 		.4byte	.LC6
 5998 1a95 00       		.byte	0
 5999 1a96 00       		.byte	0
 6000 1a97 1C       		.uleb128 0x1c
 6001 1a98 0C000000 		.4byte	.LVL191
 6002 1a9c AC260000 		.4byte	0x26ac
 6003 1aa0 B01A0000 		.4byte	0x1ab0
 6004 1aa4 1D       		.uleb128 0x1d
 6005 1aa5 01       		.uleb128 0x1
 6006 1aa6 50       		.byte	0x50
 6007 1aa7 02       		.uleb128 0x2
 6008 1aa8 09       		.byte	0x9
 6009 1aa9 AA       		.byte	0xaa
 6010 1aaa 1D       		.uleb128 0x1d
 6011 1aab 01       		.uleb128 0x1
 6012 1aac 51       		.byte	0x51
 6013 1aad 01       		.uleb128 0x1
 6014 1aae 30       		.byte	0x30
 6015 1aaf 00       		.byte	0
 6016 1ab0 1C       		.uleb128 0x1c
 6017 1ab1 14000000 		.4byte	.LVL192
 6018 1ab5 10270000 		.4byte	0x2710
 6019 1ab9 C71A0000 		.4byte	0x1ac7
 6020 1abd 1D       		.uleb128 0x1d
 6021 1abe 01       		.uleb128 0x1
 6022 1abf 50       		.byte	0x50
 6023 1ac0 05       		.uleb128 0x5
 6024 1ac1 03       		.byte	0x3
 6025 1ac2 50000000 		.4byte	.LC2
 6026 1ac6 00       		.byte	0
 6027 1ac7 1C       		.uleb128 0x1c
 6028 1ac8 1A000000 		.4byte	.LVL193
 6029 1acc B7260000 		.4byte	0x26b7
 6030 1ad0 DB1A0000 		.4byte	0x1adb
 6031 1ad4 1D       		.uleb128 0x1d
 6032 1ad5 01       		.uleb128 0x1
 6033 1ad6 50       		.byte	0x50
 6034 1ad7 02       		.uleb128 0x2
 6035 1ad8 08       		.byte	0x8
 6036 1ad9 40       		.byte	0x40
 6037 1ada 00       		.byte	0
ARM GAS  C:\Users\thoma\AppData\Local\Temp\ccRUrbHX.s 			page 120


 6038 1adb 1E       		.uleb128 0x1e
 6039 1adc 1E000000 		.4byte	.LVL194
 6040 1ae0 C2260000 		.4byte	0x26c2
 6041 1ae4 1C       		.uleb128 0x1c
 6042 1ae5 26000000 		.4byte	.LVL195
 6043 1ae9 AC260000 		.4byte	0x26ac
 6044 1aed FD1A0000 		.4byte	0x1afd
 6045 1af1 1D       		.uleb128 0x1d
 6046 1af2 01       		.uleb128 0x1
 6047 1af3 50       		.byte	0x50
 6048 1af4 02       		.uleb128 0x2
 6049 1af5 09       		.byte	0x9
 6050 1af6 AA       		.byte	0xaa
 6051 1af7 1D       		.uleb128 0x1d
 6052 1af8 01       		.uleb128 0x1
 6053 1af9 51       		.byte	0x51
 6054 1afa 01       		.uleb128 0x1
 6055 1afb 31       		.byte	0x31
 6056 1afc 00       		.byte	0
 6057 1afd 1C       		.uleb128 0x1c
 6058 1afe 30000000 		.4byte	.LVL196
 6059 1b02 10270000 		.4byte	0x2710
 6060 1b06 141B0000 		.4byte	0x1b14
 6061 1b0a 1D       		.uleb128 0x1d
 6062 1b0b 01       		.uleb128 0x1
 6063 1b0c 50       		.byte	0x50
 6064 1b0d 05       		.uleb128 0x5
 6065 1b0e 03       		.byte	0x3
 6066 1b0f 88000000 		.4byte	.LC3
 6067 1b13 00       		.byte	0
 6068 1b14 1E       		.uleb128 0x1e
 6069 1b15 50000000 		.4byte	.LVL202
 6070 1b19 C2260000 		.4byte	0x26c2
 6071 1b1d 1C       		.uleb128 0x1c
 6072 1b1e 5A000000 		.4byte	.LVL203
 6073 1b22 330E0000 		.4byte	0xe33
 6074 1b26 3C1B0000 		.4byte	0x1b3c
 6075 1b2a 1D       		.uleb128 0x1d
 6076 1b2b 01       		.uleb128 0x1
 6077 1b2c 50       		.byte	0x50
 6078 1b2d 02       		.uleb128 0x2
 6079 1b2e 75       		.byte	0x75
 6080 1b2f 00       		.sleb128 0
 6081 1b30 1D       		.uleb128 0x1d
 6082 1b31 01       		.uleb128 0x1
 6083 1b32 51       		.byte	0x51
 6084 1b33 02       		.uleb128 0x2
 6085 1b34 08       		.byte	0x8
 6086 1b35 60       		.byte	0x60
 6087 1b36 1D       		.uleb128 0x1d
 6088 1b37 01       		.uleb128 0x1
 6089 1b38 52       		.byte	0x52
 6090 1b39 01       		.uleb128 0x1
 6091 1b3a 31       		.byte	0x31
 6092 1b3b 00       		.byte	0
 6093 1b3c 1C       		.uleb128 0x1c
 6094 1b3d 64000000 		.4byte	.LVL205
ARM GAS  C:\Users\thoma\AppData\Local\Temp\ccRUrbHX.s 			page 121


 6095 1b41 15190000 		.4byte	0x1915
 6096 1b45 501B0000 		.4byte	0x1b50
 6097 1b49 1D       		.uleb128 0x1d
 6098 1b4a 01       		.uleb128 0x1
 6099 1b4b 50       		.byte	0x50
 6100 1b4c 02       		.uleb128 0x2
 6101 1b4d 75       		.byte	0x75
 6102 1b4e 00       		.sleb128 0
 6103 1b4f 00       		.byte	0
 6104 1b50 1C       		.uleb128 0x1c
 6105 1b51 6E000000 		.4byte	.LVL207
 6106 1b55 10270000 		.4byte	0x2710
 6107 1b59 671B0000 		.4byte	0x1b67
 6108 1b5d 1D       		.uleb128 0x1d
 6109 1b5e 01       		.uleb128 0x1
 6110 1b5f 50       		.byte	0x50
 6111 1b60 05       		.uleb128 0x5
 6112 1b61 03       		.byte	0x3
 6113 1b62 BC000000 		.4byte	.LC4
 6114 1b66 00       		.byte	0
 6115 1b67 1C       		.uleb128 0x1c
 6116 1b68 7C000000 		.4byte	.LVL208
 6117 1b6c EF260000 		.4byte	0x26ef
 6118 1b70 7E1B0000 		.4byte	0x1b7e
 6119 1b74 1D       		.uleb128 0x1d
 6120 1b75 01       		.uleb128 0x1
 6121 1b76 50       		.byte	0x50
 6122 1b77 05       		.uleb128 0x5
 6123 1b78 03       		.byte	0x3
 6124 1b79 14010000 		.4byte	.LC5
 6125 1b7d 00       		.byte	0
 6126 1b7e 1C       		.uleb128 0x1c
 6127 1b7f 94000000 		.4byte	.LVL213
 6128 1b83 10270000 		.4byte	0x2710
 6129 1b87 951B0000 		.4byte	0x1b95
 6130 1b8b 1D       		.uleb128 0x1d
 6131 1b8c 01       		.uleb128 0x1
 6132 1b8d 50       		.byte	0x50
 6133 1b8e 05       		.uleb128 0x5
 6134 1b8f 03       		.byte	0x3
 6135 1b90 3C010000 		.4byte	.LC7
 6136 1b94 00       		.byte	0
 6137 1b95 1C       		.uleb128 0x1c
 6138 1b96 9C000000 		.4byte	.LVL214
 6139 1b9a EF260000 		.4byte	0x26ef
 6140 1b9e B51B0000 		.4byte	0x1bb5
 6141 1ba2 1D       		.uleb128 0x1d
 6142 1ba3 01       		.uleb128 0x1
 6143 1ba4 50       		.byte	0x50
 6144 1ba5 05       		.uleb128 0x5
 6145 1ba6 03       		.byte	0x3
 6146 1ba7 40010000 		.4byte	.LC8
 6147 1bab 1D       		.uleb128 0x1d
 6148 1bac 01       		.uleb128 0x1
 6149 1bad 51       		.byte	0x51
 6150 1bae 05       		.uleb128 0x5
 6151 1baf 76       		.byte	0x76
ARM GAS  C:\Users\thoma\AppData\Local\Temp\ccRUrbHX.s 			page 122


 6152 1bb0 00       		.sleb128 0
 6153 1bb1 08       		.byte	0x8
 6154 1bb2 FF       		.byte	0xff
 6155 1bb3 1A       		.byte	0x1a
 6156 1bb4 00       		.byte	0
 6157 1bb5 1F       		.uleb128 0x1f
 6158 1bb6 A2000000 		.4byte	.LVL215
 6159 1bba E3260000 		.4byte	0x26e3
 6160 1bbe 1D       		.uleb128 0x1d
 6161 1bbf 01       		.uleb128 0x1
 6162 1bc0 50       		.byte	0x50
 6163 1bc1 01       		.uleb128 0x1
 6164 1bc2 3A       		.byte	0x3a
 6165 1bc3 00       		.byte	0
 6166 1bc4 00       		.byte	0
 6167 1bc5 19       		.uleb128 0x19
 6168 1bc6 F0020000 		.4byte	.LASF347
 6169 1bca 01       		.byte	0x1
 6170 1bcb F7       		.byte	0xf7
 6171 1bcc 00000000 		.4byte	.LFB697
 6172 1bd0 3E000000 		.4byte	.LFE697-.LFB697
 6173 1bd4 01       		.uleb128 0x1
 6174 1bd5 9C       		.byte	0x9c
 6175 1bd6 8C1C0000 		.4byte	0x1c8c
 6176 1bda 1A       		.uleb128 0x1a
 6177 1bdb FC050000 		.4byte	.LASF280
 6178 1bdf 01       		.byte	0x1
 6179 1be0 F7       		.byte	0xf7
 6180 1be1 2C0D0000 		.4byte	0xd2c
 6181 1be5 C90A0000 		.4byte	.LLST76
 6182 1be9 1C       		.uleb128 0x1c
 6183 1bea 0C000000 		.4byte	.LVL218
 6184 1bee 31140000 		.4byte	0x1431
 6185 1bf2 081C0000 		.4byte	0x1c08
 6186 1bf6 1D       		.uleb128 0x1d
 6187 1bf7 01       		.uleb128 0x1
 6188 1bf8 50       		.byte	0x50
 6189 1bf9 02       		.uleb128 0x2
 6190 1bfa 74       		.byte	0x74
 6191 1bfb 00       		.sleb128 0
 6192 1bfc 1D       		.uleb128 0x1d
 6193 1bfd 01       		.uleb128 0x1
 6194 1bfe 51       		.byte	0x51
 6195 1bff 02       		.uleb128 0x2
 6196 1c00 08       		.byte	0x8
 6197 1c01 30       		.byte	0x30
 6198 1c02 1D       		.uleb128 0x1d
 6199 1c03 01       		.uleb128 0x1
 6200 1c04 52       		.byte	0x52
 6201 1c05 01       		.uleb128 0x1
 6202 1c06 30       		.byte	0x30
 6203 1c07 00       		.byte	0
 6204 1c08 1C       		.uleb128 0x1c
 6205 1c09 12000000 		.4byte	.LVL219
 6206 1c0d F9190000 		.4byte	0x19f9
 6207 1c11 1C1C0000 		.4byte	0x1c1c
 6208 1c15 1D       		.uleb128 0x1d
ARM GAS  C:\Users\thoma\AppData\Local\Temp\ccRUrbHX.s 			page 123


 6209 1c16 01       		.uleb128 0x1
 6210 1c17 50       		.byte	0x50
 6211 1c18 02       		.uleb128 0x2
 6212 1c19 74       		.byte	0x74
 6213 1c1a 00       		.sleb128 0
 6214 1c1b 00       		.byte	0
 6215 1c1c 1C       		.uleb128 0x1c
 6216 1c1d 20000000 		.4byte	.LVL220
 6217 1c21 21150000 		.4byte	0x1521
 6218 1c25 411C0000 		.4byte	0x1c41
 6219 1c29 1D       		.uleb128 0x1d
 6220 1c2a 01       		.uleb128 0x1
 6221 1c2b 50       		.byte	0x50
 6222 1c2c 02       		.uleb128 0x2
 6223 1c2d 74       		.byte	0x74
 6224 1c2e 00       		.sleb128 0
 6225 1c2f 1D       		.uleb128 0x1d
 6226 1c30 01       		.uleb128 0x1
 6227 1c31 51       		.byte	0x51
 6228 1c32 01       		.uleb128 0x1
 6229 1c33 3B       		.byte	0x3b
 6230 1c34 1D       		.uleb128 0x1d
 6231 1c35 01       		.uleb128 0x1
 6232 1c36 52       		.byte	0x52
 6233 1c37 03       		.uleb128 0x3
 6234 1c38 0A       		.byte	0xa
 6235 1c39 7805     		.2byte	0x578
 6236 1c3b 1D       		.uleb128 0x1d
 6237 1c3c 01       		.uleb128 0x1
 6238 1c3d 53       		.byte	0x53
 6239 1c3e 01       		.uleb128 0x1
 6240 1c3f 32       		.byte	0x32
 6241 1c40 00       		.byte	0
 6242 1c41 1C       		.uleb128 0x1c
 6243 1c42 2E000000 		.4byte	.LVL221
 6244 1c46 21150000 		.4byte	0x1521
 6245 1c4a 661C0000 		.4byte	0x1c66
 6246 1c4e 1D       		.uleb128 0x1d
 6247 1c4f 01       		.uleb128 0x1
 6248 1c50 50       		.byte	0x50
 6249 1c51 02       		.uleb128 0x2
 6250 1c52 74       		.byte	0x74
 6251 1c53 00       		.sleb128 0
 6252 1c54 1D       		.uleb128 0x1d
 6253 1c55 01       		.uleb128 0x1
 6254 1c56 51       		.byte	0x51
 6255 1c57 01       		.uleb128 0x1
 6256 1c58 3D       		.byte	0x3d
 6257 1c59 1D       		.uleb128 0x1d
 6258 1c5a 01       		.uleb128 0x1
 6259 1c5b 52       		.byte	0x52
 6260 1c5c 03       		.uleb128 0x3
 6261 1c5d 0A       		.byte	0xa
 6262 1c5e 3C14     		.2byte	0x143c
 6263 1c60 1D       		.uleb128 0x1d
 6264 1c61 01       		.uleb128 0x1
 6265 1c62 53       		.byte	0x53
ARM GAS  C:\Users\thoma\AppData\Local\Temp\ccRUrbHX.s 			page 124


 6266 1c63 01       		.uleb128 0x1
 6267 1c64 32       		.byte	0x32
 6268 1c65 00       		.byte	0
 6269 1c66 1C       		.uleb128 0x1c
 6270 1c67 34000000 		.4byte	.LVL222
 6271 1c6b 64190000 		.4byte	0x1964
 6272 1c6f 7A1C0000 		.4byte	0x1c7a
 6273 1c73 1D       		.uleb128 0x1d
 6274 1c74 01       		.uleb128 0x1
 6275 1c75 50       		.byte	0x50
 6276 1c76 02       		.uleb128 0x2
 6277 1c77 74       		.byte	0x74
 6278 1c78 00       		.sleb128 0
 6279 1c79 00       		.byte	0
 6280 1c7a 1F       		.uleb128 0x1f
 6281 1c7b 3C000000 		.4byte	.LVL223
 6282 1c7f E3260000 		.4byte	0x26e3
 6283 1c83 1D       		.uleb128 0x1d
 6284 1c84 01       		.uleb128 0x1
 6285 1c85 50       		.byte	0x50
 6286 1c86 03       		.uleb128 0x3
 6287 1c87 0A       		.byte	0xa
 6288 1c88 2C01     		.2byte	0x12c
 6289 1c8a 00       		.byte	0
 6290 1c8b 00       		.byte	0
 6291 1c8c 30       		.uleb128 0x30
 6292 1c8d 990D0000 		.4byte	.LASF348
 6293 1c91 01       		.byte	0x1
 6294 1c92 0101     		.2byte	0x101
 6295 1c94 00000000 		.4byte	.LFB698
 6296 1c98 6C000000 		.4byte	.LFE698-.LFB698
 6297 1c9c 01       		.uleb128 0x1
 6298 1c9d 9C       		.byte	0x9c
 6299 1c9e E01D0000 		.4byte	0x1de0
 6300 1ca2 28       		.uleb128 0x28
 6301 1ca3 FC050000 		.4byte	.LASF280
 6302 1ca7 01       		.byte	0x1
 6303 1ca8 0101     		.2byte	0x101
 6304 1caa 2C0D0000 		.4byte	0xd2c
 6305 1cae E70A0000 		.4byte	.LLST77
 6306 1cb2 2A       		.uleb128 0x2a
 6307 1cb3 ED140000 		.4byte	.LASF349
 6308 1cb7 01       		.byte	0x1
 6309 1cb8 0501     		.2byte	0x105
 6310 1cba B0000000 		.4byte	0xb0
 6311 1cbe 050B0000 		.4byte	.LLST78
 6312 1cc2 2B       		.uleb128 0x2b
 6313 1cc3 C9150000 		.4byte	.LASF350
 6314 1cc7 01       		.byte	0x1
 6315 1cc8 0601     		.2byte	0x106
 6316 1cca B0000000 		.4byte	0xb0
 6317 1cce 01       		.uleb128 0x1
 6318 1ccf 55       		.byte	0x55
 6319 1cd0 2A       		.uleb128 0x2a
 6320 1cd1 15080000 		.4byte	.LASF351
 6321 1cd5 01       		.byte	0x1
 6322 1cd6 1301     		.2byte	0x113
ARM GAS  C:\Users\thoma\AppData\Local\Temp\ccRUrbHX.s 			page 125


 6323 1cd8 B0000000 		.4byte	0xb0
 6324 1cdc 3D0B0000 		.4byte	.LLST79
 6325 1ce0 1C       		.uleb128 0x1c
 6326 1ce1 0C000000 		.4byte	.LVL225
 6327 1ce5 31140000 		.4byte	0x1431
 6328 1ce9 FF1C0000 		.4byte	0x1cff
 6329 1ced 1D       		.uleb128 0x1d
 6330 1cee 01       		.uleb128 0x1
 6331 1cef 50       		.byte	0x50
 6332 1cf0 02       		.uleb128 0x2
 6333 1cf1 74       		.byte	0x74
 6334 1cf2 00       		.sleb128 0
 6335 1cf3 1D       		.uleb128 0x1d
 6336 1cf4 01       		.uleb128 0x1
 6337 1cf5 51       		.byte	0x51
 6338 1cf6 02       		.uleb128 0x2
 6339 1cf7 08       		.byte	0x8
 6340 1cf8 40       		.byte	0x40
 6341 1cf9 1D       		.uleb128 0x1d
 6342 1cfa 01       		.uleb128 0x1
 6343 1cfb 52       		.byte	0x52
 6344 1cfc 01       		.uleb128 0x1
 6345 1cfd 30       		.byte	0x30
 6346 1cfe 00       		.byte	0
 6347 1cff 1C       		.uleb128 0x1c
 6348 1d00 12000000 		.4byte	.LVL226
 6349 1d04 F9190000 		.4byte	0x19f9
 6350 1d08 131D0000 		.4byte	0x1d13
 6351 1d0c 1D       		.uleb128 0x1d
 6352 1d0d 01       		.uleb128 0x1
 6353 1d0e 50       		.byte	0x50
 6354 1d0f 02       		.uleb128 0x2
 6355 1d10 74       		.byte	0x74
 6356 1d11 00       		.sleb128 0
 6357 1d12 00       		.byte	0
 6358 1d13 1C       		.uleb128 0x1c
 6359 1d14 28000000 		.4byte	.LVL231
 6360 1d18 21150000 		.4byte	0x1521
 6361 1d1c 311D0000 		.4byte	0x1d31
 6362 1d20 1D       		.uleb128 0x1d
 6363 1d21 01       		.uleb128 0x1
 6364 1d22 50       		.byte	0x50
 6365 1d23 02       		.uleb128 0x2
 6366 1d24 74       		.byte	0x74
 6367 1d25 00       		.sleb128 0
 6368 1d26 1D       		.uleb128 0x1d
 6369 1d27 01       		.uleb128 0x1
 6370 1d28 51       		.byte	0x51
 6371 1d29 01       		.uleb128 0x1
 6372 1d2a 30       		.byte	0x30
 6373 1d2b 1D       		.uleb128 0x1d
 6374 1d2c 01       		.uleb128 0x1
 6375 1d2d 53       		.byte	0x53
 6376 1d2e 01       		.uleb128 0x1
 6377 1d2f 31       		.byte	0x31
 6378 1d30 00       		.byte	0
 6379 1d31 1C       		.uleb128 0x1c
ARM GAS  C:\Users\thoma\AppData\Local\Temp\ccRUrbHX.s 			page 126


 6380 1d32 34000000 		.4byte	.LVL232
 6381 1d36 21150000 		.4byte	0x1521
 6382 1d3a 551D0000 		.4byte	0x1d55
 6383 1d3e 1D       		.uleb128 0x1d
 6384 1d3f 01       		.uleb128 0x1
 6385 1d40 50       		.byte	0x50
 6386 1d41 02       		.uleb128 0x2
 6387 1d42 74       		.byte	0x74
 6388 1d43 00       		.sleb128 0
 6389 1d44 1D       		.uleb128 0x1d
 6390 1d45 01       		.uleb128 0x1
 6391 1d46 51       		.byte	0x51
 6392 1d47 01       		.uleb128 0x1
 6393 1d48 31       		.byte	0x31
 6394 1d49 1D       		.uleb128 0x1d
 6395 1d4a 01       		.uleb128 0x1
 6396 1d4b 52       		.byte	0x52
 6397 1d4c 02       		.uleb128 0x2
 6398 1d4d 75       		.byte	0x75
 6399 1d4e 00       		.sleb128 0
 6400 1d4f 1D       		.uleb128 0x1d
 6401 1d50 01       		.uleb128 0x1
 6402 1d51 53       		.byte	0x53
 6403 1d52 01       		.uleb128 0x1
 6404 1d53 31       		.byte	0x31
 6405 1d54 00       		.byte	0
 6406 1d55 1C       		.uleb128 0x1c
 6407 1d56 44000000 		.4byte	.LVL235
 6408 1d5a 21150000 		.4byte	0x1521
 6409 1d5e 731D0000 		.4byte	0x1d73
 6410 1d62 1D       		.uleb128 0x1d
 6411 1d63 01       		.uleb128 0x1
 6412 1d64 50       		.byte	0x50
 6413 1d65 02       		.uleb128 0x2
 6414 1d66 74       		.byte	0x74
 6415 1d67 00       		.sleb128 0
 6416 1d68 1D       		.uleb128 0x1d
 6417 1d69 01       		.uleb128 0x1
 6418 1d6a 51       		.byte	0x51
 6419 1d6b 01       		.uleb128 0x1
 6420 1d6c 32       		.byte	0x32
 6421 1d6d 1D       		.uleb128 0x1d
 6422 1d6e 01       		.uleb128 0x1
 6423 1d6f 53       		.byte	0x53
 6424 1d70 01       		.uleb128 0x1
 6425 1d71 31       		.byte	0x31
 6426 1d72 00       		.byte	0
 6427 1d73 1C       		.uleb128 0x1c
 6428 1d74 50000000 		.4byte	.LVL236
 6429 1d78 21150000 		.4byte	0x1521
 6430 1d7c 971D0000 		.4byte	0x1d97
 6431 1d80 1D       		.uleb128 0x1d
 6432 1d81 01       		.uleb128 0x1
 6433 1d82 50       		.byte	0x50
 6434 1d83 02       		.uleb128 0x2
 6435 1d84 74       		.byte	0x74
 6436 1d85 00       		.sleb128 0
ARM GAS  C:\Users\thoma\AppData\Local\Temp\ccRUrbHX.s 			page 127


 6437 1d86 1D       		.uleb128 0x1d
 6438 1d87 01       		.uleb128 0x1
 6439 1d88 51       		.byte	0x51
 6440 1d89 01       		.uleb128 0x1
 6441 1d8a 34       		.byte	0x34
 6442 1d8b 1D       		.uleb128 0x1d
 6443 1d8c 01       		.uleb128 0x1
 6444 1d8d 52       		.byte	0x52
 6445 1d8e 02       		.uleb128 0x2
 6446 1d8f 08       		.byte	0x8
 6447 1d90 4B       		.byte	0x4b
 6448 1d91 1D       		.uleb128 0x1d
 6449 1d92 01       		.uleb128 0x1
 6450 1d93 53       		.byte	0x53
 6451 1d94 01       		.uleb128 0x1
 6452 1d95 31       		.byte	0x31
 6453 1d96 00       		.byte	0
 6454 1d97 1C       		.uleb128 0x1c
 6455 1d98 5C000000 		.4byte	.LVL237
 6456 1d9c 21150000 		.4byte	0x1521
 6457 1da0 BA1D0000 		.4byte	0x1dba
 6458 1da4 1D       		.uleb128 0x1d
 6459 1da5 01       		.uleb128 0x1
 6460 1da6 50       		.byte	0x50
 6461 1da7 02       		.uleb128 0x2
 6462 1da8 74       		.byte	0x74
 6463 1da9 00       		.sleb128 0
 6464 1daa 1D       		.uleb128 0x1d
 6465 1dab 01       		.uleb128 0x1
 6466 1dac 51       		.byte	0x51
 6467 1dad 01       		.uleb128 0x1
 6468 1dae 37       		.byte	0x37
 6469 1daf 1D       		.uleb128 0x1d
 6470 1db0 01       		.uleb128 0x1
 6471 1db1 52       		.byte	0x52
 6472 1db2 01       		.uleb128 0x1
 6473 1db3 34       		.byte	0x34
 6474 1db4 1D       		.uleb128 0x1d
 6475 1db5 01       		.uleb128 0x1
 6476 1db6 53       		.byte	0x53
 6477 1db7 01       		.uleb128 0x1
 6478 1db8 31       		.byte	0x31
 6479 1db9 00       		.byte	0
 6480 1dba 1C       		.uleb128 0x1c
 6481 1dbb 62000000 		.4byte	.LVL238
 6482 1dbf 64190000 		.4byte	0x1964
 6483 1dc3 CE1D0000 		.4byte	0x1dce
 6484 1dc7 1D       		.uleb128 0x1d
 6485 1dc8 01       		.uleb128 0x1
 6486 1dc9 50       		.byte	0x50
 6487 1dca 02       		.uleb128 0x2
 6488 1dcb 74       		.byte	0x74
 6489 1dcc 00       		.sleb128 0
 6490 1dcd 00       		.byte	0
 6491 1dce 1F       		.uleb128 0x1f
 6492 1dcf 6A000000 		.4byte	.LVL239
 6493 1dd3 E3260000 		.4byte	0x26e3
ARM GAS  C:\Users\thoma\AppData\Local\Temp\ccRUrbHX.s 			page 128


 6494 1dd7 1D       		.uleb128 0x1d
 6495 1dd8 01       		.uleb128 0x1
 6496 1dd9 50       		.byte	0x50
 6497 1dda 03       		.uleb128 0x3
 6498 1ddb 0A       		.byte	0xa
 6499 1ddc 2C01     		.2byte	0x12c
 6500 1dde 00       		.byte	0
 6501 1ddf 00       		.byte	0
 6502 1de0 30       		.uleb128 0x30
 6503 1de1 EE0A0000 		.4byte	.LASF352
 6504 1de5 01       		.byte	0x1
 6505 1de6 1E01     		.2byte	0x11e
 6506 1de8 00000000 		.4byte	.LFB699
 6507 1dec 72000000 		.4byte	.LFE699-.LFB699
 6508 1df0 01       		.uleb128 0x1
 6509 1df1 9C       		.byte	0x9c
 6510 1df2 4B1F0000 		.4byte	0x1f4b
 6511 1df6 28       		.uleb128 0x28
 6512 1df7 FC050000 		.4byte	.LASF280
 6513 1dfb 01       		.byte	0x1
 6514 1dfc 1E01     		.2byte	0x11e
 6515 1dfe 2C0D0000 		.4byte	0xd2c
 6516 1e02 670B0000 		.4byte	.LLST80
 6517 1e06 1C       		.uleb128 0x1c
 6518 1e07 0C000000 		.4byte	.LVL241
 6519 1e0b 31140000 		.4byte	0x1431
 6520 1e0f 251E0000 		.4byte	0x1e25
 6521 1e13 1D       		.uleb128 0x1d
 6522 1e14 01       		.uleb128 0x1
 6523 1e15 50       		.byte	0x50
 6524 1e16 02       		.uleb128 0x2
 6525 1e17 74       		.byte	0x74
 6526 1e18 00       		.sleb128 0
 6527 1e19 1D       		.uleb128 0x1d
 6528 1e1a 01       		.uleb128 0x1
 6529 1e1b 51       		.byte	0x51
 6530 1e1c 02       		.uleb128 0x2
 6531 1e1d 08       		.byte	0x8
 6532 1e1e 50       		.byte	0x50
 6533 1e1f 1D       		.uleb128 0x1d
 6534 1e20 01       		.uleb128 0x1
 6535 1e21 52       		.byte	0x52
 6536 1e22 01       		.uleb128 0x1
 6537 1e23 30       		.byte	0x30
 6538 1e24 00       		.byte	0
 6539 1e25 1C       		.uleb128 0x1c
 6540 1e26 12000000 		.4byte	.LVL242
 6541 1e2a F9190000 		.4byte	0x19f9
 6542 1e2e 391E0000 		.4byte	0x1e39
 6543 1e32 1D       		.uleb128 0x1d
 6544 1e33 01       		.uleb128 0x1
 6545 1e34 50       		.byte	0x50
 6546 1e35 02       		.uleb128 0x2
 6547 1e36 74       		.byte	0x74
 6548 1e37 00       		.sleb128 0
 6549 1e38 00       		.byte	0
 6550 1e39 1C       		.uleb128 0x1c
ARM GAS  C:\Users\thoma\AppData\Local\Temp\ccRUrbHX.s 			page 129


 6551 1e3a 1E000000 		.4byte	.LVL243
 6552 1e3e 21150000 		.4byte	0x1521
 6553 1e42 5C1E0000 		.4byte	0x1e5c
 6554 1e46 1D       		.uleb128 0x1d
 6555 1e47 01       		.uleb128 0x1
 6556 1e48 50       		.byte	0x50
 6557 1e49 02       		.uleb128 0x2
 6558 1e4a 74       		.byte	0x74
 6559 1e4b 00       		.sleb128 0
 6560 1e4c 1D       		.uleb128 0x1d
 6561 1e4d 01       		.uleb128 0x1
 6562 1e4e 51       		.byte	0x51
 6563 1e4f 01       		.uleb128 0x1
 6564 1e50 30       		.byte	0x30
 6565 1e51 1D       		.uleb128 0x1d
 6566 1e52 01       		.uleb128 0x1
 6567 1e53 52       		.byte	0x52
 6568 1e54 01       		.uleb128 0x1
 6569 1e55 31       		.byte	0x31
 6570 1e56 1D       		.uleb128 0x1d
 6571 1e57 01       		.uleb128 0x1
 6572 1e58 53       		.byte	0x53
 6573 1e59 01       		.uleb128 0x1
 6574 1e5a 31       		.byte	0x31
 6575 1e5b 00       		.byte	0
 6576 1e5c 1C       		.uleb128 0x1c
 6577 1e5d 2A000000 		.4byte	.LVL244
 6578 1e61 21150000 		.4byte	0x1521
 6579 1e65 7F1E0000 		.4byte	0x1e7f
 6580 1e69 1D       		.uleb128 0x1d
 6581 1e6a 01       		.uleb128 0x1
 6582 1e6b 50       		.byte	0x50
 6583 1e6c 02       		.uleb128 0x2
 6584 1e6d 74       		.byte	0x74
 6585 1e6e 00       		.sleb128 0
 6586 1e6f 1D       		.uleb128 0x1d
 6587 1e70 01       		.uleb128 0x1
 6588 1e71 51       		.byte	0x51
 6589 1e72 01       		.uleb128 0x1
 6590 1e73 31       		.byte	0x31
 6591 1e74 1D       		.uleb128 0x1d
 6592 1e75 01       		.uleb128 0x1
 6593 1e76 52       		.byte	0x52
 6594 1e77 01       		.uleb128 0x1
 6595 1e78 30       		.byte	0x30
 6596 1e79 1D       		.uleb128 0x1d
 6597 1e7a 01       		.uleb128 0x1
 6598 1e7b 53       		.byte	0x53
 6599 1e7c 01       		.uleb128 0x1
 6600 1e7d 31       		.byte	0x31
 6601 1e7e 00       		.byte	0
 6602 1e7f 1C       		.uleb128 0x1c
 6603 1e80 36000000 		.4byte	.LVL245
 6604 1e84 21150000 		.4byte	0x1521
 6605 1e88 A21E0000 		.4byte	0x1ea2
 6606 1e8c 1D       		.uleb128 0x1d
 6607 1e8d 01       		.uleb128 0x1
ARM GAS  C:\Users\thoma\AppData\Local\Temp\ccRUrbHX.s 			page 130


 6608 1e8e 50       		.byte	0x50
 6609 1e8f 02       		.uleb128 0x2
 6610 1e90 74       		.byte	0x74
 6611 1e91 00       		.sleb128 0
 6612 1e92 1D       		.uleb128 0x1d
 6613 1e93 01       		.uleb128 0x1
 6614 1e94 51       		.byte	0x51
 6615 1e95 01       		.uleb128 0x1
 6616 1e96 3A       		.byte	0x3a
 6617 1e97 1D       		.uleb128 0x1d
 6618 1e98 01       		.uleb128 0x1
 6619 1e99 52       		.byte	0x52
 6620 1e9a 01       		.uleb128 0x1
 6621 1e9b 3A       		.byte	0x3a
 6622 1e9c 1D       		.uleb128 0x1d
 6623 1e9d 01       		.uleb128 0x1
 6624 1e9e 53       		.byte	0x53
 6625 1e9f 01       		.uleb128 0x1
 6626 1ea0 32       		.byte	0x32
 6627 1ea1 00       		.byte	0
 6628 1ea2 1C       		.uleb128 0x1c
 6629 1ea3 3C000000 		.4byte	.LVL246
 6630 1ea7 64190000 		.4byte	0x1964
 6631 1eab B61E0000 		.4byte	0x1eb6
 6632 1eaf 1D       		.uleb128 0x1d
 6633 1eb0 01       		.uleb128 0x1
 6634 1eb1 50       		.byte	0x50
 6635 1eb2 02       		.uleb128 0x2
 6636 1eb3 74       		.byte	0x74
 6637 1eb4 00       		.sleb128 0
 6638 1eb5 00       		.byte	0
 6639 1eb6 1C       		.uleb128 0x1c
 6640 1eb7 44000000 		.4byte	.LVL247
 6641 1ebb E3260000 		.4byte	0x26e3
 6642 1ebf CB1E0000 		.4byte	0x1ecb
 6643 1ec3 1D       		.uleb128 0x1d
 6644 1ec4 01       		.uleb128 0x1
 6645 1ec5 50       		.byte	0x50
 6646 1ec6 03       		.uleb128 0x3
 6647 1ec7 0A       		.byte	0xa
 6648 1ec8 2C01     		.2byte	0x12c
 6649 1eca 00       		.byte	0
 6650 1ecb 1C       		.uleb128 0x1c
 6651 1ecc 4E000000 		.4byte	.LVL248
 6652 1ed0 31140000 		.4byte	0x1431
 6653 1ed4 EB1E0000 		.4byte	0x1eeb
 6654 1ed8 1D       		.uleb128 0x1d
 6655 1ed9 01       		.uleb128 0x1
 6656 1eda 50       		.byte	0x50
 6657 1edb 02       		.uleb128 0x2
 6658 1edc 74       		.byte	0x74
 6659 1edd 00       		.sleb128 0
 6660 1ede 1D       		.uleb128 0x1d
 6661 1edf 01       		.uleb128 0x1
 6662 1ee0 51       		.byte	0x51
 6663 1ee1 02       		.uleb128 0x2
 6664 1ee2 08       		.byte	0x8
ARM GAS  C:\Users\thoma\AppData\Local\Temp\ccRUrbHX.s 			page 131


 6665 1ee3 50       		.byte	0x50
 6666 1ee4 1D       		.uleb128 0x1d
 6667 1ee5 01       		.uleb128 0x1
 6668 1ee6 52       		.byte	0x52
 6669 1ee7 02       		.uleb128 0x2
 6670 1ee8 08       		.byte	0x8
 6671 1ee9 35       		.byte	0x35
 6672 1eea 00       		.byte	0
 6673 1eeb 1C       		.uleb128 0x1c
 6674 1eec 54000000 		.4byte	.LVL249
 6675 1ef0 F9190000 		.4byte	0x19f9
 6676 1ef4 FF1E0000 		.4byte	0x1eff
 6677 1ef8 1D       		.uleb128 0x1d
 6678 1ef9 01       		.uleb128 0x1
 6679 1efa 50       		.byte	0x50
 6680 1efb 02       		.uleb128 0x2
 6681 1efc 74       		.byte	0x74
 6682 1efd 00       		.sleb128 0
 6683 1efe 00       		.byte	0
 6684 1eff 1C       		.uleb128 0x1c
 6685 1f00 62000000 		.4byte	.LVL250
 6686 1f04 21150000 		.4byte	0x1521
 6687 1f08 251F0000 		.4byte	0x1f25
 6688 1f0c 1D       		.uleb128 0x1d
 6689 1f0d 01       		.uleb128 0x1
 6690 1f0e 50       		.byte	0x50
 6691 1f0f 02       		.uleb128 0x2
 6692 1f10 74       		.byte	0x74
 6693 1f11 00       		.sleb128 0
 6694 1f12 1D       		.uleb128 0x1d
 6695 1f13 01       		.uleb128 0x1
 6696 1f14 51       		.byte	0x51
 6697 1f15 02       		.uleb128 0x2
 6698 1f16 08       		.byte	0x8
 6699 1f17 35       		.byte	0x35
 6700 1f18 1D       		.uleb128 0x1d
 6701 1f19 01       		.uleb128 0x1
 6702 1f1a 52       		.byte	0x52
 6703 1f1b 03       		.uleb128 0x3
 6704 1f1c 0A       		.byte	0xa
 6705 1f1d 2F0D     		.2byte	0xd2f
 6706 1f1f 1D       		.uleb128 0x1d
 6707 1f20 01       		.uleb128 0x1
 6708 1f21 53       		.byte	0x53
 6709 1f22 01       		.uleb128 0x1
 6710 1f23 32       		.byte	0x32
 6711 1f24 00       		.byte	0
 6712 1f25 1C       		.uleb128 0x1c
 6713 1f26 68000000 		.4byte	.LVL251
 6714 1f2a 64190000 		.4byte	0x1964
 6715 1f2e 391F0000 		.4byte	0x1f39
 6716 1f32 1D       		.uleb128 0x1d
 6717 1f33 01       		.uleb128 0x1
 6718 1f34 50       		.byte	0x50
 6719 1f35 02       		.uleb128 0x2
 6720 1f36 74       		.byte	0x74
 6721 1f37 00       		.sleb128 0
ARM GAS  C:\Users\thoma\AppData\Local\Temp\ccRUrbHX.s 			page 132


 6722 1f38 00       		.byte	0
 6723 1f39 1F       		.uleb128 0x1f
 6724 1f3a 70000000 		.4byte	.LVL252
 6725 1f3e E3260000 		.4byte	0x26e3
 6726 1f42 1D       		.uleb128 0x1d
 6727 1f43 01       		.uleb128 0x1
 6728 1f44 50       		.byte	0x50
 6729 1f45 03       		.uleb128 0x3
 6730 1f46 0A       		.byte	0xa
 6731 1f47 2C01     		.2byte	0x12c
 6732 1f49 00       		.byte	0
 6733 1f4a 00       		.byte	0
 6734 1f4b 30       		.uleb128 0x30
 6735 1f4c 040B0000 		.4byte	.LASF353
 6736 1f50 01       		.byte	0x1
 6737 1f51 3101     		.2byte	0x131
 6738 1f53 00000000 		.4byte	.LFB700
 6739 1f57 30000000 		.4byte	.LFE700-.LFB700
 6740 1f5b 01       		.uleb128 0x1
 6741 1f5c 9C       		.byte	0x9c
 6742 1f5d EF1F0000 		.4byte	0x1fef
 6743 1f61 28       		.uleb128 0x28
 6744 1f62 FC050000 		.4byte	.LASF280
 6745 1f66 01       		.byte	0x1
 6746 1f67 3101     		.2byte	0x131
 6747 1f69 2C0D0000 		.4byte	0xd2c
 6748 1f6d 850B0000 		.4byte	.LLST81
 6749 1f71 1C       		.uleb128 0x1c
 6750 1f72 0C000000 		.4byte	.LVL254
 6751 1f76 31140000 		.4byte	0x1431
 6752 1f7a 901F0000 		.4byte	0x1f90
 6753 1f7e 1D       		.uleb128 0x1d
 6754 1f7f 01       		.uleb128 0x1
 6755 1f80 50       		.byte	0x50
 6756 1f81 02       		.uleb128 0x2
 6757 1f82 74       		.byte	0x74
 6758 1f83 00       		.sleb128 0
 6759 1f84 1D       		.uleb128 0x1d
 6760 1f85 01       		.uleb128 0x1
 6761 1f86 51       		.byte	0x51
 6762 1f87 02       		.uleb128 0x2
 6763 1f88 08       		.byte	0x8
 6764 1f89 52       		.byte	0x52
 6765 1f8a 1D       		.uleb128 0x1d
 6766 1f8b 01       		.uleb128 0x1
 6767 1f8c 52       		.byte	0x52
 6768 1f8d 01       		.uleb128 0x1
 6769 1f8e 30       		.byte	0x30
 6770 1f8f 00       		.byte	0
 6771 1f90 1C       		.uleb128 0x1c
 6772 1f91 12000000 		.4byte	.LVL255
 6773 1f95 F9190000 		.4byte	0x19f9
 6774 1f99 A41F0000 		.4byte	0x1fa4
 6775 1f9d 1D       		.uleb128 0x1d
 6776 1f9e 01       		.uleb128 0x1
 6777 1f9f 50       		.byte	0x50
 6778 1fa0 02       		.uleb128 0x2
ARM GAS  C:\Users\thoma\AppData\Local\Temp\ccRUrbHX.s 			page 133


 6779 1fa1 74       		.byte	0x74
 6780 1fa2 00       		.sleb128 0
 6781 1fa3 00       		.byte	0
 6782 1fa4 1C       		.uleb128 0x1c
 6783 1fa5 20000000 		.4byte	.LVL256
 6784 1fa9 21150000 		.4byte	0x1521
 6785 1fad C91F0000 		.4byte	0x1fc9
 6786 1fb1 1D       		.uleb128 0x1d
 6787 1fb2 01       		.uleb128 0x1
 6788 1fb3 50       		.byte	0x50
 6789 1fb4 02       		.uleb128 0x2
 6790 1fb5 74       		.byte	0x74
 6791 1fb6 00       		.sleb128 0
 6792 1fb7 1D       		.uleb128 0x1d
 6793 1fb8 01       		.uleb128 0x1
 6794 1fb9 51       		.byte	0x51
 6795 1fba 01       		.uleb128 0x1
 6796 1fbb 30       		.byte	0x30
 6797 1fbc 1D       		.uleb128 0x1d
 6798 1fbd 01       		.uleb128 0x1
 6799 1fbe 52       		.byte	0x52
 6800 1fbf 03       		.uleb128 0x3
 6801 1fc0 0A       		.byte	0xa
 6802 1fc1 7805     		.2byte	0x578
 6803 1fc3 1D       		.uleb128 0x1d
 6804 1fc4 01       		.uleb128 0x1
 6805 1fc5 53       		.byte	0x53
 6806 1fc6 01       		.uleb128 0x1
 6807 1fc7 32       		.byte	0x32
 6808 1fc8 00       		.byte	0
 6809 1fc9 1C       		.uleb128 0x1c
 6810 1fca 26000000 		.4byte	.LVL257
 6811 1fce 64190000 		.4byte	0x1964
 6812 1fd2 DD1F0000 		.4byte	0x1fdd
 6813 1fd6 1D       		.uleb128 0x1d
 6814 1fd7 01       		.uleb128 0x1
 6815 1fd8 50       		.byte	0x50
 6816 1fd9 02       		.uleb128 0x2
 6817 1fda 74       		.byte	0x74
 6818 1fdb 00       		.sleb128 0
 6819 1fdc 00       		.byte	0
 6820 1fdd 1F       		.uleb128 0x1f
 6821 1fde 2E000000 		.4byte	.LVL258
 6822 1fe2 E3260000 		.4byte	0x26e3
 6823 1fe6 1D       		.uleb128 0x1d
 6824 1fe7 01       		.uleb128 0x1
 6825 1fe8 50       		.byte	0x50
 6826 1fe9 03       		.uleb128 0x3
 6827 1fea 0A       		.byte	0xa
 6828 1feb 2C01     		.2byte	0x12c
 6829 1fed 00       		.byte	0
 6830 1fee 00       		.byte	0
 6831 1fef 29       		.uleb128 0x29
 6832 1ff0 33190000 		.4byte	.LASF354
 6833 1ff4 01       		.byte	0x1
 6834 1ff5 3901     		.2byte	0x139
 6835 1ff7 C6000000 		.4byte	0xc6
ARM GAS  C:\Users\thoma\AppData\Local\Temp\ccRUrbHX.s 			page 134


 6836 1ffb 00000000 		.4byte	.LFB701
 6837 1fff 44010000 		.4byte	.LFE701-.LFB701
 6838 2003 01       		.uleb128 0x1
 6839 2004 9C       		.byte	0x9c
 6840 2005 F9210000 		.4byte	0x21f9
 6841 2009 28       		.uleb128 0x28
 6842 200a FC050000 		.4byte	.LASF280
 6843 200e 01       		.byte	0x1
 6844 200f 3901     		.2byte	0x139
 6845 2011 2C0D0000 		.4byte	0xd2c
 6846 2015 A30B0000 		.4byte	.LLST82
 6847 2019 28       		.uleb128 0x28
 6848 201a 99190000 		.4byte	.LASF355
 6849 201e 01       		.byte	0x1
 6850 201f 3901     		.2byte	0x139
 6851 2021 C6000000 		.4byte	0xc6
 6852 2025 CF0B0000 		.4byte	.LLST83
 6853 2029 2A       		.uleb128 0x2a
 6854 202a 86140000 		.4byte	.LASF356
 6855 202e 01       		.byte	0x1
 6856 202f 3E01     		.2byte	0x13e
 6857 2031 C6000000 		.4byte	0xc6
 6858 2035 F00B0000 		.4byte	.LLST84
 6859 2039 2B       		.uleb128 0x2b
 6860 203a 6F170000 		.4byte	.LASF357
 6861 203e 01       		.byte	0x1
 6862 203f 4101     		.2byte	0x141
 6863 2041 25000000 		.4byte	0x25
 6864 2045 02       		.uleb128 0x2
 6865 2046 90       		.byte	0x90
 6866 2047 51       		.uleb128 0x51
 6867 2048 2A       		.uleb128 0x2a
 6868 2049 1A0B0000 		.4byte	.LASF358
 6869 204d 01       		.byte	0x1
 6870 204e 4201     		.2byte	0x142
 6871 2050 25000000 		.4byte	0x25
 6872 2054 120C0000 		.4byte	.LLST85
 6873 2058 2A       		.uleb128 0x2a
 6874 2059 33180000 		.4byte	.LASF359
 6875 205d 01       		.byte	0x1
 6876 205e 4301     		.2byte	0x143
 6877 2060 C6000000 		.4byte	0xc6
 6878 2064 5C0C0000 		.4byte	.LLST86
 6879 2068 2A       		.uleb128 0x2a
 6880 2069 9C050000 		.4byte	.LASF360
 6881 206d 01       		.byte	0x1
 6882 206e 5301     		.2byte	0x153
 6883 2070 BB000000 		.4byte	0xbb
 6884 2074 7A0C0000 		.4byte	.LLST87
 6885 2078 2A       		.uleb128 0x2a
 6886 2079 B1050000 		.4byte	.LASF361
 6887 207d 01       		.byte	0x1
 6888 207e 5701     		.2byte	0x157
 6889 2080 BB000000 		.4byte	0xbb
 6890 2084 A40C0000 		.4byte	.LLST88
 6891 2088 1C       		.uleb128 0x1c
 6892 2089 18000000 		.4byte	.LVL261
ARM GAS  C:\Users\thoma\AppData\Local\Temp\ccRUrbHX.s 			page 135


 6893 208d 31140000 		.4byte	0x1431
 6894 2091 A7200000 		.4byte	0x20a7
 6895 2095 1D       		.uleb128 0x1d
 6896 2096 01       		.uleb128 0x1
 6897 2097 50       		.byte	0x50
 6898 2098 02       		.uleb128 0x2
 6899 2099 74       		.byte	0x74
 6900 209a 00       		.sleb128 0
 6901 209b 1D       		.uleb128 0x1d
 6902 209c 01       		.uleb128 0x1
 6903 209d 51       		.byte	0x51
 6904 209e 02       		.uleb128 0x2
 6905 209f 08       		.byte	0x8
 6906 20a0 68       		.byte	0x68
 6907 20a1 1D       		.uleb128 0x1d
 6908 20a2 01       		.uleb128 0x1
 6909 20a3 52       		.byte	0x52
 6910 20a4 01       		.uleb128 0x1
 6911 20a5 30       		.byte	0x30
 6912 20a6 00       		.byte	0
 6913 20a7 1C       		.uleb128 0x1c
 6914 20a8 1E000000 		.4byte	.LVL262
 6915 20ac F9190000 		.4byte	0x19f9
 6916 20b0 BB200000 		.4byte	0x20bb
 6917 20b4 1D       		.uleb128 0x1d
 6918 20b5 01       		.uleb128 0x1
 6919 20b6 50       		.byte	0x50
 6920 20b7 02       		.uleb128 0x2
 6921 20b8 74       		.byte	0x74
 6922 20b9 00       		.sleb128 0
 6923 20ba 00       		.byte	0
 6924 20bb 1C       		.uleb128 0x1c
 6925 20bc 2C000000 		.4byte	.LVL265
 6926 20c0 1F120000 		.4byte	0x121f
 6927 20c4 CF200000 		.4byte	0x20cf
 6928 20c8 1D       		.uleb128 0x1d
 6929 20c9 01       		.uleb128 0x1
 6930 20ca 50       		.byte	0x50
 6931 20cb 02       		.uleb128 0x2
 6932 20cc 74       		.byte	0x74
 6933 20cd 00       		.sleb128 0
 6934 20ce 00       		.byte	0
 6935 20cf 1C       		.uleb128 0x1c
 6936 20d0 82000000 		.4byte	.LVL272
 6937 20d4 21150000 		.4byte	0x1521
 6938 20d8 F3200000 		.4byte	0x20f3
 6939 20dc 1D       		.uleb128 0x1d
 6940 20dd 01       		.uleb128 0x1
 6941 20de 50       		.byte	0x50
 6942 20df 02       		.uleb128 0x2
 6943 20e0 74       		.byte	0x74
 6944 20e1 00       		.sleb128 0
 6945 20e2 1D       		.uleb128 0x1d
 6946 20e3 01       		.uleb128 0x1
 6947 20e4 51       		.byte	0x51
 6948 20e5 01       		.uleb128 0x1
 6949 20e6 3E       		.byte	0x3e
ARM GAS  C:\Users\thoma\AppData\Local\Temp\ccRUrbHX.s 			page 136


 6950 20e7 1D       		.uleb128 0x1d
 6951 20e8 01       		.uleb128 0x1
 6952 20e9 52       		.byte	0x52
 6953 20ea 02       		.uleb128 0x2
 6954 20eb 76       		.byte	0x76
 6955 20ec 00       		.sleb128 0
 6956 20ed 1D       		.uleb128 0x1d
 6957 20ee 01       		.uleb128 0x1
 6958 20ef 53       		.byte	0x53
 6959 20f0 01       		.uleb128 0x1
 6960 20f1 32       		.byte	0x32
 6961 20f2 00       		.byte	0
 6962 20f3 1C       		.uleb128 0x1c
 6963 20f4 88000000 		.4byte	.LVL273
 6964 20f8 64190000 		.4byte	0x1964
 6965 20fc 07210000 		.4byte	0x2107
 6966 2100 1D       		.uleb128 0x1d
 6967 2101 01       		.uleb128 0x1
 6968 2102 50       		.byte	0x50
 6969 2103 02       		.uleb128 0x2
 6970 2104 74       		.byte	0x74
 6971 2105 00       		.sleb128 0
 6972 2106 00       		.byte	0
 6973 2107 1C       		.uleb128 0x1c
 6974 2108 8E000000 		.4byte	.LVL274
 6975 210c E3260000 		.4byte	0x26e3
 6976 2110 1A210000 		.4byte	0x211a
 6977 2114 1D       		.uleb128 0x1d
 6978 2115 01       		.uleb128 0x1
 6979 2116 50       		.byte	0x50
 6980 2117 01       		.uleb128 0x1
 6981 2118 3A       		.byte	0x3a
 6982 2119 00       		.byte	0
 6983 211a 1C       		.uleb128 0x1c
 6984 211b 98000000 		.4byte	.LVL275
 6985 211f 31140000 		.4byte	0x1431
 6986 2123 39210000 		.4byte	0x2139
 6987 2127 1D       		.uleb128 0x1d
 6988 2128 01       		.uleb128 0x1
 6989 2129 50       		.byte	0x50
 6990 212a 02       		.uleb128 0x2
 6991 212b 74       		.byte	0x74
 6992 212c 00       		.sleb128 0
 6993 212d 1D       		.uleb128 0x1d
 6994 212e 01       		.uleb128 0x1
 6995 212f 51       		.byte	0x51
 6996 2130 02       		.uleb128 0x2
 6997 2131 08       		.byte	0x8
 6998 2132 44       		.byte	0x44
 6999 2133 1D       		.uleb128 0x1d
 7000 2134 01       		.uleb128 0x1
 7001 2135 52       		.byte	0x52
 7002 2136 01       		.uleb128 0x1
 7003 2137 30       		.byte	0x30
 7004 2138 00       		.byte	0
 7005 2139 1C       		.uleb128 0x1c
 7006 213a 9E000000 		.4byte	.LVL276
ARM GAS  C:\Users\thoma\AppData\Local\Temp\ccRUrbHX.s 			page 137


 7007 213e F9190000 		.4byte	0x19f9
 7008 2142 4D210000 		.4byte	0x214d
 7009 2146 1D       		.uleb128 0x1d
 7010 2147 01       		.uleb128 0x1
 7011 2148 50       		.byte	0x50
 7012 2149 02       		.uleb128 0x2
 7013 214a 74       		.byte	0x74
 7014 214b 00       		.sleb128 0
 7015 214c 00       		.byte	0
 7016 214d 1E       		.uleb128 0x1e
 7017 214e CC000000 		.4byte	.LVL280
 7018 2152 1F270000 		.4byte	0x271f
 7019 2156 1C       		.uleb128 0x1c
 7020 2157 DE000000 		.4byte	.LVL283
 7021 215b EF260000 		.4byte	0x26ef
 7022 215f 79210000 		.4byte	0x2179
 7023 2163 1D       		.uleb128 0x1d
 7024 2164 01       		.uleb128 0x1
 7025 2165 50       		.byte	0x50
 7026 2166 05       		.uleb128 0x5
 7027 2167 03       		.byte	0x3
 7028 2168 54010000 		.4byte	.LC9
 7029 216c 1D       		.uleb128 0x1d
 7030 216d 01       		.uleb128 0x1
 7031 216e 51       		.byte	0x51
 7032 216f 02       		.uleb128 0x2
 7033 2170 77       		.byte	0x77
 7034 2171 00       		.sleb128 0
 7035 2172 1D       		.uleb128 0x1d
 7036 2173 01       		.uleb128 0x1
 7037 2174 52       		.byte	0x52
 7038 2175 02       		.uleb128 0x2
 7039 2176 78       		.byte	0x78
 7040 2177 00       		.sleb128 0
 7041 2178 00       		.byte	0
 7042 2179 1C       		.uleb128 0x1c
 7043 217a EA000000 		.4byte	.LVL284
 7044 217e 21150000 		.4byte	0x1521
 7045 2182 9D210000 		.4byte	0x219d
 7046 2186 1D       		.uleb128 0x1d
 7047 2187 01       		.uleb128 0x1
 7048 2188 50       		.byte	0x50
 7049 2189 02       		.uleb128 0x2
 7050 218a 74       		.byte	0x74
 7051 218b 00       		.sleb128 0
 7052 218c 1D       		.uleb128 0x1d
 7053 218d 01       		.uleb128 0x1
 7054 218e 51       		.byte	0x51
 7055 218f 01       		.uleb128 0x1
 7056 2190 30       		.byte	0x30
 7057 2191 1D       		.uleb128 0x1d
 7058 2192 01       		.uleb128 0x1
 7059 2193 52       		.byte	0x52
 7060 2194 02       		.uleb128 0x2
 7061 2195 78       		.byte	0x78
 7062 2196 00       		.sleb128 0
 7063 2197 1D       		.uleb128 0x1d
ARM GAS  C:\Users\thoma\AppData\Local\Temp\ccRUrbHX.s 			page 138


 7064 2198 01       		.uleb128 0x1
 7065 2199 53       		.byte	0x53
 7066 219a 01       		.uleb128 0x1
 7067 219b 32       		.byte	0x32
 7068 219c 00       		.byte	0
 7069 219d 1C       		.uleb128 0x1c
 7070 219e F0000000 		.4byte	.LVL285
 7071 21a2 64190000 		.4byte	0x1964
 7072 21a6 B1210000 		.4byte	0x21b1
 7073 21aa 1D       		.uleb128 0x1d
 7074 21ab 01       		.uleb128 0x1
 7075 21ac 50       		.byte	0x50
 7076 21ad 02       		.uleb128 0x2
 7077 21ae 74       		.byte	0x74
 7078 21af 00       		.sleb128 0
 7079 21b0 00       		.byte	0
 7080 21b1 1C       		.uleb128 0x1c
 7081 21b2 F8000000 		.4byte	.LVL286
 7082 21b6 EF260000 		.4byte	0x26ef
 7083 21ba CE210000 		.4byte	0x21ce
 7084 21be 1D       		.uleb128 0x1d
 7085 21bf 01       		.uleb128 0x1
 7086 21c0 50       		.byte	0x50
 7087 21c1 05       		.uleb128 0x5
 7088 21c2 03       		.byte	0x3
 7089 21c3 88010000 		.4byte	.LC10
 7090 21c7 1D       		.uleb128 0x1d
 7091 21c8 01       		.uleb128 0x1
 7092 21c9 51       		.byte	0x51
 7093 21ca 02       		.uleb128 0x2
 7094 21cb 75       		.byte	0x75
 7095 21cc 00       		.sleb128 0
 7096 21cd 00       		.byte	0
 7097 21ce 1C       		.uleb128 0x1c
 7098 21cf 0A010000 		.4byte	.LVL288
 7099 21d3 EF260000 		.4byte	0x26ef
 7100 21d7 E5210000 		.4byte	0x21e5
 7101 21db 1D       		.uleb128 0x1d
 7102 21dc 01       		.uleb128 0x1
 7103 21dd 50       		.byte	0x50
 7104 21de 05       		.uleb128 0x5
 7105 21df 03       		.byte	0x3
 7106 21e0 AC010000 		.4byte	.LC11
 7107 21e4 00       		.byte	0
 7108 21e5 1F       		.uleb128 0x1f
 7109 21e6 1C010000 		.4byte	.LVL290
 7110 21ea EF260000 		.4byte	0x26ef
 7111 21ee 1D       		.uleb128 0x1d
 7112 21ef 01       		.uleb128 0x1
 7113 21f0 50       		.byte	0x50
 7114 21f1 05       		.uleb128 0x5
 7115 21f2 03       		.byte	0x3
 7116 21f3 BC010000 		.4byte	.LC12
 7117 21f7 00       		.byte	0
 7118 21f8 00       		.byte	0
 7119 21f9 30       		.uleb128 0x30
 7120 21fa 6A010000 		.4byte	.LASF362
ARM GAS  C:\Users\thoma\AppData\Local\Temp\ccRUrbHX.s 			page 139


 7121 21fe 01       		.byte	0x1
 7122 21ff 6401     		.2byte	0x164
 7123 2201 00000000 		.4byte	.LFB702
 7124 2205 30000000 		.4byte	.LFE702-.LFB702
 7125 2209 01       		.uleb128 0x1
 7126 220a 9C       		.byte	0x9c
 7127 220b 9D220000 		.4byte	0x229d
 7128 220f 28       		.uleb128 0x28
 7129 2210 FC050000 		.4byte	.LASF280
 7130 2214 01       		.byte	0x1
 7131 2215 6401     		.2byte	0x164
 7132 2217 2C0D0000 		.4byte	0xd2c
 7133 221b B70C0000 		.4byte	.LLST89
 7134 221f 1C       		.uleb128 0x1c
 7135 2220 0C000000 		.4byte	.LVL294
 7136 2224 31140000 		.4byte	0x1431
 7137 2228 3E220000 		.4byte	0x223e
 7138 222c 1D       		.uleb128 0x1d
 7139 222d 01       		.uleb128 0x1
 7140 222e 50       		.byte	0x50
 7141 222f 02       		.uleb128 0x2
 7142 2230 74       		.byte	0x74
 7143 2231 00       		.sleb128 0
 7144 2232 1D       		.uleb128 0x1d
 7145 2233 01       		.uleb128 0x1
 7146 2234 51       		.byte	0x51
 7147 2235 02       		.uleb128 0x2
 7148 2236 08       		.byte	0x8
 7149 2237 68       		.byte	0x68
 7150 2238 1D       		.uleb128 0x1d
 7151 2239 01       		.uleb128 0x1
 7152 223a 52       		.byte	0x52
 7153 223b 01       		.uleb128 0x1
 7154 223c 30       		.byte	0x30
 7155 223d 00       		.byte	0
 7156 223e 1C       		.uleb128 0x1c
 7157 223f 12000000 		.4byte	.LVL295
 7158 2243 F9190000 		.4byte	0x19f9
 7159 2247 52220000 		.4byte	0x2252
 7160 224b 1D       		.uleb128 0x1d
 7161 224c 01       		.uleb128 0x1
 7162 224d 50       		.byte	0x50
 7163 224e 02       		.uleb128 0x2
 7164 224f 74       		.byte	0x74
 7165 2250 00       		.sleb128 0
 7166 2251 00       		.byte	0
 7167 2252 1C       		.uleb128 0x1c
 7168 2253 20000000 		.4byte	.LVL296
 7169 2257 21150000 		.4byte	0x1521
 7170 225b 77220000 		.4byte	0x2277
 7171 225f 1D       		.uleb128 0x1d
 7172 2260 01       		.uleb128 0x1
 7173 2261 50       		.byte	0x50
 7174 2262 02       		.uleb128 0x2
 7175 2263 74       		.byte	0x74
 7176 2264 00       		.sleb128 0
 7177 2265 1D       		.uleb128 0x1d
ARM GAS  C:\Users\thoma\AppData\Local\Temp\ccRUrbHX.s 			page 140


 7178 2266 01       		.uleb128 0x1
 7179 2267 51       		.byte	0x51
 7180 2268 01       		.uleb128 0x1
 7181 2269 3E       		.byte	0x3e
 7182 226a 1D       		.uleb128 0x1d
 7183 226b 01       		.uleb128 0x1
 7184 226c 52       		.byte	0x52
 7185 226d 03       		.uleb128 0x3
 7186 226e 0A       		.byte	0xa
 7187 226f B856     		.2byte	0x56b8
 7188 2271 1D       		.uleb128 0x1d
 7189 2272 01       		.uleb128 0x1
 7190 2273 53       		.byte	0x53
 7191 2274 01       		.uleb128 0x1
 7192 2275 32       		.byte	0x32
 7193 2276 00       		.byte	0
 7194 2277 1C       		.uleb128 0x1c
 7195 2278 26000000 		.4byte	.LVL297
 7196 227c 64190000 		.4byte	0x1964
 7197 2280 8B220000 		.4byte	0x228b
 7198 2284 1D       		.uleb128 0x1d
 7199 2285 01       		.uleb128 0x1
 7200 2286 50       		.byte	0x50
 7201 2287 02       		.uleb128 0x2
 7202 2288 74       		.byte	0x74
 7203 2289 00       		.sleb128 0
 7204 228a 00       		.byte	0
 7205 228b 1F       		.uleb128 0x1f
 7206 228c 2E000000 		.4byte	.LVL298
 7207 2290 E3260000 		.4byte	0x26e3
 7208 2294 1D       		.uleb128 0x1d
 7209 2295 01       		.uleb128 0x1
 7210 2296 50       		.byte	0x50
 7211 2297 03       		.uleb128 0x3
 7212 2298 0A       		.byte	0xa
 7213 2299 2C01     		.2byte	0x12c
 7214 229b 00       		.byte	0
 7215 229c 00       		.byte	0
 7216 229d 31       		.uleb128 0x31
 7217 229e 92060000 		.4byte	.LASF363
 7218 22a2 01       		.byte	0x1
 7219 22a3 6C01     		.2byte	0x16c
 7220 22a5 00000000 		.4byte	.LFB703
 7221 22a9 54010000 		.4byte	.LFE703-.LFB703
 7222 22ad 01       		.uleb128 0x1
 7223 22ae 9C       		.byte	0x9c
 7224 22af 99240000 		.4byte	0x2499
 7225 22b3 28       		.uleb128 0x28
 7226 22b4 FC050000 		.4byte	.LASF280
 7227 22b8 01       		.byte	0x1
 7228 22b9 6C01     		.2byte	0x16c
 7229 22bb 2C0D0000 		.4byte	0xd2c
 7230 22bf D50C0000 		.4byte	.LLST90
 7231 22c3 28       		.uleb128 0x28
 7232 22c4 2A0A0000 		.4byte	.LASF364
 7233 22c8 01       		.byte	0x1
 7234 22c9 6C01     		.2byte	0x16c
ARM GAS  C:\Users\thoma\AppData\Local\Temp\ccRUrbHX.s 			page 141


 7235 22cb BB000000 		.4byte	0xbb
 7236 22cf 010D0000 		.4byte	.LLST91
 7237 22d3 2A       		.uleb128 0x2a
 7238 22d4 7E000000 		.4byte	.LASF365
 7239 22d8 01       		.byte	0x1
 7240 22d9 6F01     		.2byte	0x16f
 7241 22db BB000000 		.4byte	0xbb
 7242 22df 1F0D0000 		.4byte	.LLST92
 7243 22e3 2A       		.uleb128 0x2a
 7244 22e4 DE010000 		.4byte	.LASF366
 7245 22e8 01       		.byte	0x1
 7246 22e9 7701     		.2byte	0x177
 7247 22eb DC000000 		.4byte	0xdc
 7248 22ef 3D0D0000 		.4byte	.LLST93
 7249 22f3 2B       		.uleb128 0x2b
 7250 22f4 70180000 		.4byte	.LASF367
 7251 22f8 01       		.byte	0x1
 7252 22f9 7901     		.2byte	0x179
 7253 22fb 25000000 		.4byte	0x25
 7254 22ff 02       		.uleb128 0x2
 7255 2300 90       		.byte	0x90
 7256 2301 51       		.uleb128 0x51
 7257 2302 2A       		.uleb128 0x2a
 7258 2303 9E0F0000 		.4byte	.LASF368
 7259 2307 01       		.byte	0x1
 7260 2308 7B01     		.2byte	0x17b
 7261 230a DC000000 		.4byte	0xdc
 7262 230e 500D0000 		.4byte	.LLST94
 7263 2312 2B       		.uleb128 0x2b
 7264 2313 20040000 		.4byte	.LASF369
 7265 2317 01       		.byte	0x1
 7266 2318 7D01     		.2byte	0x17d
 7267 231a 25000000 		.4byte	0x25
 7268 231e 02       		.uleb128 0x2
 7269 231f 90       		.byte	0x90
 7270 2320 53       		.uleb128 0x53
 7271 2321 2A       		.uleb128 0x2a
 7272 2322 1E160000 		.4byte	.LASF370
 7273 2326 01       		.byte	0x1
 7274 2327 7F01     		.2byte	0x17f
 7275 2329 25000000 		.4byte	0x25
 7276 232d 630D0000 		.4byte	.LLST95
 7277 2331 2A       		.uleb128 0x2a
 7278 2332 01130000 		.4byte	.LASF371
 7279 2336 01       		.byte	0x1
 7280 2337 8101     		.2byte	0x181
 7281 2339 DC000000 		.4byte	0xdc
 7282 233d 930D0000 		.4byte	.LLST96
 7283 2341 2A       		.uleb128 0x2a
 7284 2342 DC140000 		.4byte	.LASF372
 7285 2346 01       		.byte	0x1
 7286 2347 8201     		.2byte	0x182
 7287 2349 25000000 		.4byte	0x25
 7288 234d B10D0000 		.4byte	.LLST97
 7289 2351 1C       		.uleb128 0x1c
 7290 2352 1A000000 		.4byte	.LVL302
 7291 2356 63120000 		.4byte	0x1263
ARM GAS  C:\Users\thoma\AppData\Local\Temp\ccRUrbHX.s 			page 142


 7292 235a 65230000 		.4byte	0x2365
 7293 235e 1D       		.uleb128 0x1d
 7294 235f 01       		.uleb128 0x1
 7295 2360 50       		.byte	0x50
 7296 2361 02       		.uleb128 0x2
 7297 2362 74       		.byte	0x74
 7298 2363 00       		.sleb128 0
 7299 2364 00       		.byte	0
 7300 2365 1C       		.uleb128 0x1c
 7301 2366 2C000000 		.4byte	.LVL304
 7302 236a 31140000 		.4byte	0x1431
 7303 236e 84230000 		.4byte	0x2384
 7304 2372 1D       		.uleb128 0x1d
 7305 2373 01       		.uleb128 0x1
 7306 2374 50       		.byte	0x50
 7307 2375 02       		.uleb128 0x2
 7308 2376 74       		.byte	0x74
 7309 2377 00       		.sleb128 0
 7310 2378 1D       		.uleb128 0x1d
 7311 2379 01       		.uleb128 0x1
 7312 237a 51       		.byte	0x51
 7313 237b 02       		.uleb128 0x2
 7314 237c 08       		.byte	0x8
 7315 237d 68       		.byte	0x68
 7316 237e 1D       		.uleb128 0x1d
 7317 237f 01       		.uleb128 0x1
 7318 2380 52       		.byte	0x52
 7319 2381 01       		.uleb128 0x1
 7320 2382 30       		.byte	0x30
 7321 2383 00       		.byte	0
 7322 2384 1C       		.uleb128 0x1c
 7323 2385 32000000 		.4byte	.LVL305
 7324 2389 F9190000 		.4byte	0x19f9
 7325 238d 98230000 		.4byte	0x2398
 7326 2391 1D       		.uleb128 0x1d
 7327 2392 01       		.uleb128 0x1
 7328 2393 50       		.byte	0x50
 7329 2394 02       		.uleb128 0x2
 7330 2395 74       		.byte	0x74
 7331 2396 00       		.sleb128 0
 7332 2397 00       		.byte	0
 7333 2398 1C       		.uleb128 0x1c
 7334 2399 38000000 		.4byte	.LVL306
 7335 239d E3260000 		.4byte	0x26e3
 7336 23a1 AB230000 		.4byte	0x23ab
 7337 23a5 1D       		.uleb128 0x1d
 7338 23a6 01       		.uleb128 0x1
 7339 23a7 50       		.byte	0x50
 7340 23a8 01       		.uleb128 0x1
 7341 23a9 4E       		.byte	0x4e
 7342 23aa 00       		.byte	0
 7343 23ab 1C       		.uleb128 0x1c
 7344 23ac 52000000 		.4byte	.LVL308
 7345 23b0 E1170000 		.4byte	0x17e1
 7346 23b4 BF230000 		.4byte	0x23bf
 7347 23b8 1D       		.uleb128 0x1d
 7348 23b9 01       		.uleb128 0x1
ARM GAS  C:\Users\thoma\AppData\Local\Temp\ccRUrbHX.s 			page 143


 7349 23ba 50       		.byte	0x50
 7350 23bb 02       		.uleb128 0x2
 7351 23bc 75       		.byte	0x75
 7352 23bd 00       		.sleb128 0
 7353 23be 00       		.byte	0
 7354 23bf 1C       		.uleb128 0x1c
 7355 23c0 7C000000 		.4byte	.LVL311
 7356 23c4 E1170000 		.4byte	0x17e1
 7357 23c8 D3230000 		.4byte	0x23d3
 7358 23cc 1D       		.uleb128 0x1d
 7359 23cd 01       		.uleb128 0x1
 7360 23ce 50       		.byte	0x50
 7361 23cf 02       		.uleb128 0x2
 7362 23d0 75       		.byte	0x75
 7363 23d1 00       		.sleb128 0
 7364 23d2 00       		.byte	0
 7365 23d3 1E       		.uleb128 0x1e
 7366 23d4 C2000000 		.4byte	.LVL317
 7367 23d8 34170000 		.4byte	0x1734
 7368 23dc 1C       		.uleb128 0x1c
 7369 23dd D0000000 		.4byte	.LVL320
 7370 23e1 34170000 		.4byte	0x1734
 7371 23e5 F5230000 		.4byte	0x23f5
 7372 23e9 1D       		.uleb128 0x1d
 7373 23ea 01       		.uleb128 0x1
 7374 23eb 50       		.byte	0x50
 7375 23ec 07       		.uleb128 0x7
 7376 23ed F5       		.byte	0xf5
 7377 23ee 52       		.uleb128 0x52
 7378 23ef 25       		.uleb128 0x25
 7379 23f0 F5       		.byte	0xf5
 7380 23f1 50       		.uleb128 0x50
 7381 23f2 25       		.uleb128 0x25
 7382 23f3 1B       		.byte	0x1b
 7383 23f4 00       		.byte	0
 7384 23f5 1C       		.uleb128 0x1c
 7385 23f6 08010000 		.4byte	.LVL326
 7386 23fa EF260000 		.4byte	0x26ef
 7387 23fe 28240000 		.4byte	0x2428
 7388 2402 1D       		.uleb128 0x1d
 7389 2403 01       		.uleb128 0x1
 7390 2404 50       		.byte	0x50
 7391 2405 05       		.uleb128 0x5
 7392 2406 03       		.byte	0x3
 7393 2407 D4010000 		.4byte	.LC13
 7394 240b 1D       		.uleb128 0x1d
 7395 240c 01       		.uleb128 0x1
 7396 240d 51       		.byte	0x51
 7397 240e 02       		.uleb128 0x2
 7398 240f 75       		.byte	0x75
 7399 2410 00       		.sleb128 0
 7400 2411 1D       		.uleb128 0x1d
 7401 2412 02       		.uleb128 0x2
 7402 2413 7D       		.byte	0x7d
 7403 2414 00       		.sleb128 0
 7404 2415 02       		.uleb128 0x2
 7405 2416 78       		.byte	0x78
ARM GAS  C:\Users\thoma\AppData\Local\Temp\ccRUrbHX.s 			page 144


 7406 2417 00       		.sleb128 0
 7407 2418 1D       		.uleb128 0x1d
 7408 2419 02       		.uleb128 0x2
 7409 241a 7D       		.byte	0x7d
 7410 241b 10       		.sleb128 16
 7411 241c 03       		.uleb128 0x3
 7412 241d F5       		.byte	0xf5
 7413 241e 0A       		.uleb128 0xa
 7414 241f 3A       		.uleb128 0x3a
 7415 2420 1D       		.uleb128 0x1d
 7416 2421 02       		.uleb128 0x2
 7417 2422 7D       		.byte	0x7d
 7418 2423 18       		.sleb128 24
 7419 2424 02       		.uleb128 0x2
 7420 2425 79       		.byte	0x79
 7421 2426 00       		.sleb128 0
 7422 2427 00       		.byte	0
 7423 2428 1C       		.uleb128 0x1c
 7424 2429 14010000 		.4byte	.LVL327
 7425 242d 21150000 		.4byte	0x1521
 7426 2431 4C240000 		.4byte	0x244c
 7427 2435 1D       		.uleb128 0x1d
 7428 2436 01       		.uleb128 0x1
 7429 2437 50       		.byte	0x50
 7430 2438 02       		.uleb128 0x2
 7431 2439 74       		.byte	0x74
 7432 243a 00       		.sleb128 0
 7433 243b 1D       		.uleb128 0x1d
 7434 243c 01       		.uleb128 0x1
 7435 243d 51       		.byte	0x51
 7436 243e 01       		.uleb128 0x1
 7437 243f 30       		.byte	0x30
 7438 2440 1D       		.uleb128 0x1d
 7439 2441 01       		.uleb128 0x1
 7440 2442 52       		.byte	0x52
 7441 2443 02       		.uleb128 0x2
 7442 2444 79       		.byte	0x79
 7443 2445 00       		.sleb128 0
 7444 2446 1D       		.uleb128 0x1d
 7445 2447 01       		.uleb128 0x1
 7446 2448 53       		.byte	0x53
 7447 2449 01       		.uleb128 0x1
 7448 244a 34       		.byte	0x34
 7449 244b 00       		.byte	0
 7450 244c 1C       		.uleb128 0x1c
 7451 244d 26010000 		.4byte	.LVL328
 7452 2451 21150000 		.4byte	0x1521
 7453 2455 73240000 		.4byte	0x2473
 7454 2459 1D       		.uleb128 0x1d
 7455 245a 01       		.uleb128 0x1
 7456 245b 50       		.byte	0x50
 7457 245c 02       		.uleb128 0x2
 7458 245d 74       		.byte	0x74
 7459 245e 00       		.sleb128 0
 7460 245f 1D       		.uleb128 0x1d
 7461 2460 01       		.uleb128 0x1
 7462 2461 51       		.byte	0x51
ARM GAS  C:\Users\thoma\AppData\Local\Temp\ccRUrbHX.s 			page 145


 7463 2462 01       		.uleb128 0x1
 7464 2463 34       		.byte	0x34
 7465 2464 1D       		.uleb128 0x1d
 7466 2465 01       		.uleb128 0x1
 7467 2466 52       		.byte	0x52
 7468 2467 05       		.uleb128 0x5
 7469 2468 F5       		.byte	0xf5
 7470 2469 50       		.uleb128 0x50
 7471 246a 25       		.uleb128 0x25
 7472 246b F7       		.byte	0xf7
 7473 246c 33       		.uleb128 0x33
 7474 246d 1D       		.uleb128 0x1d
 7475 246e 01       		.uleb128 0x1
 7476 246f 53       		.byte	0x53
 7477 2470 01       		.uleb128 0x1
 7478 2471 34       		.byte	0x34
 7479 2472 00       		.byte	0
 7480 2473 1C       		.uleb128 0x1c
 7481 2474 2C010000 		.4byte	.LVL329
 7482 2478 64190000 		.4byte	0x1964
 7483 247c 87240000 		.4byte	0x2487
 7484 2480 1D       		.uleb128 0x1d
 7485 2481 01       		.uleb128 0x1
 7486 2482 50       		.byte	0x50
 7487 2483 02       		.uleb128 0x2
 7488 2484 74       		.byte	0x74
 7489 2485 00       		.sleb128 0
 7490 2486 00       		.byte	0
 7491 2487 1F       		.uleb128 0x1f
 7492 2488 34010000 		.4byte	.LVL330
 7493 248c E3260000 		.4byte	0x26e3
 7494 2490 1D       		.uleb128 0x1d
 7495 2491 01       		.uleb128 0x1
 7496 2492 50       		.byte	0x50
 7497 2493 03       		.uleb128 0x3
 7498 2494 0A       		.byte	0xa
 7499 2495 2C01     		.2byte	0x12c
 7500 2497 00       		.byte	0
 7501 2498 00       		.byte	0
 7502 2499 30       		.uleb128 0x30
 7503 249a 93140000 		.4byte	.LASF373
 7504 249e 01       		.byte	0x1
 7505 249f 8E01     		.2byte	0x18e
 7506 24a1 00000000 		.4byte	.LFB704
 7507 24a5 70000000 		.4byte	.LFE704-.LFB704
 7508 24a9 01       		.uleb128 0x1
 7509 24aa 9C       		.byte	0x9c
 7510 24ab C3250000 		.4byte	0x25c3
 7511 24af 28       		.uleb128 0x28
 7512 24b0 FC050000 		.4byte	.LASF280
 7513 24b4 01       		.byte	0x1
 7514 24b5 8E01     		.2byte	0x18e
 7515 24b7 2C0D0000 		.4byte	0xd2c
 7516 24bb C50D0000 		.4byte	.LLST98
 7517 24bf 2A       		.uleb128 0x2a
 7518 24c0 D60C0000 		.4byte	.LASF374
 7519 24c4 01       		.byte	0x1
ARM GAS  C:\Users\thoma\AppData\Local\Temp\ccRUrbHX.s 			page 146


 7520 24c5 9401     		.2byte	0x194
 7521 24c7 DC000000 		.4byte	0xdc
 7522 24cb F10D0000 		.4byte	.LLST99
 7523 24cf 2A       		.uleb128 0x2a
 7524 24d0 DC140000 		.4byte	.LASF372
 7525 24d4 01       		.byte	0x1
 7526 24d5 9501     		.2byte	0x195
 7527 24d7 DC000000 		.4byte	0xdc
 7528 24db 0F0E0000 		.4byte	.LLST100
 7529 24df 1C       		.uleb128 0x1c
 7530 24e0 0E000000 		.4byte	.LVL334
 7531 24e4 31140000 		.4byte	0x1431
 7532 24e8 FE240000 		.4byte	0x24fe
 7533 24ec 1D       		.uleb128 0x1d
 7534 24ed 01       		.uleb128 0x1
 7535 24ee 50       		.byte	0x50
 7536 24ef 02       		.uleb128 0x2
 7537 24f0 74       		.byte	0x74
 7538 24f1 00       		.sleb128 0
 7539 24f2 1D       		.uleb128 0x1d
 7540 24f3 01       		.uleb128 0x1
 7541 24f4 51       		.byte	0x51
 7542 24f5 02       		.uleb128 0x2
 7543 24f6 08       		.byte	0x8
 7544 24f7 68       		.byte	0x68
 7545 24f8 1D       		.uleb128 0x1d
 7546 24f9 01       		.uleb128 0x1
 7547 24fa 52       		.byte	0x52
 7548 24fb 01       		.uleb128 0x1
 7549 24fc 30       		.byte	0x30
 7550 24fd 00       		.byte	0
 7551 24fe 1C       		.uleb128 0x1c
 7552 24ff 14000000 		.4byte	.LVL335
 7553 2503 F9190000 		.4byte	0x19f9
 7554 2507 12250000 		.4byte	0x2512
 7555 250b 1D       		.uleb128 0x1d
 7556 250c 01       		.uleb128 0x1
 7557 250d 50       		.byte	0x50
 7558 250e 02       		.uleb128 0x2
 7559 250f 74       		.byte	0x74
 7560 2510 00       		.sleb128 0
 7561 2511 00       		.byte	0
 7562 2512 1C       		.uleb128 0x1c
 7563 2513 1A000000 		.4byte	.LVL336
 7564 2517 E3260000 		.4byte	0x26e3
 7565 251b 25250000 		.4byte	0x2525
 7566 251f 1D       		.uleb128 0x1d
 7567 2520 01       		.uleb128 0x1
 7568 2521 50       		.byte	0x50
 7569 2522 01       		.uleb128 0x1
 7570 2523 4E       		.byte	0x4e
 7571 2524 00       		.byte	0
 7572 2525 1E       		.uleb128 0x1e
 7573 2526 20000000 		.4byte	.LVL337
 7574 252a 34170000 		.4byte	0x1734
 7575 252e 1E       		.uleb128 0x1e
 7576 252f 28000000 		.4byte	.LVL340
ARM GAS  C:\Users\thoma\AppData\Local\Temp\ccRUrbHX.s 			page 147


 7577 2533 34170000 		.4byte	0x1734
 7578 2537 1C       		.uleb128 0x1c
 7579 2538 36000000 		.4byte	.LVL343
 7580 253c 21150000 		.4byte	0x1521
 7581 2540 5B250000 		.4byte	0x255b
 7582 2544 1D       		.uleb128 0x1d
 7583 2545 01       		.uleb128 0x1
 7584 2546 50       		.byte	0x50
 7585 2547 02       		.uleb128 0x2
 7586 2548 74       		.byte	0x74
 7587 2549 00       		.sleb128 0
 7588 254a 1D       		.uleb128 0x1d
 7589 254b 01       		.uleb128 0x1
 7590 254c 51       		.byte	0x51
 7591 254d 01       		.uleb128 0x1
 7592 254e 30       		.byte	0x30
 7593 254f 1D       		.uleb128 0x1d
 7594 2550 01       		.uleb128 0x1
 7595 2551 52       		.byte	0x52
 7596 2552 02       		.uleb128 0x2
 7597 2553 75       		.byte	0x75
 7598 2554 00       		.sleb128 0
 7599 2555 1D       		.uleb128 0x1d
 7600 2556 01       		.uleb128 0x1
 7601 2557 53       		.byte	0x53
 7602 2558 01       		.uleb128 0x1
 7603 2559 34       		.byte	0x34
 7604 255a 00       		.byte	0
 7605 255b 1C       		.uleb128 0x1c
 7606 255c 42000000 		.4byte	.LVL344
 7607 2560 21150000 		.4byte	0x1521
 7608 2564 7F250000 		.4byte	0x257f
 7609 2568 1D       		.uleb128 0x1d
 7610 2569 01       		.uleb128 0x1
 7611 256a 50       		.byte	0x50
 7612 256b 02       		.uleb128 0x2
 7613 256c 74       		.byte	0x74
 7614 256d 00       		.sleb128 0
 7615 256e 1D       		.uleb128 0x1d
 7616 256f 01       		.uleb128 0x1
 7617 2570 51       		.byte	0x51
 7618 2571 01       		.uleb128 0x1
 7619 2572 34       		.byte	0x34
 7620 2573 1D       		.uleb128 0x1d
 7621 2574 01       		.uleb128 0x1
 7622 2575 52       		.byte	0x52
 7623 2576 02       		.uleb128 0x2
 7624 2577 76       		.byte	0x76
 7625 2578 00       		.sleb128 0
 7626 2579 1D       		.uleb128 0x1d
 7627 257a 01       		.uleb128 0x1
 7628 257b 53       		.byte	0x53
 7629 257c 01       		.uleb128 0x1
 7630 257d 34       		.byte	0x34
 7631 257e 00       		.byte	0
 7632 257f 1C       		.uleb128 0x1c
 7633 2580 4E000000 		.4byte	.LVL345
ARM GAS  C:\Users\thoma\AppData\Local\Temp\ccRUrbHX.s 			page 148


 7634 2584 EF260000 		.4byte	0x26ef
 7635 2588 9D250000 		.4byte	0x259d
 7636 258c 1D       		.uleb128 0x1d
 7637 258d 01       		.uleb128 0x1
 7638 258e 50       		.byte	0x50
 7639 258f 05       		.uleb128 0x5
 7640 2590 03       		.byte	0x3
 7641 2591 5C020000 		.4byte	.LC14
 7642 2595 1D       		.uleb128 0x1d
 7643 2596 02       		.uleb128 0x2
 7644 2597 7D       		.byte	0x7d
 7645 2598 00       		.sleb128 0
 7646 2599 02       		.uleb128 0x2
 7647 259a 75       		.byte	0x75
 7648 259b 00       		.sleb128 0
 7649 259c 00       		.byte	0
 7650 259d 1C       		.uleb128 0x1c
 7651 259e 54000000 		.4byte	.LVL346
 7652 25a2 64190000 		.4byte	0x1964
 7653 25a6 B1250000 		.4byte	0x25b1
 7654 25aa 1D       		.uleb128 0x1d
 7655 25ab 01       		.uleb128 0x1
 7656 25ac 50       		.byte	0x50
 7657 25ad 02       		.uleb128 0x2
 7658 25ae 74       		.byte	0x74
 7659 25af 00       		.sleb128 0
 7660 25b0 00       		.byte	0
 7661 25b1 1F       		.uleb128 0x1f
 7662 25b2 5C000000 		.4byte	.LVL347
 7663 25b6 E3260000 		.4byte	0x26e3
 7664 25ba 1D       		.uleb128 0x1d
 7665 25bb 01       		.uleb128 0x1
 7666 25bc 50       		.byte	0x50
 7667 25bd 03       		.uleb128 0x3
 7668 25be 0A       		.byte	0xa
 7669 25bf 2C01     		.2byte	0x12c
 7670 25c1 00       		.byte	0
 7671 25c2 00       		.byte	0
 7672 25c3 27       		.uleb128 0x27
 7673 25c4 920B0000 		.4byte	.LASF375
 7674 25c8 01       		.byte	0x1
 7675 25c9 EC01     		.2byte	0x1ec
 7676 25cb B0000000 		.4byte	0xb0
 7677 25cf 00000000 		.4byte	.LFB710
 7678 25d3 16000000 		.4byte	.LFE710-.LFB710
 7679 25d7 01       		.uleb128 0x1
 7680 25d8 9C       		.byte	0x9c
 7681 25d9 1D260000 		.4byte	0x261d
 7682 25dd 28       		.uleb128 0x28
 7683 25de FC050000 		.4byte	.LASF280
 7684 25e2 01       		.byte	0x1
 7685 25e3 EC01     		.2byte	0x1ec
 7686 25e5 2C0D0000 		.4byte	0xd2c
 7687 25e9 2D0E0000 		.4byte	.LLST101
 7688 25ed 1C       		.uleb128 0x1c
 7689 25ee 0C000000 		.4byte	.LVL350
 7690 25f2 31140000 		.4byte	0x1431
ARM GAS  C:\Users\thoma\AppData\Local\Temp\ccRUrbHX.s 			page 149


 7691 25f6 0C260000 		.4byte	0x260c
 7692 25fa 1D       		.uleb128 0x1d
 7693 25fb 01       		.uleb128 0x1
 7694 25fc 50       		.byte	0x50
 7695 25fd 02       		.uleb128 0x2
 7696 25fe 74       		.byte	0x74
 7697 25ff 00       		.sleb128 0
 7698 2600 1D       		.uleb128 0x1d
 7699 2601 01       		.uleb128 0x1
 7700 2602 51       		.byte	0x51
 7701 2603 02       		.uleb128 0x2
 7702 2604 08       		.byte	0x8
 7703 2605 52       		.byte	0x52
 7704 2606 1D       		.uleb128 0x1d
 7705 2607 01       		.uleb128 0x1
 7706 2608 52       		.byte	0x52
 7707 2609 01       		.uleb128 0x1
 7708 260a 30       		.byte	0x30
 7709 260b 00       		.byte	0
 7710 260c 1F       		.uleb128 0x1f
 7711 260d 12000000 		.4byte	.LVL351
 7712 2611 F9190000 		.4byte	0x19f9
 7713 2615 1D       		.uleb128 0x1d
 7714 2616 01       		.uleb128 0x1
 7715 2617 50       		.byte	0x50
 7716 2618 02       		.uleb128 0x2
 7717 2619 74       		.byte	0x74
 7718 261a 00       		.sleb128 0
 7719 261b 00       		.byte	0
 7720 261c 00       		.byte	0
 7721 261d 32       		.uleb128 0x32
 7722 261e 99120000 		.4byte	.LASF376
 7723 2622 0D       		.byte	0xd
 7724 2623 F907     		.2byte	0x7f9
 7725 2625 29260000 		.4byte	0x2629
 7726 2629 05       		.uleb128 0x5
 7727 262a D1000000 		.4byte	0xd1
 7728 262e 33       		.uleb128 0x33
 7729 262f 8D000000 		.4byte	.LASF377
 7730 2633 05       		.byte	0x5
 7731 2634 A7       		.byte	0xa7
 7732 2635 39260000 		.4byte	0x2639
 7733 2639 08       		.uleb128 0x8
 7734 263a 04       		.byte	0x4
 7735 263b 3F260000 		.4byte	0x263f
 7736 263f 17       		.uleb128 0x17
 7737 2640 16050000 		.4byte	0x516
 7738 2644 33       		.uleb128 0x33
 7739 2645 A1160000 		.4byte	.LASF378
 7740 2649 0E       		.byte	0xe
 7741 264a 87       		.byte	0x87
 7742 264b 9A090000 		.4byte	0x99a
 7743 264f 32       		.uleb128 0x32
 7744 2650 2C160000 		.4byte	.LASF379
 7745 2654 0B       		.byte	0xb
 7746 2655 6001     		.2byte	0x160
 7747 2657 DC000000 		.4byte	0xdc
ARM GAS  C:\Users\thoma\AppData\Local\Temp\ccRUrbHX.s 			page 150


 7748 265b 11       		.uleb128 0x11
 7749 265c 6B260000 		.4byte	0x266b
 7750 2660 6B260000 		.4byte	0x266b
 7751 2664 12       		.uleb128 0x12
 7752 2665 E7000000 		.4byte	0xe7
 7753 2669 00       		.byte	0
 7754 266a 00       		.byte	0
 7755 266b 17       		.uleb128 0x17
 7756 266c F20A0000 		.4byte	0xaf2
 7757 2670 32       		.uleb128 0x32
 7758 2671 19120000 		.4byte	.LASF380
 7759 2675 0B       		.byte	0xb
 7760 2676 6401     		.2byte	0x164
 7761 2678 7C260000 		.4byte	0x267c
 7762 267c 17       		.uleb128 0x17
 7763 267d 5B260000 		.4byte	0x265b
 7764 2681 33       		.uleb128 0x33
 7765 2682 71000000 		.4byte	.LASF381
 7766 2686 0F       		.byte	0xf
 7767 2687 1F       		.byte	0x1f
 7768 2688 8C260000 		.4byte	0x268c
 7769 268c 17       		.uleb128 0x17
 7770 268d 970A0000 		.4byte	0xa97
 7771 2691 33       		.uleb128 0x33
 7772 2692 50140000 		.4byte	.LASF382
 7773 2696 10       		.byte	0x10
 7774 2697 5A       		.byte	0x5a
 7775 2698 9C260000 		.4byte	0x269c
 7776 269c 17       		.uleb128 0x17
 7777 269d 92070000 		.4byte	0x792
 7778 26a1 33       		.uleb128 0x33
 7779 26a2 810E0000 		.4byte	.LASF383
 7780 26a6 11       		.byte	0x11
 7781 26a7 87       		.byte	0x87
 7782 26a8 9A090000 		.4byte	0x99a
 7783 26ac 34       		.uleb128 0x34
 7784 26ad 83090000 		.4byte	.LASF384
 7785 26b1 83090000 		.4byte	.LASF384
 7786 26b5 12       		.byte	0x12
 7787 26b6 B1       		.byte	0xb1
 7788 26b7 34       		.uleb128 0x34
 7789 26b8 48100000 		.4byte	.LASF385
 7790 26bc 48100000 		.4byte	.LASF385
 7791 26c0 12       		.byte	0x12
 7792 26c1 B6       		.byte	0xb6
 7793 26c2 34       		.uleb128 0x34
 7794 26c3 E9050000 		.4byte	.LASF386
 7795 26c7 E9050000 		.4byte	.LASF386
 7796 26cb 12       		.byte	0x12
 7797 26cc B5       		.byte	0xb5
 7798 26cd 34       		.uleb128 0x34
 7799 26ce 800C0000 		.4byte	.LASF387
 7800 26d2 800C0000 		.4byte	.LASF387
 7801 26d6 12       		.byte	0x12
 7802 26d7 B7       		.byte	0xb7
 7803 26d8 34       		.uleb128 0x34
 7804 26d9 4E0B0000 		.4byte	.LASF388
ARM GAS  C:\Users\thoma\AppData\Local\Temp\ccRUrbHX.s 			page 151


 7805 26dd 4E0B0000 		.4byte	.LASF388
 7806 26e1 12       		.byte	0x12
 7807 26e2 B3       		.byte	0xb3
 7808 26e3 35       		.uleb128 0x35
 7809 26e4 04070000 		.4byte	.LASF389
 7810 26e8 04070000 		.4byte	.LASF389
 7811 26ec 13       		.byte	0x13
 7812 26ed 8903     		.2byte	0x389
 7813 26ef 34       		.uleb128 0x34
 7814 26f0 460E0000 		.4byte	.LASF390
 7815 26f4 460E0000 		.4byte	.LASF390
 7816 26f8 14       		.byte	0x14
 7817 26f9 BB       		.byte	0xbb
 7818 26fa 36       		.uleb128 0x36
 7819 26fb 6C6F6700 		.ascii	"log\000"
 7820 26ff 6C6F6700 		.ascii	"log\000"
 7821 2703 15       		.byte	0x15
 7822 2704 84       		.byte	0x84
 7823 2705 36       		.uleb128 0x36
 7824 2706 706F7700 		.ascii	"pow\000"
 7825 270a 706F7700 		.ascii	"pow\000"
 7826 270e 15       		.byte	0x15
 7827 270f 86       		.byte	0x86
 7828 2710 37       		.uleb128 0x37
 7829 2711 A7090000 		.4byte	.LASF395
 7830 2715 350D0000 		.4byte	.LASF396
 7831 2719 16       		.byte	0x16
 7832 271a 00       		.byte	0
 7833 271b A7090000 		.4byte	.LASF395
 7834 271f 35       		.uleb128 0x35
 7835 2720 26160000 		.4byte	.LASF391
 7836 2724 26160000 		.4byte	.LASF391
 7837 2728 15       		.byte	0x15
 7838 2729 4B01     		.2byte	0x14b
 7839 272b 00       		.byte	0
 7840              		.section	.debug_abbrev,"",%progbits
 7841              	.Ldebug_abbrev0:
 7842 0000 01       		.uleb128 0x1
 7843 0001 11       		.uleb128 0x11
 7844 0002 01       		.byte	0x1
 7845 0003 25       		.uleb128 0x25
 7846 0004 0E       		.uleb128 0xe
 7847 0005 13       		.uleb128 0x13
 7848 0006 0B       		.uleb128 0xb
 7849 0007 03       		.uleb128 0x3
 7850 0008 0E       		.uleb128 0xe
 7851 0009 1B       		.uleb128 0x1b
 7852 000a 0E       		.uleb128 0xe
 7853 000b 55       		.uleb128 0x55
 7854 000c 17       		.uleb128 0x17
 7855 000d 11       		.uleb128 0x11
 7856 000e 01       		.uleb128 0x1
 7857 000f 10       		.uleb128 0x10
 7858 0010 17       		.uleb128 0x17
 7859 0011 00       		.byte	0
 7860 0012 00       		.byte	0
 7861 0013 02       		.uleb128 0x2
ARM GAS  C:\Users\thoma\AppData\Local\Temp\ccRUrbHX.s 			page 152


 7862 0014 24       		.uleb128 0x24
 7863 0015 00       		.byte	0
 7864 0016 0B       		.uleb128 0xb
 7865 0017 0B       		.uleb128 0xb
 7866 0018 3E       		.uleb128 0x3e
 7867 0019 0B       		.uleb128 0xb
 7868 001a 03       		.uleb128 0x3
 7869 001b 0E       		.uleb128 0xe
 7870 001c 00       		.byte	0
 7871 001d 00       		.byte	0
 7872 001e 03       		.uleb128 0x3
 7873 001f 24       		.uleb128 0x24
 7874 0020 00       		.byte	0
 7875 0021 0B       		.uleb128 0xb
 7876 0022 0B       		.uleb128 0xb
 7877 0023 3E       		.uleb128 0x3e
 7878 0024 0B       		.uleb128 0xb
 7879 0025 03       		.uleb128 0x3
 7880 0026 08       		.uleb128 0x8
 7881 0027 00       		.byte	0
 7882 0028 00       		.byte	0
 7883 0029 04       		.uleb128 0x4
 7884 002a 16       		.uleb128 0x16
 7885 002b 00       		.byte	0
 7886 002c 03       		.uleb128 0x3
 7887 002d 0E       		.uleb128 0xe
 7888 002e 3A       		.uleb128 0x3a
 7889 002f 0B       		.uleb128 0xb
 7890 0030 3B       		.uleb128 0x3b
 7891 0031 0B       		.uleb128 0xb
 7892 0032 49       		.uleb128 0x49
 7893 0033 13       		.uleb128 0x13
 7894 0034 00       		.byte	0
 7895 0035 00       		.byte	0
 7896 0036 05       		.uleb128 0x5
 7897 0037 35       		.uleb128 0x35
 7898 0038 00       		.byte	0
 7899 0039 49       		.uleb128 0x49
 7900 003a 13       		.uleb128 0x13
 7901 003b 00       		.byte	0
 7902 003c 00       		.byte	0
 7903 003d 06       		.uleb128 0x6
 7904 003e 13       		.uleb128 0x13
 7905 003f 01       		.byte	0x1
 7906 0040 0B       		.uleb128 0xb
 7907 0041 0B       		.uleb128 0xb
 7908 0042 3A       		.uleb128 0x3a
 7909 0043 0B       		.uleb128 0xb
 7910 0044 3B       		.uleb128 0x3b
 7911 0045 0B       		.uleb128 0xb
 7912 0046 01       		.uleb128 0x1
 7913 0047 13       		.uleb128 0x13
 7914 0048 00       		.byte	0
 7915 0049 00       		.byte	0
 7916 004a 07       		.uleb128 0x7
 7917 004b 0D       		.uleb128 0xd
 7918 004c 00       		.byte	0
ARM GAS  C:\Users\thoma\AppData\Local\Temp\ccRUrbHX.s 			page 153


 7919 004d 03       		.uleb128 0x3
 7920 004e 0E       		.uleb128 0xe
 7921 004f 3A       		.uleb128 0x3a
 7922 0050 0B       		.uleb128 0xb
 7923 0051 3B       		.uleb128 0x3b
 7924 0052 0B       		.uleb128 0xb
 7925 0053 49       		.uleb128 0x49
 7926 0054 13       		.uleb128 0x13
 7927 0055 38       		.uleb128 0x38
 7928 0056 0B       		.uleb128 0xb
 7929 0057 00       		.byte	0
 7930 0058 00       		.byte	0
 7931 0059 08       		.uleb128 0x8
 7932 005a 0F       		.uleb128 0xf
 7933 005b 00       		.byte	0
 7934 005c 0B       		.uleb128 0xb
 7935 005d 0B       		.uleb128 0xb
 7936 005e 49       		.uleb128 0x49
 7937 005f 13       		.uleb128 0x13
 7938 0060 00       		.byte	0
 7939 0061 00       		.byte	0
 7940 0062 09       		.uleb128 0x9
 7941 0063 0F       		.uleb128 0xf
 7942 0064 00       		.byte	0
 7943 0065 0B       		.uleb128 0xb
 7944 0066 0B       		.uleb128 0xb
 7945 0067 00       		.byte	0
 7946 0068 00       		.byte	0
 7947 0069 0A       		.uleb128 0xa
 7948 006a 04       		.uleb128 0x4
 7949 006b 01       		.byte	0x1
 7950 006c 0B       		.uleb128 0xb
 7951 006d 0B       		.uleb128 0xb
 7952 006e 49       		.uleb128 0x49
 7953 006f 13       		.uleb128 0x13
 7954 0070 3A       		.uleb128 0x3a
 7955 0071 0B       		.uleb128 0xb
 7956 0072 3B       		.uleb128 0x3b
 7957 0073 05       		.uleb128 0x5
 7958 0074 01       		.uleb128 0x1
 7959 0075 13       		.uleb128 0x13
 7960 0076 00       		.byte	0
 7961 0077 00       		.byte	0
 7962 0078 0B       		.uleb128 0xb
 7963 0079 28       		.uleb128 0x28
 7964 007a 00       		.byte	0
 7965 007b 03       		.uleb128 0x3
 7966 007c 0E       		.uleb128 0xe
 7967 007d 1C       		.uleb128 0x1c
 7968 007e 0B       		.uleb128 0xb
 7969 007f 00       		.byte	0
 7970 0080 00       		.byte	0
 7971 0081 0C       		.uleb128 0xc
 7972 0082 16       		.uleb128 0x16
 7973 0083 00       		.byte	0
 7974 0084 03       		.uleb128 0x3
 7975 0085 0E       		.uleb128 0xe
ARM GAS  C:\Users\thoma\AppData\Local\Temp\ccRUrbHX.s 			page 154


 7976 0086 3A       		.uleb128 0x3a
 7977 0087 0B       		.uleb128 0xb
 7978 0088 3B       		.uleb128 0x3b
 7979 0089 05       		.uleb128 0x5
 7980 008a 49       		.uleb128 0x49
 7981 008b 13       		.uleb128 0x13
 7982 008c 00       		.byte	0
 7983 008d 00       		.byte	0
 7984 008e 0D       		.uleb128 0xd
 7985 008f 28       		.uleb128 0x28
 7986 0090 00       		.byte	0
 7987 0091 03       		.uleb128 0x3
 7988 0092 0E       		.uleb128 0xe
 7989 0093 1C       		.uleb128 0x1c
 7990 0094 06       		.uleb128 0x6
 7991 0095 00       		.byte	0
 7992 0096 00       		.byte	0
 7993 0097 0E       		.uleb128 0xe
 7994 0098 28       		.uleb128 0x28
 7995 0099 00       		.byte	0
 7996 009a 03       		.uleb128 0x3
 7997 009b 0E       		.uleb128 0xe
 7998 009c 1C       		.uleb128 0x1c
 7999 009d 05       		.uleb128 0x5
 8000 009e 00       		.byte	0
 8001 009f 00       		.byte	0
 8002 00a0 0F       		.uleb128 0xf
 8003 00a1 13       		.uleb128 0x13
 8004 00a2 01       		.byte	0x1
 8005 00a3 0B       		.uleb128 0xb
 8006 00a4 0B       		.uleb128 0xb
 8007 00a5 3A       		.uleb128 0x3a
 8008 00a6 0B       		.uleb128 0xb
 8009 00a7 3B       		.uleb128 0x3b
 8010 00a8 05       		.uleb128 0x5
 8011 00a9 01       		.uleb128 0x1
 8012 00aa 13       		.uleb128 0x13
 8013 00ab 00       		.byte	0
 8014 00ac 00       		.byte	0
 8015 00ad 10       		.uleb128 0x10
 8016 00ae 0D       		.uleb128 0xd
 8017 00af 00       		.byte	0
 8018 00b0 03       		.uleb128 0x3
 8019 00b1 0E       		.uleb128 0xe
 8020 00b2 3A       		.uleb128 0x3a
 8021 00b3 0B       		.uleb128 0xb
 8022 00b4 3B       		.uleb128 0x3b
 8023 00b5 05       		.uleb128 0x5
 8024 00b6 49       		.uleb128 0x49
 8025 00b7 13       		.uleb128 0x13
 8026 00b8 38       		.uleb128 0x38
 8027 00b9 0B       		.uleb128 0xb
 8028 00ba 00       		.byte	0
 8029 00bb 00       		.byte	0
 8030 00bc 11       		.uleb128 0x11
 8031 00bd 01       		.uleb128 0x1
 8032 00be 01       		.byte	0x1
ARM GAS  C:\Users\thoma\AppData\Local\Temp\ccRUrbHX.s 			page 155


 8033 00bf 49       		.uleb128 0x49
 8034 00c0 13       		.uleb128 0x13
 8035 00c1 01       		.uleb128 0x1
 8036 00c2 13       		.uleb128 0x13
 8037 00c3 00       		.byte	0
 8038 00c4 00       		.byte	0
 8039 00c5 12       		.uleb128 0x12
 8040 00c6 21       		.uleb128 0x21
 8041 00c7 00       		.byte	0
 8042 00c8 49       		.uleb128 0x49
 8043 00c9 13       		.uleb128 0x13
 8044 00ca 2F       		.uleb128 0x2f
 8045 00cb 0B       		.uleb128 0xb
 8046 00cc 00       		.byte	0
 8047 00cd 00       		.byte	0
 8048 00ce 13       		.uleb128 0x13
 8049 00cf 15       		.uleb128 0x15
 8050 00d0 01       		.byte	0x1
 8051 00d1 27       		.uleb128 0x27
 8052 00d2 19       		.uleb128 0x19
 8053 00d3 01       		.uleb128 0x1
 8054 00d4 13       		.uleb128 0x13
 8055 00d5 00       		.byte	0
 8056 00d6 00       		.byte	0
 8057 00d7 14       		.uleb128 0x14
 8058 00d8 05       		.uleb128 0x5
 8059 00d9 00       		.byte	0
 8060 00da 49       		.uleb128 0x49
 8061 00db 13       		.uleb128 0x13
 8062 00dc 00       		.byte	0
 8063 00dd 00       		.byte	0
 8064 00de 15       		.uleb128 0x15
 8065 00df 13       		.uleb128 0x13
 8066 00e0 01       		.byte	0x1
 8067 00e1 03       		.uleb128 0x3
 8068 00e2 0E       		.uleb128 0xe
 8069 00e3 0B       		.uleb128 0xb
 8070 00e4 0B       		.uleb128 0xb
 8071 00e5 3A       		.uleb128 0x3a
 8072 00e6 0B       		.uleb128 0xb
 8073 00e7 3B       		.uleb128 0x3b
 8074 00e8 05       		.uleb128 0x5
 8075 00e9 01       		.uleb128 0x1
 8076 00ea 13       		.uleb128 0x13
 8077 00eb 00       		.byte	0
 8078 00ec 00       		.byte	0
 8079 00ed 16       		.uleb128 0x16
 8080 00ee 13       		.uleb128 0x13
 8081 00ef 01       		.byte	0x1
 8082 00f0 03       		.uleb128 0x3
 8083 00f1 0E       		.uleb128 0xe
 8084 00f2 0B       		.uleb128 0xb
 8085 00f3 0B       		.uleb128 0xb
 8086 00f4 3A       		.uleb128 0x3a
 8087 00f5 0B       		.uleb128 0xb
 8088 00f6 3B       		.uleb128 0x3b
 8089 00f7 0B       		.uleb128 0xb
ARM GAS  C:\Users\thoma\AppData\Local\Temp\ccRUrbHX.s 			page 156


 8090 00f8 01       		.uleb128 0x1
 8091 00f9 13       		.uleb128 0x13
 8092 00fa 00       		.byte	0
 8093 00fb 00       		.byte	0
 8094 00fc 17       		.uleb128 0x17
 8095 00fd 26       		.uleb128 0x26
 8096 00fe 00       		.byte	0
 8097 00ff 49       		.uleb128 0x49
 8098 0100 13       		.uleb128 0x13
 8099 0101 00       		.byte	0
 8100 0102 00       		.byte	0
 8101 0103 18       		.uleb128 0x18
 8102 0104 04       		.uleb128 0x4
 8103 0105 01       		.byte	0x1
 8104 0106 0B       		.uleb128 0xb
 8105 0107 0B       		.uleb128 0xb
 8106 0108 49       		.uleb128 0x49
 8107 0109 13       		.uleb128 0x13
 8108 010a 3A       		.uleb128 0x3a
 8109 010b 0B       		.uleb128 0xb
 8110 010c 3B       		.uleb128 0x3b
 8111 010d 0B       		.uleb128 0xb
 8112 010e 01       		.uleb128 0x1
 8113 010f 13       		.uleb128 0x13
 8114 0110 00       		.byte	0
 8115 0111 00       		.byte	0
 8116 0112 19       		.uleb128 0x19
 8117 0113 2E       		.uleb128 0x2e
 8118 0114 01       		.byte	0x1
 8119 0115 3F       		.uleb128 0x3f
 8120 0116 19       		.uleb128 0x19
 8121 0117 03       		.uleb128 0x3
 8122 0118 0E       		.uleb128 0xe
 8123 0119 3A       		.uleb128 0x3a
 8124 011a 0B       		.uleb128 0xb
 8125 011b 3B       		.uleb128 0x3b
 8126 011c 0B       		.uleb128 0xb
 8127 011d 27       		.uleb128 0x27
 8128 011e 19       		.uleb128 0x19
 8129 011f 11       		.uleb128 0x11
 8130 0120 01       		.uleb128 0x1
 8131 0121 12       		.uleb128 0x12
 8132 0122 06       		.uleb128 0x6
 8133 0123 40       		.uleb128 0x40
 8134 0124 18       		.uleb128 0x18
 8135 0125 9742     		.uleb128 0x2117
 8136 0127 19       		.uleb128 0x19
 8137 0128 01       		.uleb128 0x1
 8138 0129 13       		.uleb128 0x13
 8139 012a 00       		.byte	0
 8140 012b 00       		.byte	0
 8141 012c 1A       		.uleb128 0x1a
 8142 012d 05       		.uleb128 0x5
 8143 012e 00       		.byte	0
 8144 012f 03       		.uleb128 0x3
 8145 0130 0E       		.uleb128 0xe
 8146 0131 3A       		.uleb128 0x3a
ARM GAS  C:\Users\thoma\AppData\Local\Temp\ccRUrbHX.s 			page 157


 8147 0132 0B       		.uleb128 0xb
 8148 0133 3B       		.uleb128 0x3b
 8149 0134 0B       		.uleb128 0xb
 8150 0135 49       		.uleb128 0x49
 8151 0136 13       		.uleb128 0x13
 8152 0137 02       		.uleb128 0x2
 8153 0138 17       		.uleb128 0x17
 8154 0139 00       		.byte	0
 8155 013a 00       		.byte	0
 8156 013b 1B       		.uleb128 0x1b
 8157 013c 05       		.uleb128 0x5
 8158 013d 00       		.byte	0
 8159 013e 03       		.uleb128 0x3
 8160 013f 08       		.uleb128 0x8
 8161 0140 3A       		.uleb128 0x3a
 8162 0141 0B       		.uleb128 0xb
 8163 0142 3B       		.uleb128 0x3b
 8164 0143 0B       		.uleb128 0xb
 8165 0144 49       		.uleb128 0x49
 8166 0145 13       		.uleb128 0x13
 8167 0146 02       		.uleb128 0x2
 8168 0147 17       		.uleb128 0x17
 8169 0148 00       		.byte	0
 8170 0149 00       		.byte	0
 8171 014a 1C       		.uleb128 0x1c
 8172 014b 898201   		.uleb128 0x4109
 8173 014e 01       		.byte	0x1
 8174 014f 11       		.uleb128 0x11
 8175 0150 01       		.uleb128 0x1
 8176 0151 31       		.uleb128 0x31
 8177 0152 13       		.uleb128 0x13
 8178 0153 01       		.uleb128 0x1
 8179 0154 13       		.uleb128 0x13
 8180 0155 00       		.byte	0
 8181 0156 00       		.byte	0
 8182 0157 1D       		.uleb128 0x1d
 8183 0158 8A8201   		.uleb128 0x410a
 8184 015b 00       		.byte	0
 8185 015c 02       		.uleb128 0x2
 8186 015d 18       		.uleb128 0x18
 8187 015e 9142     		.uleb128 0x2111
 8188 0160 18       		.uleb128 0x18
 8189 0161 00       		.byte	0
 8190 0162 00       		.byte	0
 8191 0163 1E       		.uleb128 0x1e
 8192 0164 898201   		.uleb128 0x4109
 8193 0167 00       		.byte	0
 8194 0168 11       		.uleb128 0x11
 8195 0169 01       		.uleb128 0x1
 8196 016a 31       		.uleb128 0x31
 8197 016b 13       		.uleb128 0x13
 8198 016c 00       		.byte	0
 8199 016d 00       		.byte	0
 8200 016e 1F       		.uleb128 0x1f
 8201 016f 898201   		.uleb128 0x4109
 8202 0172 01       		.byte	0x1
 8203 0173 11       		.uleb128 0x11
ARM GAS  C:\Users\thoma\AppData\Local\Temp\ccRUrbHX.s 			page 158


 8204 0174 01       		.uleb128 0x1
 8205 0175 31       		.uleb128 0x31
 8206 0176 13       		.uleb128 0x13
 8207 0177 00       		.byte	0
 8208 0178 00       		.byte	0
 8209 0179 20       		.uleb128 0x20
 8210 017a 2E       		.uleb128 0x2e
 8211 017b 01       		.byte	0x1
 8212 017c 3F       		.uleb128 0x3f
 8213 017d 19       		.uleb128 0x19
 8214 017e 03       		.uleb128 0x3
 8215 017f 0E       		.uleb128 0xe
 8216 0180 3A       		.uleb128 0x3a
 8217 0181 0B       		.uleb128 0xb
 8218 0182 3B       		.uleb128 0x3b
 8219 0183 0B       		.uleb128 0xb
 8220 0184 27       		.uleb128 0x27
 8221 0185 19       		.uleb128 0x19
 8222 0186 49       		.uleb128 0x49
 8223 0187 13       		.uleb128 0x13
 8224 0188 11       		.uleb128 0x11
 8225 0189 01       		.uleb128 0x1
 8226 018a 12       		.uleb128 0x12
 8227 018b 06       		.uleb128 0x6
 8228 018c 40       		.uleb128 0x40
 8229 018d 18       		.uleb128 0x18
 8230 018e 9742     		.uleb128 0x2117
 8231 0190 19       		.uleb128 0x19
 8232 0191 01       		.uleb128 0x1
 8233 0192 13       		.uleb128 0x13
 8234 0193 00       		.byte	0
 8235 0194 00       		.byte	0
 8236 0195 21       		.uleb128 0x21
 8237 0196 34       		.uleb128 0x34
 8238 0197 00       		.byte	0
 8239 0198 03       		.uleb128 0x3
 8240 0199 0E       		.uleb128 0xe
 8241 019a 3A       		.uleb128 0x3a
 8242 019b 0B       		.uleb128 0xb
 8243 019c 3B       		.uleb128 0x3b
 8244 019d 0B       		.uleb128 0xb
 8245 019e 49       		.uleb128 0x49
 8246 019f 13       		.uleb128 0x13
 8247 01a0 02       		.uleb128 0x2
 8248 01a1 17       		.uleb128 0x17
 8249 01a2 00       		.byte	0
 8250 01a3 00       		.byte	0
 8251 01a4 22       		.uleb128 0x22
 8252 01a5 0B       		.uleb128 0xb
 8253 01a6 01       		.byte	0x1
 8254 01a7 55       		.uleb128 0x55
 8255 01a8 17       		.uleb128 0x17
 8256 01a9 01       		.uleb128 0x1
 8257 01aa 13       		.uleb128 0x13
 8258 01ab 00       		.byte	0
 8259 01ac 00       		.byte	0
 8260 01ad 23       		.uleb128 0x23
ARM GAS  C:\Users\thoma\AppData\Local\Temp\ccRUrbHX.s 			page 159


 8261 01ae 34       		.uleb128 0x34
 8262 01af 00       		.byte	0
 8263 01b0 03       		.uleb128 0x3
 8264 01b1 08       		.uleb128 0x8
 8265 01b2 3A       		.uleb128 0x3a
 8266 01b3 0B       		.uleb128 0xb
 8267 01b4 3B       		.uleb128 0x3b
 8268 01b5 0B       		.uleb128 0xb
 8269 01b6 49       		.uleb128 0x49
 8270 01b7 13       		.uleb128 0x13
 8271 01b8 02       		.uleb128 0x2
 8272 01b9 17       		.uleb128 0x17
 8273 01ba 00       		.byte	0
 8274 01bb 00       		.byte	0
 8275 01bc 24       		.uleb128 0x24
 8276 01bd 0B       		.uleb128 0xb
 8277 01be 01       		.byte	0x1
 8278 01bf 11       		.uleb128 0x11
 8279 01c0 01       		.uleb128 0x1
 8280 01c1 12       		.uleb128 0x12
 8281 01c2 06       		.uleb128 0x6
 8282 01c3 00       		.byte	0
 8283 01c4 00       		.byte	0
 8284 01c5 25       		.uleb128 0x25
 8285 01c6 2E       		.uleb128 0x2e
 8286 01c7 01       		.byte	0x1
 8287 01c8 3F       		.uleb128 0x3f
 8288 01c9 19       		.uleb128 0x19
 8289 01ca 03       		.uleb128 0x3
 8290 01cb 0E       		.uleb128 0xe
 8291 01cc 3A       		.uleb128 0x3a
 8292 01cd 0B       		.uleb128 0xb
 8293 01ce 3B       		.uleb128 0x3b
 8294 01cf 0B       		.uleb128 0xb
 8295 01d0 27       		.uleb128 0x27
 8296 01d1 19       		.uleb128 0x19
 8297 01d2 49       		.uleb128 0x49
 8298 01d3 13       		.uleb128 0x13
 8299 01d4 11       		.uleb128 0x11
 8300 01d5 01       		.uleb128 0x1
 8301 01d6 12       		.uleb128 0x12
 8302 01d7 06       		.uleb128 0x6
 8303 01d8 40       		.uleb128 0x40
 8304 01d9 18       		.uleb128 0x18
 8305 01da 9642     		.uleb128 0x2116
 8306 01dc 19       		.uleb128 0x19
 8307 01dd 01       		.uleb128 0x1
 8308 01de 13       		.uleb128 0x13
 8309 01df 00       		.byte	0
 8310 01e0 00       		.byte	0
 8311 01e1 26       		.uleb128 0x26
 8312 01e2 05       		.uleb128 0x5
 8313 01e3 00       		.byte	0
 8314 01e4 03       		.uleb128 0x3
 8315 01e5 0E       		.uleb128 0xe
 8316 01e6 3A       		.uleb128 0x3a
 8317 01e7 0B       		.uleb128 0xb
ARM GAS  C:\Users\thoma\AppData\Local\Temp\ccRUrbHX.s 			page 160


 8318 01e8 3B       		.uleb128 0x3b
 8319 01e9 0B       		.uleb128 0xb
 8320 01ea 49       		.uleb128 0x49
 8321 01eb 13       		.uleb128 0x13
 8322 01ec 02       		.uleb128 0x2
 8323 01ed 18       		.uleb128 0x18
 8324 01ee 00       		.byte	0
 8325 01ef 00       		.byte	0
 8326 01f0 27       		.uleb128 0x27
 8327 01f1 2E       		.uleb128 0x2e
 8328 01f2 01       		.byte	0x1
 8329 01f3 3F       		.uleb128 0x3f
 8330 01f4 19       		.uleb128 0x19
 8331 01f5 03       		.uleb128 0x3
 8332 01f6 0E       		.uleb128 0xe
 8333 01f7 3A       		.uleb128 0x3a
 8334 01f8 0B       		.uleb128 0xb
 8335 01f9 3B       		.uleb128 0x3b
 8336 01fa 05       		.uleb128 0x5
 8337 01fb 27       		.uleb128 0x27
 8338 01fc 19       		.uleb128 0x19
 8339 01fd 49       		.uleb128 0x49
 8340 01fe 13       		.uleb128 0x13
 8341 01ff 11       		.uleb128 0x11
 8342 0200 01       		.uleb128 0x1
 8343 0201 12       		.uleb128 0x12
 8344 0202 06       		.uleb128 0x6
 8345 0203 40       		.uleb128 0x40
 8346 0204 18       		.uleb128 0x18
 8347 0205 9742     		.uleb128 0x2117
 8348 0207 19       		.uleb128 0x19
 8349 0208 01       		.uleb128 0x1
 8350 0209 13       		.uleb128 0x13
 8351 020a 00       		.byte	0
 8352 020b 00       		.byte	0
 8353 020c 28       		.uleb128 0x28
 8354 020d 05       		.uleb128 0x5
 8355 020e 00       		.byte	0
 8356 020f 03       		.uleb128 0x3
 8357 0210 0E       		.uleb128 0xe
 8358 0211 3A       		.uleb128 0x3a
 8359 0212 0B       		.uleb128 0xb
 8360 0213 3B       		.uleb128 0x3b
 8361 0214 05       		.uleb128 0x5
 8362 0215 49       		.uleb128 0x49
 8363 0216 13       		.uleb128 0x13
 8364 0217 02       		.uleb128 0x2
 8365 0218 17       		.uleb128 0x17
 8366 0219 00       		.byte	0
 8367 021a 00       		.byte	0
 8368 021b 29       		.uleb128 0x29
 8369 021c 2E       		.uleb128 0x2e
 8370 021d 01       		.byte	0x1
 8371 021e 3F       		.uleb128 0x3f
 8372 021f 19       		.uleb128 0x19
 8373 0220 03       		.uleb128 0x3
 8374 0221 0E       		.uleb128 0xe
ARM GAS  C:\Users\thoma\AppData\Local\Temp\ccRUrbHX.s 			page 161


 8375 0222 3A       		.uleb128 0x3a
 8376 0223 0B       		.uleb128 0xb
 8377 0224 3B       		.uleb128 0x3b
 8378 0225 05       		.uleb128 0x5
 8379 0226 27       		.uleb128 0x27
 8380 0227 19       		.uleb128 0x19
 8381 0228 49       		.uleb128 0x49
 8382 0229 13       		.uleb128 0x13
 8383 022a 11       		.uleb128 0x11
 8384 022b 01       		.uleb128 0x1
 8385 022c 12       		.uleb128 0x12
 8386 022d 06       		.uleb128 0x6
 8387 022e 40       		.uleb128 0x40
 8388 022f 18       		.uleb128 0x18
 8389 0230 9642     		.uleb128 0x2116
 8390 0232 19       		.uleb128 0x19
 8391 0233 01       		.uleb128 0x1
 8392 0234 13       		.uleb128 0x13
 8393 0235 00       		.byte	0
 8394 0236 00       		.byte	0
 8395 0237 2A       		.uleb128 0x2a
 8396 0238 34       		.uleb128 0x34
 8397 0239 00       		.byte	0
 8398 023a 03       		.uleb128 0x3
 8399 023b 0E       		.uleb128 0xe
 8400 023c 3A       		.uleb128 0x3a
 8401 023d 0B       		.uleb128 0xb
 8402 023e 3B       		.uleb128 0x3b
 8403 023f 05       		.uleb128 0x5
 8404 0240 49       		.uleb128 0x49
 8405 0241 13       		.uleb128 0x13
 8406 0242 02       		.uleb128 0x2
 8407 0243 17       		.uleb128 0x17
 8408 0244 00       		.byte	0
 8409 0245 00       		.byte	0
 8410 0246 2B       		.uleb128 0x2b
 8411 0247 34       		.uleb128 0x34
 8412 0248 00       		.byte	0
 8413 0249 03       		.uleb128 0x3
 8414 024a 0E       		.uleb128 0xe
 8415 024b 3A       		.uleb128 0x3a
 8416 024c 0B       		.uleb128 0xb
 8417 024d 3B       		.uleb128 0x3b
 8418 024e 05       		.uleb128 0x5
 8419 024f 49       		.uleb128 0x49
 8420 0250 13       		.uleb128 0x13
 8421 0251 02       		.uleb128 0x2
 8422 0252 18       		.uleb128 0x18
 8423 0253 00       		.byte	0
 8424 0254 00       		.byte	0
 8425 0255 2C       		.uleb128 0x2c
 8426 0256 34       		.uleb128 0x34
 8427 0257 00       		.byte	0
 8428 0258 03       		.uleb128 0x3
 8429 0259 08       		.uleb128 0x8
 8430 025a 3A       		.uleb128 0x3a
 8431 025b 0B       		.uleb128 0xb
ARM GAS  C:\Users\thoma\AppData\Local\Temp\ccRUrbHX.s 			page 162


 8432 025c 3B       		.uleb128 0x3b
 8433 025d 05       		.uleb128 0x5
 8434 025e 49       		.uleb128 0x49
 8435 025f 13       		.uleb128 0x13
 8436 0260 02       		.uleb128 0x2
 8437 0261 17       		.uleb128 0x17
 8438 0262 00       		.byte	0
 8439 0263 00       		.byte	0
 8440 0264 2D       		.uleb128 0x2d
 8441 0265 0B       		.uleb128 0xb
 8442 0266 01       		.byte	0x1
 8443 0267 55       		.uleb128 0x55
 8444 0268 17       		.uleb128 0x17
 8445 0269 00       		.byte	0
 8446 026a 00       		.byte	0
 8447 026b 2E       		.uleb128 0x2e
 8448 026c 34       		.uleb128 0x34
 8449 026d 00       		.byte	0
 8450 026e 03       		.uleb128 0x3
 8451 026f 0E       		.uleb128 0xe
 8452 0270 3A       		.uleb128 0x3a
 8453 0271 0B       		.uleb128 0xb
 8454 0272 3B       		.uleb128 0x3b
 8455 0273 0B       		.uleb128 0xb
 8456 0274 49       		.uleb128 0x49
 8457 0275 13       		.uleb128 0x13
 8458 0276 1C       		.uleb128 0x1c
 8459 0277 0B       		.uleb128 0xb
 8460 0278 00       		.byte	0
 8461 0279 00       		.byte	0
 8462 027a 2F       		.uleb128 0x2f
 8463 027b 0B       		.uleb128 0xb
 8464 027c 01       		.byte	0x1
 8465 027d 11       		.uleb128 0x11
 8466 027e 01       		.uleb128 0x1
 8467 027f 12       		.uleb128 0x12
 8468 0280 06       		.uleb128 0x6
 8469 0281 01       		.uleb128 0x1
 8470 0282 13       		.uleb128 0x13
 8471 0283 00       		.byte	0
 8472 0284 00       		.byte	0
 8473 0285 30       		.uleb128 0x30
 8474 0286 2E       		.uleb128 0x2e
 8475 0287 01       		.byte	0x1
 8476 0288 3F       		.uleb128 0x3f
 8477 0289 19       		.uleb128 0x19
 8478 028a 03       		.uleb128 0x3
 8479 028b 0E       		.uleb128 0xe
 8480 028c 3A       		.uleb128 0x3a
 8481 028d 0B       		.uleb128 0xb
 8482 028e 3B       		.uleb128 0x3b
 8483 028f 05       		.uleb128 0x5
 8484 0290 27       		.uleb128 0x27
 8485 0291 19       		.uleb128 0x19
 8486 0292 11       		.uleb128 0x11
 8487 0293 01       		.uleb128 0x1
 8488 0294 12       		.uleb128 0x12
ARM GAS  C:\Users\thoma\AppData\Local\Temp\ccRUrbHX.s 			page 163


 8489 0295 06       		.uleb128 0x6
 8490 0296 40       		.uleb128 0x40
 8491 0297 18       		.uleb128 0x18
 8492 0298 9742     		.uleb128 0x2117
 8493 029a 19       		.uleb128 0x19
 8494 029b 01       		.uleb128 0x1
 8495 029c 13       		.uleb128 0x13
 8496 029d 00       		.byte	0
 8497 029e 00       		.byte	0
 8498 029f 31       		.uleb128 0x31
 8499 02a0 2E       		.uleb128 0x2e
 8500 02a1 01       		.byte	0x1
 8501 02a2 3F       		.uleb128 0x3f
 8502 02a3 19       		.uleb128 0x19
 8503 02a4 03       		.uleb128 0x3
 8504 02a5 0E       		.uleb128 0xe
 8505 02a6 3A       		.uleb128 0x3a
 8506 02a7 0B       		.uleb128 0xb
 8507 02a8 3B       		.uleb128 0x3b
 8508 02a9 05       		.uleb128 0x5
 8509 02aa 27       		.uleb128 0x27
 8510 02ab 19       		.uleb128 0x19
 8511 02ac 11       		.uleb128 0x11
 8512 02ad 01       		.uleb128 0x1
 8513 02ae 12       		.uleb128 0x12
 8514 02af 06       		.uleb128 0x6
 8515 02b0 40       		.uleb128 0x40
 8516 02b1 18       		.uleb128 0x18
 8517 02b2 9642     		.uleb128 0x2116
 8518 02b4 19       		.uleb128 0x19
 8519 02b5 01       		.uleb128 0x1
 8520 02b6 13       		.uleb128 0x13
 8521 02b7 00       		.byte	0
 8522 02b8 00       		.byte	0
 8523 02b9 32       		.uleb128 0x32
 8524 02ba 34       		.uleb128 0x34
 8525 02bb 00       		.byte	0
 8526 02bc 03       		.uleb128 0x3
 8527 02bd 0E       		.uleb128 0xe
 8528 02be 3A       		.uleb128 0x3a
 8529 02bf 0B       		.uleb128 0xb
 8530 02c0 3B       		.uleb128 0x3b
 8531 02c1 05       		.uleb128 0x5
 8532 02c2 49       		.uleb128 0x49
 8533 02c3 13       		.uleb128 0x13
 8534 02c4 3F       		.uleb128 0x3f
 8535 02c5 19       		.uleb128 0x19
 8536 02c6 3C       		.uleb128 0x3c
 8537 02c7 19       		.uleb128 0x19
 8538 02c8 00       		.byte	0
 8539 02c9 00       		.byte	0
 8540 02ca 33       		.uleb128 0x33
 8541 02cb 34       		.uleb128 0x34
 8542 02cc 00       		.byte	0
 8543 02cd 03       		.uleb128 0x3
 8544 02ce 0E       		.uleb128 0xe
 8545 02cf 3A       		.uleb128 0x3a
ARM GAS  C:\Users\thoma\AppData\Local\Temp\ccRUrbHX.s 			page 164


 8546 02d0 0B       		.uleb128 0xb
 8547 02d1 3B       		.uleb128 0x3b
 8548 02d2 0B       		.uleb128 0xb
 8549 02d3 49       		.uleb128 0x49
 8550 02d4 13       		.uleb128 0x13
 8551 02d5 3F       		.uleb128 0x3f
 8552 02d6 19       		.uleb128 0x19
 8553 02d7 3C       		.uleb128 0x3c
 8554 02d8 19       		.uleb128 0x19
 8555 02d9 00       		.byte	0
 8556 02da 00       		.byte	0
 8557 02db 34       		.uleb128 0x34
 8558 02dc 2E       		.uleb128 0x2e
 8559 02dd 00       		.byte	0
 8560 02de 3F       		.uleb128 0x3f
 8561 02df 19       		.uleb128 0x19
 8562 02e0 3C       		.uleb128 0x3c
 8563 02e1 19       		.uleb128 0x19
 8564 02e2 6E       		.uleb128 0x6e
 8565 02e3 0E       		.uleb128 0xe
 8566 02e4 03       		.uleb128 0x3
 8567 02e5 0E       		.uleb128 0xe
 8568 02e6 3A       		.uleb128 0x3a
 8569 02e7 0B       		.uleb128 0xb
 8570 02e8 3B       		.uleb128 0x3b
 8571 02e9 0B       		.uleb128 0xb
 8572 02ea 00       		.byte	0
 8573 02eb 00       		.byte	0
 8574 02ec 35       		.uleb128 0x35
 8575 02ed 2E       		.uleb128 0x2e
 8576 02ee 00       		.byte	0
 8577 02ef 3F       		.uleb128 0x3f
 8578 02f0 19       		.uleb128 0x19
 8579 02f1 3C       		.uleb128 0x3c
 8580 02f2 19       		.uleb128 0x19
 8581 02f3 6E       		.uleb128 0x6e
 8582 02f4 0E       		.uleb128 0xe
 8583 02f5 03       		.uleb128 0x3
 8584 02f6 0E       		.uleb128 0xe
 8585 02f7 3A       		.uleb128 0x3a
 8586 02f8 0B       		.uleb128 0xb
 8587 02f9 3B       		.uleb128 0x3b
 8588 02fa 05       		.uleb128 0x5
 8589 02fb 00       		.byte	0
 8590 02fc 00       		.byte	0
 8591 02fd 36       		.uleb128 0x36
 8592 02fe 2E       		.uleb128 0x2e
 8593 02ff 00       		.byte	0
 8594 0300 3F       		.uleb128 0x3f
 8595 0301 19       		.uleb128 0x19
 8596 0302 3C       		.uleb128 0x3c
 8597 0303 19       		.uleb128 0x19
 8598 0304 6E       		.uleb128 0x6e
 8599 0305 08       		.uleb128 0x8
 8600 0306 03       		.uleb128 0x3
 8601 0307 08       		.uleb128 0x8
 8602 0308 3A       		.uleb128 0x3a
ARM GAS  C:\Users\thoma\AppData\Local\Temp\ccRUrbHX.s 			page 165


 8603 0309 0B       		.uleb128 0xb
 8604 030a 3B       		.uleb128 0x3b
 8605 030b 0B       		.uleb128 0xb
 8606 030c 00       		.byte	0
 8607 030d 00       		.byte	0
 8608 030e 37       		.uleb128 0x37
 8609 030f 2E       		.uleb128 0x2e
 8610 0310 00       		.byte	0
 8611 0311 3F       		.uleb128 0x3f
 8612 0312 19       		.uleb128 0x19
 8613 0313 3C       		.uleb128 0x3c
 8614 0314 19       		.uleb128 0x19
 8615 0315 6E       		.uleb128 0x6e
 8616 0316 0E       		.uleb128 0xe
 8617 0317 03       		.uleb128 0x3
 8618 0318 0E       		.uleb128 0xe
 8619 0319 3A       		.uleb128 0x3a
 8620 031a 0B       		.uleb128 0xb
 8621 031b 3B       		.uleb128 0x3b
 8622 031c 0B       		.uleb128 0xb
 8623 031d 6E       		.uleb128 0x6e
 8624 031e 0E       		.uleb128 0xe
 8625 031f 00       		.byte	0
 8626 0320 00       		.byte	0
 8627 0321 00       		.byte	0
 8628              		.section	.debug_loc,"",%progbits
 8629              	.Ldebug_loc0:
 8630              	.LLST0:
 8631 0000 00000000 		.4byte	.LVL0
 8632 0004 0A000000 		.4byte	.LVL2
 8633 0008 0100     		.2byte	0x1
 8634 000a 50       		.byte	0x50
 8635 000b 0A000000 		.4byte	.LVL2
 8636 000f 20000000 		.4byte	.LFE672
 8637 0013 0400     		.2byte	0x4
 8638 0015 F3       		.byte	0xf3
 8639 0016 01       		.uleb128 0x1
 8640 0017 50       		.byte	0x50
 8641 0018 9F       		.byte	0x9f
 8642 0019 00000000 		.4byte	0
 8643 001d 00000000 		.4byte	0
 8644              	.LLST1:
 8645 0021 00000000 		.4byte	.LVL0
 8646 0025 08000000 		.4byte	.LVL1
 8647 0029 0100     		.2byte	0x1
 8648 002b 51       		.byte	0x51
 8649 002c 08000000 		.4byte	.LVL1
 8650 0030 20000000 		.4byte	.LFE672
 8651 0034 0400     		.2byte	0x4
 8652 0036 F3       		.byte	0xf3
 8653 0037 01       		.uleb128 0x1
 8654 0038 51       		.byte	0x51
 8655 0039 9F       		.byte	0x9f
 8656 003a 00000000 		.4byte	0
 8657 003e 00000000 		.4byte	0
 8658              	.LLST2:
 8659 0042 00000000 		.4byte	.LVL0
ARM GAS  C:\Users\thoma\AppData\Local\Temp\ccRUrbHX.s 			page 166


 8660 0046 0D000000 		.4byte	.LVL3-1
 8661 004a 0100     		.2byte	0x1
 8662 004c 52       		.byte	0x52
 8663 004d 0D000000 		.4byte	.LVL3-1
 8664 0051 20000000 		.4byte	.LFE672
 8665 0055 0400     		.2byte	0x4
 8666 0057 F3       		.byte	0xf3
 8667 0058 01       		.uleb128 0x1
 8668 0059 52       		.byte	0x52
 8669 005a 9F       		.byte	0x9f
 8670 005b 00000000 		.4byte	0
 8671 005f 00000000 		.4byte	0
 8672              	.LLST3:
 8673 0063 00000000 		.4byte	.LVL7
 8674 0067 0C000000 		.4byte	.LVL9
 8675 006b 0100     		.2byte	0x1
 8676 006d 50       		.byte	0x50
 8677 006e 0C000000 		.4byte	.LVL9
 8678 0072 28000000 		.4byte	.LFE673
 8679 0076 0400     		.2byte	0x4
 8680 0078 F3       		.byte	0xf3
 8681 0079 01       		.uleb128 0x1
 8682 007a 50       		.byte	0x50
 8683 007b 9F       		.byte	0x9f
 8684 007c 00000000 		.4byte	0
 8685 0080 00000000 		.4byte	0
 8686              	.LLST4:
 8687 0084 00000000 		.4byte	.LVL7
 8688 0088 0A000000 		.4byte	.LVL8
 8689 008c 0100     		.2byte	0x1
 8690 008e 51       		.byte	0x51
 8691 008f 0A000000 		.4byte	.LVL8
 8692 0093 28000000 		.4byte	.LFE673
 8693 0097 0400     		.2byte	0x4
 8694 0099 F3       		.byte	0xf3
 8695 009a 01       		.uleb128 0x1
 8696 009b 51       		.byte	0x51
 8697 009c 9F       		.byte	0x9f
 8698 009d 00000000 		.4byte	0
 8699 00a1 00000000 		.4byte	0
 8700              	.LLST5:
 8701 00a5 00000000 		.4byte	.LVL7
 8702 00a9 0F000000 		.4byte	.LVL10-1
 8703 00ad 0100     		.2byte	0x1
 8704 00af 52       		.byte	0x52
 8705 00b0 0F000000 		.4byte	.LVL10-1
 8706 00b4 28000000 		.4byte	.LFE673
 8707 00b8 0400     		.2byte	0x4
 8708 00ba F3       		.byte	0xf3
 8709 00bb 01       		.uleb128 0x1
 8710 00bc 52       		.byte	0x52
 8711 00bd 9F       		.byte	0x9f
 8712 00be 00000000 		.4byte	0
 8713 00c2 00000000 		.4byte	0
 8714              	.LLST6:
 8715 00c6 00000000 		.4byte	.LVL7
 8716 00ca 0F000000 		.4byte	.LVL10-1
ARM GAS  C:\Users\thoma\AppData\Local\Temp\ccRUrbHX.s 			page 167


 8717 00ce 0100     		.2byte	0x1
 8718 00d0 53       		.byte	0x53
 8719 00d1 0F000000 		.4byte	.LVL10-1
 8720 00d5 28000000 		.4byte	.LFE673
 8721 00d9 0400     		.2byte	0x4
 8722 00db F3       		.byte	0xf3
 8723 00dc 01       		.uleb128 0x1
 8724 00dd 53       		.byte	0x53
 8725 00de 9F       		.byte	0x9f
 8726 00df 00000000 		.4byte	0
 8727 00e3 00000000 		.4byte	0
 8728              	.LLST7:
 8729 00e7 00000000 		.4byte	.LVL15
 8730 00eb 0B000000 		.4byte	.LVL17-1
 8731 00ef 0100     		.2byte	0x1
 8732 00f1 50       		.byte	0x50
 8733 00f2 0B000000 		.4byte	.LVL17-1
 8734 00f6 0E000000 		.4byte	.LFE670
 8735 00fa 0400     		.2byte	0x4
 8736 00fc F3       		.byte	0xf3
 8737 00fd 01       		.uleb128 0x1
 8738 00fe 50       		.byte	0x50
 8739 00ff 9F       		.byte	0x9f
 8740 0100 00000000 		.4byte	0
 8741 0104 00000000 		.4byte	0
 8742              	.LLST8:
 8743 0108 00000000 		.4byte	.LVL15
 8744 010c 08000000 		.4byte	.LVL16
 8745 0110 0100     		.2byte	0x1
 8746 0112 51       		.byte	0x51
 8747 0113 08000000 		.4byte	.LVL16
 8748 0117 0E000000 		.4byte	.LFE670
 8749 011b 0400     		.2byte	0x4
 8750 011d F3       		.byte	0xf3
 8751 011e 01       		.uleb128 0x1
 8752 011f 51       		.byte	0x51
 8753 0120 9F       		.byte	0x9f
 8754 0121 00000000 		.4byte	0
 8755 0125 00000000 		.4byte	0
 8756              	.LLST9:
 8757 0129 00000000 		.4byte	.LVL18
 8758 012d 0A000000 		.4byte	.LVL21
 8759 0131 0100     		.2byte	0x1
 8760 0133 50       		.byte	0x50
 8761 0134 0A000000 		.4byte	.LVL21
 8762 0138 44000000 		.4byte	.LFE674
 8763 013c 0400     		.2byte	0x4
 8764 013e F3       		.byte	0xf3
 8765 013f 01       		.uleb128 0x1
 8766 0140 50       		.byte	0x50
 8767 0141 9F       		.byte	0x9f
 8768 0142 00000000 		.4byte	0
 8769 0146 00000000 		.4byte	0
 8770              	.LLST10:
 8771 014a 00000000 		.4byte	.LVL18
 8772 014e 08000000 		.4byte	.LVL20
 8773 0152 0100     		.2byte	0x1
ARM GAS  C:\Users\thoma\AppData\Local\Temp\ccRUrbHX.s 			page 168


 8774 0154 51       		.byte	0x51
 8775 0155 08000000 		.4byte	.LVL20
 8776 0159 44000000 		.4byte	.LFE674
 8777 015d 0400     		.2byte	0x4
 8778 015f F3       		.byte	0xf3
 8779 0160 01       		.uleb128 0x1
 8780 0161 51       		.byte	0x51
 8781 0162 9F       		.byte	0x9f
 8782 0163 00000000 		.4byte	0
 8783 0167 00000000 		.4byte	0
 8784              	.LLST11:
 8785 016b 00000000 		.4byte	.LVL18
 8786 016f 0D000000 		.4byte	.LVL22-1
 8787 0173 0100     		.2byte	0x1
 8788 0175 52       		.byte	0x52
 8789 0176 0D000000 		.4byte	.LVL22-1
 8790 017a 44000000 		.4byte	.LFE674
 8791 017e 0400     		.2byte	0x4
 8792 0180 F3       		.byte	0xf3
 8793 0181 01       		.uleb128 0x1
 8794 0182 52       		.byte	0x52
 8795 0183 9F       		.byte	0x9f
 8796 0184 00000000 		.4byte	0
 8797 0188 00000000 		.4byte	0
 8798              	.LLST12:
 8799 018c 06000000 		.4byte	.LVL19
 8800 0190 22000000 		.4byte	.LVL25
 8801 0194 0200     		.2byte	0x2
 8802 0196 30       		.byte	0x30
 8803 0197 9F       		.byte	0x9f
 8804 0198 22000000 		.4byte	.LVL25
 8805 019c 44000000 		.4byte	.LFE674
 8806 01a0 0100     		.2byte	0x1
 8807 01a2 55       		.byte	0x55
 8808 01a3 00000000 		.4byte	0
 8809 01a7 00000000 		.4byte	0
 8810              	.LLST13:
 8811 01ab 1C000000 		.4byte	.LVL24
 8812 01af 22000000 		.4byte	.LVL25
 8813 01b3 0200     		.2byte	0x2
 8814 01b5 30       		.byte	0x30
 8815 01b6 9F       		.byte	0x9f
 8816 01b7 22000000 		.4byte	.LVL25
 8817 01bb 36000000 		.4byte	.LVL31
 8818 01bf 0100     		.2byte	0x1
 8819 01c1 54       		.byte	0x54
 8820 01c2 38000000 		.4byte	.LVL32
 8821 01c6 44000000 		.4byte	.LFE674
 8822 01ca 0100     		.2byte	0x1
 8823 01cc 54       		.byte	0x54
 8824 01cd 00000000 		.4byte	0
 8825 01d1 00000000 		.4byte	0
 8826              	.LLST14:
 8827 01d5 24000000 		.4byte	.LVL26
 8828 01d9 26000000 		.4byte	.LVL27
 8829 01dd 0600     		.2byte	0x6
 8830 01df 74       		.byte	0x74
ARM GAS  C:\Users\thoma\AppData\Local\Temp\ccRUrbHX.s 			page 169


 8831 01e0 00       		.sleb128 0
 8832 01e1 70       		.byte	0x70
 8833 01e2 00       		.sleb128 0
 8834 01e3 2E       		.byte	0x2e
 8835 01e4 9F       		.byte	0x9f
 8836 01e5 26000000 		.4byte	.LVL27
 8837 01e9 36000000 		.4byte	.LVL31
 8838 01ed 0600     		.2byte	0x6
 8839 01ef 74       		.byte	0x74
 8840 01f0 00       		.sleb128 0
 8841 01f1 76       		.byte	0x76
 8842 01f2 7F       		.sleb128 -1
 8843 01f3 2E       		.byte	0x2e
 8844 01f4 9F       		.byte	0x9f
 8845 01f5 36000000 		.4byte	.LVL31
 8846 01f9 38000000 		.4byte	.LVL32
 8847 01fd 0600     		.2byte	0x6
 8848 01ff 74       		.byte	0x74
 8849 0200 7F       		.sleb128 -1
 8850 0201 76       		.byte	0x76
 8851 0202 7F       		.sleb128 -1
 8852 0203 2E       		.byte	0x2e
 8853 0204 9F       		.byte	0x9f
 8854 0205 00000000 		.4byte	0
 8855 0209 00000000 		.4byte	0
 8856              	.LLST15:
 8857 020d 2E000000 		.4byte	.LVL28
 8858 0211 32000000 		.4byte	.LVL29
 8859 0215 0100     		.2byte	0x1
 8860 0217 50       		.byte	0x50
 8861 0218 00000000 		.4byte	0
 8862 021c 00000000 		.4byte	0
 8863              	.LLST16:
 8864 0220 00000000 		.4byte	.LVL34
 8865 0224 07000000 		.4byte	.LVL35-1
 8866 0228 0100     		.2byte	0x1
 8867 022a 50       		.byte	0x50
 8868 022b 07000000 		.4byte	.LVL35-1
 8869 022f 16000000 		.4byte	.LFE671
 8870 0233 0100     		.2byte	0x1
 8871 0235 54       		.byte	0x54
 8872 0236 00000000 		.4byte	0
 8873 023a 00000000 		.4byte	0
 8874              	.LLST17:
 8875 023e 00000000 		.4byte	.LVL34
 8876 0242 07000000 		.4byte	.LVL35-1
 8877 0246 0100     		.2byte	0x1
 8878 0248 51       		.byte	0x51
 8879 0249 07000000 		.4byte	.LVL35-1
 8880 024d 16000000 		.4byte	.LFE671
 8881 0251 0400     		.2byte	0x4
 8882 0253 F3       		.byte	0xf3
 8883 0254 01       		.uleb128 0x1
 8884 0255 51       		.byte	0x51
 8885 0256 9F       		.byte	0x9f
 8886 0257 00000000 		.4byte	0
 8887 025b 00000000 		.4byte	0
ARM GAS  C:\Users\thoma\AppData\Local\Temp\ccRUrbHX.s 			page 170


 8888              	.LLST18:
 8889 025f 00000000 		.4byte	.LVL37
 8890 0263 07000000 		.4byte	.LVL38-1
 8891 0267 0100     		.2byte	0x1
 8892 0269 50       		.byte	0x50
 8893 026a 07000000 		.4byte	.LVL38-1
 8894 026e 0A000000 		.4byte	.LFE675
 8895 0272 0400     		.2byte	0x4
 8896 0274 F3       		.byte	0xf3
 8897 0275 01       		.uleb128 0x1
 8898 0276 50       		.byte	0x50
 8899 0277 9F       		.byte	0x9f
 8900 0278 00000000 		.4byte	0
 8901 027c 00000000 		.4byte	0
 8902              	.LLST19:
 8903 0280 00000000 		.4byte	.LVL39
 8904 0284 07000000 		.4byte	.LVL40-1
 8905 0288 0100     		.2byte	0x1
 8906 028a 50       		.byte	0x50
 8907 028b 07000000 		.4byte	.LVL40-1
 8908 028f 0A000000 		.4byte	.LFE676
 8909 0293 0400     		.2byte	0x4
 8910 0295 F3       		.byte	0xf3
 8911 0296 01       		.uleb128 0x1
 8912 0297 50       		.byte	0x50
 8913 0298 9F       		.byte	0x9f
 8914 0299 00000000 		.4byte	0
 8915 029d 00000000 		.4byte	0
 8916              	.LLST20:
 8917 02a1 00000000 		.4byte	.LVL41
 8918 02a5 07000000 		.4byte	.LVL42-1
 8919 02a9 0100     		.2byte	0x1
 8920 02ab 50       		.byte	0x50
 8921 02ac 07000000 		.4byte	.LVL42-1
 8922 02b0 0A000000 		.4byte	.LFE677
 8923 02b4 0400     		.2byte	0x4
 8924 02b6 F3       		.byte	0xf3
 8925 02b7 01       		.uleb128 0x1
 8926 02b8 50       		.byte	0x50
 8927 02b9 9F       		.byte	0x9f
 8928 02ba 00000000 		.4byte	0
 8929 02be 00000000 		.4byte	0
 8930              	.LLST21:
 8931 02c2 00000000 		.4byte	.LVL43
 8932 02c6 07000000 		.4byte	.LVL44-1
 8933 02ca 0100     		.2byte	0x1
 8934 02cc 50       		.byte	0x50
 8935 02cd 07000000 		.4byte	.LVL44-1
 8936 02d1 0A000000 		.4byte	.LFE678
 8937 02d5 0400     		.2byte	0x4
 8938 02d7 F3       		.byte	0xf3
 8939 02d8 01       		.uleb128 0x1
 8940 02d9 50       		.byte	0x50
 8941 02da 9F       		.byte	0x9f
 8942 02db 00000000 		.4byte	0
 8943 02df 00000000 		.4byte	0
 8944              	.LLST22:
ARM GAS  C:\Users\thoma\AppData\Local\Temp\ccRUrbHX.s 			page 171


 8945 02e3 00000000 		.4byte	.LVL45
 8946 02e7 07000000 		.4byte	.LVL46-1
 8947 02eb 0100     		.2byte	0x1
 8948 02ed 50       		.byte	0x50
 8949 02ee 07000000 		.4byte	.LVL46-1
 8950 02f2 0A000000 		.4byte	.LFE679
 8951 02f6 0400     		.2byte	0x4
 8952 02f8 F3       		.byte	0xf3
 8953 02f9 01       		.uleb128 0x1
 8954 02fa 50       		.byte	0x50
 8955 02fb 9F       		.byte	0x9f
 8956 02fc 00000000 		.4byte	0
 8957 0300 00000000 		.4byte	0
 8958              	.LLST23:
 8959 0304 00000000 		.4byte	.LVL47
 8960 0308 07000000 		.4byte	.LVL48-1
 8961 030c 0100     		.2byte	0x1
 8962 030e 50       		.byte	0x50
 8963 030f 07000000 		.4byte	.LVL48-1
 8964 0313 0A000000 		.4byte	.LFE680
 8965 0317 0400     		.2byte	0x4
 8966 0319 F3       		.byte	0xf3
 8967 031a 01       		.uleb128 0x1
 8968 031b 50       		.byte	0x50
 8969 031c 9F       		.byte	0x9f
 8970 031d 00000000 		.4byte	0
 8971 0321 00000000 		.4byte	0
 8972              	.LLST24:
 8973 0325 00000000 		.4byte	.LVL49
 8974 0329 09000000 		.4byte	.LVL50-1
 8975 032d 0100     		.2byte	0x1
 8976 032f 50       		.byte	0x50
 8977 0330 09000000 		.4byte	.LVL50-1
 8978 0334 0E000000 		.4byte	.LFE681
 8979 0338 0400     		.2byte	0x4
 8980 033a F3       		.byte	0xf3
 8981 033b 01       		.uleb128 0x1
 8982 033c 50       		.byte	0x50
 8983 033d 9F       		.byte	0x9f
 8984 033e 00000000 		.4byte	0
 8985 0342 00000000 		.4byte	0
 8986              	.LLST25:
 8987 0346 00000000 		.4byte	.LVL51
 8988 034a 09000000 		.4byte	.LVL52-1
 8989 034e 0100     		.2byte	0x1
 8990 0350 50       		.byte	0x50
 8991 0351 09000000 		.4byte	.LVL52-1
 8992 0355 0E000000 		.4byte	.LFE682
 8993 0359 0400     		.2byte	0x4
 8994 035b F3       		.byte	0xf3
 8995 035c 01       		.uleb128 0x1
 8996 035d 50       		.byte	0x50
 8997 035e 9F       		.byte	0x9f
 8998 035f 00000000 		.4byte	0
 8999 0363 00000000 		.4byte	0
 9000              	.LLST26:
 9001 0367 00000000 		.4byte	.LVL53
ARM GAS  C:\Users\thoma\AppData\Local\Temp\ccRUrbHX.s 			page 172


 9002 036b 09000000 		.4byte	.LVL54-1
 9003 036f 0100     		.2byte	0x1
 9004 0371 50       		.byte	0x50
 9005 0372 09000000 		.4byte	.LVL54-1
 9006 0376 0E000000 		.4byte	.LFE683
 9007 037a 0400     		.2byte	0x4
 9008 037c F3       		.byte	0xf3
 9009 037d 01       		.uleb128 0x1
 9010 037e 50       		.byte	0x50
 9011 037f 9F       		.byte	0x9f
 9012 0380 00000000 		.4byte	0
 9013 0384 00000000 		.4byte	0
 9014              	.LLST27:
 9015 0388 00000000 		.4byte	.LVL55
 9016 038c 09000000 		.4byte	.LVL56-1
 9017 0390 0100     		.2byte	0x1
 9018 0392 50       		.byte	0x50
 9019 0393 09000000 		.4byte	.LVL56-1
 9020 0397 0E000000 		.4byte	.LFE684
 9021 039b 0400     		.2byte	0x4
 9022 039d F3       		.byte	0xf3
 9023 039e 01       		.uleb128 0x1
 9024 039f 50       		.byte	0x50
 9025 03a0 9F       		.byte	0x9f
 9026 03a1 00000000 		.4byte	0
 9027 03a5 00000000 		.4byte	0
 9028              	.LLST28:
 9029 03a9 00000000 		.4byte	.LVL57
 9030 03ad 09000000 		.4byte	.LVL58-1
 9031 03b1 0100     		.2byte	0x1
 9032 03b3 50       		.byte	0x50
 9033 03b4 09000000 		.4byte	.LVL58-1
 9034 03b8 0E000000 		.4byte	.LFE685
 9035 03bc 0400     		.2byte	0x4
 9036 03be F3       		.byte	0xf3
 9037 03bf 01       		.uleb128 0x1
 9038 03c0 50       		.byte	0x50
 9039 03c1 9F       		.byte	0x9f
 9040 03c2 00000000 		.4byte	0
 9041 03c6 00000000 		.4byte	0
 9042              	.LLST29:
 9043 03ca 00000000 		.4byte	.LVL59
 9044 03ce 09000000 		.4byte	.LVL60-1
 9045 03d2 0100     		.2byte	0x1
 9046 03d4 50       		.byte	0x50
 9047 03d5 09000000 		.4byte	.LVL60-1
 9048 03d9 16000000 		.4byte	.LFE686
 9049 03dd 0400     		.2byte	0x4
 9050 03df F3       		.byte	0xf3
 9051 03e0 01       		.uleb128 0x1
 9052 03e1 50       		.byte	0x50
 9053 03e2 9F       		.byte	0x9f
 9054 03e3 00000000 		.4byte	0
 9055 03e7 00000000 		.4byte	0
 9056              	.LLST30:
 9057 03eb 0C000000 		.4byte	.LVL61
 9058 03ef 12000000 		.4byte	.LVL62
ARM GAS  C:\Users\thoma\AppData\Local\Temp\ccRUrbHX.s 			page 173


 9059 03f3 0100     		.2byte	0x1
 9060 03f5 50       		.byte	0x50
 9061 03f6 00000000 		.4byte	0
 9062 03fa 00000000 		.4byte	0
 9063              	.LLST31:
 9064 03fe 00000000 		.4byte	.LVL63
 9065 0402 09000000 		.4byte	.LVL64-1
 9066 0406 0100     		.2byte	0x1
 9067 0408 50       		.byte	0x50
 9068 0409 09000000 		.4byte	.LVL64-1
 9069 040d 34000000 		.4byte	.LFE687
 9070 0411 0400     		.2byte	0x4
 9071 0413 F3       		.byte	0xf3
 9072 0414 01       		.uleb128 0x1
 9073 0415 50       		.byte	0x50
 9074 0416 9F       		.byte	0x9f
 9075 0417 00000000 		.4byte	0
 9076 041b 00000000 		.4byte	0
 9077              	.LLST32:
 9078 041f 0A000000 		.4byte	.LVL64
 9079 0423 0F000000 		.4byte	.LVL65-1
 9080 0427 0100     		.2byte	0x1
 9081 0429 50       		.byte	0x50
 9082 042a 00000000 		.4byte	0
 9083 042e 00000000 		.4byte	0
 9084              	.LLST33:
 9085 0432 00000000 		.4byte	.LVL68
 9086 0436 09000000 		.4byte	.LVL69-1
 9087 043a 0100     		.2byte	0x1
 9088 043c 50       		.byte	0x50
 9089 043d 09000000 		.4byte	.LVL69-1
 9090 0441 0C000000 		.4byte	.LFE688
 9091 0445 0400     		.2byte	0x4
 9092 0447 F3       		.byte	0xf3
 9093 0448 01       		.uleb128 0x1
 9094 0449 50       		.byte	0x50
 9095 044a 9F       		.byte	0x9f
 9096 044b 00000000 		.4byte	0
 9097 044f 00000000 		.4byte	0
 9098              	.LLST34:
 9099 0453 00000000 		.4byte	.LVL70
 9100 0457 07000000 		.4byte	.LVL71-1
 9101 045b 0100     		.2byte	0x1
 9102 045d 50       		.byte	0x50
 9103 045e 07000000 		.4byte	.LVL71-1
 9104 0462 10000000 		.4byte	.LFE689
 9105 0466 0400     		.2byte	0x4
 9106 0468 F3       		.byte	0xf3
 9107 0469 01       		.uleb128 0x1
 9108 046a 50       		.byte	0x50
 9109 046b 9F       		.byte	0x9f
 9110 046c 00000000 		.4byte	0
 9111 0470 00000000 		.4byte	0
 9112              	.LLST35:
 9113 0474 00000000 		.4byte	.LVL73
 9114 0478 0B000000 		.4byte	.LVL74-1
 9115 047c 0100     		.2byte	0x1
ARM GAS  C:\Users\thoma\AppData\Local\Temp\ccRUrbHX.s 			page 174


 9116 047e 50       		.byte	0x50
 9117 047f 0B000000 		.4byte	.LVL74-1
 9118 0483 18000000 		.4byte	.LFE690
 9119 0487 0100     		.2byte	0x1
 9120 0489 54       		.byte	0x54
 9121 048a 00000000 		.4byte	0
 9122 048e 00000000 		.4byte	0
 9123              	.LLST36:
 9124 0492 00000000 		.4byte	.LVL76
 9125 0496 07000000 		.4byte	.LVL77-1
 9126 049a 0100     		.2byte	0x1
 9127 049c 50       		.byte	0x50
 9128 049d 07000000 		.4byte	.LVL77-1
 9129 04a1 0A000000 		.4byte	.LFE691
 9130 04a5 0400     		.2byte	0x4
 9131 04a7 F3       		.byte	0xf3
 9132 04a8 01       		.uleb128 0x1
 9133 04a9 50       		.byte	0x50
 9134 04aa 9F       		.byte	0x9f
 9135 04ab 00000000 		.4byte	0
 9136 04af 00000000 		.4byte	0
 9137              	.LLST37:
 9138 04b3 00000000 		.4byte	.LVL78
 9139 04b7 0A000000 		.4byte	.LVL79
 9140 04bb 0100     		.2byte	0x1
 9141 04bd 50       		.byte	0x50
 9142 04be 0A000000 		.4byte	.LVL79
 9143 04c2 4A000000 		.4byte	.LFE692
 9144 04c6 0100     		.2byte	0x1
 9145 04c8 54       		.byte	0x54
 9146 04c9 00000000 		.4byte	0
 9147 04cd 00000000 		.4byte	0
 9148              	.LLST38:
 9149 04d1 00000000 		.4byte	.LVL78
 9150 04d5 0D000000 		.4byte	.LVL80-1
 9151 04d9 0100     		.2byte	0x1
 9152 04db 51       		.byte	0x51
 9153 04dc 0D000000 		.4byte	.LVL80-1
 9154 04e0 4A000000 		.4byte	.LFE692
 9155 04e4 0400     		.2byte	0x4
 9156 04e6 F3       		.byte	0xf3
 9157 04e7 01       		.uleb128 0x1
 9158 04e8 51       		.byte	0x51
 9159 04e9 9F       		.byte	0x9f
 9160 04ea 00000000 		.4byte	0
 9161 04ee 00000000 		.4byte	0
 9162              	.LLST39:
 9163 04f2 00000000 		.4byte	.LVL78
 9164 04f6 0D000000 		.4byte	.LVL80-1
 9165 04fa 0100     		.2byte	0x1
 9166 04fc 52       		.byte	0x52
 9167 04fd 0D000000 		.4byte	.LVL80-1
 9168 0501 4A000000 		.4byte	.LFE692
 9169 0505 0400     		.2byte	0x4
 9170 0507 F3       		.byte	0xf3
 9171 0508 01       		.uleb128 0x1
 9172 0509 52       		.byte	0x52
ARM GAS  C:\Users\thoma\AppData\Local\Temp\ccRUrbHX.s 			page 175


 9173 050a 9F       		.byte	0x9f
 9174 050b 00000000 		.4byte	0
 9175 050f 00000000 		.4byte	0
 9176              	.LLST40:
 9177 0513 00000000 		.4byte	.LVL87
 9178 0517 28000000 		.4byte	.LVL90
 9179 051b 0100     		.2byte	0x1
 9180 051d 50       		.byte	0x50
 9181 051e 28000000 		.4byte	.LVL90
 9182 0522 3A000000 		.4byte	.LVL93
 9183 0526 0100     		.2byte	0x1
 9184 0528 56       		.byte	0x56
 9185 0529 3A000000 		.4byte	.LVL93
 9186 052d 44000000 		.4byte	.LVL94
 9187 0531 0100     		.2byte	0x1
 9188 0533 50       		.byte	0x50
 9189 0534 44000000 		.4byte	.LVL94
 9190 0538 6C000000 		.4byte	.LVL98
 9191 053c 0100     		.2byte	0x1
 9192 053e 56       		.byte	0x56
 9193 053f 6C000000 		.4byte	.LVL98
 9194 0543 6E000000 		.4byte	.LVL99
 9195 0547 0100     		.2byte	0x1
 9196 0549 50       		.byte	0x50
 9197 054a 6E000000 		.4byte	.LVL99
 9198 054e 9E000000 		.4byte	.LVL104
 9199 0552 0100     		.2byte	0x1
 9200 0554 56       		.byte	0x56
 9201 0555 9E000000 		.4byte	.LVL104
 9202 0559 A4000000 		.4byte	.LFE695
 9203 055d 0400     		.2byte	0x4
 9204 055f F3       		.byte	0xf3
 9205 0560 01       		.uleb128 0x1
 9206 0561 50       		.byte	0x50
 9207 0562 9F       		.byte	0x9f
 9208 0563 00000000 		.4byte	0
 9209 0567 00000000 		.4byte	0
 9210              	.LLST41:
 9211 056b 00000000 		.4byte	.LVL87
 9212 056f 14000000 		.4byte	.LVL88
 9213 0573 0100     		.2byte	0x1
 9214 0575 51       		.byte	0x51
 9215 0576 14000000 		.4byte	.LVL88
 9216 057a 8C000000 		.4byte	.LVL102
 9217 057e 0100     		.2byte	0x1
 9218 0580 57       		.byte	0x57
 9219 0581 00000000 		.4byte	0
 9220 0585 00000000 		.4byte	0
 9221              	.LLST42:
 9222 0589 00000000 		.4byte	.LVL87
 9223 058d 1E000000 		.4byte	.LVL89
 9224 0591 0100     		.2byte	0x1
 9225 0593 52       		.byte	0x52
 9226 0594 1E000000 		.4byte	.LVL89
 9227 0598 3A000000 		.4byte	.LVL93
 9228 059c 0100     		.2byte	0x1
 9229 059e 59       		.byte	0x59
ARM GAS  C:\Users\thoma\AppData\Local\Temp\ccRUrbHX.s 			page 176


 9230 059f 3A000000 		.4byte	.LVL93
 9231 05a3 44000000 		.4byte	.LVL94
 9232 05a7 0100     		.2byte	0x1
 9233 05a9 52       		.byte	0x52
 9234 05aa 44000000 		.4byte	.LVL94
 9235 05ae 6C000000 		.4byte	.LVL98
 9236 05b2 0100     		.2byte	0x1
 9237 05b4 59       		.byte	0x59
 9238 05b5 6C000000 		.4byte	.LVL98
 9239 05b9 6E000000 		.4byte	.LVL99
 9240 05bd 0100     		.2byte	0x1
 9241 05bf 52       		.byte	0x52
 9242 05c0 6E000000 		.4byte	.LVL99
 9243 05c4 9E000000 		.4byte	.LVL104
 9244 05c8 0100     		.2byte	0x1
 9245 05ca 59       		.byte	0x59
 9246 05cb 9E000000 		.4byte	.LVL104
 9247 05cf A4000000 		.4byte	.LFE695
 9248 05d3 0400     		.2byte	0x4
 9249 05d5 F3       		.byte	0xf3
 9250 05d6 01       		.uleb128 0x1
 9251 05d7 52       		.byte	0x52
 9252 05d8 9F       		.byte	0x9f
 9253 05d9 00000000 		.4byte	0
 9254 05dd 00000000 		.4byte	0
 9255              	.LLST43:
 9256 05e1 00000000 		.4byte	.LVL87
 9257 05e5 2B000000 		.4byte	.LVL91-1
 9258 05e9 0100     		.2byte	0x1
 9259 05eb 53       		.byte	0x53
 9260 05ec 2B000000 		.4byte	.LVL91-1
 9261 05f0 3A000000 		.4byte	.LVL93
 9262 05f4 0100     		.2byte	0x1
 9263 05f6 58       		.byte	0x58
 9264 05f7 3A000000 		.4byte	.LVL93
 9265 05fb 44000000 		.4byte	.LVL94
 9266 05ff 0100     		.2byte	0x1
 9267 0601 53       		.byte	0x53
 9268 0602 44000000 		.4byte	.LVL94
 9269 0606 6C000000 		.4byte	.LVL98
 9270 060a 0100     		.2byte	0x1
 9271 060c 58       		.byte	0x58
 9272 060d 6C000000 		.4byte	.LVL98
 9273 0611 6E000000 		.4byte	.LVL99
 9274 0615 0100     		.2byte	0x1
 9275 0617 53       		.byte	0x53
 9276 0618 6E000000 		.4byte	.LVL99
 9277 061c 9E000000 		.4byte	.LVL104
 9278 0620 0100     		.2byte	0x1
 9279 0622 58       		.byte	0x58
 9280 0623 9E000000 		.4byte	.LVL104
 9281 0627 A4000000 		.4byte	.LFE695
 9282 062b 0400     		.2byte	0x4
 9283 062d F3       		.byte	0xf3
 9284 062e 01       		.uleb128 0x1
 9285 062f 53       		.byte	0x53
 9286 0630 9F       		.byte	0x9f
ARM GAS  C:\Users\thoma\AppData\Local\Temp\ccRUrbHX.s 			page 177


 9287 0631 00000000 		.4byte	0
 9288 0635 00000000 		.4byte	0
 9289              	.LLST44:
 9290 0639 44000000 		.4byte	.LVL94
 9291 063d 6C000000 		.4byte	.LVL98
 9292 0641 0100     		.2byte	0x1
 9293 0643 54       		.byte	0x54
 9294 0644 6E000000 		.4byte	.LVL99
 9295 0648 7A000000 		.4byte	.LVL100
 9296 064c 0100     		.2byte	0x1
 9297 064e 54       		.byte	0x54
 9298 064f 00000000 		.4byte	0
 9299 0653 00000000 		.4byte	0
 9300              	.LLST45:
 9301 0657 00000000 		.4byte	.LVL106
 9302 065b 07000000 		.4byte	.LVL107-1
 9303 065f 0100     		.2byte	0x1
 9304 0661 50       		.byte	0x50
 9305 0662 07000000 		.4byte	.LVL107-1
 9306 0666 0A000000 		.4byte	.LFE705
 9307 066a 0400     		.2byte	0x4
 9308 066c F3       		.byte	0xf3
 9309 066d 01       		.uleb128 0x1
 9310 066e 50       		.byte	0x50
 9311 066f 9F       		.byte	0x9f
 9312 0670 00000000 		.4byte	0
 9313 0674 00000000 		.4byte	0
 9314              	.LLST46:
 9315 0678 00000000 		.4byte	.LVL108
 9316 067c 07000000 		.4byte	.LVL109-1
 9317 0680 0100     		.2byte	0x1
 9318 0682 50       		.byte	0x50
 9319 0683 07000000 		.4byte	.LVL109-1
 9320 0687 0A000000 		.4byte	.LFE706
 9321 068b 0400     		.2byte	0x4
 9322 068d F3       		.byte	0xf3
 9323 068e 01       		.uleb128 0x1
 9324 068f 50       		.byte	0x50
 9325 0690 9F       		.byte	0x9f
 9326 0691 00000000 		.4byte	0
 9327 0695 00000000 		.4byte	0
 9328              	.LLST47:
 9329 0699 00000000 		.4byte	.LVL110
 9330 069d 07000000 		.4byte	.LVL111-1
 9331 06a1 0100     		.2byte	0x1
 9332 06a3 50       		.byte	0x50
 9333 06a4 07000000 		.4byte	.LVL111-1
 9334 06a8 0A000000 		.4byte	.LFE707
 9335 06ac 0400     		.2byte	0x4
 9336 06ae F3       		.byte	0xf3
 9337 06af 01       		.uleb128 0x1
 9338 06b0 50       		.byte	0x50
 9339 06b1 9F       		.byte	0x9f
 9340 06b2 00000000 		.4byte	0
 9341 06b6 00000000 		.4byte	0
 9342              	.LLST48:
 9343 06ba 00000000 		.4byte	.LVL112
ARM GAS  C:\Users\thoma\AppData\Local\Temp\ccRUrbHX.s 			page 178


 9344 06be 16000000 		.4byte	.LVL114
 9345 06c2 0100     		.2byte	0x1
 9346 06c4 50       		.byte	0x50
 9347 06c5 16000000 		.4byte	.LVL114
 9348 06c9 31000000 		.4byte	.LVL119-1
 9349 06cd 0200     		.2byte	0x2
 9350 06cf 90       		.byte	0x90
 9351 06d0 4F       		.uleb128 0x4f
 9352 06d1 00000000 		.4byte	0
 9353 06d5 00000000 		.4byte	0
 9354              	.LLST49:
 9355 06d9 54000000 		.4byte	.LVL124
 9356 06dd F8000000 		.4byte	.LVL147
 9357 06e1 0100     		.2byte	0x1
 9358 06e3 56       		.byte	0x56
 9359 06e4 00000000 		.4byte	0
 9360 06e8 00000000 		.4byte	0
 9361              	.LLST50:
 9362 06ec 9C000000 		.4byte	.LVL133
 9363 06f0 9F000000 		.4byte	.LVL134-1
 9364 06f4 0100     		.2byte	0x1
 9365 06f6 50       		.byte	0x50
 9366 06f7 9F000000 		.4byte	.LVL134-1
 9367 06fb EE000000 		.4byte	.LVL145
 9368 06ff 0100     		.2byte	0x1
 9369 0701 54       		.byte	0x54
 9370 0702 00000000 		.4byte	0
 9371 0706 00000000 		.4byte	0
 9372              	.LLST51:
 9373 070a C6000000 		.4byte	.LVL139
 9374 070e C9000000 		.4byte	.LVL140-1
 9375 0712 0100     		.2byte	0x1
 9376 0714 50       		.byte	0x50
 9377 0715 C9000000 		.4byte	.LVL140-1
 9378 0719 F8000000 		.4byte	.LVL147
 9379 071d 0100     		.2byte	0x1
 9380 071f 55       		.byte	0x55
 9381 0720 00000000 		.4byte	0
 9382 0724 00000000 		.4byte	0
 9383              	.LLST52:
 9384 0728 E2000000 		.4byte	.LVL143
 9385 072c F4000000 		.4byte	.LVL146
 9386 0730 0100     		.2byte	0x1
 9387 0732 50       		.byte	0x50
 9388 0733 00000000 		.4byte	0
 9389 0737 00000000 		.4byte	0
 9390              	.LLST53:
 9391 073b 50000000 		.4byte	.LVL123
 9392 073f 57000000 		.4byte	.LVL125-1
 9393 0743 0100     		.2byte	0x1
 9394 0745 50       		.byte	0x50
 9395 0746 57000000 		.4byte	.LVL125-1
 9396 074a F8000000 		.4byte	.LVL147
 9397 074e 0400     		.2byte	0x4
 9398 0750 76       		.byte	0x76
 9399 0751 807F     		.sleb128 -128
 9400 0753 9F       		.byte	0x9f
ARM GAS  C:\Users\thoma\AppData\Local\Temp\ccRUrbHX.s 			page 179


 9401 0754 00000000 		.4byte	0
 9402 0758 00000000 		.4byte	0
 9403              	.LLST54:
 9404 075c 08000000 		.4byte	.LVL113
 9405 0760 20000000 		.4byte	.LVL115
 9406 0764 0200     		.2byte	0x2
 9407 0766 30       		.byte	0x30
 9408 0767 9F       		.byte	0x9f
 9409 0768 20000000 		.4byte	.LVL115
 9410 076c 28000000 		.4byte	.LVL117
 9411 0770 0200     		.2byte	0x2
 9412 0772 31       		.byte	0x31
 9413 0773 9F       		.byte	0x9f
 9414 0774 28000000 		.4byte	.LVL117
 9415 0778 2A000000 		.4byte	.LVL118
 9416 077c 0200     		.2byte	0x2
 9417 077e 30       		.byte	0x30
 9418 077f 9F       		.byte	0x9f
 9419 0780 2A000000 		.4byte	.LVL118
 9420 0784 F8000000 		.4byte	.LVL147
 9421 0788 0100     		.2byte	0x1
 9422 078a 57       		.byte	0x57
 9423 078b 00000000 		.4byte	0
 9424 078f 00000000 		.4byte	0
 9425              	.LLST55:
 9426 0793 76000000 		.4byte	.LVL128
 9427 0797 82000000 		.4byte	.LVL129
 9428 079b 0C00     		.2byte	0xc
 9429 079d F5       		.byte	0xf5
 9430 079e 00       		.uleb128 0
 9431 079f 25       		.uleb128 0x25
 9432 07a0 F4       		.byte	0xf4
 9433 07a1 25       		.uleb128 0x25
 9434 07a2 04       		.byte	0x4
 9435 07a3 0000804B 		.4byte	0x4b800000
 9436 07a7 1E       		.byte	0x1e
 9437 07a8 9F       		.byte	0x9f
 9438 07a9 82000000 		.4byte	.LVL129
 9439 07ad 89000000 		.4byte	.LVL130-1
 9440 07b1 0200     		.2byte	0x2
 9441 07b3 90       		.byte	0x90
 9442 07b4 4F       		.uleb128 0x4f
 9443 07b5 00000000 		.4byte	0
 9444 07b9 00000000 		.4byte	0
 9445              	.LLST56:
 9446 07bd 00000000 		.4byte	.LVL148
 9447 07c1 06000000 		.4byte	.LVL150
 9448 07c5 0100     		.2byte	0x1
 9449 07c7 50       		.byte	0x50
 9450 07c8 06000000 		.4byte	.LVL150
 9451 07cc 3C000000 		.4byte	.LVL160
 9452 07d0 0100     		.2byte	0x1
 9453 07d2 54       		.byte	0x54
 9454 07d3 3C000000 		.4byte	.LVL160
 9455 07d7 70000000 		.4byte	.LFE709
 9456 07db 0400     		.2byte	0x4
 9457 07dd F3       		.byte	0xf3
ARM GAS  C:\Users\thoma\AppData\Local\Temp\ccRUrbHX.s 			page 180


 9458 07de 01       		.uleb128 0x1
 9459 07df 50       		.byte	0x50
 9460 07e0 9F       		.byte	0x9f
 9461 07e1 00000000 		.4byte	0
 9462 07e5 00000000 		.4byte	0
 9463              	.LLST57:
 9464 07e9 04000000 		.4byte	.LVL149
 9465 07ed 18000000 		.4byte	.LVL153
 9466 07f1 0200     		.2byte	0x2
 9467 07f3 31       		.byte	0x31
 9468 07f4 9F       		.byte	0x9f
 9469 07f5 18000000 		.4byte	.LVL153
 9470 07f9 6A000000 		.4byte	.LVL168
 9471 07fd 0100     		.2byte	0x1
 9472 07ff 57       		.byte	0x57
 9473 0800 00000000 		.4byte	0
 9474 0804 00000000 		.4byte	0
 9475              	.LLST58:
 9476 0808 30000000 		.4byte	.LVL157
 9477 080c 62000000 		.4byte	.LVL165
 9478 0810 0100     		.2byte	0x1
 9479 0812 50       		.byte	0x50
 9480 0813 62000000 		.4byte	.LVL165
 9481 0817 64000000 		.4byte	.LVL166
 9482 081b 0200     		.2byte	0x2
 9483 081d 90       		.byte	0x90
 9484 081e 4E       		.uleb128 0x4e
 9485 081f 64000000 		.4byte	.LVL166
 9486 0823 68000000 		.4byte	.LVL167
 9487 0827 0100     		.2byte	0x1
 9488 0829 50       		.byte	0x50
 9489 082a 68000000 		.4byte	.LVL167
 9490 082e 70000000 		.4byte	.LFE709
 9491 0832 0200     		.2byte	0x2
 9492 0834 90       		.byte	0x90
 9493 0835 4E       		.uleb128 0x4e
 9494 0836 00000000 		.4byte	0
 9495 083a 00000000 		.4byte	0
 9496              	.LLST59:
 9497 083e 48000000 		.4byte	.LVL161
 9498 0842 5E000000 		.4byte	.LVL164
 9499 0846 0200     		.2byte	0x2
 9500 0848 90       		.byte	0x90
 9501 0849 4F       		.uleb128 0x4f
 9502 084a 5E000000 		.4byte	.LVL164
 9503 084e 62000000 		.4byte	.LVL165
 9504 0852 1300     		.2byte	0x13
 9505 0854 73       		.byte	0x73
 9506 0855 00       		.sleb128 0
 9507 0856 F7       		.byte	0xf7
 9508 0857 2C       		.uleb128 0x2c
 9509 0858 F7       		.byte	0xf7
 9510 0859 25       		.uleb128 0x25
 9511 085a F4       		.byte	0xf4
 9512 085b 25       		.uleb128 0x25
 9513 085c 04       		.byte	0x4
 9514 085d 00008033 		.4byte	0x33800000
ARM GAS  C:\Users\thoma\AppData\Local\Temp\ccRUrbHX.s 			page 181


 9515 0861 1E       		.byte	0x1e
 9516 0862 F5       		.byte	0xf5
 9517 0863 00       		.uleb128 0
 9518 0864 25       		.uleb128 0x25
 9519 0865 1E       		.byte	0x1e
 9520 0866 9F       		.byte	0x9f
 9521 0867 62000000 		.4byte	.LVL165
 9522 086b 64000000 		.4byte	.LVL166
 9523 086f 1300     		.2byte	0x13
 9524 0871 73       		.byte	0x73
 9525 0872 00       		.sleb128 0
 9526 0873 F7       		.byte	0xf7
 9527 0874 2C       		.uleb128 0x2c
 9528 0875 F7       		.byte	0xf7
 9529 0876 25       		.uleb128 0x25
 9530 0877 F4       		.byte	0xf4
 9531 0878 25       		.uleb128 0x25
 9532 0879 04       		.byte	0x4
 9533 087a 00008033 		.4byte	0x33800000
 9534 087e 1E       		.byte	0x1e
 9535 087f F5       		.byte	0xf5
 9536 0880 4E       		.uleb128 0x4e
 9537 0881 25       		.uleb128 0x25
 9538 0882 1E       		.byte	0x1e
 9539 0883 9F       		.byte	0x9f
 9540 0884 64000000 		.4byte	.LVL166
 9541 0888 70000000 		.4byte	.LFE709
 9542 088c 0200     		.2byte	0x2
 9543 088e 90       		.byte	0x90
 9544 088f 4F       		.uleb128 0x4f
 9545 0890 00000000 		.4byte	0
 9546 0894 00000000 		.4byte	0
 9547              	.LLST60:
 9548 0898 06000000 		.4byte	.LVL150
 9549 089c 1A000000 		.4byte	.LVL154
 9550 08a0 0100     		.2byte	0x1
 9551 08a2 50       		.byte	0x50
 9552 08a3 1A000000 		.4byte	.LVL154
 9553 08a7 1D000000 		.4byte	.LVL155-1
 9554 08ab 0400     		.2byte	0x4
 9555 08ad 70       		.byte	0x70
 9556 08ae 8001     		.sleb128 128
 9557 08b0 9F       		.byte	0x9f
 9558 08b1 1D000000 		.4byte	.LVL155-1
 9559 08b5 3C000000 		.4byte	.LVL160
 9560 08b9 0500     		.2byte	0x5
 9561 08bb 74       		.byte	0x74
 9562 08bc 00       		.sleb128 0
 9563 08bd 48       		.byte	0x48
 9564 08be 25       		.byte	0x25
 9565 08bf 9F       		.byte	0x9f
 9566 08c0 3C000000 		.4byte	.LVL160
 9567 08c4 70000000 		.4byte	.LFE709
 9568 08c8 0600     		.2byte	0x6
 9569 08ca F3       		.byte	0xf3
 9570 08cb 01       		.uleb128 0x1
 9571 08cc 50       		.byte	0x50
ARM GAS  C:\Users\thoma\AppData\Local\Temp\ccRUrbHX.s 			page 182


 9572 08cd 48       		.byte	0x48
 9573 08ce 25       		.byte	0x25
 9574 08cf 9F       		.byte	0x9f
 9575 08d0 00000000 		.4byte	0
 9576 08d4 00000000 		.4byte	0
 9577              	.LLST61:
 9578 08d8 0A000000 		.4byte	.LVL151
 9579 08dc 6A000000 		.4byte	.LVL168
 9580 08e0 0100     		.2byte	0x1
 9581 08e2 56       		.byte	0x56
 9582 08e3 6A000000 		.4byte	.LVL168
 9583 08e7 70000000 		.4byte	.LFE709
 9584 08eb 0C00     		.2byte	0xc
 9585 08ed F3       		.byte	0xf3
 9586 08ee 01       		.uleb128 0x1
 9587 08ef 50       		.byte	0x50
 9588 08f0 40       		.byte	0x40
 9589 08f1 25       		.byte	0x25
 9590 08f2 08       		.byte	0x8
 9591 08f3 FF       		.byte	0xff
 9592 08f4 1A       		.byte	0x1a
 9593 08f5 08       		.byte	0x8
 9594 08f6 80       		.byte	0x80
 9595 08f7 21       		.byte	0x21
 9596 08f8 9F       		.byte	0x9f
 9597 08f9 00000000 		.4byte	0
 9598 08fd 00000000 		.4byte	0
 9599              	.LLST62:
 9600 0901 0C000000 		.4byte	.LVL152
 9601 0905 3A000000 		.4byte	.LVL159
 9602 0909 0100     		.2byte	0x1
 9603 090b 55       		.byte	0x55
 9604 090c 3A000000 		.4byte	.LVL159
 9605 0910 3C000000 		.4byte	.LVL160
 9606 0914 0500     		.2byte	0x5
 9607 0916 74       		.byte	0x74
 9608 0917 00       		.sleb128 0
 9609 0918 38       		.byte	0x38
 9610 0919 25       		.byte	0x25
 9611 091a 9F       		.byte	0x9f
 9612 091b 3C000000 		.4byte	.LVL160
 9613 091f 70000000 		.4byte	.LFE709
 9614 0923 0600     		.2byte	0x6
 9615 0925 F3       		.byte	0xf3
 9616 0926 01       		.uleb128 0x1
 9617 0927 50       		.byte	0x50
 9618 0928 38       		.byte	0x38
 9619 0929 25       		.byte	0x25
 9620 092a 9F       		.byte	0x9f
 9621 092b 00000000 		.4byte	0
 9622 092f 00000000 		.4byte	0
 9623              	.LLST63:
 9624 0933 0C000000 		.4byte	.LVL152
 9625 0937 64000000 		.4byte	.LVL166
 9626 093b 0100     		.2byte	0x1
 9627 093d 54       		.byte	0x54
 9628 093e 64000000 		.4byte	.LVL166
ARM GAS  C:\Users\thoma\AppData\Local\Temp\ccRUrbHX.s 			page 183


 9629 0942 70000000 		.4byte	.LFE709
 9630 0946 0400     		.2byte	0x4
 9631 0948 F3       		.byte	0xf3
 9632 0949 01       		.uleb128 0x1
 9633 094a 50       		.byte	0x50
 9634 094b 9F       		.byte	0x9f
 9635 094c 00000000 		.4byte	0
 9636 0950 00000000 		.4byte	0
 9637              	.LLST64:
 9638 0954 00000000 		.4byte	.LVL169
 9639 0958 0D000000 		.4byte	.LVL170-1
 9640 095c 0100     		.2byte	0x1
 9641 095e 50       		.byte	0x50
 9642 095f 0D000000 		.4byte	.LVL170-1
 9643 0963 36000000 		.4byte	.LFE711
 9644 0967 0100     		.2byte	0x1
 9645 0969 55       		.byte	0x55
 9646 096a 00000000 		.4byte	0
 9647 096e 00000000 		.4byte	0
 9648              	.LLST65:
 9649 0972 1A000000 		.4byte	.LVL172
 9650 0976 26000000 		.4byte	.LVL173
 9651 097a 0100     		.2byte	0x1
 9652 097c 50       		.byte	0x50
 9653 097d 26000000 		.4byte	.LVL173
 9654 0981 36000000 		.4byte	.LFE711
 9655 0985 0200     		.2byte	0x2
 9656 0987 91       		.byte	0x91
 9657 0988 6A       		.sleb128 -22
 9658 0989 00000000 		.4byte	0
 9659 098d 00000000 		.4byte	0
 9660              	.LLST66:
 9661 0991 00000000 		.4byte	.LVL174
 9662 0995 14000000 		.4byte	.LVL179
 9663 0999 0100     		.2byte	0x1
 9664 099b 50       		.byte	0x50
 9665 099c 14000000 		.4byte	.LVL179
 9666 09a0 18000000 		.4byte	.LFE712
 9667 09a4 0400     		.2byte	0x4
 9668 09a6 F3       		.byte	0xf3
 9669 09a7 01       		.uleb128 0x1
 9670 09a8 50       		.byte	0x50
 9671 09a9 9F       		.byte	0x9f
 9672 09aa 00000000 		.4byte	0
 9673 09ae 00000000 		.4byte	0
 9674              	.LLST67:
 9675 09b2 00000000 		.4byte	.LVL174
 9676 09b6 06000000 		.4byte	.LVL175
 9677 09ba 0200     		.2byte	0x2
 9678 09bc 30       		.byte	0x30
 9679 09bd 9F       		.byte	0x9f
 9680 09be 06000000 		.4byte	.LVL175
 9681 09c2 0A000000 		.4byte	.LVL176
 9682 09c6 0100     		.2byte	0x1
 9683 09c8 53       		.byte	0x53
 9684 09c9 0C000000 		.4byte	.LVL177
 9685 09cd 18000000 		.4byte	.LFE712
ARM GAS  C:\Users\thoma\AppData\Local\Temp\ccRUrbHX.s 			page 184


 9686 09d1 0100     		.2byte	0x1
 9687 09d3 53       		.byte	0x53
 9688 09d4 00000000 		.4byte	0
 9689 09d8 00000000 		.4byte	0
 9690              	.LLST68:
 9691 09dc 00000000 		.4byte	.LVL174
 9692 09e0 06000000 		.4byte	.LVL175
 9693 09e4 0200     		.2byte	0x2
 9694 09e6 30       		.byte	0x30
 9695 09e7 9F       		.byte	0x9f
 9696 09e8 06000000 		.4byte	.LVL175
 9697 09ec 18000000 		.4byte	.LFE712
 9698 09f0 0100     		.2byte	0x1
 9699 09f2 52       		.byte	0x52
 9700 09f3 00000000 		.4byte	0
 9701 09f7 00000000 		.4byte	0
 9702              	.LLST69:
 9703 09fb 00000000 		.4byte	.LVL180
 9704 09ff 07000000 		.4byte	.LVL181-1
 9705 0a03 0100     		.2byte	0x1
 9706 0a05 50       		.byte	0x50
 9707 0a06 07000000 		.4byte	.LVL181-1
 9708 0a0a 2C000000 		.4byte	.LVL187
 9709 0a0e 0100     		.2byte	0x1
 9710 0a10 54       		.byte	0x54
 9711 0a11 2C000000 		.4byte	.LVL187
 9712 0a15 30000000 		.4byte	.LFE693
 9713 0a19 0400     		.2byte	0x4
 9714 0a1b F3       		.byte	0xf3
 9715 0a1c 01       		.uleb128 0x1
 9716 0a1d 50       		.byte	0x50
 9717 0a1e 9F       		.byte	0x9f
 9718 0a1f 00000000 		.4byte	0
 9719 0a23 00000000 		.4byte	0
 9720              	.LLST70:
 9721 0a27 0A000000 		.4byte	.LVL182
 9722 0a2b 10000000 		.4byte	.LVL183
 9723 0a2f 0100     		.2byte	0x1
 9724 0a31 50       		.byte	0x50
 9725 0a32 00000000 		.4byte	0
 9726 0a36 00000000 		.4byte	0
 9727              	.LLST71:
 9728 0a3a 00000000 		.4byte	.LVL188
 9729 0a3e 08000000 		.4byte	.LVL190
 9730 0a42 0100     		.2byte	0x1
 9731 0a44 50       		.byte	0x50
 9732 0a45 08000000 		.4byte	.LVL190
 9733 0a49 A4000000 		.4byte	.LVL216
 9734 0a4d 0100     		.2byte	0x1
 9735 0a4f 55       		.byte	0x55
 9736 0a50 A4000000 		.4byte	.LVL216
 9737 0a54 C0000000 		.4byte	.LFE694
 9738 0a58 0400     		.2byte	0x4
 9739 0a5a F3       		.byte	0xf3
 9740 0a5b 01       		.uleb128 0x1
 9741 0a5c 50       		.byte	0x50
 9742 0a5d 9F       		.byte	0x9f
ARM GAS  C:\Users\thoma\AppData\Local\Temp\ccRUrbHX.s 			page 185


 9743 0a5e 00000000 		.4byte	0
 9744 0a62 00000000 		.4byte	0
 9745              	.LLST72:
 9746 0a66 5E000000 		.4byte	.LVL204
 9747 0a6a 7E000000 		.4byte	.LVL209
 9748 0a6e 0100     		.2byte	0x1
 9749 0a70 54       		.byte	0x54
 9750 0a71 00000000 		.4byte	0
 9751 0a75 00000000 		.4byte	0
 9752              	.LLST73:
 9753 0a79 64000000 		.4byte	.LVL205
 9754 0a7d 6A000000 		.4byte	.LVL206
 9755 0a81 0100     		.2byte	0x1
 9756 0a83 50       		.byte	0x50
 9757 0a84 00000000 		.4byte	0
 9758 0a88 00000000 		.4byte	0
 9759              	.LLST74:
 9760 0a8c 32000000 		.4byte	.LVL197
 9761 0a90 46000000 		.4byte	.LVL200
 9762 0a94 0100     		.2byte	0x1
 9763 0a96 54       		.byte	0x54
 9764 0a97 48000000 		.4byte	.LVL201
 9765 0a9b 5E000000 		.4byte	.LVL204
 9766 0a9f 0100     		.2byte	0x1
 9767 0aa1 54       		.byte	0x54
 9768 0aa2 00000000 		.4byte	0
 9769 0aa6 00000000 		.4byte	0
 9770              	.LLST75:
 9771 0aaa 7C000000 		.4byte	.LVL208
 9772 0aae 80000000 		.4byte	.LVL210
 9773 0ab2 0200     		.2byte	0x2
 9774 0ab4 30       		.byte	0x30
 9775 0ab5 9F       		.byte	0x9f
 9776 0ab6 80000000 		.4byte	.LVL210
 9777 0aba A4000000 		.4byte	.LVL216
 9778 0abe 0100     		.2byte	0x1
 9779 0ac0 54       		.byte	0x54
 9780 0ac1 00000000 		.4byte	0
 9781 0ac5 00000000 		.4byte	0
 9782              	.LLST76:
 9783 0ac9 00000000 		.4byte	.LVL217
 9784 0acd 0B000000 		.4byte	.LVL218-1
 9785 0ad1 0100     		.2byte	0x1
 9786 0ad3 50       		.byte	0x50
 9787 0ad4 0B000000 		.4byte	.LVL218-1
 9788 0ad8 3E000000 		.4byte	.LFE697
 9789 0adc 0100     		.2byte	0x1
 9790 0ade 54       		.byte	0x54
 9791 0adf 00000000 		.4byte	0
 9792 0ae3 00000000 		.4byte	0
 9793              	.LLST77:
 9794 0ae7 00000000 		.4byte	.LVL224
 9795 0aeb 0B000000 		.4byte	.LVL225-1
 9796 0aef 0100     		.2byte	0x1
 9797 0af1 50       		.byte	0x50
 9798 0af2 0B000000 		.4byte	.LVL225-1
 9799 0af6 6C000000 		.4byte	.LFE698
ARM GAS  C:\Users\thoma\AppData\Local\Temp\ccRUrbHX.s 			page 186


 9800 0afa 0100     		.2byte	0x1
 9801 0afc 54       		.byte	0x54
 9802 0afd 00000000 		.4byte	0
 9803 0b01 00000000 		.4byte	0
 9804              	.LLST78:
 9805 0b05 14000000 		.4byte	.LVL227
 9806 0b09 16000000 		.4byte	.LVL228
 9807 0b0d 0100     		.2byte	0x1
 9808 0b0f 52       		.byte	0x52
 9809 0b10 16000000 		.4byte	.LVL228
 9810 0b14 20000000 		.4byte	.LVL230
 9811 0b18 0600     		.2byte	0x6
 9812 0b1a 72       		.byte	0x72
 9813 0b1b 00       		.sleb128 0
 9814 0b1c 08       		.byte	0x8
 9815 0b1d 48       		.byte	0x48
 9816 0b1e 21       		.byte	0x21
 9817 0b1f 9F       		.byte	0x9f
 9818 0b20 20000000 		.4byte	.LVL230
 9819 0b24 27000000 		.4byte	.LVL231-1
 9820 0b28 0B00     		.2byte	0xb
 9821 0b2a 74       		.byte	0x74
 9822 0b2b 00       		.sleb128 0
 9823 0b2c 94       		.byte	0x94
 9824 0b2d 01       		.byte	0x1
 9825 0b2e 08       		.byte	0x8
 9826 0b2f FF       		.byte	0xff
 9827 0b30 1A       		.byte	0x1a
 9828 0b31 08       		.byte	0x8
 9829 0b32 48       		.byte	0x48
 9830 0b33 21       		.byte	0x21
 9831 0b34 9F       		.byte	0x9f
 9832 0b35 00000000 		.4byte	0
 9833 0b39 00000000 		.4byte	0
 9834              	.LLST79:
 9835 0b3d 36000000 		.4byte	.LVL233
 9836 0b41 3C000000 		.4byte	.LVL234
 9837 0b45 0600     		.2byte	0x6
 9838 0b47 72       		.byte	0x72
 9839 0b48 00       		.sleb128 0
 9840 0b49 08       		.byte	0x8
 9841 0b4a FE       		.byte	0xfe
 9842 0b4b 1A       		.byte	0x1a
 9843 0b4c 9F       		.byte	0x9f
 9844 0b4d 3C000000 		.4byte	.LVL234
 9845 0b51 43000000 		.4byte	.LVL235-1
 9846 0b55 0800     		.2byte	0x8
 9847 0b57 74       		.byte	0x74
 9848 0b58 02       		.sleb128 2
 9849 0b59 94       		.byte	0x94
 9850 0b5a 01       		.byte	0x1
 9851 0b5b 09       		.byte	0x9
 9852 0b5c FE       		.byte	0xfe
 9853 0b5d 1A       		.byte	0x1a
 9854 0b5e 9F       		.byte	0x9f
 9855 0b5f 00000000 		.4byte	0
 9856 0b63 00000000 		.4byte	0
ARM GAS  C:\Users\thoma\AppData\Local\Temp\ccRUrbHX.s 			page 187


 9857              	.LLST80:
 9858 0b67 00000000 		.4byte	.LVL240
 9859 0b6b 0B000000 		.4byte	.LVL241-1
 9860 0b6f 0100     		.2byte	0x1
 9861 0b71 50       		.byte	0x50
 9862 0b72 0B000000 		.4byte	.LVL241-1
 9863 0b76 72000000 		.4byte	.LFE699
 9864 0b7a 0100     		.2byte	0x1
 9865 0b7c 54       		.byte	0x54
 9866 0b7d 00000000 		.4byte	0
 9867 0b81 00000000 		.4byte	0
 9868              	.LLST81:
 9869 0b85 00000000 		.4byte	.LVL253
 9870 0b89 0B000000 		.4byte	.LVL254-1
 9871 0b8d 0100     		.2byte	0x1
 9872 0b8f 50       		.byte	0x50
 9873 0b90 0B000000 		.4byte	.LVL254-1
 9874 0b94 30000000 		.4byte	.LFE700
 9875 0b98 0100     		.2byte	0x1
 9876 0b9a 54       		.byte	0x54
 9877 0b9b 00000000 		.4byte	0
 9878 0b9f 00000000 		.4byte	0
 9879              	.LLST82:
 9880 0ba3 00000000 		.4byte	.LVL259
 9881 0ba7 17000000 		.4byte	.LVL261-1
 9882 0bab 0100     		.2byte	0x1
 9883 0bad 50       		.byte	0x50
 9884 0bae 17000000 		.4byte	.LVL261-1
 9885 0bb2 28010000 		.4byte	.LVL292
 9886 0bb6 0100     		.2byte	0x1
 9887 0bb8 54       		.byte	0x54
 9888 0bb9 28010000 		.4byte	.LVL292
 9889 0bbd 44010000 		.4byte	.LFE701
 9890 0bc1 0400     		.2byte	0x4
 9891 0bc3 F3       		.byte	0xf3
 9892 0bc4 01       		.uleb128 0x1
 9893 0bc5 50       		.byte	0x50
 9894 0bc6 9F       		.byte	0x9f
 9895 0bc7 00000000 		.4byte	0
 9896 0bcb 00000000 		.4byte	0
 9897              	.LLST83:
 9898 0bcf 00000000 		.4byte	.LVL259
 9899 0bd3 14000000 		.4byte	.LVL260
 9900 0bd7 0100     		.2byte	0x1
 9901 0bd9 51       		.byte	0x51
 9902 0bda 14000000 		.4byte	.LVL260
 9903 0bde 44010000 		.4byte	.LFE701
 9904 0be2 0400     		.2byte	0x4
 9905 0be4 F3       		.byte	0xf3
 9906 0be5 01       		.uleb128 0x1
 9907 0be6 51       		.byte	0x51
 9908 0be7 9F       		.byte	0x9f
 9909 0be8 00000000 		.4byte	0
 9910 0bec 00000000 		.4byte	0
 9911              	.LLST84:
 9912 0bf0 20000000 		.4byte	.LVL263
 9913 0bf4 26000000 		.4byte	.LVL264
ARM GAS  C:\Users\thoma\AppData\Local\Temp\ccRUrbHX.s 			page 188


 9914 0bf8 0500     		.2byte	0x5
 9915 0bfa 75       		.byte	0x75
 9916 0bfb 00       		.sleb128 0
 9917 0bfc 38       		.byte	0x38
 9918 0bfd 24       		.byte	0x24
 9919 0bfe 9F       		.byte	0x9f
 9920 0bff 26000000 		.4byte	.LVL264
 9921 0c03 28010000 		.4byte	.LVL292
 9922 0c07 0100     		.2byte	0x1
 9923 0c09 55       		.byte	0x55
 9924 0c0a 00000000 		.4byte	0
 9925 0c0e 00000000 		.4byte	0
 9926              	.LLST85:
 9927 0c12 48000000 		.4byte	.LVL267
 9928 0c16 64000000 		.4byte	.LVL268
 9929 0c1a 0200     		.2byte	0x2
 9930 0c1c 90       		.byte	0x90
 9931 0c1d 4F       		.uleb128 0x4f
 9932 0c1e 64000000 		.4byte	.LVL268
 9933 0c22 6E000000 		.4byte	.LVL270
 9934 0c26 0B00     		.2byte	0xb
 9935 0c28 75       		.byte	0x75
 9936 0c29 00       		.sleb128 0
 9937 0c2a F7       		.byte	0xf7
 9938 0c2b 33       		.uleb128 0x33
 9939 0c2c F7       		.byte	0xf7
 9940 0c2d 25       		.uleb128 0x25
 9941 0c2e F5       		.byte	0xf5
 9942 0c2f 52       		.uleb128 0x52
 9943 0c30 25       		.uleb128 0x25
 9944 0c31 1E       		.byte	0x1e
 9945 0c32 9F       		.byte	0x9f
 9946 0c33 6E000000 		.4byte	.LVL270
 9947 0c37 76000000 		.4byte	.LVL271
 9948 0c3b 0200     		.2byte	0x2
 9949 0c3d 90       		.byte	0x90
 9950 0c3e 4F       		.uleb128 0x4f
 9951 0c3f 76000000 		.4byte	.LVL271
 9952 0c43 24010000 		.4byte	.LVL291
 9953 0c47 0B00     		.2byte	0xb
 9954 0c49 75       		.byte	0x75
 9955 0c4a 00       		.sleb128 0
 9956 0c4b F7       		.byte	0xf7
 9957 0c4c 33       		.uleb128 0x33
 9958 0c4d F7       		.byte	0xf7
 9959 0c4e 25       		.uleb128 0x25
 9960 0c4f F5       		.byte	0xf5
 9961 0c50 52       		.uleb128 0x52
 9962 0c51 25       		.uleb128 0x25
 9963 0c52 1E       		.byte	0x1e
 9964 0c53 9F       		.byte	0x9f
 9965 0c54 00000000 		.4byte	0
 9966 0c58 00000000 		.4byte	0
 9967              	.LLST86:
 9968 0c5c 6C000000 		.4byte	.LVL269
 9969 0c60 6E000000 		.4byte	.LVL270
 9970 0c64 0100     		.2byte	0x1
ARM GAS  C:\Users\thoma\AppData\Local\Temp\ccRUrbHX.s 			page 189


 9971 0c66 56       		.byte	0x56
 9972 0c67 76000000 		.4byte	.LVL271
 9973 0c6b 28010000 		.4byte	.LVL292
 9974 0c6f 0100     		.2byte	0x1
 9975 0c71 56       		.byte	0x56
 9976 0c72 00000000 		.4byte	0
 9977 0c76 00000000 		.4byte	0
 9978              	.LLST87:
 9979 0c7a 9E000000 		.4byte	.LVL276
 9980 0c7e A4000000 		.4byte	.LVL277
 9981 0c82 0200     		.2byte	0x2
 9982 0c84 30       		.byte	0x30
 9983 0c85 9F       		.byte	0x9f
 9984 0c86 A4000000 		.4byte	.LVL277
 9985 0c8a A8000000 		.4byte	.LVL278
 9986 0c8e 0100     		.2byte	0x1
 9987 0c90 53       		.byte	0x53
 9988 0c91 A8000000 		.4byte	.LVL278
 9989 0c95 28010000 		.4byte	.LVL292
 9990 0c99 0100     		.2byte	0x1
 9991 0c9b 57       		.byte	0x57
 9992 0c9c 00000000 		.4byte	0
 9993 0ca0 00000000 		.4byte	0
 9994              	.LLST88:
 9995 0ca4 D4000000 		.4byte	.LVL282
 9996 0ca8 28010000 		.4byte	.LVL292
 9997 0cac 0100     		.2byte	0x1
 9998 0cae 58       		.byte	0x58
 9999 0caf 00000000 		.4byte	0
 10000 0cb3 00000000 		.4byte	0
 10001              	.LLST89:
 10002 0cb7 00000000 		.4byte	.LVL293
 10003 0cbb 0B000000 		.4byte	.LVL294-1
 10004 0cbf 0100     		.2byte	0x1
 10005 0cc1 50       		.byte	0x50
 10006 0cc2 0B000000 		.4byte	.LVL294-1
 10007 0cc6 30000000 		.4byte	.LFE702
 10008 0cca 0100     		.2byte	0x1
 10009 0ccc 54       		.byte	0x54
 10010 0ccd 00000000 		.4byte	0
 10011 0cd1 00000000 		.4byte	0
 10012              	.LLST90:
 10013 0cd5 00000000 		.4byte	.LVL299
 10014 0cd9 16000000 		.4byte	.LVL301
 10015 0cdd 0100     		.2byte	0x1
 10016 0cdf 50       		.byte	0x50
 10017 0ce0 16000000 		.4byte	.LVL301
 10018 0ce4 3E010000 		.4byte	.LVL332
 10019 0ce8 0100     		.2byte	0x1
 10020 0cea 54       		.byte	0x54
 10021 0ceb 3E010000 		.4byte	.LVL332
 10022 0cef 54010000 		.4byte	.LFE703
 10023 0cf3 0400     		.2byte	0x4
 10024 0cf5 F3       		.byte	0xf3
 10025 0cf6 01       		.uleb128 0x1
 10026 0cf7 50       		.byte	0x50
 10027 0cf8 9F       		.byte	0x9f
ARM GAS  C:\Users\thoma\AppData\Local\Temp\ccRUrbHX.s 			page 190


 10028 0cf9 00000000 		.4byte	0
 10029 0cfd 00000000 		.4byte	0
 10030              	.LLST91:
 10031 0d01 00000000 		.4byte	.LVL299
 10032 0d05 14000000 		.4byte	.LVL300
 10033 0d09 0100     		.2byte	0x1
 10034 0d0b 51       		.byte	0x51
 10035 0d0c 14000000 		.4byte	.LVL300
 10036 0d10 E4000000 		.4byte	.LVL324
 10037 0d14 0100     		.2byte	0x1
 10038 0d16 57       		.byte	0x57
 10039 0d17 00000000 		.4byte	0
 10040 0d1b 00000000 		.4byte	0
 10041              	.LLST92:
 10042 0d1f 1A000000 		.4byte	.LVL302
 10043 0d23 22000000 		.4byte	.LVL303
 10044 0d27 0100     		.2byte	0x1
 10045 0d29 50       		.byte	0x50
 10046 0d2a 22000000 		.4byte	.LVL303
 10047 0d2e E2000000 		.4byte	.LVL323
 10048 0d32 0100     		.2byte	0x1
 10049 0d34 56       		.byte	0x56
 10050 0d35 00000000 		.4byte	0
 10051 0d39 00000000 		.4byte	0
 10052              	.LLST93:
 10053 0d3d 4C000000 		.4byte	.LVL307
 10054 0d41 3E010000 		.4byte	.LVL332
 10055 0d45 0100     		.2byte	0x1
 10056 0d47 55       		.byte	0x55
 10057 0d48 00000000 		.4byte	0
 10058 0d4c 00000000 		.4byte	0
 10059              	.LLST94:
 10060 0d50 76000000 		.4byte	.LVL310
 10061 0d54 3E010000 		.4byte	.LVL332
 10062 0d58 0100     		.2byte	0x1
 10063 0d5a 58       		.byte	0x58
 10064 0d5b 00000000 		.4byte	0
 10065 0d5f 00000000 		.4byte	0
 10066              	.LLST95:
 10067 0d63 A0000000 		.4byte	.LVL313
 10068 0d67 D8000000 		.4byte	.LVL321
 10069 0d6b 0200     		.2byte	0x2
 10070 0d6d 90       		.byte	0x90
 10071 0d6e 50       		.uleb128 0x50
 10072 0d6f D8000000 		.4byte	.LVL321
 10073 0d73 E2000000 		.4byte	.LVL323
 10074 0d77 1200     		.2byte	0x12
 10075 0d79 76       		.byte	0x76
 10076 0d7a 00       		.sleb128 0
 10077 0d7b F7       		.byte	0xf7
 10078 0d7c 2C       		.uleb128 0x2c
 10079 0d7d F7       		.byte	0xf7
 10080 0d7e 25       		.uleb128 0x25
 10081 0d7f 77       		.byte	0x77
 10082 0d80 00       		.sleb128 0
 10083 0d81 F7       		.byte	0xf7
 10084 0d82 2C       		.uleb128 0x2c
ARM GAS  C:\Users\thoma\AppData\Local\Temp\ccRUrbHX.s 			page 191


 10085 0d83 F7       		.byte	0xf7
 10086 0d84 25       		.uleb128 0x25
 10087 0d85 1B       		.byte	0x1b
 10088 0d86 F5       		.byte	0xf5
 10089 0d87 51       		.uleb128 0x51
 10090 0d88 25       		.uleb128 0x25
 10091 0d89 1E       		.byte	0x1e
 10092 0d8a 9F       		.byte	0x9f
 10093 0d8b 00000000 		.4byte	0
 10094 0d8f 00000000 		.4byte	0
 10095              	.LLST96:
 10096 0d93 C4000000 		.4byte	.LVL318
 10097 0d97 CC000000 		.4byte	.LVL319
 10098 0d9b 0100     		.2byte	0x1
 10099 0d9d 50       		.byte	0x50
 10100 0d9e CC000000 		.4byte	.LVL319
 10101 0da2 3E010000 		.4byte	.LVL332
 10102 0da6 0100     		.2byte	0x1
 10103 0da8 59       		.byte	0x59
 10104 0da9 00000000 		.4byte	0
 10105 0dad 00000000 		.4byte	0
 10106              	.LLST97:
 10107 0db1 D8000000 		.4byte	.LVL321
 10108 0db5 3A010000 		.4byte	.LVL331
 10109 0db9 0200     		.2byte	0x2
 10110 0dbb 90       		.byte	0x90
 10111 0dbc 50       		.uleb128 0x50
 10112 0dbd 00000000 		.4byte	0
 10113 0dc1 00000000 		.4byte	0
 10114              	.LLST98:
 10115 0dc5 00000000 		.4byte	.LVL333
 10116 0dc9 0D000000 		.4byte	.LVL334-1
 10117 0dcd 0100     		.2byte	0x1
 10118 0dcf 50       		.byte	0x50
 10119 0dd0 0D000000 		.4byte	.LVL334-1
 10120 0dd4 60000000 		.4byte	.LVL348
 10121 0dd8 0100     		.2byte	0x1
 10122 0dda 54       		.byte	0x54
 10123 0ddb 60000000 		.4byte	.LVL348
 10124 0ddf 70000000 		.4byte	.LFE704
 10125 0de3 0400     		.2byte	0x4
 10126 0de5 F3       		.byte	0xf3
 10127 0de6 01       		.uleb128 0x1
 10128 0de7 50       		.byte	0x50
 10129 0de8 9F       		.byte	0x9f
 10130 0de9 00000000 		.4byte	0
 10131 0ded 00000000 		.4byte	0
 10132              	.LLST99:
 10133 0df1 22000000 		.4byte	.LVL338
 10134 0df5 24000000 		.4byte	.LVL339
 10135 0df9 0100     		.2byte	0x1
 10136 0dfb 50       		.byte	0x50
 10137 0dfc 24000000 		.4byte	.LVL339
 10138 0e00 60000000 		.4byte	.LVL348
 10139 0e04 0100     		.2byte	0x1
 10140 0e06 55       		.byte	0x55
 10141 0e07 00000000 		.4byte	0
ARM GAS  C:\Users\thoma\AppData\Local\Temp\ccRUrbHX.s 			page 192


 10142 0e0b 00000000 		.4byte	0
 10143              	.LLST100:
 10144 0e0f 2A000000 		.4byte	.LVL341
 10145 0e13 32000000 		.4byte	.LVL342
 10146 0e17 0100     		.2byte	0x1
 10147 0e19 50       		.byte	0x50
 10148 0e1a 32000000 		.4byte	.LVL342
 10149 0e1e 60000000 		.4byte	.LVL348
 10150 0e22 0100     		.2byte	0x1
 10151 0e24 56       		.byte	0x56
 10152 0e25 00000000 		.4byte	0
 10153 0e29 00000000 		.4byte	0
 10154              	.LLST101:
 10155 0e2d 00000000 		.4byte	.LVL349
 10156 0e31 0B000000 		.4byte	.LVL350-1
 10157 0e35 0100     		.2byte	0x1
 10158 0e37 50       		.byte	0x50
 10159 0e38 0B000000 		.4byte	.LVL350-1
 10160 0e3c 16000000 		.4byte	.LFE710
 10161 0e40 0100     		.2byte	0x1
 10162 0e42 54       		.byte	0x54
 10163 0e43 00000000 		.4byte	0
 10164 0e47 00000000 		.4byte	0
 10165              		.section	.debug_aranges,"",%progbits
 10166 0000 6C010000 		.4byte	0x16c
 10167 0004 0200     		.2byte	0x2
 10168 0006 00000000 		.4byte	.Ldebug_info0
 10169 000a 04       		.byte	0x4
 10170 000b 00       		.byte	0
 10171 000c 0000     		.2byte	0
 10172 000e 0000     		.2byte	0
 10173 0010 00000000 		.4byte	.LFB672
 10174 0014 20000000 		.4byte	.LFE672-.LFB672
 10175 0018 00000000 		.4byte	.LFB673
 10176 001c 28000000 		.4byte	.LFE673-.LFB673
 10177 0020 00000000 		.4byte	.LFB670
 10178 0024 0E000000 		.4byte	.LFE670-.LFB670
 10179 0028 00000000 		.4byte	.LFB674
 10180 002c 44000000 		.4byte	.LFE674-.LFB674
 10181 0030 00000000 		.4byte	.LFB671
 10182 0034 16000000 		.4byte	.LFE671-.LFB671
 10183 0038 00000000 		.4byte	.LFB675
 10184 003c 0A000000 		.4byte	.LFE675-.LFB675
 10185 0040 00000000 		.4byte	.LFB676
 10186 0044 0A000000 		.4byte	.LFE676-.LFB676
 10187 0048 00000000 		.4byte	.LFB677
 10188 004c 0A000000 		.4byte	.LFE677-.LFB677
 10189 0050 00000000 		.4byte	.LFB678
 10190 0054 0A000000 		.4byte	.LFE678-.LFB678
 10191 0058 00000000 		.4byte	.LFB679
 10192 005c 0A000000 		.4byte	.LFE679-.LFB679
 10193 0060 00000000 		.4byte	.LFB680
 10194 0064 0A000000 		.4byte	.LFE680-.LFB680
 10195 0068 00000000 		.4byte	.LFB681
 10196 006c 0E000000 		.4byte	.LFE681-.LFB681
 10197 0070 00000000 		.4byte	.LFB682
 10198 0074 0E000000 		.4byte	.LFE682-.LFB682
ARM GAS  C:\Users\thoma\AppData\Local\Temp\ccRUrbHX.s 			page 193


 10199 0078 00000000 		.4byte	.LFB683
 10200 007c 0E000000 		.4byte	.LFE683-.LFB683
 10201 0080 00000000 		.4byte	.LFB684
 10202 0084 0E000000 		.4byte	.LFE684-.LFB684
 10203 0088 00000000 		.4byte	.LFB685
 10204 008c 0E000000 		.4byte	.LFE685-.LFB685
 10205 0090 00000000 		.4byte	.LFB686
 10206 0094 16000000 		.4byte	.LFE686-.LFB686
 10207 0098 00000000 		.4byte	.LFB687
 10208 009c 34000000 		.4byte	.LFE687-.LFB687
 10209 00a0 00000000 		.4byte	.LFB688
 10210 00a4 0C000000 		.4byte	.LFE688-.LFB688
 10211 00a8 00000000 		.4byte	.LFB689
 10212 00ac 10000000 		.4byte	.LFE689-.LFB689
 10213 00b0 00000000 		.4byte	.LFB690
 10214 00b4 18000000 		.4byte	.LFE690-.LFB690
 10215 00b8 00000000 		.4byte	.LFB691
 10216 00bc 0A000000 		.4byte	.LFE691-.LFB691
 10217 00c0 00000000 		.4byte	.LFB692
 10218 00c4 4A000000 		.4byte	.LFE692-.LFB692
 10219 00c8 00000000 		.4byte	.LFB695
 10220 00cc A4000000 		.4byte	.LFE695-.LFB695
 10221 00d0 00000000 		.4byte	.LFB696
 10222 00d4 02000000 		.4byte	.LFE696-.LFB696
 10223 00d8 00000000 		.4byte	.LFB705
 10224 00dc 0A000000 		.4byte	.LFE705-.LFB705
 10225 00e0 00000000 		.4byte	.LFB706
 10226 00e4 0A000000 		.4byte	.LFE706-.LFB706
 10227 00e8 00000000 		.4byte	.LFB707
 10228 00ec 0A000000 		.4byte	.LFE707-.LFB707
 10229 00f0 00000000 		.4byte	.LFB708
 10230 00f4 1C010000 		.4byte	.LFE708-.LFB708
 10231 00f8 00000000 		.4byte	.LFB709
 10232 00fc 70000000 		.4byte	.LFE709-.LFB709
 10233 0100 00000000 		.4byte	.LFB711
 10234 0104 36000000 		.4byte	.LFE711-.LFB711
 10235 0108 00000000 		.4byte	.LFB712
 10236 010c 18000000 		.4byte	.LFE712-.LFB712
 10237 0110 00000000 		.4byte	.LFB693
 10238 0114 30000000 		.4byte	.LFE693-.LFB693
 10239 0118 00000000 		.4byte	.LFB694
 10240 011c C0000000 		.4byte	.LFE694-.LFB694
 10241 0120 00000000 		.4byte	.LFB697
 10242 0124 3E000000 		.4byte	.LFE697-.LFB697
 10243 0128 00000000 		.4byte	.LFB698
 10244 012c 6C000000 		.4byte	.LFE698-.LFB698
 10245 0130 00000000 		.4byte	.LFB699
 10246 0134 72000000 		.4byte	.LFE699-.LFB699
 10247 0138 00000000 		.4byte	.LFB700
 10248 013c 30000000 		.4byte	.LFE700-.LFB700
 10249 0140 00000000 		.4byte	.LFB701
 10250 0144 44010000 		.4byte	.LFE701-.LFB701
 10251 0148 00000000 		.4byte	.LFB702
 10252 014c 30000000 		.4byte	.LFE702-.LFB702
 10253 0150 00000000 		.4byte	.LFB703
 10254 0154 54010000 		.4byte	.LFE703-.LFB703
 10255 0158 00000000 		.4byte	.LFB704
ARM GAS  C:\Users\thoma\AppData\Local\Temp\ccRUrbHX.s 			page 194


 10256 015c 70000000 		.4byte	.LFE704-.LFB704
 10257 0160 00000000 		.4byte	.LFB710
 10258 0164 16000000 		.4byte	.LFE710-.LFB710
 10259 0168 00000000 		.4byte	0
 10260 016c 00000000 		.4byte	0
 10261              		.section	.debug_ranges,"",%progbits
 10262              	.Ldebug_ranges0:
 10263 0000 1C000000 		.4byte	.LBB2
 10264 0004 1E000000 		.4byte	.LBE2
 10265 0008 20000000 		.4byte	.LBB4
 10266 000c 3C000000 		.4byte	.LBE4
 10267 0010 00000000 		.4byte	0
 10268 0014 00000000 		.4byte	0
 10269 0018 44000000 		.4byte	.LBB5
 10270 001c 6C000000 		.4byte	.LBE5
 10271 0020 6E000000 		.4byte	.LBB6
 10272 0024 76000000 		.4byte	.LBE6
 10273 0028 00000000 		.4byte	0
 10274 002c 00000000 		.4byte	0
 10275 0030 00000000 		.4byte	.LBB7
 10276 0034 02000000 		.4byte	.LBE7
 10277 0038 04000000 		.4byte	.LBB8
 10278 003c 12000000 		.4byte	.LBE8
 10279 0040 00000000 		.4byte	0
 10280 0044 00000000 		.4byte	0
 10281 0048 32000000 		.4byte	.LBB9
 10282 004c 46000000 		.4byte	.LBE9
 10283 0050 48000000 		.4byte	.LBB10
 10284 0054 4C000000 		.4byte	.LBE10
 10285 0058 00000000 		.4byte	0
 10286 005c 00000000 		.4byte	0
 10287 0060 00000000 		.4byte	.LFB672
 10288 0064 20000000 		.4byte	.LFE672
 10289 0068 00000000 		.4byte	.LFB673
 10290 006c 28000000 		.4byte	.LFE673
 10291 0070 00000000 		.4byte	.LFB670
 10292 0074 0E000000 		.4byte	.LFE670
 10293 0078 00000000 		.4byte	.LFB674
 10294 007c 44000000 		.4byte	.LFE674
 10295 0080 00000000 		.4byte	.LFB671
 10296 0084 16000000 		.4byte	.LFE671
 10297 0088 00000000 		.4byte	.LFB675
 10298 008c 0A000000 		.4byte	.LFE675
 10299 0090 00000000 		.4byte	.LFB676
 10300 0094 0A000000 		.4byte	.LFE676
 10301 0098 00000000 		.4byte	.LFB677
 10302 009c 0A000000 		.4byte	.LFE677
 10303 00a0 00000000 		.4byte	.LFB678
 10304 00a4 0A000000 		.4byte	.LFE678
 10305 00a8 00000000 		.4byte	.LFB679
 10306 00ac 0A000000 		.4byte	.LFE679
 10307 00b0 00000000 		.4byte	.LFB680
 10308 00b4 0A000000 		.4byte	.LFE680
 10309 00b8 00000000 		.4byte	.LFB681
 10310 00bc 0E000000 		.4byte	.LFE681
 10311 00c0 00000000 		.4byte	.LFB682
 10312 00c4 0E000000 		.4byte	.LFE682
ARM GAS  C:\Users\thoma\AppData\Local\Temp\ccRUrbHX.s 			page 195


 10313 00c8 00000000 		.4byte	.LFB683
 10314 00cc 0E000000 		.4byte	.LFE683
 10315 00d0 00000000 		.4byte	.LFB684
 10316 00d4 0E000000 		.4byte	.LFE684
 10317 00d8 00000000 		.4byte	.LFB685
 10318 00dc 0E000000 		.4byte	.LFE685
 10319 00e0 00000000 		.4byte	.LFB686
 10320 00e4 16000000 		.4byte	.LFE686
 10321 00e8 00000000 		.4byte	.LFB687
 10322 00ec 34000000 		.4byte	.LFE687
 10323 00f0 00000000 		.4byte	.LFB688
 10324 00f4 0C000000 		.4byte	.LFE688
 10325 00f8 00000000 		.4byte	.LFB689
 10326 00fc 10000000 		.4byte	.LFE689
 10327 0100 00000000 		.4byte	.LFB690
 10328 0104 18000000 		.4byte	.LFE690
 10329 0108 00000000 		.4byte	.LFB691
 10330 010c 0A000000 		.4byte	.LFE691
 10331 0110 00000000 		.4byte	.LFB692
 10332 0114 4A000000 		.4byte	.LFE692
 10333 0118 00000000 		.4byte	.LFB695
 10334 011c A4000000 		.4byte	.LFE695
 10335 0120 00000000 		.4byte	.LFB696
 10336 0124 02000000 		.4byte	.LFE696
 10337 0128 00000000 		.4byte	.LFB705
 10338 012c 0A000000 		.4byte	.LFE705
 10339 0130 00000000 		.4byte	.LFB706
 10340 0134 0A000000 		.4byte	.LFE706
 10341 0138 00000000 		.4byte	.LFB707
 10342 013c 0A000000 		.4byte	.LFE707
 10343 0140 00000000 		.4byte	.LFB708
 10344 0144 1C010000 		.4byte	.LFE708
 10345 0148 00000000 		.4byte	.LFB709
 10346 014c 70000000 		.4byte	.LFE709
 10347 0150 00000000 		.4byte	.LFB711
 10348 0154 36000000 		.4byte	.LFE711
 10349 0158 00000000 		.4byte	.LFB712
 10350 015c 18000000 		.4byte	.LFE712
 10351 0160 00000000 		.4byte	.LFB693
 10352 0164 30000000 		.4byte	.LFE693
 10353 0168 00000000 		.4byte	.LFB694
 10354 016c C0000000 		.4byte	.LFE694
 10355 0170 00000000 		.4byte	.LFB697
 10356 0174 3E000000 		.4byte	.LFE697
 10357 0178 00000000 		.4byte	.LFB698
 10358 017c 6C000000 		.4byte	.LFE698
 10359 0180 00000000 		.4byte	.LFB699
 10360 0184 72000000 		.4byte	.LFE699
 10361 0188 00000000 		.4byte	.LFB700
 10362 018c 30000000 		.4byte	.LFE700
 10363 0190 00000000 		.4byte	.LFB701
 10364 0194 44010000 		.4byte	.LFE701
 10365 0198 00000000 		.4byte	.LFB702
 10366 019c 30000000 		.4byte	.LFE702
 10367 01a0 00000000 		.4byte	.LFB703
 10368 01a4 54010000 		.4byte	.LFE703
 10369 01a8 00000000 		.4byte	.LFB704
ARM GAS  C:\Users\thoma\AppData\Local\Temp\ccRUrbHX.s 			page 196


 10370 01ac 70000000 		.4byte	.LFE704
 10371 01b0 00000000 		.4byte	.LFB710
 10372 01b4 16000000 		.4byte	.LFE710
 10373 01b8 00000000 		.4byte	0
 10374 01bc 00000000 		.4byte	0
 10375              		.section	.debug_line,"",%progbits
 10376              	.Ldebug_line0:
 10377 0000 D9080000 		.section	.debug_str,"MS",%progbits,1
 10377      02009D04 
 10377      00000201 
 10377      FB0E0D00 
 10377      01010101 
 10378              	.LASF254:
 10379 0000 434F4E54 		.ascii	"CONTROL_RESET_DATA\000"
 10379      524F4C5F 
 10379      52455345 
 10379      545F4441 
 10379      544100
 10380              	.LASF67:
 10381 0013 666C6173 		.ascii	"flashCtlMainWs1Freq\000"
 10381      6843746C 
 10381      4D61696E 
 10381      57733146 
 10381      72657100 
 10382              	.LASF316:
 10383 0027 42513334 		.ascii	"BQ34Z100_GetFlashBytes\000"
 10383      5A313030 
 10383      5F476574 
 10383      466C6173 
 10383      68427974 
 10384              	.LASF310:
 10385 003e 42513334 		.ascii	"BQ34Z100_Seal\000"
 10385      5A313030 
 10385      5F536561 
 10385      6C00
 10386              	.LASF277:
 10387 004c 666C6167 		.ascii	"flagA\000"
 10387      4100
 10388              	.LASF278:
 10389 0052 666C6167 		.ascii	"flagB\000"
 10389      4200
 10390              	.LASF334:
 10391 0058 764D6964 		.ascii	"vMidHiByte\000"
 10391      48694279 
 10391      746500
 10392              	.LASF218:
 10393 0063 73746F70 		.ascii	"stopInputMode\000"
 10393      496E7075 
 10393      744D6F64 
 10393      6500
 10394              	.LASF381:
 10395 0071 54696D65 		.ascii	"Timer_config\000"
 10395      725F636F 
 10395      6E666967 
 10395      00
 10396              	.LASF365:
 10397 007e 63757272 		.ascii	"currentReading\000"
ARM GAS  C:\Users\thoma\AppData\Local\Temp\ccRUrbHX.s 			page 197


 10397      656E7452 
 10397      65616469 
 10397      6E6700
 10398              	.LASF377:
 10399 008d 63795F64 		.ascii	"cy_device\000"
 10399      65766963 
 10399      6500
 10400              	.LASF251:
 10401 0097 434F4E54 		.ascii	"CONTROL_DEVICE_TYPE\000"
 10401      524F4C5F 
 10401      44455649 
 10401      43455F54 
 10401      59504500 
 10402              	.LASF257:
 10403 00ab 434F4E54 		.ascii	"CONTROL_BOARD_OFFSET\000"
 10403      524F4C5F 
 10403      424F4152 
 10403      445F4F46 
 10403      46534554 
 10404              	.LASF125:
 10405 00c0 43595F43 		.ascii	"CY_CTDAC_FORMAT_SIGNED\000"
 10405      54444143 
 10405      5F464F52 
 10405      4D41545F 
 10405      5349474E 
 10406              	.LASF94:
 10407 00d7 63707573 		.ascii	"cpussCm0ClockCtlOffset\000"
 10407      73436D30 
 10407      436C6F63 
 10407      6B43746C 
 10407      4F666673 
 10408              	.LASF306:
 10409 00ee 72617754 		.ascii	"rawTemp\000"
 10409      656D7000 
 10410              	.LASF144:
 10411 00f6 43595F43 		.ascii	"CY_CTDAC_OUTPUT_BUFFERED\000"
 10411      54444143 
 10411      5F4F5554 
 10411      5055545F 
 10411      42554646 
 10412              	.LASF27:
 10413 010f 75646242 		.ascii	"udbBase\000"
 10413      61736500 
 10414              	.LASF113:
 10415 0117 43595F53 		.ascii	"CY_SYSCLK_DIV_8_BIT\000"
 10415      5953434C 
 10415      4B5F4449 
 10415      565F385F 
 10415      42495400 
 10416              	.LASF329:
 10417 012b 78656D69 		.ascii	"xemics\000"
 10417      637300
 10418              	.LASF230:
 10419 0132 434F4D4D 		.ascii	"COMMAND_STATEOFCHARGE\000"
 10419      414E445F 
 10419      53544154 
 10419      454F4643 
ARM GAS  C:\Users\thoma\AppData\Local\Temp\ccRUrbHX.s 			page 198


 10419      48415247 
 10420              	.LASF186:
 10421 0148 74785374 		.ascii	"txStatus\000"
 10421      61747573 
 10421      00
 10422              	.LASF26:
 10423 0151 70657269 		.ascii	"periBase\000"
 10423      42617365 
 10423      00
 10424              	.LASF238:
 10425 015a 434F4D4D 		.ascii	"COMMAND_CURRENT\000"
 10425      414E445F 
 10425      43555252 
 10425      454E5400 
 10426              	.LASF362:
 10427 016a 42513334 		.ascii	"BQ34Z100_ResetVoltageDivider\000"
 10427      5A313030 
 10427      5F526573 
 10427      6574566F 
 10427      6C746167 
 10428              	.LASF338:
 10429 0187 666C6167 		.ascii	"flags\000"
 10429      7300
 10430              	.LASF242:
 10431 018d 434F4D4D 		.ascii	"COMMAND_CYCLECOUNT\000"
 10431      414E445F 
 10431      4359434C 
 10431      45434F55 
 10431      4E5400
 10432              	.LASF102:
 10433 01a0 63707573 		.ascii	"cpussCm0NmiCtlOffset\000"
 10433      73436D30 
 10433      4E6D6943 
 10433      746C4F66 
 10433      66736574 
 10434              	.LASF72:
 10435 01b5 64774368 		.ascii	"dwChSize\000"
 10435      53697A65 
 10435      00
 10436              	.LASF322:
 10437 01be 69427974 		.ascii	"iByte2\000"
 10437      653200
 10438              	.LASF272:
 10439 01c5 436F6E74 		.ascii	"Control_t\000"
 10439      726F6C5F 
 10439      7400
 10440              	.LASF324:
 10441 01cf 69427974 		.ascii	"iByte4\000"
 10441      653400
 10442              	.LASF287:
 10443 01d6 636F6E74 		.ascii	"control\000"
 10443      726F6C00 
 10444              	.LASF366:
 10445 01de 63757272 		.ascii	"currentGainDF\000"
 10445      656E7447 
 10445      61696E44 
 10445      4600
ARM GAS  C:\Users\thoma\AppData\Local\Temp\ccRUrbHX.s 			page 199


 10446              	.LASF54:
 10447 01ec 736D6966 		.ascii	"smifDeviceNr\000"
 10447      44657669 
 10447      63654E72 
 10447      00
 10448              	.LASF167:
 10449 01f9 43595F53 		.ascii	"CY_SAR_RANGE_COND_OUTSIDE\000"
 10449      41525F52 
 10449      414E4745 
 10449      5F434F4E 
 10449      445F4F55 
 10450              	.LASF84:
 10451 0213 70657269 		.ascii	"periDivCmdPaTypeSelPos\000"
 10451      44697643 
 10451      6D645061 
 10451      54797065 
 10451      53656C50 
 10452              	.LASF246:
 10453 022a 434F4D4D 		.ascii	"COMMAND_BLOCKDATA\000"
 10453      414E445F 
 10453      424C4F43 
 10453      4B444154 
 10453      4100
 10454              	.LASF297:
 10455 023c 42513334 		.ascii	"BQ34Z100_GetStatus\000"
 10455      5A313030 
 10455      5F476574 
 10455      53746174 
 10455      757300
 10456              	.LASF261:
 10457 024f 434F4E54 		.ascii	"CONTROL_SET_FULLSLEEP\000"
 10457      524F4C5F 
 10457      5345545F 
 10457      46554C4C 
 10457      534C4545 
 10458              	.LASF140:
 10459 0265 63795F65 		.ascii	"cy_en_ctdac_deglitch_t\000"
 10459      6E5F6374 
 10459      6461635F 
 10459      6465676C 
 10459      69746368 
 10460              	.LASF217:
 10461 027c 73746172 		.ascii	"startInput\000"
 10461      74496E70 
 10461      757400
 10462              	.LASF298:
 10463 0287 42513334 		.ascii	"BQ34Z100_GetChemID\000"
 10463      5A313030 
 10463      5F476574 
 10463      4368656D 
 10463      494400
 10464              	.LASF10:
 10465 029a 5F5F696E 		.ascii	"__int32_t\000"
 10465      7433325F 
 10465      7400
 10466              	.LASF305:
 10467 02a4 42513334 		.ascii	"BQ34Z100_GetTemperature\000"
ARM GAS  C:\Users\thoma\AppData\Local\Temp\ccRUrbHX.s 			page 200


 10467      5A313030 
 10467      5F476574 
 10467      54656D70 
 10467      65726174 
 10468              	.LASF252:
 10469 02bc 434F4E54 		.ascii	"CONTROL_FW_VERSION\000"
 10469      524F4C5F 
 10469      46575F56 
 10469      45525349 
 10469      4F4E00
 10470              	.LASF24:
 10471 02cf 63707573 		.ascii	"cpussBase\000"
 10471      73426173 
 10471      6500
 10472              	.LASF223:
 10473 02d9 6368616E 		.ascii	"channelBase\000"
 10473      6E656C42 
 10473      61736500 
 10474              	.LASF48:
 10475 02e5 63707573 		.ascii	"cpussFmIrq\000"
 10475      73466D49 
 10475      727100
 10476              	.LASF347:
 10477 02f0 42513334 		.ascii	"BQ34Z100_ChangePage48\000"
 10477      5A313030 
 10477      5F436861 
 10477      6E676550 
 10477      61676534 
 10478              	.LASF225:
 10479 0306 6877436F 		.ascii	"hwConfigStc\000"
 10479      6E666967 
 10479      53746300 
 10480              	.LASF273:
 10481 0312 666C6173 		.ascii	"flashbytes\000"
 10481      68627974 
 10481      657300
 10482              	.LASF49:
 10483 031d 63707573 		.ascii	"cpussNotConnectedIrq\000"
 10483      734E6F74 
 10483      436F6E6E 
 10483      65637465 
 10483      64497271 
 10484              	.LASF234:
 10485 0332 434F4D4D 		.ascii	"COMMAND_VOLTAGE\000"
 10485      414E445F 
 10485      564F4C54 
 10485      41474500 
 10486              	.LASF55:
 10487 0342 70617373 		.ascii	"passSarChannels\000"
 10487      53617243 
 10487      68616E6E 
 10487      656C7300 
 10488              	.LASF189:
 10489 0352 72785269 		.ascii	"rxRingBufSize\000"
 10489      6E674275 
 10489      6653697A 
 10489      6500
ARM GAS  C:\Users\thoma\AppData\Local\Temp\ccRUrbHX.s 			page 201


 10490              	.LASF158:
 10491 0360 636F6E66 		.ascii	"configClock\000"
 10491      6967436C 
 10491      6F636B00 
 10492              	.LASF231:
 10493 036c 434F4D4D 		.ascii	"COMMAND_MAXERROR\000"
 10493      414E445F 
 10493      4D415845 
 10493      52524F52 
 10493      00
 10494              	.LASF121:
 10495 037d 43595F43 		.ascii	"CY_CTDAC_UPDATE_STROBE_EDGE_IMMEDIATE\000"
 10495      54444143 
 10495      5F555044 
 10495      4154455F 
 10495      5354524F 
 10496              	.LASF80:
 10497 03a3 70657269 		.ascii	"periTrGrSize\000"
 10497      54724772 
 10497      53697A65 
 10497      00
 10498              	.LASF83:
 10499 03b0 70657269 		.ascii	"periDivCmdPaDivSelPos\000"
 10499      44697643 
 10499      6D645061 
 10499      44697653 
 10499      656C506F 
 10500              	.LASF156:
 10501 03c6 6E657874 		.ascii	"nextValue\000"
 10501      56616C75 
 10501      6500
 10502              	.LASF393:
 10503 03d0 62713334 		.ascii	"bq34z100.c\000"
 10503      7A313030 
 10503      2E6300
 10504              	.LASF60:
 10505 03db 63727970 		.ascii	"cryptoMemSize\000"
 10505      746F4D65 
 10505      6D53697A 
 10505      6500
 10506              	.LASF178:
 10507 03e9 73617449 		.ascii	"satIntrMask\000"
 10507      6E74724D 
 10507      61736B00 
 10508              	.LASF106:
 10509 03f5 63707573 		.ascii	"cpussRam1Ctl0\000"
 10509      7352616D 
 10509      3143746C 
 10509      3000
 10510              	.LASF108:
 10511 0403 69706353 		.ascii	"ipcStructSize\000"
 10511      74727563 
 10511      7453697A 
 10511      6500
 10512              	.LASF154:
 10513 0411 6465676C 		.ascii	"deglitchCycles\000"
 10513      69746368 
ARM GAS  C:\Users\thoma\AppData\Local\Temp\ccRUrbHX.s 			page 202


 10513      4379636C 
 10513      657300
 10514              	.LASF369:
 10515 0420 63757272 		.ascii	"currentDeltaResistance\000"
 10515      656E7444 
 10515      656C7461 
 10515      52657369 
 10515      7374616E 
 10516              	.LASF208:
 10517 0437 636F6D70 		.ascii	"compare0\000"
 10517      61726530 
 10517      00
 10518              	.LASF209:
 10519 0440 636F6D70 		.ascii	"compare1\000"
 10519      61726531 
 10519      00
 10520              	.LASF392:
 10521 0449 474E5520 		.ascii	"GNU C11 5.4.1 20160609 (release) [ARM/embedded-5-br"
 10521      43313120 
 10521      352E342E 
 10521      31203230 
 10521      31363036 
 10522 047c 616E6368 		.ascii	"anch revision 237715] -mcpu=cortex-m4 -mfloat-abi=s"
 10522      20726576 
 10522      6973696F 
 10522      6E203233 
 10522      37373135 
 10523 04af 6F667466 		.ascii	"oftfp -mfpu=fpv4-sp-d16 -mthumb -g -Og -ffunction-s"
 10523      70202D6D 
 10523      6670753D 
 10523      66707634 
 10523      2D73702D 
 10524 04e2 65637469 		.ascii	"ections -ffat-lto-objects\000"
 10524      6F6E7320 
 10524      2D666661 
 10524      742D6C74 
 10524      6F2D6F62 
 10525              	.LASF42:
 10526 04fc 70726F74 		.ascii	"protVersion\000"
 10526      56657273 
 10526      696F6E00 
 10527              	.LASF164:
 10528 0508 43595F53 		.ascii	"CY_SAR_RANGE_COND_BELOW\000"
 10528      41525F52 
 10528      414E4745 
 10528      5F434F4E 
 10528      445F4245 
 10529              	.LASF248:
 10530 0520 434F4D4D 		.ascii	"COMMAND_BLOCKDATACONTROL\000"
 10530      414E445F 
 10530      424C4F43 
 10530      4B444154 
 10530      41434F4E 
 10531              	.LASF147:
 10532 0539 72656653 		.ascii	"refSource\000"
 10532      6F757263 
 10532      6500
ARM GAS  C:\Users\thoma\AppData\Local\Temp\ccRUrbHX.s 			page 203


 10533              	.LASF133:
 10534 0543 43595F43 		.ascii	"CY_CTDAC_OUTPUT_VSSA\000"
 10534      54444143 
 10534      5F4F5554 
 10534      5055545F 
 10534      56535341 
 10535              	.LASF336:
 10536 0558 764C5342 		.ascii	"vLSByte\000"
 10536      79746500 
 10537              	.LASF82:
 10538 0560 70657269 		.ascii	"periDivCmdTypeSelPos\000"
 10538      44697643 
 10538      6D645479 
 10538      70655365 
 10538      6C506F73 
 10539              	.LASF99:
 10540 0575 63707573 		.ascii	"cpussTrimRamCtlOffset\000"
 10540      73547269 
 10540      6D52616D 
 10540      43746C4F 
 10540      66667365 
 10541              	.LASF162:
 10542 058b 64697669 		.ascii	"dividerFracValue\000"
 10542      64657246 
 10542      72616356 
 10542      616C7565 
 10542      00
 10543              	.LASF360:
 10544 059c 6F6C6455 		.ascii	"oldUpdateOK\000"
 10544      70646174 
 10544      654F4B00 
 10545              	.LASF187:
 10546 05a8 72785374 		.ascii	"rxStatus\000"
 10546      61747573 
 10546      00
 10547              	.LASF361:
 10548 05b1 6E657755 		.ascii	"newUpdateOK\000"
 10548      70646174 
 10548      654F4B00 
 10549              	.LASF110:
 10550 05bd 63795F73 		.ascii	"cy_stc_device_t\000"
 10550      74635F64 
 10550      65766963 
 10550      655F7400 
 10551              	.LASF146:
 10552 05cd 63795F65 		.ascii	"cy_en_ctdac_output_buffer_t\000"
 10552      6E5F6374 
 10552      6461635F 
 10552      6F757470 
 10552      75745F62 
 10553              	.LASF386:
 10554 05e9 4932435F 		.ascii	"I2C_MasterSendStop\000"
 10554      4D617374 
 10554      65725365 
 10554      6E645374 
 10554      6F7000
 10555              	.LASF280:
ARM GAS  C:\Users\thoma\AppData\Local\Temp\ccRUrbHX.s 			page 204


 10556 05fc 64657669 		.ascii	"device\000"
 10556      636500
 10557              	.LASF211:
 10558 0603 696E7465 		.ascii	"interruptSources\000"
 10558      72727570 
 10558      74536F75 
 10558      72636573 
 10558      00
 10559              	.LASF20:
 10560 0614 75696E74 		.ascii	"uint32_t\000"
 10560      33325F74 
 10560      00
 10561              	.LASF259:
 10562 061d 434F4E54 		.ascii	"CONTROL_CC_OFFSET_SAVE\000"
 10562      524F4C5F 
 10562      43435F4F 
 10562      46465345 
 10562      545F5341 
 10563              	.LASF247:
 10564 0634 434F4D4D 		.ascii	"COMMAND_BLOCKDATACHECKSUM\000"
 10564      414E445F 
 10564      424C4F43 
 10564      4B444154 
 10564      41434845 
 10565              	.LASF304:
 10566 064e 42513334 		.ascii	"BQ34Z100_GetCurrent\000"
 10566      5A313030 
 10566      5F476574 
 10566      43757272 
 10566      656E7400 
 10567              	.LASF92:
 10568 0662 6770696F 		.ascii	"gpioPrtCfgOutOffset\000"
 10568      50727443 
 10568      66674F75 
 10568      744F6666 
 10568      73657400 
 10569              	.LASF132:
 10570 0676 43595F43 		.ascii	"CY_CTDAC_OUTPUT_VALUE_PLUS1\000"
 10570      54444143 
 10570      5F4F5554 
 10570      5055545F 
 10570      56414C55 
 10571              	.LASF363:
 10572 0692 42513334 		.ascii	"BQ34Z100_CalibrateShunt\000"
 10572      5A313030 
 10572      5F43616C 
 10572      69627261 
 10572      74655368 
 10573              	.LASF0:
 10574 06aa 666C6F61 		.ascii	"float\000"
 10574      7400
 10575              	.LASF35:
 10576 06b0 63727970 		.ascii	"cryptoVersion\000"
 10576      746F5665 
 10576      7273696F 
 10576      6E00
 10577              	.LASF276:
ARM GAS  C:\Users\thoma\AppData\Local\Temp\ccRUrbHX.s 			page 205


 10578 06be 42513334 		.ascii	"BQ34Z100_t\000"
 10578      5A313030 
 10578      5F7400
 10579              	.LASF263:
 10580 06c9 434F4E54 		.ascii	"CONTROL_SEALED\000"
 10580      524F4C5F 
 10580      5345414C 
 10580      454400
 10581              	.LASF200:
 10582 06d8 63795F73 		.ascii	"cy_stc_scb_uart_context_t\000"
 10582      74635F73 
 10582      63625F75 
 10582      6172745F 
 10582      636F6E74 
 10583              	.LASF64:
 10584 06f2 666C6173 		.ascii	"flashProgramDelay\000"
 10584      6850726F 
 10584      6772616D 
 10584      44656C61 
 10584      7900
 10585              	.LASF389:
 10586 0704 43795F53 		.ascii	"Cy_SysLib_Delay\000"
 10586      79734C69 
 10586      625F4465 
 10586      6C617900 
 10587              	.LASF315:
 10588 0714 696E6465 		.ascii	"index\000"
 10588      7800
 10589              	.LASF224:
 10590 071a 6E756D43 		.ascii	"numChannels\000"
 10590      68616E6E 
 10590      656C7300 
 10591              	.LASF201:
 10592 0726 63795F73 		.ascii	"cy_stc_scb_uart_context\000"
 10592      74635F73 
 10592      63625F75 
 10592      6172745F 
 10592      636F6E74 
 10593              	.LASF302:
 10594 073e 42513334 		.ascii	"BQ34Z100_GetRemaining\000"
 10594      5A313030 
 10594      5F476574 
 10594      52656D61 
 10594      696E696E 
 10595              	.LASF151:
 10596 0754 6F757470 		.ascii	"outputMode\000"
 10596      75744D6F 
 10596      646500
 10597              	.LASF294:
 10598 075f 42513334 		.ascii	"BQ34Z100_EnterCal\000"
 10598      5A313030 
 10598      5F456E74 
 10598      65724361 
 10598      6C00
 10599              	.LASF25:
 10600 0771 666C6173 		.ascii	"flashcBase\000"
 10600      68634261 
ARM GAS  C:\Users\thoma\AppData\Local\Temp\ccRUrbHX.s 			page 206


 10600      736500
 10601              	.LASF17:
 10602 077c 696E7431 		.ascii	"int16_t\000"
 10602      365F7400 
 10603              	.LASF91:
 10604 0784 6770696F 		.ascii	"gpioPrtCfgInOffset\000"
 10604      50727443 
 10604      6667496E 
 10604      4F666673 
 10604      657400
 10605              	.LASF289:
 10606 0797 72657375 		.ascii	"result\000"
 10606      6C7400
 10607              	.LASF340:
 10608 079e 63616C63 		.ascii	"calcChecksum\000"
 10608      43686563 
 10608      6B73756D 
 10608      00
 10609              	.LASF15:
 10610 07ab 6C6F6E67 		.ascii	"long long unsigned int\000"
 10610      206C6F6E 
 10610      6720756E 
 10610      7369676E 
 10610      65642069 
 10611              	.LASF88:
 10612 07c2 70657269 		.ascii	"periDiv24_5CtlOffset\000"
 10612      44697632 
 10612      345F3543 
 10612      746C4F66 
 10612      66736574 
 10613              	.LASF93:
 10614 07d7 6770696F 		.ascii	"gpioPrtCfgSioOffset\000"
 10614      50727443 
 10614      66675369 
 10614      6F4F6666 
 10614      73657400 
 10615              	.LASF313:
 10616 07eb 6F666673 		.ascii	"offset\000"
 10616      657400
 10617              	.LASF47:
 10618 07f2 63707573 		.ascii	"cpussIpc0Irq\000"
 10618      73497063 
 10618      30497271 
 10618      00
 10619              	.LASF131:
 10620 07ff 43595F43 		.ascii	"CY_CTDAC_OUTPUT_VALUE\000"
 10620      54444143 
 10620      5F4F5554 
 10620      5055545F 
 10620      56414C55 
 10621              	.LASF351:
 10622 0815 7061636B 		.ascii	"packConfigB\000"
 10622      436F6E66 
 10622      69674200 
 10623              	.LASF275:
 10624 0821 63757272 		.ascii	"currFlashBlockIndex\000"
 10624      466C6173 
ARM GAS  C:\Users\thoma\AppData\Local\Temp\ccRUrbHX.s 			page 207


 10624      68426C6F 
 10624      636B496E 
 10624      64657800 
 10625              	.LASF300:
 10626 0835 42513334 		.ascii	"BQ34Z100_GetSOC\000"
 10626      5A313030 
 10626      5F476574 
 10626      534F4300 
 10627              	.LASF235:
 10628 0845 434F4D4D 		.ascii	"COMMAND_AVERAGECURRENT\000"
 10628      414E445F 
 10628      41564552 
 10628      41474543 
 10628      55525245 
 10629              	.LASF160:
 10630 085c 64697669 		.ascii	"dividerNum\000"
 10630      6465724E 
 10630      756D00
 10631              	.LASF335:
 10632 0867 764D6964 		.ascii	"vMidLoByte\000"
 10632      4C6F4279 
 10632      746500
 10633              	.LASF8:
 10634 0872 5F5F7569 		.ascii	"__uint16_t\000"
 10634      6E743136 
 10634      5F7400
 10635              	.LASF165:
 10636 087d 43595F53 		.ascii	"CY_SAR_RANGE_COND_INSIDE\000"
 10636      41525F52 
 10636      414E4745 
 10636      5F434F4E 
 10636      445F494E 
 10637              	.LASF157:
 10638 0896 656E6162 		.ascii	"enableInterrupt\000"
 10638      6C65496E 
 10638      74657272 
 10638      75707400 
 10639              	.LASF184:
 10640 08a6 63795F73 		.ascii	"cy_stc_sar_config_t\000"
 10640      74635F73 
 10640      61725F63 
 10640      6F6E6669 
 10640      675F7400 
 10641              	.LASF303:
 10642 08ba 42513334 		.ascii	"BQ34Z100_GetVoltage\000"
 10642      5A313030 
 10642      5F476574 
 10642      566F6C74 
 10642      61676500 
 10643              	.LASF169:
 10644 08ce 6374726C 		.ascii	"ctrl\000"
 10644      00
 10645              	.LASF128:
 10646 08d3 43595F43 		.ascii	"CY_CTDAC_DEEPSLEEP_ENABLE\000"
 10646      54444143 
 10646      5F444545 
 10646      50534C45 
ARM GAS  C:\Users\thoma\AppData\Local\Temp\ccRUrbHX.s 			page 208


 10646      45505F45 
 10647              	.LASF212:
 10648 08ed 63617074 		.ascii	"captureInputMode\000"
 10648      75726549 
 10648      6E707574 
 10648      4D6F6465 
 10648      00
 10649              	.LASF308:
 10650 08fe 42513334 		.ascii	"BQ34Z100_Reset\000"
 10650      5A313030 
 10650      5F526573 
 10650      657400
 10651              	.LASF262:
 10652 090d 434F4E54 		.ascii	"CONTROL_STATIC_CHEM_CHECKSUM\000"
 10652      524F4C5F 
 10652      53544154 
 10652      49435F43 
 10652      48454D5F 
 10653              	.LASF155:
 10654 092a 76616C75 		.ascii	"value\000"
 10654      6500
 10655              	.LASF331:
 10656 0930 66457870 		.ascii	"fExponent\000"
 10656      6F6E656E 
 10656      7400
 10657              	.LASF265:
 10658 093a 434F4E54 		.ascii	"CONTROL_CAL_ENABLE\000"
 10658      524F4C5F 
 10658      43414C5F 
 10658      454E4142 
 10658      4C4500
 10659              	.LASF192:
 10660 094d 72784275 		.ascii	"rxBuf\000"
 10660      6600
 10661              	.LASF69:
 10662 0953 666C6173 		.ascii	"flashCtlMainWs3Freq\000"
 10662      6843746C 
 10662      4D61696E 
 10662      57733346 
 10662      72657100 
 10663              	.LASF141:
 10664 0967 43595F43 		.ascii	"CY_CTDAC_REFSOURCE_EXTERNAL\000"
 10664      54444143 
 10664      5F524546 
 10664      534F5552 
 10664      43455F45 
 10665              	.LASF384:
 10666 0983 4932435F 		.ascii	"I2C_MasterSendStart\000"
 10666      4D617374 
 10666      65725365 
 10666      6E645374 
 10666      61727400 
 10667              	.LASF51:
 10668 0997 73727373 		.ascii	"srssNumPll\000"
 10668      4E756D50 
 10668      6C6C00
 10669              	.LASF285:
ARM GAS  C:\Users\thoma\AppData\Local\Temp\ccRUrbHX.s 			page 209


 10670 09a2 636D6432 		.ascii	"cmd2\000"
 10670      00
 10671              	.LASF395:
 10672 09a7 70757473 		.ascii	"puts\000"
 10672      00
 10673              	.LASF22:
 10674 09ac 73697A65 		.ascii	"size_t\000"
 10674      5F7400
 10675              	.LASF253:
 10676 09b3 434F4E54 		.ascii	"CONTROL_HW_VERSION\000"
 10676      524F4C5F 
 10676      48575F56 
 10676      45525349 
 10676      4F4E00
 10677              	.LASF346:
 10678 09c6 62797465 		.ascii	"byteIndex\000"
 10678      496E6465 
 10678      7800
 10679              	.LASF279:
 10680 09d0 42513334 		.ascii	"BQ34Z100_Flags_t\000"
 10680      5A313030 
 10680      5F466C61 
 10680      67735F74 
 10680      00
 10681              	.LASF256:
 10682 09e1 434F4E54 		.ascii	"CONTROL_CHEM_ID\000"
 10682      524F4C5F 
 10682      4348454D 
 10682      5F494400 
 10683              	.LASF62:
 10684 09f1 666C6173 		.ascii	"flashPipeRequired\000"
 10684      68506970 
 10684      65526571 
 10684      75697265 
 10684      6400
 10685              	.LASF198:
 10686 0a03 63624576 		.ascii	"cbEvents\000"
 10686      656E7473 
 10686      00
 10687              	.LASF318:
 10688 0a0c 42513334 		.ascii	"BQ34Z100_ReadFWVersion\000"
 10688      5A313030 
 10688      5F526561 
 10688      64465756 
 10688      65727369 
 10689              	.LASF2:
 10690 0a23 646F7562 		.ascii	"double\000"
 10690      6C6500
 10691              	.LASF364:
 10692 0a2a 63616C43 		.ascii	"calCurrent\000"
 10692      75727265 
 10692      6E7400
 10693              	.LASF112:
 10694 0a35 5F426F6F 		.ascii	"_Bool\000"
 10694      6C00
 10695              	.LASF119:
 10696 0a3b 43595F43 		.ascii	"CY_CTDAC_UPDATE_BUFFERED_WRITE\000"
ARM GAS  C:\Users\thoma\AppData\Local\Temp\ccRUrbHX.s 			page 210


 10696      54444143 
 10696      5F555044 
 10696      4154455F 
 10696      42554646 
 10697              	.LASF137:
 10698 0a5a 43595F43 		.ascii	"CY_CTDAC_DEGLITCHMODE_UNBUFFERED\000"
 10698      54444143 
 10698      5F444547 
 10698      4C495443 
 10698      484D4F44 
 10699              	.LASF66:
 10700 0a7b 666C6173 		.ascii	"flashCtlMainWs0Freq\000"
 10700      6843746C 
 10700      4D61696E 
 10700      57733046 
 10700      72657100 
 10701              	.LASF76:
 10702 0a8f 64775374 		.ascii	"dwStatusChIdxMsk\000"
 10702      61747573 
 10702      43684964 
 10702      784D736B 
 10702      00
 10703              	.LASF307:
 10704 0aa0 42513334 		.ascii	"BQ34Z100_GetSerial\000"
 10704      5A313030 
 10704      5F476574 
 10704      53657269 
 10704      616C00
 10705              	.LASF30:
 10706 0ab3 6770696F 		.ascii	"gpioBase\000"
 10706      42617365 
 10706      00
 10707              	.LASF344:
 10708 0abc 65787065 		.ascii	"expectedChecksum\000"
 10708      63746564 
 10708      43686563 
 10708      6B73756D 
 10708      00
 10709              	.LASF120:
 10710 0acd 43595F43 		.ascii	"CY_CTDAC_UPDATE_STROBE_EDGE_SYNC\000"
 10710      54444143 
 10710      5F555044 
 10710      4154455F 
 10710      5354524F 
 10711              	.LASF352:
 10712 0aee 42513334 		.ascii	"BQ34Z100_ChangePage80\000"
 10712      5A313030 
 10712      5F436861 
 10712      6E676550 
 10712      61676538 
 10713              	.LASF353:
 10714 0b04 42513334 		.ascii	"BQ34Z100_ChangePage82\000"
 10714      5A313030 
 10714      5F436861 
 10714      6E676550 
 10714      61676538 
 10715              	.LASF358:
ARM GAS  C:\Users\thoma\AppData\Local\Temp\ccRUrbHX.s 			page 211


 10716 0b1a 6E657753 		.ascii	"newSetting\000"
 10716      65747469 
 10716      6E6700
 10717              	.LASF292:
 10718 0b25 72656164 		.ascii	"readControlCommand\000"
 10718      436F6E74 
 10718      726F6C43 
 10718      6F6D6D61 
 10718      6E6400
 10719              	.LASF101:
 10720 0b38 63707573 		.ascii	"cpussSysTickCtlOffset\000"
 10720      73537973 
 10720      5469636B 
 10720      43746C4F 
 10720      66667365 
 10721              	.LASF388:
 10722 0b4e 4932435F 		.ascii	"I2C_MasterSendRestart\000"
 10722      4D617374 
 10722      65725365 
 10722      6E645265 
 10722      73746172 
 10723              	.LASF286:
 10724 0b64 73656E64 		.ascii	"sendControlCommand\000"
 10724      436F6E74 
 10724      726F6C43 
 10724      6F6D6D61 
 10724      6E6400
 10725              	.LASF327:
 10726 0b77 664D616E 		.ascii	"fMantissa\000"
 10726      74697373 
 10726      6100
 10727              	.LASF75:
 10728 0b81 64775374 		.ascii	"dwStatusChIdxPos\000"
 10728      61747573 
 10728      43684964 
 10728      78506F73 
 10728      00
 10729              	.LASF375:
 10730 0b92 42513334 		.ascii	"BQ34Z100_GetUpdateStatus\000"
 10730      5A313030 
 10730      5F476574 
 10730      55706461 
 10730      74655374 
 10731              	.LASF161:
 10732 0bab 64697669 		.ascii	"dividerIntValue\000"
 10732      64657249 
 10732      6E745661 
 10732      6C756500 
 10733              	.LASF267:
 10734 0bbb 434F4E54 		.ascii	"CONTROL_EXIT_CAL\000"
 10734      524F4C5F 
 10734      45584954 
 10734      5F43414C 
 10734      00
 10735              	.LASF183:
 10736 0bcc 76726566 		.ascii	"vrefMvValue\000"
 10736      4D765661 
ARM GAS  C:\Users\thoma\AppData\Local\Temp\ccRUrbHX.s 			page 212


 10736      6C756500 
 10737              	.LASF309:
 10738 0bd8 42513334 		.ascii	"BQ34Z100_Unseal\000"
 10738      5A313030 
 10738      5F556E73 
 10738      65616C00 
 10739              	.LASF46:
 10740 0be8 63707573 		.ascii	"cpussFlashPaSize\000"
 10740      73466C61 
 10740      73685061 
 10740      53697A65 
 10740      00
 10741              	.LASF213:
 10742 0bf9 63617074 		.ascii	"captureInput\000"
 10742      75726549 
 10742      6E707574 
 10742      00
 10743              	.LASF166:
 10744 0c06 43595F53 		.ascii	"CY_SAR_RANGE_COND_ABOVE\000"
 10744      41525F52 
 10744      414E4745 
 10744      5F434F4E 
 10744      445F4142 
 10745              	.LASF111:
 10746 0c1e 63686172 		.ascii	"char\000"
 10746      00
 10747              	.LASF241:
 10748 0c23 434F4D4D 		.ascii	"COMMAND_INTERNALTEMPERATURE\000"
 10748      414E445F 
 10748      494E5445 
 10748      524E414C 
 10748      54454D50 
 10749              	.LASF175:
 10750 0c3f 6368616E 		.ascii	"chanEn\000"
 10750      456E00
 10751              	.LASF191:
 10752 0c46 72785269 		.ascii	"rxRingBufTail\000"
 10752      6E674275 
 10752      66546169 
 10752      6C00
 10753              	.LASF87:
 10754 0c54 70657269 		.ascii	"periDiv16_5CtlOffset\000"
 10754      44697631 
 10754      365F3543 
 10754      746C4F66 
 10754      66736574 
 10755              	.LASF159:
 10756 0c69 64697669 		.ascii	"dividerType\000"
 10756      64657254 
 10756      79706500 
 10757              	.LASF57:
 10758 0c75 75646250 		.ascii	"udbPresent\000"
 10758      72657365 
 10758      6E7400
 10759              	.LASF387:
 10760 0c80 4932435F 		.ascii	"I2C_MasterReadByte\000"
 10760      4D617374 
ARM GAS  C:\Users\thoma\AppData\Local\Temp\ccRUrbHX.s 			page 213


 10760      65725265 
 10760      61644279 
 10760      746500
 10761              	.LASF58:
 10762 0c93 73797350 		.ascii	"sysPmSimoPresent\000"
 10762      6D53696D 
 10762      6F507265 
 10762      73656E74 
 10762      00
 10763              	.LASF221:
 10764 0ca4 636F756E 		.ascii	"countInput\000"
 10764      74496E70 
 10764      757400
 10765              	.LASF204:
 10766 0caf 636C6F63 		.ascii	"clockPrescaler\000"
 10766      6B507265 
 10766      7363616C 
 10766      657200
 10767              	.LASF317:
 10768 0cbe 42513334 		.ascii	"BQ34Z100_ReadDeviceType\000"
 10768      5A313030 
 10768      5F526561 
 10768      64446576 
 10768      69636554 
 10769              	.LASF374:
 10770 0cd6 4761696E 		.ascii	"GainDF\000"
 10770      444600
 10771              	.LASF194:
 10772 0cdd 72784275 		.ascii	"rxBufIdx\000"
 10772      66496478 
 10772      00
 10773              	.LASF1:
 10774 0ce6 756E7369 		.ascii	"unsigned int\000"
 10774      676E6564 
 10774      20696E74 
 10774      00
 10775              	.LASF283:
 10776 0cf3 77726974 		.ascii	"write_two_bytes\000"
 10776      655F7477 
 10776      6F5F6279 
 10776      74657300 
 10777              	.LASF239:
 10778 0d03 434F4D4D 		.ascii	"COMMAND_FLAGSB\000"
 10778      414E445F 
 10778      464C4147 
 10778      534200
 10779              	.LASF127:
 10780 0d12 43595F43 		.ascii	"CY_CTDAC_DEEPSLEEP_DISABLE\000"
 10780      54444143 
 10780      5F444545 
 10780      50534C45 
 10780      45505F44 
 10781              	.LASF16:
 10782 0d2d 75696E74 		.ascii	"uint8_t\000"
 10782      385F7400 
 10783              	.LASF396:
 10784 0d35 5F5F6275 		.ascii	"__builtin_puts\000"
ARM GAS  C:\Users\thoma\AppData\Local\Temp\ccRUrbHX.s 			page 214


 10784      696C7469 
 10784      6E5F7075 
 10784      747300
 10785              	.LASF124:
 10786 0d44 43595F43 		.ascii	"CY_CTDAC_FORMAT_UNSIGNED\000"
 10786      54444143 
 10786      5F464F52 
 10786      4D41545F 
 10786      554E5349 
 10787              	.LASF270:
 10788 0d5d 434F4E54 		.ascii	"CONTROL_UNSEAL_KEY1\000"
 10788      524F4C5F 
 10788      554E5345 
 10788      414C5F4B 
 10788      45593100 
 10789              	.LASF271:
 10790 0d71 434F4E54 		.ascii	"CONTROL_UNSEAL_KEY2\000"
 10790      524F4C5F 
 10790      554E5345 
 10790      414C5F4B 
 10790      45593200 
 10791              	.LASF81:
 10792 0d85 70657269 		.ascii	"periDivCmdDivSelMsk\000"
 10792      44697643 
 10792      6D644469 
 10792      7653656C 
 10792      4D736B00 
 10793              	.LASF348:
 10794 0d99 42513334 		.ascii	"BQ34Z100_ChangePage64\000"
 10794      5A313030 
 10794      5F436861 
 10794      6E676550 
 10794      61676536 
 10795              	.LASF228:
 10796 0daf 4144435F 		.ascii	"ADC_CONFIG_STRUCT\000"
 10796      434F4E46 
 10796      49475F53 
 10796      54525543 
 10796      5400
 10797              	.LASF181:
 10798 0dc1 6D757853 		.ascii	"muxSwitchSqCtrl\000"
 10798      77697463 
 10798      68537143 
 10798      74726C00 
 10799              	.LASF264:
 10800 0dd1 434F4E54 		.ascii	"CONTROL_IT_ENABLE\000"
 10800      524F4C5F 
 10800      49545F45 
 10800      4E41424C 
 10800      4500
 10801              	.LASF185:
 10802 0de3 63795F63 		.ascii	"cy_cb_scb_uart_handle_events_t\000"
 10802      625F7363 
 10802      625F7561 
 10802      72745F68 
 10802      616E646C 
 10803              	.LASF174:
ARM GAS  C:\Users\thoma\AppData\Local\Temp\ccRUrbHX.s 			page 215


 10804 0e02 72616E67 		.ascii	"rangeCond\000"
 10804      65436F6E 
 10804      6400
 10805              	.LASF105:
 10806 0e0c 63707573 		.ascii	"cpussRam0Ctl0\000"
 10806      7352616D 
 10806      3043746C 
 10806      3000
 10807              	.LASF14:
 10808 0e1a 6C6F6E67 		.ascii	"long long int\000"
 10808      206C6F6E 
 10808      6720696E 
 10808      7400
 10809              	.LASF32:
 10810 0e28 69706342 		.ascii	"ipcBase\000"
 10810      61736500 
 10811              	.LASF325:
 10812 0e30 69457870 		.ascii	"iExp\000"
 10812      00
 10813              	.LASF282:
 10814 0e35 77726974 		.ascii	"write\000"
 10814      6500
 10815              	.LASF33:
 10816 0e3b 63727970 		.ascii	"cryptoBase\000"
 10816      746F4261 
 10816      736500
 10817              	.LASF390:
 10818 0e46 7072696E 		.ascii	"printf\000"
 10818      746600
 10819              	.LASF216:
 10820 0e4d 73746172 		.ascii	"startInputMode\000"
 10820      74496E70 
 10820      75744D6F 
 10820      646500
 10821              	.LASF240:
 10822 0e5c 434F4D4D 		.ascii	"COMMAND_SERIALNUMBER\000"
 10822      414E445F 
 10822      53455249 
 10822      414C4E55 
 10822      4D424552 
 10823              	.LASF63:
 10824 0e71 666C6173 		.ascii	"flashWriteDelay\000"
 10824      68577269 
 10824      74654465 
 10824      6C617900 
 10825              	.LASF383:
 10826 0e81 55415254 		.ascii	"UART_1_context\000"
 10826      5F315F63 
 10826      6F6E7465 
 10826      787400
 10827              	.LASF339:
 10828 0e90 666C6167 		.ascii	"flagsB\000"
 10828      734200
 10829              	.LASF311:
 10830 0e97 42513334 		.ascii	"BQ34Z100_ChangePage\000"
 10830      5A313030 
 10830      5F436861 
ARM GAS  C:\Users\thoma\AppData\Local\Temp\ccRUrbHX.s 			page 216


 10830      6E676550 
 10830      61676500 
 10831              	.LASF284:
 10832 0eab 636D6431 		.ascii	"cmd1\000"
 10832      00
 10833              	.LASF7:
 10834 0eb0 5F5F696E 		.ascii	"__int16_t\000"
 10834      7431365F 
 10834      7400
 10835              	.LASF258:
 10836 0eba 434F4E54 		.ascii	"CONTROL_CC_OFFSET\000"
 10836      524F4C5F 
 10836      43435F4F 
 10836      46465345 
 10836      5400
 10837              	.LASF53:
 10838 0ecc 70657269 		.ascii	"periClockNr\000"
 10838      436C6F63 
 10838      6B4E7200 
 10839              	.LASF29:
 10840 0ed8 6873696F 		.ascii	"hsiomBase\000"
 10840      6D426173 
 10840      6500
 10841              	.LASF79:
 10842 0ee2 70657269 		.ascii	"periTrGrOffset\000"
 10842      54724772 
 10842      4F666673 
 10842      657400
 10843              	.LASF269:
 10844 0ef1 434F4E54 		.ascii	"CONTROL_OFFSET_CAL\000"
 10844      524F4C5F 
 10844      4F464653 
 10844      45545F43 
 10844      414C00
 10845              	.LASF266:
 10846 0f04 434F4E54 		.ascii	"CONTROL_RESET\000"
 10846      524F4C5F 
 10846      52455345 
 10846      5400
 10847              	.LASF243:
 10848 0f12 434F4D4D 		.ascii	"COMMAND_STATEOFHEALTH\000"
 10848      414E445F 
 10848      53544154 
 10848      454F4648 
 10848      45414C54 
 10849              	.LASF190:
 10850 0f28 72785269 		.ascii	"rxRingBufHead\000"
 10850      6E674275 
 10850      66486561 
 10850      6400
 10851              	.LASF321:
 10852 0f36 69427974 		.ascii	"iByte1\000"
 10852      653100
 10853              	.LASF45:
 10854 0f3d 63707573 		.ascii	"cpussDwChNr\000"
 10854      73447743 
 10854      684E7200 
ARM GAS  C:\Users\thoma\AppData\Local\Temp\ccRUrbHX.s 			page 217


 10855              	.LASF323:
 10856 0f49 69427974 		.ascii	"iByte3\000"
 10856      653300
 10857              	.LASF214:
 10858 0f50 72656C6F 		.ascii	"reloadInputMode\000"
 10858      6164496E 
 10858      7075744D 
 10858      6F646500 
 10859              	.LASF330:
 10860 0f60 62497350 		.ascii	"bIsPositive\000"
 10860      6F736974 
 10860      69766500 
 10861              	.LASF196:
 10862 0f6c 74784275 		.ascii	"txBufSize\000"
 10862      6653697A 
 10862      6500
 10863              	.LASF281:
 10864 0f76 636F6D6D 		.ascii	"command\000"
 10864      616E6400 
 10865              	.LASF43:
 10866 0f7e 63707573 		.ascii	"cpussIpcNr\000"
 10866      73497063 
 10866      4E7200
 10867              	.LASF96:
 10868 0f89 63707573 		.ascii	"cpussCm4StatusOffset\000"
 10868      73436D34 
 10868      53746174 
 10868      75734F66 
 10868      66736574 
 10869              	.LASF368:
 10870 0f9e 63757272 		.ascii	"currentDeltaDF\000"
 10870      656E7444 
 10870      656C7461 
 10870      444600
 10871              	.LASF268:
 10872 0fad 434F4E54 		.ascii	"CONTROL_ENTER_CAL\000"
 10872      524F4C5F 
 10872      454E5445 
 10872      525F4341 
 10872      4C00
 10873              	.LASF293:
 10874 0fbf 42513334 		.ascii	"BQ34Z100_EnableCal\000"
 10874      5A313030 
 10874      5F456E61 
 10874      626C6543 
 10874      616C00
 10875              	.LASF142:
 10876 0fd2 43595F43 		.ascii	"CY_CTDAC_REFSOURCE_VDDA\000"
 10876      54444143 
 10876      5F524546 
 10876      534F5552 
 10876      43455F56 
 10877              	.LASF107:
 10878 0fea 63707573 		.ascii	"cpussRam2Ctl0\000"
 10878      7352616D 
 10878      3243746C 
 10878      3000
ARM GAS  C:\Users\thoma\AppData\Local\Temp\ccRUrbHX.s 			page 218


 10879              	.LASF123:
 10880 0ff8 63795F65 		.ascii	"cy_en_ctdac_update_t\000"
 10880      6E5F6374 
 10880      6461635F 
 10880      75706461 
 10880      74655F74 
 10881              	.LASF195:
 10882 100d 74784275 		.ascii	"txBuf\000"
 10882      6600
 10883              	.LASF115:
 10884 1013 43595F53 		.ascii	"CY_SYSCLK_DIV_16_5_BIT\000"
 10884      5953434C 
 10884      4B5F4449 
 10884      565F3136 
 10884      5F355F42 
 10885              	.LASF149:
 10886 102a 75706461 		.ascii	"updateMode\000"
 10886      74654D6F 
 10886      646500
 10887              	.LASF86:
 10888 1035 70657269 		.ascii	"periDiv16CtlOffset\000"
 10888      44697631 
 10888      3643746C 
 10888      4F666673 
 10888      657400
 10889              	.LASF385:
 10890 1048 4932435F 		.ascii	"I2C_MasterWriteByte\000"
 10890      4D617374 
 10890      65725772 
 10890      69746542 
 10890      79746500 
 10891              	.LASF320:
 10892 105c 666C6F61 		.ascii	"floatToXemics\000"
 10892      74546F58 
 10892      656D6963 
 10892      7300
 10893              	.LASF180:
 10894 106a 6D757853 		.ascii	"muxSwitch\000"
 10894      77697463 
 10894      6800
 10895              	.LASF9:
 10896 1074 73686F72 		.ascii	"short unsigned int\000"
 10896      7420756E 
 10896      7369676E 
 10896      65642069 
 10896      6E7400
 10897              	.LASF245:
 10898 1087 434F4D4D 		.ascii	"COMMAND_DATAFLASHBLOCK\000"
 10898      414E445F 
 10898      44415441 
 10898      464C4153 
 10898      48424C4F 
 10899              	.LASF188:
 10900 109e 72785269 		.ascii	"rxRingBuf\000"
 10900      6E674275 
 10900      6600
 10901              	.LASF23:
ARM GAS  C:\Users\thoma\AppData\Local\Temp\ccRUrbHX.s 			page 219


 10902 10a8 6C6F6E67 		.ascii	"long double\000"
 10902      20646F75 
 10902      626C6500 
 10903              	.LASF143:
 10904 10b4 63795F65 		.ascii	"cy_en_ctdac_ref_source_t\000"
 10904      6E5F6374 
 10904      6461635F 
 10904      7265665F 
 10904      736F7572 
 10905              	.LASF28:
 10906 10cd 70726F74 		.ascii	"protBase\000"
 10906      42617365 
 10906      00
 10907              	.LASF205:
 10908 10d6 72756E4D 		.ascii	"runMode\000"
 10908      6F646500 
 10909              	.LASF78:
 10910 10de 70657269 		.ascii	"periTrCmdGrSelMsk\000"
 10910      5472436D 
 10910      64477253 
 10910      656C4D73 
 10910      6B00
 10911              	.LASF171:
 10912 10f0 73616D70 		.ascii	"sampleTime01\000"
 10912      6C655469 
 10912      6D653031 
 10912      00
 10913              	.LASF12:
 10914 10fd 5F5F7569 		.ascii	"__uint32_t\000"
 10914      6E743332 
 10914      5F7400
 10915              	.LASF52:
 10916 1108 73727373 		.ascii	"srssNumHfroot\000"
 10916      4E756D48 
 10916      66726F6F 
 10916      7400
 10917              	.LASF222:
 10918 1116 63795F73 		.ascii	"cy_stc_tcpwm_counter_config_t\000"
 10918      74635F74 
 10918      6370776D 
 10918      5F636F75 
 10918      6E746572 
 10919              	.LASF114:
 10920 1134 43595F53 		.ascii	"CY_SYSCLK_DIV_16_BIT\000"
 10920      5953434C 
 10920      4B5F4449 
 10920      565F3136 
 10920      5F424954 
 10921              	.LASF237:
 10922 1149 434F4D4D 		.ascii	"COMMAND_FLAGS\000"
 10922      414E445F 
 10922      464C4147 
 10922      5300
 10923              	.LASF36:
 10924 1157 64775665 		.ascii	"dwVersion\000"
 10924      7273696F 
 10924      6E00
ARM GAS  C:\Users\thoma\AppData\Local\Temp\ccRUrbHX.s 			page 220


 10925              	.LASF68:
 10926 1161 666C6173 		.ascii	"flashCtlMainWs2Freq\000"
 10926      6843746C 
 10926      4D61696E 
 10926      57733246 
 10926      72657100 
 10927              	.LASF233:
 10928 1175 434F4D4D 		.ascii	"COMMAND_FULLCHARGECAPACITY\000"
 10928      414E445F 
 10928      46554C4C 
 10928      43484152 
 10928      47454341 
 10929              	.LASF345:
 10930 1190 63616C63 		.ascii	"calculatedChecksum\000"
 10930      756C6174 
 10930      65644368 
 10930      65636B73 
 10930      756D00
 10931              	.LASF21:
 10932 11a3 73697A65 		.ascii	"sizetype\000"
 10932      74797065 
 10932      00
 10933              	.LASF341:
 10934 11ac 42513334 		.ascii	"BQ34Z100_UpdateChecksum\000"
 10934      5A313030 
 10934      5F557064 
 10934      61746543 
 10934      6865636B 
 10935              	.LASF103:
 10936 11c4 63707573 		.ascii	"cpussCm4NmiCtlOffset\000"
 10936      73436D34 
 10936      4E6D6943 
 10936      746C4F66 
 10936      66736574 
 10937              	.LASF207:
 10938 11d9 636F6D70 		.ascii	"compareOrCapture\000"
 10938      6172654F 
 10938      72436170 
 10938      74757265 
 10938      00
 10939              	.LASF85:
 10940 11ea 70657269 		.ascii	"periDiv8CtlOffset\000"
 10940      44697638 
 10940      43746C4F 
 10940      66667365 
 10940      7400
 10941              	.LASF3:
 10942 11fc 73686F72 		.ascii	"short int\000"
 10942      7420696E 
 10942      7400
 10943              	.LASF343:
 10944 1206 42513334 		.ascii	"BQ34Z100_ReadFlash\000"
 10944      5A313030 
 10944      5F526561 
 10944      64466C61 
 10944      736800
 10945              	.LASF380:
ARM GAS  C:\Users\thoma\AppData\Local\Temp\ccRUrbHX.s 			page 221


 10946 1219 4144435F 		.ascii	"ADC_allConfigs\000"
 10946      616C6C43 
 10946      6F6E6669 
 10946      677300
 10947              	.LASF138:
 10948 1228 43595F43 		.ascii	"CY_CTDAC_DEGLITCHMODE_BUFFERED\000"
 10948      54444143 
 10948      5F444547 
 10948      4C495443 
 10948      484D4F44 
 10949              	.LASF145:
 10950 1247 43595F43 		.ascii	"CY_CTDAC_OUTPUT_UNBUFFERED\000"
 10950      54444143 
 10950      5F4F5554 
 10950      5055545F 
 10950      554E4255 
 10951              	.LASF210:
 10952 1262 656E6162 		.ascii	"enableCompareSwap\000"
 10952      6C65436F 
 10952      6D706172 
 10952      65537761 
 10952      7000
 10953              	.LASF73:
 10954 1274 64774368 		.ascii	"dwChCtlPrioPos\000"
 10954      43746C50 
 10954      72696F50 
 10954      6F7300
 10955              	.LASF11:
 10956 1283 6C6F6E67 		.ascii	"long int\000"
 10956      20696E74 
 10956      00
 10957              	.LASF34:
 10958 128c 63707573 		.ascii	"cpussVersion\000"
 10958      73566572 
 10958      73696F6E 
 10958      00
 10959              	.LASF376:
 10960 1299 49544D5F 		.ascii	"ITM_RxBuffer\000"
 10960      52784275 
 10960      66666572 
 10960      00
 10961              	.LASF220:
 10962 12a6 636F756E 		.ascii	"countInputMode\000"
 10962      74496E70 
 10962      75744D6F 
 10962      646500
 10963              	.LASF38:
 10964 12b5 6770696F 		.ascii	"gpioVersion\000"
 10964      56657273 
 10964      696F6E00 
 10965              	.LASF288:
 10966 12c1 6C656E67 		.ascii	"length\000"
 10966      746800
 10967              	.LASF37:
 10968 12c8 666C6173 		.ascii	"flashcVersion\000"
 10968      68635665 
 10968      7273696F 
ARM GAS  C:\Users\thoma\AppData\Local\Temp\ccRUrbHX.s 			page 222


 10968      6E00
 10969              	.LASF59:
 10970 12d6 70726F74 		.ascii	"protBusMasterMask\000"
 10970      4275734D 
 10970      61737465 
 10970      724D6173 
 10970      6B00
 10971              	.LASF206:
 10972 12e8 636F756E 		.ascii	"countDirection\000"
 10972      74446972 
 10972      65637469 
 10972      6F6E00
 10973              	.LASF153:
 10974 12f7 64656570 		.ascii	"deepSleep\000"
 10974      536C6565 
 10974      7000
 10975              	.LASF371:
 10976 1301 6E657747 		.ascii	"newGainDF\000"
 10976      61696E44 
 10976      4600
 10977              	.LASF197:
 10978 130b 74784C65 		.ascii	"txLeftToTransmit\000"
 10978      6674546F 
 10978      5472616E 
 10978      736D6974 
 10978      00
 10979              	.LASF312:
 10980 131c 73756263 		.ascii	"subclass\000"
 10980      6C617373 
 10980      00
 10981              	.LASF98:
 10982 1325 63707573 		.ascii	"cpussCm4PwrCtlOffset\000"
 10982      73436D34 
 10982      50777243 
 10982      746C4F66 
 10982      66736574 
 10983              	.LASF6:
 10984 133a 5F5F7569 		.ascii	"__uint8_t\000"
 10984      6E74385F 
 10984      7400
 10985              	.LASF226:
 10986 1344 6D697363 		.ascii	"miscConfig\000"
 10986      436F6E66 
 10986      696700
 10987              	.LASF291:
 10988 134f 72656164 		.ascii	"read\000"
 10988      00
 10989              	.LASF89:
 10990 1354 6770696F 		.ascii	"gpioPrtIntrCfgOffset\000"
 10990      50727449 
 10990      6E747243 
 10990      66674F66 
 10990      66736574 
 10991              	.LASF332:
 10992 1369 66526573 		.ascii	"fResult\000"
 10992      756C7400 
 10993              	.LASF135:
ARM GAS  C:\Users\thoma\AppData\Local\Temp\ccRUrbHX.s 			page 223


 10994 1371 63795F65 		.ascii	"cy_en_ctdac_output_mode_t\000"
 10994      6E5F6374 
 10994      6461635F 
 10994      6F757470 
 10994      75745F6D 
 10995              	.LASF95:
 10996 138b 63707573 		.ascii	"cpussCm4ClockCtlOffset\000"
 10996      73436D34 
 10996      436C6F63 
 10996      6B43746C 
 10996      4F666673 
 10997              	.LASF260:
 10998 13a2 434F4E54 		.ascii	"CONTROL_DF_VERSION\000"
 10998      524F4C5F 
 10998      44465F56 
 10998      45525349 
 10998      4F4E00
 10999              	.LASF100:
 11000 13b5 63707573 		.ascii	"cpussTrimRomCtlOffset\000"
 11000      73547269 
 11000      6D526F6D 
 11000      43746C4F 
 11000      66667365 
 11001              	.LASF172:
 11002 13cb 73616D70 		.ascii	"sampleTime23\000"
 11002      6C655469 
 11002      6D653233 
 11002      00
 11003              	.LASF244:
 11004 13d8 434F4D4D 		.ascii	"COMMAND_DATAFLASHCLASS\000"
 11004      414E445F 
 11004      44415441 
 11004      464C4153 
 11004      48434C41 
 11005              	.LASF39:
 11006 13ef 6873696F 		.ascii	"hsiomVersion\000"
 11006      6D566572 
 11006      73696F6E 
 11006      00
 11007              	.LASF122:
 11008 13fc 43595F43 		.ascii	"CY_CTDAC_UPDATE_STROBE_LEVEL\000"
 11008      54444143 
 11008      5F555044 
 11008      4154455F 
 11008      5354524F 
 11009              	.LASF13:
 11010 1419 6C6F6E67 		.ascii	"long unsigned int\000"
 11010      20756E73 
 11010      69676E65 
 11010      6420696E 
 11010      7400
 11011              	.LASF295:
 11012 142b 42513334 		.ascii	"BQ34Z100_ExitCal\000"
 11012      5A313030 
 11012      5F457869 
 11012      7443616C 
 11012      00
ARM GAS  C:\Users\thoma\AppData\Local\Temp\ccRUrbHX.s 			page 224


 11013              	.LASF104:
 11014 143c 63707573 		.ascii	"cpussRomCtl\000"
 11014      73526F6D 
 11014      43746C00 
 11015              	.LASF19:
 11016 1448 696E7433 		.ascii	"int32_t\000"
 11016      325F7400 
 11017              	.LASF382:
 11018 1450 56444143 		.ascii	"VDAC_ctdacConfig\000"
 11018      5F637464 
 11018      6163436F 
 11018      6E666967 
 11018      00
 11019              	.LASF333:
 11020 1461 764D5342 		.ascii	"vMSByte\000"
 11020      79746500 
 11021              	.LASF150:
 11022 1469 6465676C 		.ascii	"deglitchMode\000"
 11022      69746368 
 11022      4D6F6465 
 11022      00
 11023              	.LASF229:
 11024 1476 434F4D4D 		.ascii	"COMMAND_CONTROL\000"
 11024      414E445F 
 11024      434F4E54 
 11024      524F4C00 
 11025              	.LASF356:
 11026 1486 666C6173 		.ascii	"flashVoltage\000"
 11026      68566F6C 
 11026      74616765 
 11026      00
 11027              	.LASF373:
 11028 1493 42513334 		.ascii	"BQ34Z100_SetSenseResistor\000"
 11028      5A313030 
 11028      5F536574 
 11028      53656E73 
 11028      65526573 
 11029              	.LASF290:
 11030 14ad 62797465 		.ascii	"byte\000"
 11030      00
 11031              	.LASF326:
 11032 14b2 624E6567 		.ascii	"bNegative\000"
 11032      61746976 
 11032      6500
 11033              	.LASF97:
 11034 14bc 63707573 		.ascii	"cpussCm0StatusOffset\000"
 11034      73436D30 
 11034      53746174 
 11034      75734F66 
 11034      66736574 
 11035              	.LASF170:
 11036 14d1 73616D70 		.ascii	"sampleCtrl\000"
 11036      6C654374 
 11036      726C00
 11037              	.LASF372:
 11038 14dc 44656C74 		.ascii	"DeltaDF\000"
 11038      61444600 
ARM GAS  C:\Users\thoma\AppData\Local\Temp\ccRUrbHX.s 			page 225


 11039              	.LASF18:
 11040 14e4 75696E74 		.ascii	"uint16_t\000"
 11040      31365F74 
 11040      00
 11041              	.LASF349:
 11042 14ed 7061636B 		.ascii	"packConfig_high\000"
 11042      436F6E66 
 11042      69675F68 
 11042      69676800 
 11043              	.LASF5:
 11044 14fd 756E7369 		.ascii	"unsigned char\000"
 11044      676E6564 
 11044      20636861 
 11044      7200
 11045              	.LASF299:
 11046 150b 42513334 		.ascii	"BQ34Z100_GetStateOfHealth\000"
 11046      5A313030 
 11046      5F476574 
 11046      53746174 
 11046      654F6648 
 11047              	.LASF152:
 11048 1525 6F757470 		.ascii	"outputBuffer\000"
 11048      75744275 
 11048      66666572 
 11048      00
 11049              	.LASF109:
 11050 1532 6970634C 		.ascii	"ipcLockStatusOffset\000"
 11050      6F636B53 
 11050      74617475 
 11050      734F6666 
 11050      73657400 
 11051              	.LASF232:
 11052 1546 434F4D4D 		.ascii	"COMMAND_REMAININGCAPACITY\000"
 11052      414E445F 
 11052      52454D41 
 11052      494E494E 
 11052      47434150 
 11053              	.LASF173:
 11054 1560 72616E67 		.ascii	"rangeThres\000"
 11054      65546872 
 11054      657300
 11055              	.LASF274:
 11056 156b 63757272 		.ascii	"currFlashPage\000"
 11056      466C6173 
 11056      68506167 
 11056      6500
 11057              	.LASF116:
 11058 1579 43595F53 		.ascii	"CY_SYSCLK_DIV_24_5_BIT\000"
 11058      5953434C 
 11058      4B5F4449 
 11058      565F3234 
 11058      5F355F42 
 11059              	.LASF219:
 11060 1590 73746F70 		.ascii	"stopInput\000"
 11060      496E7075 
 11060      7400
 11061              	.LASF118:
ARM GAS  C:\Users\thoma\AppData\Local\Temp\ccRUrbHX.s 			page 226


 11062 159a 43595F43 		.ascii	"CY_CTDAC_UPDATE_DIRECT_WRITE\000"
 11062      54444143 
 11062      5F555044 
 11062      4154455F 
 11062      44495245 
 11063              	.LASF301:
 11064 15b7 42513334 		.ascii	"BQ34Z100_GetError\000"
 11064      5A313030 
 11064      5F476574 
 11064      4572726F 
 11064      7200
 11065              	.LASF350:
 11066 15c9 7061636B 		.ascii	"packConfig_low\000"
 11066      436F6E66 
 11066      69675F6C 
 11066      6F7700
 11067              	.LASF134:
 11068 15d8 43595F43 		.ascii	"CY_CTDAC_OUTPUT_VREF\000"
 11068      54444143 
 11068      5F4F5554 
 11068      5055545F 
 11068      56524546 
 11069              	.LASF65:
 11070 15ed 666C6173 		.ascii	"flashEraseDelay\000"
 11070      68457261 
 11070      73654465 
 11070      6C617900 
 11071              	.LASF227:
 11072 15fd 636C6B44 		.ascii	"clkDivider\000"
 11072      69766964 
 11072      657200
 11073              	.LASF117:
 11074 1608 63795F65 		.ascii	"cy_en_divider_types_t\000"
 11074      6E5F6469 
 11074      76696465 
 11074      725F7479 
 11074      7065735F 
 11075              	.LASF370:
 11076 161e 6E657747 		.ascii	"newGain\000"
 11076      61696E00 
 11077              	.LASF391:
 11078 1626 726F756E 		.ascii	"round\000"
 11078      6400
 11079              	.LASF379:
 11080 162c 4144435F 		.ascii	"ADC_currentConfig\000"
 11080      63757272 
 11080      656E7443 
 11080      6F6E6669 
 11080      6700
 11081              	.LASF148:
 11082 163e 666F726D 		.ascii	"formatMode\000"
 11082      61744D6F 
 11082      646500
 11083              	.LASF61:
 11084 1649 666C6173 		.ascii	"flashRwwRequired\000"
 11084      68527777 
 11084      52657175 
ARM GAS  C:\Users\thoma\AppData\Local\Temp\ccRUrbHX.s 			page 227


 11084      69726564 
 11084      00
 11085              	.LASF236:
 11086 165a 434F4D4D 		.ascii	"COMMAND_TEMPERATURE\000"
 11086      414E445F 
 11086      54454D50 
 11086      45524154 
 11086      55524500 
 11087              	.LASF90:
 11088 166e 6770696F 		.ascii	"gpioPrtCfgOffset\000"
 11088      50727443 
 11088      66674F66 
 11088      66736574 
 11088      00
 11089              	.LASF163:
 11090 167f 63795F73 		.ascii	"cy_stc_ctdac_config_t\000"
 11090      74635F63 
 11090      74646163 
 11090      5F636F6E 
 11090      6669675F 
 11091              	.LASF56:
 11092 1695 65704D6F 		.ascii	"epMonitorNr\000"
 11092      6E69746F 
 11092      724E7200 
 11093              	.LASF378:
 11094 16a1 55415254 		.ascii	"UART_context\000"
 11094      5F636F6E 
 11094      74657874 
 11094      00
 11095              	.LASF319:
 11096 16ae 42513334 		.ascii	"BQ34Z100_ReadHWVersion\000"
 11096      5A313030 
 11096      5F526561 
 11096      64485756 
 11096      65727369 
 11097              	.LASF314:
 11098 16c5 42513334 		.ascii	"BQ34Z100_WriteFlash\000"
 11098      5A313030 
 11098      5F577269 
 11098      7465466C 
 11098      61736800 
 11099              	.LASF4:
 11100 16d9 7369676E 		.ascii	"signed char\000"
 11100      65642063 
 11100      68617200 
 11101              	.LASF203:
 11102 16e5 70657269 		.ascii	"period\000"
 11102      6F6400
 11103              	.LASF71:
 11104 16ec 64774368 		.ascii	"dwChOffset\000"
 11104      4F666673 
 11104      657400
 11105              	.LASF199:
 11106 16f7 696E6974 		.ascii	"initKey\000"
 11106      4B657900 
 11107              	.LASF44:
 11108 16ff 63707573 		.ascii	"cpussIpcIrqNr\000"
ARM GAS  C:\Users\thoma\AppData\Local\Temp\ccRUrbHX.s 			page 228


 11108      73497063 
 11108      4972714E 
 11108      7200
 11109              	.LASF202:
 11110 170d 63795F73 		.ascii	"cy_stc_tcpwm_counter_config\000"
 11110      74635F74 
 11110      6370776D 
 11110      5F636F75 
 11110      6E746572 
 11111              	.LASF74:
 11112 1729 64774368 		.ascii	"dwChCtlPreemptablePos\000"
 11112      43746C50 
 11112      7265656D 
 11112      70746162 
 11112      6C65506F 
 11113              	.LASF249:
 11114 173f 436F6D6D 		.ascii	"Command_t\000"
 11114      616E645F 
 11114      7400
 11115              	.LASF176:
 11116 1749 6368616E 		.ascii	"chanConfig\000"
 11116      436F6E66 
 11116      696700
 11117              	.LASF139:
 11118 1754 43595F43 		.ascii	"CY_CTDAC_DEGLITCHMODE_BOTH\000"
 11118      54444143 
 11118      5F444547 
 11118      4C495443 
 11118      484D4F44 
 11119              	.LASF357:
 11120 176f 72656164 		.ascii	"readVoltage\000"
 11120      566F6C74 
 11120      61676500 
 11121              	.LASF126:
 11122 177b 63795F65 		.ascii	"cy_en_ctdac_format_t\000"
 11122      6E5F6374 
 11122      6461635F 
 11122      666F726D 
 11122      61745F74 
 11123              	.LASF136:
 11124 1790 43595F43 		.ascii	"CY_CTDAC_DEGLITCHMODE_NONE\000"
 11124      54444143 
 11124      5F444547 
 11124      4C495443 
 11124      484D4F44 
 11125              	.LASF130:
 11126 17ab 43595F43 		.ascii	"CY_CTDAC_OUTPUT_HIGHZ\000"
 11126      54444143 
 11126      5F4F5554 
 11126      5055545F 
 11126      48494748 
 11127              	.LASF394:
 11128 17c1 433A5C55 		.ascii	"C:\\Users\\thoma\\Documents\\PSoC Creator\\ecmo\\sz"
 11128      73657273 
 11128      5C74686F 
 11128      6D615C44 
 11128      6F63756D 
ARM GAS  C:\Users\thoma\AppData\Local\Temp\ccRUrbHX.s 			page 229


 11129 17ee 68616E67 		.ascii	"hang\\PSoC6_UDB_I2C_Master\\CY8CPROTO-063-BLE_Maste"
 11129      5C50536F 
 11129      43365F55 
 11129      44425F49 
 11129      32435F4D 
 11130 181f 722E6379 		.ascii	"r.cydsn\000"
 11130      64736E00 
 11131              	.LASF41:
 11132 1827 70657269 		.ascii	"periVersion\000"
 11132      56657273 
 11132      696F6E00 
 11133              	.LASF359:
 11134 1833 77726974 		.ascii	"writeSetting\000"
 11134      65536574 
 11134      74696E67 
 11134      00
 11135              	.LASF129:
 11136 1840 63795F65 		.ascii	"cy_en_ctdac_deep_sleep_t\000"
 11136      6E5F6374 
 11136      6461635F 
 11136      64656570 
 11136      5F736C65 
 11137              	.LASF182:
 11138 1859 636F6E66 		.ascii	"configRouting\000"
 11138      6967526F 
 11138      7574696E 
 11138      6700
 11139              	.LASF31:
 11140 1867 70617373 		.ascii	"passBase\000"
 11140      42617365 
 11140      00
 11141              	.LASF367:
 11142 1870 63757272 		.ascii	"currentGainResistance\000"
 11142      656E7447 
 11142      61696E52 
 11142      65736973 
 11142      74616E63 
 11143              	.LASF296:
 11144 1886 42513334 		.ascii	"BQ34Z100_ITEnable\000"
 11144      5A313030 
 11144      5F495445 
 11144      6E61626C 
 11144      6500
 11145              	.LASF50:
 11146 1898 73727373 		.ascii	"srssNumClkpath\000"
 11146      4E756D43 
 11146      6C6B7061 
 11146      746800
 11147              	.LASF342:
 11148 18a7 6E657743 		.ascii	"newChecksum\000"
 11148      6865636B 
 11148      73756D00 
 11149              	.LASF328:
 11150 18b3 78656D69 		.ascii	"xemicsToFloat\000"
 11150      6373546F 
 11150      466C6F61 
 11150      7400
ARM GAS  C:\Users\thoma\AppData\Local\Temp\ccRUrbHX.s 			page 230


 11151              	.LASF70:
 11152 18c1 666C6173 		.ascii	"flashCtlMainWs4Freq\000"
 11152      6843746C 
 11152      4D61696E 
 11152      57733446 
 11152      72657100 
 11153              	.LASF250:
 11154 18d5 434F4E54 		.ascii	"CONTROL_CONTROL_STATUS\000"
 11154      524F4C5F 
 11154      434F4E54 
 11154      524F4C5F 
 11154      53544154 
 11155              	.LASF179:
 11156 18ec 72616E67 		.ascii	"rangeIntrMask\000"
 11156      65496E74 
 11156      724D6173 
 11156      6B00
 11157              	.LASF255:
 11158 18fa 434F4E54 		.ascii	"CONTROL_PREV_MACWRITE\000"
 11158      524F4C5F 
 11158      50524556 
 11158      5F4D4143 
 11158      57524954 
 11159              	.LASF168:
 11160 1910 63795F65 		.ascii	"cy_en_sar_range_detect_condition_t\000"
 11160      6E5F7361 
 11160      725F7261 
 11160      6E67655F 
 11160      64657465 
 11161              	.LASF354:
 11162 1933 42513334 		.ascii	"BQ34Z100_CalibrateVoltage\000"
 11162      5A313030 
 11162      5F43616C 
 11162      69627261 
 11162      7465566F 
 11163              	.LASF337:
 11164 194d 42513334 		.ascii	"BQ34Z100_GetFlags\000"
 11164      5A313030 
 11164      5F476574 
 11164      466C6167 
 11164      7300
 11165              	.LASF40:
 11166 195f 69706356 		.ascii	"ipcVersion\000"
 11166      65727369 
 11166      6F6E00
 11167              	.LASF177:
 11168 196a 696E7472 		.ascii	"intrMask\000"
 11168      4D61736B 
 11168      00
 11169              	.LASF77:
 11170 1973 70657269 		.ascii	"periTrCmdOffset\000"
 11170      5472436D 
 11170      644F6666 
 11170      73657400 
 11171              	.LASF193:
 11172 1983 72784275 		.ascii	"rxBufSize\000"
 11172      6653697A 
ARM GAS  C:\Users\thoma\AppData\Local\Temp\ccRUrbHX.s 			page 231


 11172      6500
 11173              	.LASF215:
 11174 198d 72656C6F 		.ascii	"reloadInput\000"
 11174      6164496E 
 11174      70757400 
 11175              	.LASF355:
 11176 1999 63757272 		.ascii	"currentVoltage\000"
 11176      656E7456 
 11176      6F6C7461 
 11176      676500
 11177              		.ident	"GCC: (GNU Tools for ARM Embedded Processors) 5.4.1 20160609 (release) [ARM/embedded-5-bran
