ARM GAS  C:\Users\shizh\AppData\Local\Temp\ccMQxVCk.s 			page 1


   1              		.syntax unified
   2              		.cpu cortex-m4
   3              		.eabi_attribute 27, 1
   4              		.fpu fpv4-sp-d16
   5              		.eabi_attribute 20, 1
   6              		.eabi_attribute 21, 1
   7              		.eabi_attribute 23, 3
   8              		.eabi_attribute 24, 1
   9              		.eabi_attribute 25, 1
  10              		.eabi_attribute 26, 1
  11              		.eabi_attribute 30, 1
  12              		.eabi_attribute 34, 1
  13              		.eabi_attribute 18, 4
  14              		.thumb
  15              		.syntax unified
  16              		.file	"bq34z100.c"
  17              		.text
  18              	.Ltext0:
  19              		.cfi_sections	.debug_frame
  20              		.section	.text.write,"ax",%progbits
  21              		.align	2
  22              		.global	write
  23              		.thumb
  24              		.thumb_func
  25              		.type	write, %function
  26              	write:
  27              	.LFB537:
  28              		.file 1 "bq34z100.c"
   1:bq34z100.c    **** #include "project.h"  // Include global project header
   2:bq34z100.c    **** #include "bq34z100.h" // Include bq34z100 header
   3:bq34z100.c    **** #include <inttypes.h>  // Include C++-style integer types
   4:bq34z100.c    **** #include <stdio.h>  // Include standard I/O functions
   5:bq34z100.c    **** 
   6:bq34z100.c    **** // Initialization function
   7:bq34z100.c    **** // void bq34z100_init() {
   8:bq34z100.c    **** //     I2C_Start(); // Ensure your I2C hardware is configured and named appropriately
   9:bq34z100.c    **** // }
  10:bq34z100.c    **** 
  11:bq34z100.c    **** 
  12:bq34z100.c    **** void sendControlCommand(BQ34Z100_t *device, Control_t control) {
  13:bq34z100.c    ****     write_two_bytes(device, COMMAND_CONTROL, control & 0xFF, control >> 8);
  14:bq34z100.c    **** }
  15:bq34z100.c    **** 
  16:bq34z100.c    **** uint16_t readControlCommand(BQ34Z100_t *device, Control_t control) {
  17:bq34z100.c    ****     sendControlCommand(device, control);
  18:bq34z100.c    ****     return read(device, COMMAND_CONTROL, 2);
  19:bq34z100.c    **** }
  20:bq34z100.c    **** 
  21:bq34z100.c    **** void write(BQ34Z100_t *device, Command_t command, uint8_t cmd) {
  29              		.loc 1 21 0
  30              		.cfi_startproc
  31              		@ args = 0, pretend = 0, frame = 0
  32              		@ frame_needed = 0, uses_anonymous_args = 0
  33              	.LVL0:
  34 0000 38B5     		push	{r3, r4, r5, lr}
  35              		.cfi_def_cfa_offset 16
  36              		.cfi_offset 3, -16
ARM GAS  C:\Users\shizh\AppData\Local\Temp\ccMQxVCk.s 			page 2


  37              		.cfi_offset 4, -12
  38              		.cfi_offset 5, -8
  39              		.cfi_offset 14, -4
  40 0002 0D46     		mov	r5, r1
  41 0004 1446     		mov	r4, r2
  22:bq34z100.c    ****     (void) device;
  23:bq34z100.c    ****     I2C_MasterSendStart(BQ34Z100, I2C_WRITE_XFER_MODE);
  42              		.loc 1 23 0
  43 0006 0021     		movs	r1, #0
  44              	.LVL1:
  45 0008 AA20     		movs	r0, #170
  46              	.LVL2:
  47 000a FFF7FEFF 		bl	I2C_MasterSendStart
  48              	.LVL3:
  24:bq34z100.c    ****     I2C_MasterWriteByte(command);
  49              		.loc 1 24 0
  50 000e 2846     		mov	r0, r5
  51 0010 FFF7FEFF 		bl	I2C_MasterWriteByte
  52              	.LVL4:
  25:bq34z100.c    ****     I2C_MasterWriteByte(cmd);
  53              		.loc 1 25 0
  54 0014 2046     		mov	r0, r4
  55 0016 FFF7FEFF 		bl	I2C_MasterWriteByte
  56              	.LVL5:
  26:bq34z100.c    ****     I2C_MasterSendStop();
  57              		.loc 1 26 0
  58 001a FFF7FEFF 		bl	I2C_MasterSendStop
  59              	.LVL6:
  60 001e 38BD     		pop	{r3, r4, r5, pc}
  61              		.cfi_endproc
  62              	.LFE537:
  63              		.size	write, .-write
  64              		.section	.text.write_two_bytes,"ax",%progbits
  65              		.align	2
  66              		.global	write_two_bytes
  67              		.thumb
  68              		.thumb_func
  69              		.type	write_two_bytes, %function
  70              	write_two_bytes:
  71              	.LFB538:
  27:bq34z100.c    **** }
  28:bq34z100.c    **** 
  29:bq34z100.c    **** void write_two_bytes(BQ34Z100_t *device, Command_t command, uint8_t cmd1, uint8_t cmd2) {
  72              		.loc 1 29 0
  73              		.cfi_startproc
  74              		@ args = 0, pretend = 0, frame = 0
  75              		@ frame_needed = 0, uses_anonymous_args = 0
  76              	.LVL7:
  77 0000 70B5     		push	{r4, r5, r6, lr}
  78              		.cfi_def_cfa_offset 16
  79              		.cfi_offset 4, -16
  80              		.cfi_offset 5, -12
  81              		.cfi_offset 6, -8
  82              		.cfi_offset 14, -4
  83 0002 0E46     		mov	r6, r1
  84 0004 1546     		mov	r5, r2
  85 0006 1C46     		mov	r4, r3
ARM GAS  C:\Users\shizh\AppData\Local\Temp\ccMQxVCk.s 			page 3


  30:bq34z100.c    ****     (void) device;
  31:bq34z100.c    ****     I2C_MasterSendStart(BQ34Z100, I2C_WRITE_XFER_MODE);
  86              		.loc 1 31 0
  87 0008 0021     		movs	r1, #0
  88              	.LVL8:
  89 000a AA20     		movs	r0, #170
  90              	.LVL9:
  91 000c FFF7FEFF 		bl	I2C_MasterSendStart
  92              	.LVL10:
  32:bq34z100.c    ****     I2C_MasterWriteByte(command);
  93              		.loc 1 32 0
  94 0010 3046     		mov	r0, r6
  95 0012 FFF7FEFF 		bl	I2C_MasterWriteByte
  96              	.LVL11:
  33:bq34z100.c    ****     I2C_MasterWriteByte(cmd1);
  97              		.loc 1 33 0
  98 0016 2846     		mov	r0, r5
  99 0018 FFF7FEFF 		bl	I2C_MasterWriteByte
 100              	.LVL12:
  34:bq34z100.c    ****     I2C_MasterWriteByte(cmd2);
 101              		.loc 1 34 0
 102 001c 2046     		mov	r0, r4
 103 001e FFF7FEFF 		bl	I2C_MasterWriteByte
 104              	.LVL13:
  35:bq34z100.c    ****     I2C_MasterSendStop();
 105              		.loc 1 35 0
 106 0022 FFF7FEFF 		bl	I2C_MasterSendStop
 107              	.LVL14:
 108 0026 70BD     		pop	{r4, r5, r6, pc}
 109              		.cfi_endproc
 110              	.LFE538:
 111              		.size	write_two_bytes, .-write_two_bytes
 112              		.section	.text.sendControlCommand,"ax",%progbits
 113              		.align	2
 114              		.global	sendControlCommand
 115              		.thumb
 116              		.thumb_func
 117              		.type	sendControlCommand, %function
 118              	sendControlCommand:
 119              	.LFB535:
  12:bq34z100.c    ****     write_two_bytes(device, COMMAND_CONTROL, control & 0xFF, control >> 8);
 120              		.loc 1 12 0
 121              		.cfi_startproc
 122              		@ args = 0, pretend = 0, frame = 0
 123              		@ frame_needed = 0, uses_anonymous_args = 0
 124              	.LVL15:
 125 0000 08B5     		push	{r3, lr}
 126              		.cfi_def_cfa_offset 8
 127              		.cfi_offset 3, -8
 128              		.cfi_offset 14, -4
  13:bq34z100.c    **** }
 129              		.loc 1 13 0
 130 0002 0B0A     		lsrs	r3, r1, #8
 131 0004 CAB2     		uxtb	r2, r1
 132 0006 0021     		movs	r1, #0
 133              	.LVL16:
 134 0008 FFF7FEFF 		bl	write_two_bytes
ARM GAS  C:\Users\shizh\AppData\Local\Temp\ccMQxVCk.s 			page 4


 135              	.LVL17:
 136 000c 08BD     		pop	{r3, pc}
 137              		.cfi_endproc
 138              	.LFE535:
 139              		.size	sendControlCommand, .-sendControlCommand
 140 000e 00BF     		.section	.text.read,"ax",%progbits
 141              		.align	2
 142              		.global	read
 143              		.thumb
 144              		.thumb_func
 145              		.type	read, %function
 146              	read:
 147              	.LFB539:
  36:bq34z100.c    **** }
  37:bq34z100.c    **** 
  38:bq34z100.c    **** uint32_t read(BQ34Z100_t *device, Command_t command, uint8_t length) {
 148              		.loc 1 38 0
 149              		.cfi_startproc
 150              		@ args = 0, pretend = 0, frame = 0
 151              		@ frame_needed = 0, uses_anonymous_args = 0
 152              	.LVL18:
 153 0000 70B5     		push	{r4, r5, r6, lr}
 154              		.cfi_def_cfa_offset 16
 155              		.cfi_offset 4, -16
 156              		.cfi_offset 5, -12
 157              		.cfi_offset 6, -8
 158              		.cfi_offset 14, -4
 159 0002 0C46     		mov	r4, r1
 160 0004 1646     		mov	r6, r2
 161              	.LVL19:
  39:bq34z100.c    ****     (void) device;
  40:bq34z100.c    ****     uint32_t result = 0;
  41:bq34z100.c    ****     I2C_MasterSendStart(BQ34Z100, I2C_WRITE_XFER_MODE);
 162              		.loc 1 41 0
 163 0006 0021     		movs	r1, #0
 164              	.LVL20:
 165 0008 AA20     		movs	r0, #170
 166              	.LVL21:
 167 000a FFF7FEFF 		bl	I2C_MasterSendStart
 168              	.LVL22:
  42:bq34z100.c    ****     I2C_MasterWriteByte(command);
 169              		.loc 1 42 0
 170 000e 2046     		mov	r0, r4
 171 0010 FFF7FEFF 		bl	I2C_MasterWriteByte
 172              	.LVL23:
  43:bq34z100.c    ****     I2C_MasterSendRestart(BQ34Z100, I2C_READ_XFER_MODE);
 173              		.loc 1 43 0
 174 0014 0121     		movs	r1, #1
 175 0016 AA20     		movs	r0, #170
 176 0018 FFF7FEFF 		bl	I2C_MasterSendRestart
 177              	.LVL24:
 178              	.LBB2:
  44:bq34z100.c    **** 
  45:bq34z100.c    ****     for (uint8_t i = 0; i < length; i++) {
 179              		.loc 1 45 0
 180 001c 0024     		movs	r4, #0
 181              	.LBE2:
ARM GAS  C:\Users\shizh\AppData\Local\Temp\ccMQxVCk.s 			page 5


  40:bq34z100.c    ****     I2C_MasterSendStart(BQ34Z100, I2C_WRITE_XFER_MODE);
 182              		.loc 1 40 0
 183 001e 2546     		mov	r5, r4
 184              	.LBB4:
 185              		.loc 1 45 0
 186 0020 0AE0     		b	.L8
 187              	.LVL25:
 188              	.L9:
 189              	.LBB3:
  46:bq34z100.c    ****         uint8_t ack = (i == (length - 1)) ? I2C_NAK_DATA : I2C_ACK_DATA;
 190              		.loc 1 46 0 discriminator 3
 191 0022 701E     		subs	r0, r6, #1
 192              	.LVL26:
  47:bq34z100.c    ****         uint8_t byte = I2C_MasterReadByte(ack);
 193              		.loc 1 47 0 discriminator 3
 194 0024 201A     		subs	r0, r4, r0
 195              	.LVL27:
 196 0026 18BF     		it	ne
 197 0028 0120     		movne	r0, #1
 198 002a FFF7FEFF 		bl	I2C_MasterReadByte
 199              	.LVL28:
  48:bq34z100.c    ****         result |= (uint32_t)byte << (8 * i);
 200              		.loc 1 48 0 discriminator 3
 201 002e E300     		lsls	r3, r4, #3
 202 0030 9840     		lsls	r0, r0, r3
 203              	.LVL29:
 204 0032 0543     		orrs	r5, r5, r0
 205              	.LVL30:
 206              	.LBE3:
  45:bq34z100.c    ****         uint8_t ack = (i == (length - 1)) ? I2C_NAK_DATA : I2C_ACK_DATA;
 207              		.loc 1 45 0 discriminator 3
 208 0034 0134     		adds	r4, r4, #1
 209              	.LVL31:
 210 0036 E4B2     		uxtb	r4, r4
 211              	.LVL32:
 212              	.L8:
  45:bq34z100.c    ****         uint8_t ack = (i == (length - 1)) ? I2C_NAK_DATA : I2C_ACK_DATA;
 213              		.loc 1 45 0 is_stmt 0 discriminator 1
 214 0038 B442     		cmp	r4, r6
 215 003a F2D3     		bcc	.L9
 216              	.LBE4:
  49:bq34z100.c    ****     }
  50:bq34z100.c    **** 
  51:bq34z100.c    ****     I2C_MasterSendStop();
 217              		.loc 1 51 0 is_stmt 1
 218 003c FFF7FEFF 		bl	I2C_MasterSendStop
 219              	.LVL33:
  52:bq34z100.c    ****     return result;
  53:bq34z100.c    **** }
 220              		.loc 1 53 0
 221 0040 2846     		mov	r0, r5
 222 0042 70BD     		pop	{r4, r5, r6, pc}
 223              		.cfi_endproc
 224              	.LFE539:
 225              		.size	read, .-read
 226              		.section	.text.readControlCommand,"ax",%progbits
 227              		.align	2
ARM GAS  C:\Users\shizh\AppData\Local\Temp\ccMQxVCk.s 			page 6


 228              		.global	readControlCommand
 229              		.thumb
 230              		.thumb_func
 231              		.type	readControlCommand, %function
 232              	readControlCommand:
 233              	.LFB536:
  16:bq34z100.c    ****     sendControlCommand(device, control);
 234              		.loc 1 16 0
 235              		.cfi_startproc
 236              		@ args = 0, pretend = 0, frame = 0
 237              		@ frame_needed = 0, uses_anonymous_args = 0
 238              	.LVL34:
 239 0000 10B5     		push	{r4, lr}
 240              		.cfi_def_cfa_offset 8
 241              		.cfi_offset 4, -8
 242              		.cfi_offset 14, -4
 243 0002 0446     		mov	r4, r0
  17:bq34z100.c    ****     return read(device, COMMAND_CONTROL, 2);
 244              		.loc 1 17 0
 245 0004 FFF7FEFF 		bl	sendControlCommand
 246              	.LVL35:
  18:bq34z100.c    **** }
 247              		.loc 1 18 0
 248 0008 0222     		movs	r2, #2
 249 000a 0021     		movs	r1, #0
 250 000c 2046     		mov	r0, r4
 251 000e FFF7FEFF 		bl	read
 252              	.LVL36:
  19:bq34z100.c    **** 
 253              		.loc 1 19 0
 254 0012 80B2     		uxth	r0, r0
 255 0014 10BD     		pop	{r4, pc}
 256              		.cfi_endproc
 257              	.LFE536:
 258              		.size	readControlCommand, .-readControlCommand
 259 0016 00BF     		.section	.text.BQ34Z100_EnableCal,"ax",%progbits
 260              		.align	2
 261              		.global	BQ34Z100_EnableCal
 262              		.thumb
 263              		.thumb_func
 264              		.type	BQ34Z100_EnableCal, %function
 265              	BQ34Z100_EnableCal:
 266              	.LFB540:
  54:bq34z100.c    **** 
  55:bq34z100.c    **** void BQ34Z100_EnableCal(BQ34Z100_t *device) {
 267              		.loc 1 55 0
 268              		.cfi_startproc
 269              		@ args = 0, pretend = 0, frame = 0
 270              		@ frame_needed = 0, uses_anonymous_args = 0
 271              	.LVL37:
 272 0000 08B5     		push	{r3, lr}
 273              		.cfi_def_cfa_offset 8
 274              		.cfi_offset 3, -8
 275              		.cfi_offset 14, -4
  56:bq34z100.c    ****     sendControlCommand(device, CONTROL_CAL_ENABLE);
 276              		.loc 1 56 0
 277 0002 2D21     		movs	r1, #45
ARM GAS  C:\Users\shizh\AppData\Local\Temp\ccMQxVCk.s 			page 7


 278 0004 FFF7FEFF 		bl	sendControlCommand
 279              	.LVL38:
 280 0008 08BD     		pop	{r3, pc}
 281              		.cfi_endproc
 282              	.LFE540:
 283              		.size	BQ34Z100_EnableCal, .-BQ34Z100_EnableCal
 284 000a 00BF     		.section	.text.BQ34Z100_EnterCal,"ax",%progbits
 285              		.align	2
 286              		.global	BQ34Z100_EnterCal
 287              		.thumb
 288              		.thumb_func
 289              		.type	BQ34Z100_EnterCal, %function
 290              	BQ34Z100_EnterCal:
 291              	.LFB541:
  57:bq34z100.c    **** }
  58:bq34z100.c    **** 
  59:bq34z100.c    **** // Enter Calibration Mode
  60:bq34z100.c    **** void BQ34Z100_EnterCal(BQ34Z100_t *device) {
 292              		.loc 1 60 0
 293              		.cfi_startproc
 294              		@ args = 0, pretend = 0, frame = 0
 295              		@ frame_needed = 0, uses_anonymous_args = 0
 296              	.LVL39:
 297 0000 08B5     		push	{r3, lr}
 298              		.cfi_def_cfa_offset 8
 299              		.cfi_offset 3, -8
 300              		.cfi_offset 14, -4
  61:bq34z100.c    ****     sendControlCommand(device, CONTROL_ENTER_CAL);
 301              		.loc 1 61 0
 302 0002 8121     		movs	r1, #129
 303 0004 FFF7FEFF 		bl	sendControlCommand
 304              	.LVL40:
 305 0008 08BD     		pop	{r3, pc}
 306              		.cfi_endproc
 307              	.LFE541:
 308              		.size	BQ34Z100_EnterCal, .-BQ34Z100_EnterCal
 309 000a 00BF     		.section	.text.BQ34Z100_ExitCal,"ax",%progbits
 310              		.align	2
 311              		.global	BQ34Z100_ExitCal
 312              		.thumb
 313              		.thumb_func
 314              		.type	BQ34Z100_ExitCal, %function
 315              	BQ34Z100_ExitCal:
 316              	.LFB542:
  62:bq34z100.c    **** }
  63:bq34z100.c    **** 
  64:bq34z100.c    **** // Exit Calibration Mode
  65:bq34z100.c    **** void BQ34Z100_ExitCal(BQ34Z100_t *device) {
 317              		.loc 1 65 0
 318              		.cfi_startproc
 319              		@ args = 0, pretend = 0, frame = 0
 320              		@ frame_needed = 0, uses_anonymous_args = 0
 321              	.LVL41:
 322 0000 08B5     		push	{r3, lr}
 323              		.cfi_def_cfa_offset 8
 324              		.cfi_offset 3, -8
 325              		.cfi_offset 14, -4
ARM GAS  C:\Users\shizh\AppData\Local\Temp\ccMQxVCk.s 			page 8


  66:bq34z100.c    ****     sendControlCommand(device, CONTROL_EXIT_CAL);
 326              		.loc 1 66 0
 327 0002 8021     		movs	r1, #128
 328 0004 FFF7FEFF 		bl	sendControlCommand
 329              	.LVL42:
 330 0008 08BD     		pop	{r3, pc}
 331              		.cfi_endproc
 332              	.LFE542:
 333              		.size	BQ34Z100_ExitCal, .-BQ34Z100_ExitCal
 334 000a 00BF     		.section	.text.BQ34Z100_ITEnable,"ax",%progbits
 335              		.align	2
 336              		.global	BQ34Z100_ITEnable
 337              		.thumb
 338              		.thumb_func
 339              		.type	BQ34Z100_ITEnable, %function
 340              	BQ34Z100_ITEnable:
 341              	.LFB543:
  67:bq34z100.c    **** }
  68:bq34z100.c    **** 
  69:bq34z100.c    **** // Enable Impedance Track Algorithm
  70:bq34z100.c    **** void BQ34Z100_ITEnable(BQ34Z100_t *device) {
 342              		.loc 1 70 0
 343              		.cfi_startproc
 344              		@ args = 0, pretend = 0, frame = 0
 345              		@ frame_needed = 0, uses_anonymous_args = 0
 346              	.LVL43:
 347 0000 08B5     		push	{r3, lr}
 348              		.cfi_def_cfa_offset 8
 349              		.cfi_offset 3, -8
 350              		.cfi_offset 14, -4
  71:bq34z100.c    ****     sendControlCommand(device, CONTROL_IT_ENABLE);
 351              		.loc 1 71 0
 352 0002 2121     		movs	r1, #33
 353 0004 FFF7FEFF 		bl	sendControlCommand
 354              	.LVL44:
 355 0008 08BD     		pop	{r3, pc}
 356              		.cfi_endproc
 357              	.LFE543:
 358              		.size	BQ34Z100_ITEnable, .-BQ34Z100_ITEnable
 359 000a 00BF     		.section	.text.BQ34Z100_GetStatus,"ax",%progbits
 360              		.align	2
 361              		.global	BQ34Z100_GetStatus
 362              		.thumb
 363              		.thumb_func
 364              		.type	BQ34Z100_GetStatus, %function
 365              	BQ34Z100_GetStatus:
 366              	.LFB544:
  72:bq34z100.c    **** }
  73:bq34z100.c    **** 
  74:bq34z100.c    **** // Get Device Status
  75:bq34z100.c    **** uint16_t BQ34Z100_GetStatus(BQ34Z100_t *device) {
 367              		.loc 1 75 0
 368              		.cfi_startproc
 369              		@ args = 0, pretend = 0, frame = 0
 370              		@ frame_needed = 0, uses_anonymous_args = 0
 371              	.LVL45:
 372 0000 08B5     		push	{r3, lr}
ARM GAS  C:\Users\shizh\AppData\Local\Temp\ccMQxVCk.s 			page 9


 373              		.cfi_def_cfa_offset 8
 374              		.cfi_offset 3, -8
 375              		.cfi_offset 14, -4
  76:bq34z100.c    ****     return readControlCommand(device, CONTROL_CONTROL_STATUS);
 376              		.loc 1 76 0
 377 0002 0021     		movs	r1, #0
 378 0004 FFF7FEFF 		bl	readControlCommand
 379              	.LVL46:
  77:bq34z100.c    **** }
 380              		.loc 1 77 0
 381 0008 08BD     		pop	{r3, pc}
 382              		.cfi_endproc
 383              	.LFE544:
 384              		.size	BQ34Z100_GetStatus, .-BQ34Z100_GetStatus
 385 000a 00BF     		.section	.text.BQ34Z100_GetChemID,"ax",%progbits
 386              		.align	2
 387              		.global	BQ34Z100_GetChemID
 388              		.thumb
 389              		.thumb_func
 390              		.type	BQ34Z100_GetChemID, %function
 391              	BQ34Z100_GetChemID:
 392              	.LFB545:
  78:bq34z100.c    **** 
  79:bq34z100.c    **** // Get battery Chemistry ID
  80:bq34z100.c    **** uint16_t BQ34Z100_GetChemID(BQ34Z100_t *device) {
 393              		.loc 1 80 0
 394              		.cfi_startproc
 395              		@ args = 0, pretend = 0, frame = 0
 396              		@ frame_needed = 0, uses_anonymous_args = 0
 397              	.LVL47:
 398 0000 08B5     		push	{r3, lr}
 399              		.cfi_def_cfa_offset 8
 400              		.cfi_offset 3, -8
 401              		.cfi_offset 14, -4
  81:bq34z100.c    ****     return readControlCommand(device, CONTROL_CHEM_ID);
 402              		.loc 1 81 0
 403 0002 0821     		movs	r1, #8
 404 0004 FFF7FEFF 		bl	readControlCommand
 405              	.LVL48:
  82:bq34z100.c    **** }
 406              		.loc 1 82 0
 407 0008 08BD     		pop	{r3, pc}
 408              		.cfi_endproc
 409              	.LFE545:
 410              		.size	BQ34Z100_GetChemID, .-BQ34Z100_GetChemID
 411 000a 00BF     		.section	.text.BQ34Z100_GetStateOfHealth,"ax",%progbits
 412              		.align	2
 413              		.global	BQ34Z100_GetStateOfHealth
 414              		.thumb
 415              		.thumb_func
 416              		.type	BQ34Z100_GetStateOfHealth, %function
 417              	BQ34Z100_GetStateOfHealth:
 418              	.LFB546:
  83:bq34z100.c    **** 
  84:bq34z100.c    **** // Get State of Health of the battery
  85:bq34z100.c    **** uint16_t BQ34Z100_GetStateOfHealth(BQ34Z100_t *device) {
 419              		.loc 1 85 0
ARM GAS  C:\Users\shizh\AppData\Local\Temp\ccMQxVCk.s 			page 10


 420              		.cfi_startproc
 421              		@ args = 0, pretend = 0, frame = 0
 422              		@ frame_needed = 0, uses_anonymous_args = 0
 423              	.LVL49:
 424 0000 08B5     		push	{r3, lr}
 425              		.cfi_def_cfa_offset 8
 426              		.cfi_offset 3, -8
 427              		.cfi_offset 14, -4
  86:bq34z100.c    ****     return read(device, COMMAND_STATEOFHEALTH, 2);
 428              		.loc 1 86 0
 429 0002 0222     		movs	r2, #2
 430 0004 2E21     		movs	r1, #46
 431 0006 FFF7FEFF 		bl	read
 432              	.LVL50:
  87:bq34z100.c    **** }
 433              		.loc 1 87 0
 434 000a 80B2     		uxth	r0, r0
 435 000c 08BD     		pop	{r3, pc}
 436              		.cfi_endproc
 437              	.LFE546:
 438              		.size	BQ34Z100_GetStateOfHealth, .-BQ34Z100_GetStateOfHealth
 439 000e 00BF     		.section	.text.BQ34Z100_GetSOC,"ax",%progbits
 440              		.align	2
 441              		.global	BQ34Z100_GetSOC
 442              		.thumb
 443              		.thumb_func
 444              		.type	BQ34Z100_GetSOC, %function
 445              	BQ34Z100_GetSOC:
 446              	.LFB547:
  88:bq34z100.c    **** 
  89:bq34z100.c    **** // Get State of Charge
  90:bq34z100.c    **** uint8_t BQ34Z100_GetSOC(BQ34Z100_t *device) {
 447              		.loc 1 90 0
 448              		.cfi_startproc
 449              		@ args = 0, pretend = 0, frame = 0
 450              		@ frame_needed = 0, uses_anonymous_args = 0
 451              	.LVL51:
 452 0000 08B5     		push	{r3, lr}
 453              		.cfi_def_cfa_offset 8
 454              		.cfi_offset 3, -8
 455              		.cfi_offset 14, -4
  91:bq34z100.c    ****     return (uint8_t)read(device, COMMAND_STATEOFCHARGE, 1);
 456              		.loc 1 91 0
 457 0002 0122     		movs	r2, #1
 458 0004 0221     		movs	r1, #2
 459 0006 FFF7FEFF 		bl	read
 460              	.LVL52:
  92:bq34z100.c    **** }
 461              		.loc 1 92 0
 462 000a C0B2     		uxtb	r0, r0
 463 000c 08BD     		pop	{r3, pc}
 464              		.cfi_endproc
 465              	.LFE547:
 466              		.size	BQ34Z100_GetSOC, .-BQ34Z100_GetSOC
 467 000e 00BF     		.section	.text.BQ34Z100_GetError,"ax",%progbits
 468              		.align	2
 469              		.global	BQ34Z100_GetError
ARM GAS  C:\Users\shizh\AppData\Local\Temp\ccMQxVCk.s 			page 11


 470              		.thumb
 471              		.thumb_func
 472              		.type	BQ34Z100_GetError, %function
 473              	BQ34Z100_GetError:
 474              	.LFB548:
  93:bq34z100.c    **** 
  94:bq34z100.c    **** // Get the maximum error of SOC calculation
  95:bq34z100.c    **** uint16_t BQ34Z100_GetError(BQ34Z100_t *device) {
 475              		.loc 1 95 0
 476              		.cfi_startproc
 477              		@ args = 0, pretend = 0, frame = 0
 478              		@ frame_needed = 0, uses_anonymous_args = 0
 479              	.LVL53:
 480 0000 08B5     		push	{r3, lr}
 481              		.cfi_def_cfa_offset 8
 482              		.cfi_offset 3, -8
 483              		.cfi_offset 14, -4
  96:bq34z100.c    ****     return read(device, COMMAND_MAXERROR, 1);
 484              		.loc 1 96 0
 485 0002 0122     		movs	r2, #1
 486 0004 0321     		movs	r1, #3
 487 0006 FFF7FEFF 		bl	read
 488              	.LVL54:
  97:bq34z100.c    **** }
 489              		.loc 1 97 0
 490 000a 80B2     		uxth	r0, r0
 491 000c 08BD     		pop	{r3, pc}
 492              		.cfi_endproc
 493              	.LFE548:
 494              		.size	BQ34Z100_GetError, .-BQ34Z100_GetError
 495 000e 00BF     		.section	.text.BQ34Z100_GetRemaining,"ax",%progbits
 496              		.align	2
 497              		.global	BQ34Z100_GetRemaining
 498              		.thumb
 499              		.thumb_func
 500              		.type	BQ34Z100_GetRemaining, %function
 501              	BQ34Z100_GetRemaining:
 502              	.LFB549:
  98:bq34z100.c    **** 
  99:bq34z100.c    **** // Get remaining capacity
 100:bq34z100.c    **** uint16_t BQ34Z100_GetRemaining(BQ34Z100_t *device) {
 503              		.loc 1 100 0
 504              		.cfi_startproc
 505              		@ args = 0, pretend = 0, frame = 0
 506              		@ frame_needed = 0, uses_anonymous_args = 0
 507              	.LVL55:
 508 0000 08B5     		push	{r3, lr}
 509              		.cfi_def_cfa_offset 8
 510              		.cfi_offset 3, -8
 511              		.cfi_offset 14, -4
 101:bq34z100.c    ****     return read(device, COMMAND_REMAININGCAPACITY, 2);
 512              		.loc 1 101 0
 513 0002 0222     		movs	r2, #2
 514 0004 0421     		movs	r1, #4
 515 0006 FFF7FEFF 		bl	read
 516              	.LVL56:
 102:bq34z100.c    **** }
ARM GAS  C:\Users\shizh\AppData\Local\Temp\ccMQxVCk.s 			page 12


 517              		.loc 1 102 0
 518 000a 80B2     		uxth	r0, r0
 519 000c 08BD     		pop	{r3, pc}
 520              		.cfi_endproc
 521              	.LFE549:
 522              		.size	BQ34Z100_GetRemaining, .-BQ34Z100_GetRemaining
 523 000e 00BF     		.section	.text.BQ34Z100_GetVoltage,"ax",%progbits
 524              		.align	2
 525              		.global	BQ34Z100_GetVoltage
 526              		.thumb
 527              		.thumb_func
 528              		.type	BQ34Z100_GetVoltage, %function
 529              	BQ34Z100_GetVoltage:
 530              	.LFB550:
 103:bq34z100.c    **** 
 104:bq34z100.c    **** // Get battery voltage
 105:bq34z100.c    **** uint16_t BQ34Z100_GetVoltage(BQ34Z100_t *device) {
 531              		.loc 1 105 0
 532              		.cfi_startproc
 533              		@ args = 0, pretend = 0, frame = 0
 534              		@ frame_needed = 0, uses_anonymous_args = 0
 535              	.LVL57:
 536 0000 08B5     		push	{r3, lr}
 537              		.cfi_def_cfa_offset 8
 538              		.cfi_offset 3, -8
 539              		.cfi_offset 14, -4
 106:bq34z100.c    ****     return read(device, COMMAND_VOLTAGE, 2);
 540              		.loc 1 106 0
 541 0002 0222     		movs	r2, #2
 542 0004 0821     		movs	r1, #8
 543 0006 FFF7FEFF 		bl	read
 544              	.LVL58:
 107:bq34z100.c    **** }
 545              		.loc 1 107 0
 546 000a 80B2     		uxth	r0, r0
 547 000c 08BD     		pop	{r3, pc}
 548              		.cfi_endproc
 549              	.LFE550:
 550              		.size	BQ34Z100_GetVoltage, .-BQ34Z100_GetVoltage
 551 000e 00BF     		.section	.text.BQ34Z100_GetCurrent,"ax",%progbits
 552              		.align	2
 553              		.global	BQ34Z100_GetCurrent
 554              		.thumb
 555              		.thumb_func
 556              		.type	BQ34Z100_GetCurrent, %function
 557              	BQ34Z100_GetCurrent:
 558              	.LFB551:
 108:bq34z100.c    **** 
 109:bq34z100.c    **** // Get current flow through the device
 110:bq34z100.c    **** int16_t BQ34Z100_GetCurrent(BQ34Z100_t *device) {
 559              		.loc 1 110 0
 560              		.cfi_startproc
 561              		@ args = 0, pretend = 0, frame = 0
 562              		@ frame_needed = 0, uses_anonymous_args = 0
 563              	.LVL59:
 564 0000 08B5     		push	{r3, lr}
 565              		.cfi_def_cfa_offset 8
ARM GAS  C:\Users\shizh\AppData\Local\Temp\ccMQxVCk.s 			page 13


 566              		.cfi_offset 3, -8
 567              		.cfi_offset 14, -4
 111:bq34z100.c    ****     int16_t result = read(device, COMMAND_CURRENT, 2);
 568              		.loc 1 111 0
 569 0002 0222     		movs	r2, #2
 570 0004 1021     		movs	r1, #16
 571 0006 FFF7FEFF 		bl	read
 572              	.LVL60:
 573 000a 00B2     		sxth	r0, r0
 574              	.LVL61:
 112:bq34z100.c    ****     return result < 0 ? -result : result;  // Making sure the result is non-negative
 575              		.loc 1 112 0
 576 000c 0028     		cmp	r0, #0
 577 000e B8BF     		it	lt
 578 0010 4042     		rsblt	r0, r0, #0
 579              	.LVL62:
 113:bq34z100.c    **** }
 580              		.loc 1 113 0
 581 0012 00B2     		sxth	r0, r0
 582 0014 08BD     		pop	{r3, pc}
 583              		.cfi_endproc
 584              	.LFE551:
 585              		.size	BQ34Z100_GetCurrent, .-BQ34Z100_GetCurrent
 586              		.global	__aeabi_i2d
 587              		.global	__aeabi_ddiv
 588              		.global	__aeabi_dsub
 589 0016 00BF     		.section	.text.BQ34Z100_GetTemperature,"ax",%progbits
 590              		.align	2
 591              		.global	BQ34Z100_GetTemperature
 592              		.thumb
 593              		.thumb_func
 594              		.type	BQ34Z100_GetTemperature, %function
 595              	BQ34Z100_GetTemperature:
 596              	.LFB552:
 114:bq34z100.c    **** 
 115:bq34z100.c    **** // Get device internal temperature
 116:bq34z100.c    **** double BQ34Z100_GetTemperature(BQ34Z100_t *device) {
 597              		.loc 1 116 0
 598              		.cfi_startproc
 599              		@ args = 0, pretend = 0, frame = 0
 600              		@ frame_needed = 0, uses_anonymous_args = 0
 601              	.LVL63:
 602 0000 08B5     		push	{r3, lr}
 603              		.cfi_def_cfa_offset 8
 604              		.cfi_offset 3, -8
 605              		.cfi_offset 14, -4
 117:bq34z100.c    ****     int16_t rawTemp = read(device, COMMAND_TEMPERATURE, 2);
 606              		.loc 1 117 0
 607 0002 0222     		movs	r2, #2
 608 0004 0C21     		movs	r1, #12
 609 0006 FFF7FEFF 		bl	read
 610              	.LVL64:
 118:bq34z100.c    ****     return (rawTemp / 10.0) - 273.15;  // Convert from deci-Kelvin to Celsius
 611              		.loc 1 118 0
 612 000a 00B2     		sxth	r0, r0
 613 000c FFF7FEFF 		bl	__aeabi_i2d
 614              	.LVL65:
ARM GAS  C:\Users\shizh\AppData\Local\Temp\ccMQxVCk.s 			page 14


 615 0010 0022     		movs	r2, #0
 616 0012 074B     		ldr	r3, .L39+8
 617 0014 FFF7FEFF 		bl	__aeabi_ddiv
 618              	.LVL66:
 619 0018 03A3     		adr	r3, .L39
 620 001a D3E90023 		ldrd	r2, [r3]
 621 001e FFF7FEFF 		bl	__aeabi_dsub
 622              	.LVL67:
 119:bq34z100.c    **** }
 623              		.loc 1 119 0
 624 0022 08BD     		pop	{r3, pc}
 625              	.L40:
 626 0024 AFF30080 		.align	3
 627              	.L39:
 628 0028 66666666 		.word	1717986918
 629 002c 66127140 		.word	1081152102
 630 0030 00002440 		.word	1076101120
 631              		.cfi_endproc
 632              	.LFE552:
 633              		.size	BQ34Z100_GetTemperature, .-BQ34Z100_GetTemperature
 634              		.section	.text.BQ34Z100_GetSerial,"ax",%progbits
 635              		.align	2
 636              		.global	BQ34Z100_GetSerial
 637              		.thumb
 638              		.thumb_func
 639              		.type	BQ34Z100_GetSerial, %function
 640              	BQ34Z100_GetSerial:
 641              	.LFB553:
 120:bq34z100.c    **** 
 121:bq34z100.c    **** // Get Serial Number of the device
 122:bq34z100.c    **** int BQ34Z100_GetSerial(BQ34Z100_t *device) {
 642              		.loc 1 122 0
 643              		.cfi_startproc
 644              		@ args = 0, pretend = 0, frame = 0
 645              		@ frame_needed = 0, uses_anonymous_args = 0
 646              	.LVL68:
 647 0000 08B5     		push	{r3, lr}
 648              		.cfi_def_cfa_offset 8
 649              		.cfi_offset 3, -8
 650              		.cfi_offset 14, -4
 123:bq34z100.c    ****     return read(device, COMMAND_SERIALNUMBER, 2);
 651              		.loc 1 123 0
 652 0002 0222     		movs	r2, #2
 653 0004 2821     		movs	r1, #40
 654 0006 FFF7FEFF 		bl	read
 655              	.LVL69:
 124:bq34z100.c    **** }
 656              		.loc 1 124 0
 657 000a 08BD     		pop	{r3, pc}
 658              		.cfi_endproc
 659              	.LFE553:
 660              		.size	BQ34Z100_GetSerial, .-BQ34Z100_GetSerial
 661              		.section	.text.BQ34Z100_Reset,"ax",%progbits
 662              		.align	2
 663              		.global	BQ34Z100_Reset
 664              		.thumb
 665              		.thumb_func
ARM GAS  C:\Users\shizh\AppData\Local\Temp\ccMQxVCk.s 			page 15


 666              		.type	BQ34Z100_Reset, %function
 667              	BQ34Z100_Reset:
 668              	.LFB554:
 125:bq34z100.c    **** 
 126:bq34z100.c    **** // Reset the device
 127:bq34z100.c    **** void BQ34Z100_Reset(BQ34Z100_t *device) {
 669              		.loc 1 127 0
 670              		.cfi_startproc
 671              		@ args = 0, pretend = 0, frame = 0
 672              		@ frame_needed = 0, uses_anonymous_args = 0
 673              	.LVL70:
 674 0000 08B5     		push	{r3, lr}
 675              		.cfi_def_cfa_offset 8
 676              		.cfi_offset 3, -8
 677              		.cfi_offset 14, -4
 128:bq34z100.c    ****     sendControlCommand(device, CONTROL_RESET);
 678              		.loc 1 128 0
 679 0002 4121     		movs	r1, #65
 680 0004 FFF7FEFF 		bl	sendControlCommand
 681              	.LVL71:
 129:bq34z100.c    ****     CyDelay(175);  // Wait for the device to reset properly
 682              		.loc 1 129 0
 683 0008 AF20     		movs	r0, #175
 684 000a FFF7FEFF 		bl	Cy_SysLib_Delay
 685              	.LVL72:
 686 000e 08BD     		pop	{r3, pc}
 687              		.cfi_endproc
 688              	.LFE554:
 689              		.size	BQ34Z100_Reset, .-BQ34Z100_Reset
 690              		.section	.text.BQ34Z100_Unseal,"ax",%progbits
 691              		.align	2
 692              		.global	BQ34Z100_Unseal
 693              		.thumb
 694              		.thumb_func
 695              		.type	BQ34Z100_Unseal, %function
 696              	BQ34Z100_Unseal:
 697              	.LFB555:
 130:bq34z100.c    **** }
 131:bq34z100.c    **** 
 132:bq34z100.c    **** // Unseal the device to access protected registers
 133:bq34z100.c    **** void BQ34Z100_Unseal(BQ34Z100_t *device) {
 698              		.loc 1 133 0
 699              		.cfi_startproc
 700              		@ args = 0, pretend = 0, frame = 0
 701              		@ frame_needed = 0, uses_anonymous_args = 0
 702              	.LVL73:
 703 0000 10B5     		push	{r4, lr}
 704              		.cfi_def_cfa_offset 8
 705              		.cfi_offset 4, -8
 706              		.cfi_offset 14, -4
 707 0002 0446     		mov	r4, r0
 134:bq34z100.c    ****     sendControlCommand(device, CONTROL_UNSEAL_KEY1);
 708              		.loc 1 134 0
 709 0004 40F21441 		movw	r1, #1044
 710 0008 FFF7FEFF 		bl	sendControlCommand
 711              	.LVL74:
 135:bq34z100.c    ****     sendControlCommand(device, CONTROL_UNSEAL_KEY2);
ARM GAS  C:\Users\shizh\AppData\Local\Temp\ccMQxVCk.s 			page 16


 712              		.loc 1 135 0
 713 000c 43F27261 		movw	r1, #13938
 714 0010 2046     		mov	r0, r4
 715 0012 FFF7FEFF 		bl	sendControlCommand
 716              	.LVL75:
 717 0016 10BD     		pop	{r4, pc}
 718              		.cfi_endproc
 719              	.LFE555:
 720              		.size	BQ34Z100_Unseal, .-BQ34Z100_Unseal
 721              		.section	.text.BQ34Z100_Seal,"ax",%progbits
 722              		.align	2
 723              		.global	BQ34Z100_Seal
 724              		.thumb
 725              		.thumb_func
 726              		.type	BQ34Z100_Seal, %function
 727              	BQ34Z100_Seal:
 728              	.LFB556:
 136:bq34z100.c    **** }
 137:bq34z100.c    **** 
 138:bq34z100.c    **** // Seal the device to protect registers
 139:bq34z100.c    **** void BQ34Z100_Seal(BQ34Z100_t *device) {
 729              		.loc 1 139 0
 730              		.cfi_startproc
 731              		@ args = 0, pretend = 0, frame = 0
 732              		@ frame_needed = 0, uses_anonymous_args = 0
 733              	.LVL76:
 734 0000 08B5     		push	{r3, lr}
 735              		.cfi_def_cfa_offset 8
 736              		.cfi_offset 3, -8
 737              		.cfi_offset 14, -4
 140:bq34z100.c    ****     sendControlCommand(device, CONTROL_SEALED);
 738              		.loc 1 140 0
 739 0002 2021     		movs	r1, #32
 740 0004 FFF7FEFF 		bl	sendControlCommand
 741              	.LVL77:
 742 0008 08BD     		pop	{r3, pc}
 743              		.cfi_endproc
 744              	.LFE556:
 745              		.size	BQ34Z100_Seal, .-BQ34Z100_Seal
 746 000a 00BF     		.section	.text.BQ34Z100_ChangePage,"ax",%progbits
 747              		.align	2
 748              		.global	BQ34Z100_ChangePage
 749              		.thumb
 750              		.thumb_func
 751              		.type	BQ34Z100_ChangePage, %function
 752              	BQ34Z100_ChangePage:
 753              	.LFB557:
 141:bq34z100.c    **** }
 142:bq34z100.c    **** 
 143:bq34z100.c    **** 
 144:bq34z100.c    **** void BQ34Z100_ChangePage(BQ34Z100_t *device, char subclass, uint16_t offset) {
 754              		.loc 1 144 0
 755              		.cfi_startproc
 756              		@ args = 0, pretend = 0, frame = 0
 757              		@ frame_needed = 0, uses_anonymous_args = 0
 758              	.LVL78:
 759 0000 70B5     		push	{r4, r5, r6, lr}
ARM GAS  C:\Users\shizh\AppData\Local\Temp\ccMQxVCk.s 			page 17


 760              		.cfi_def_cfa_offset 16
 761              		.cfi_offset 4, -16
 762              		.cfi_offset 5, -12
 763              		.cfi_offset 6, -8
 764              		.cfi_offset 14, -4
 765 0002 0446     		mov	r4, r0
 766 0004 0E46     		mov	r6, r1
 767 0006 1546     		mov	r5, r2
 145:bq34z100.c    ****     // Delay function call, assuming CyDelay is available. Adjust as per actual delay function used
 146:bq34z100.c    ****     CyDelay(10); // Delay 10 milliseconds
 768              		.loc 1 146 0
 769 0008 0A20     		movs	r0, #10
 770              	.LVL79:
 771 000a FFF7FEFF 		bl	Cy_SysLib_Delay
 772              	.LVL80:
 147:bq34z100.c    **** 
 148:bq34z100.c    ****     // Enable block data flash control (single byte write)
 149:bq34z100.c    ****     write(device, COMMAND_BLOCKDATACONTROL, 0x00);
 773              		.loc 1 149 0
 774 000e 0022     		movs	r2, #0
 775 0010 6121     		movs	r1, #97
 776 0012 2046     		mov	r0, r4
 777 0014 FFF7FEFF 		bl	write
 778              	.LVL81:
 150:bq34z100.c    ****     CyDelay(10); // Delay 10 milliseconds
 779              		.loc 1 150 0
 780 0018 0A20     		movs	r0, #10
 781 001a FFF7FEFF 		bl	Cy_SysLib_Delay
 782              	.LVL82:
 151:bq34z100.c    **** 
 152:bq34z100.c    ****     // Use DataFlashClass() command to access the subclass
 153:bq34z100.c    ****     write(device, COMMAND_DATAFLASHCLASS, subclass);
 783              		.loc 1 153 0
 784 001e 3246     		mov	r2, r6
 785 0020 3E21     		movs	r1, #62
 786 0022 2046     		mov	r0, r4
 787 0024 FFF7FEFF 		bl	write
 788              	.LVL83:
 154:bq34z100.c    ****     device->currFlashPage = subclass;
 789              		.loc 1 154 0
 790 0028 84F82060 		strb	r6, [r4, #32]
 155:bq34z100.c    ****     CyDelay(10); // Delay 10 milliseconds
 791              		.loc 1 155 0
 792 002c 0A20     		movs	r0, #10
 793 002e FFF7FEFF 		bl	Cy_SysLib_Delay
 794              	.LVL84:
 156:bq34z100.c    **** 
 157:bq34z100.c    ****     // Select the block offset location
 158:bq34z100.c    ****     // Blocks are 32 in size, so the offset is which block the data sits in
 159:bq34z100.c    ****     // Ex: 16 is block 0x00, 52 is block 0x01 (called "index" variable)
 160:bq34z100.c    ****     device->currFlashBlockIndex = (uint8_t)(offset / 32);
 795              		.loc 1 160 0
 796 0032 C5F34712 		ubfx	r2, r5, #5, #8
 797 0036 84F82120 		strb	r2, [r4, #33]
 161:bq34z100.c    ****     write(device, COMMAND_DATAFLASHBLOCK, device->currFlashBlockIndex);
 798              		.loc 1 161 0
 799 003a 3F21     		movs	r1, #63
ARM GAS  C:\Users\shizh\AppData\Local\Temp\ccMQxVCk.s 			page 18


 800 003c 2046     		mov	r0, r4
 801 003e FFF7FEFF 		bl	write
 802              	.LVL85:
 162:bq34z100.c    ****     CyDelay(20); // Delay 20 milliseconds
 803              		.loc 1 162 0
 804 0042 1420     		movs	r0, #20
 805 0044 FFF7FEFF 		bl	Cy_SysLib_Delay
 806              	.LVL86:
 807 0048 70BD     		pop	{r4, r5, r6, pc}
 808              		.cfi_endproc
 809              	.LFE557:
 810              		.size	BQ34Z100_ChangePage, .-BQ34Z100_ChangePage
 811 004a 00BF     		.section	.text.BQ34Z100_WriteFlash,"ax",%progbits
 812              		.align	2
 813              		.global	BQ34Z100_WriteFlash
 814              		.thumb
 815              		.thumb_func
 816              		.type	BQ34Z100_WriteFlash, %function
 817              	BQ34Z100_WriteFlash:
 818              	.LFB560:
 163:bq34z100.c    **** }
 164:bq34z100.c    **** 
 165:bq34z100.c    **** 
 166:bq34z100.c    **** void BQ34Z100_UpdateChecksum(BQ34Z100_t *device) {
 167:bq34z100.c    ****     uint8_t newChecksum = calcChecksum(device->flashbytes);
 168:bq34z100.c    **** 
 169:bq34z100.c    ****     // Send new checksum through I2C
 170:bq34z100.c    ****     write(device, COMMAND_BLOCKDATACHECKSUM, newChecksum);
 171:bq34z100.c    ****     printf("Writing new checksum for page %" PRIu8 " block %" PRIu8 ": 0x%" PRIx8 "\r\n",
 172:bq34z100.c    ****            device->currFlashPage, device->currFlashBlockIndex, newChecksum);
 173:bq34z100.c    **** 
 174:bq34z100.c    ****     CyDelay(50); // Wait for BQ34Z100 to process, may be totally overkill
 175:bq34z100.c    **** }
 176:bq34z100.c    **** 
 177:bq34z100.c    **** 
 178:bq34z100.c    **** void BQ34Z100_ReadFlash(BQ34Z100_t *device) {
 179:bq34z100.c    ****     char command = COMMAND_BLOCKDATA; // Command to read Data Flash
 180:bq34z100.c    **** 
 181:bq34z100.c    ****     // Request read flash
 182:bq34z100.c    ****     if (I2C_MasterSendStart(BQ34Z100, I2C_WRITE_XFER_MODE) != I2C_MSTR_NO_ERROR) {
 183:bq34z100.c    ****         printf("A write error has occurred when transmitting address.\r\n");
 184:bq34z100.c    ****         //return;
 185:bq34z100.c    ****     }
 186:bq34z100.c    ****     I2C_MasterWriteByte(command);
 187:bq34z100.c    ****     I2C_MasterSendStop();
 188:bq34z100.c    **** 
 189:bq34z100.c    ****     // Read all bytes from page (which is 32 bytes long)
 190:bq34z100.c    ****     if (I2C_MasterSendStart(BQ34Z100, I2C_READ_XFER_MODE) != I2C_MSTR_NO_ERROR) {
 191:bq34z100.c    ****         printf("A read error has occurred when setting read mode.\r\n");
 192:bq34z100.c    ****         return;
 193:bq34z100.c    ****     }
 194:bq34z100.c    ****     for (int i = 0; i < 32; i++) {
 195:bq34z100.c    ****         device->flashbytes[i] = I2C_MasterReadByte((i < 31) ? I2C_ACK_DATA : I2C_NAK_DATA);
 196:bq34z100.c    ****     }
 197:bq34z100.c    ****     I2C_MasterSendStop();
 198:bq34z100.c    **** 
 199:bq34z100.c    ****     // Checksum verification
ARM GAS  C:\Users\shizh\AppData\Local\Temp\ccMQxVCk.s 			page 19


 200:bq34z100.c    ****     uint8_t expectedChecksum = read(device, COMMAND_BLOCKDATACHECKSUM, 1);
 201:bq34z100.c    ****     uint8_t calculatedChecksum = calcChecksum(device->flashbytes);
 202:bq34z100.c    **** 
 203:bq34z100.c    ****     if (expectedChecksum != calculatedChecksum) {
 204:bq34z100.c    ****         printf("ERROR: Checksum of flash memory block does not match. I2C read was likely corrupted
 205:bq34z100.c    ****     }
 206:bq34z100.c    **** 
 207:bq34z100.c    ****     printf("Page %" PRIu8 " block %" PRIu8 " contents:", device->currFlashPage, device->currFlashBl
 208:bq34z100.c    ****     for (size_t byteIndex = 0; byteIndex < 32; ++byteIndex) {
 209:bq34z100.c    ****         printf(" %" PRIx8, device->flashbytes[byteIndex]);
 210:bq34z100.c    ****     }
 211:bq34z100.c    ****     printf("\r\n");
 212:bq34z100.c    ****     printf("Checksum: 0x%" PRIx8 "\r\n", expectedChecksum);
 213:bq34z100.c    **** 
 214:bq34z100.c    ****     CyDelay(10); // Wait to ensure I2C bus stability or BQ34Z100 processing; adjust as necessary
 215:bq34z100.c    **** }
 216:bq34z100.c    **** 
 217:bq34z100.c    **** 
 218:bq34z100.c    **** void BQ34Z100_WriteFlash(BQ34Z100_t *device, uint8_t index, uint32_t value, int len) {
 819              		.loc 1 218 0
 820              		.cfi_startproc
 821              		@ args = 0, pretend = 0, frame = 0
 822              		@ frame_needed = 0, uses_anonymous_args = 0
 823              	.LVL87:
 824 0000 2DE9F843 		push	{r3, r4, r5, r6, r7, r8, r9, lr}
 825              		.cfi_def_cfa_offset 32
 826              		.cfi_offset 3, -32
 827              		.cfi_offset 4, -28
 828              		.cfi_offset 5, -24
 829              		.cfi_offset 6, -20
 830              		.cfi_offset 7, -16
 831              		.cfi_offset 8, -12
 832              		.cfi_offset 9, -8
 833              		.cfi_offset 14, -4
 834 0004 0646     		mov	r6, r0
 835 0006 0F46     		mov	r7, r1
 836 0008 9146     		mov	r9, r2
 837 000a 9846     		mov	r8, r3
 219:bq34z100.c    ****     // Ensure index is within the valid range
 220:bq34z100.c    ****     if (index > 31) index %= 32;
 838              		.loc 1 220 0
 839 000c 1F29     		cmp	r1, #31
 840 000e 01D9     		bls	.L52
 841              		.loc 1 220 0 is_stmt 0 discriminator 1
 842 0010 01F01F07 		and	r7, r1, #31
 843              	.LVL88:
 844              	.L52:
 221:bq34z100.c    **** 
 222:bq34z100.c    ****     // Write to I2C bus and update the flashbytes array at the same time
 223:bq34z100.c    ****     if (len == 1) {
 845              		.loc 1 223 0 is_stmt 1
 846 0014 B8F1010F 		cmp	r8, #1
 847 0018 0FD1     		bne	.L53
 224:bq34z100.c    ****         device->flashbytes[index] = (uint8_t)value;
 848              		.loc 1 224 0
 849 001a 5FFA89F2 		uxtb	r2, r9
 850              	.LVL89:
ARM GAS  C:\Users\shizh\AppData\Local\Temp\ccMQxVCk.s 			page 20


 851 001e F255     		strb	r2, [r6, r7]
 225:bq34z100.c    ****         write(device, COMMAND_BLOCKDATA + index, (unsigned char)value);
 852              		.loc 1 225 0
 853 0020 07F14001 		add	r1, r7, #64
 854 0024 C9B2     		uxtb	r1, r1
 855 0026 3046     		mov	r0, r6
 856              	.LVL90:
 857 0028 FFF7FEFF 		bl	write
 858              	.LVL91:
 226:bq34z100.c    ****         printf("Flash[%d] <- 0x%" PRIx8 "\n", index, device->flashbytes[index]);
 859              		.loc 1 226 0
 860 002c F25D     		ldrb	r2, [r6, r7]	@ zero_extendqisi2
 861 002e 3946     		mov	r1, r7
 862 0030 1B48     		ldr	r0, .L59
 863 0032 FFF7FEFF 		bl	printf
 864              	.LVL92:
 865 0036 BDE8F883 		pop	{r3, r4, r5, r6, r7, r8, r9, pc}
 866              	.LVL93:
 867              	.L53:
 227:bq34z100.c    ****     } else if (len > 1) {
 868              		.loc 1 227 0
 869 003a B8F1010F 		cmp	r8, #1
 870 003e 15DC     		bgt	.L57
 871 0040 BDE8F883 		pop	{r3, r4, r5, r6, r7, r8, r9, pc}
 872              	.LVL94:
 873              	.L56:
 874              	.LBB5:
 228:bq34z100.c    ****         // Process every byte except the last
 229:bq34z100.c    ****         for (int i = 0; i < len - 1; i++) {
 230:bq34z100.c    ****             device->flashbytes[index + i] = (uint8_t)(value >> (8 * ((len - 1) - i)));
 875              		.loc 1 230 0 discriminator 3
 876 0044 3D19     		adds	r5, r7, r4
 877 0046 1A1B     		subs	r2, r3, r4
 878 0048 D200     		lsls	r2, r2, #3
 879 004a 29FA02F2 		lsr	r2, r9, r2
 880 004e D2B2     		uxtb	r2, r2
 881 0050 7255     		strb	r2, [r6, r5]
 231:bq34z100.c    ****             printf("Flash[%d] <- 0x%" PRIx8 "\n", index + i, device->flashbytes[index + i]);
 882              		.loc 1 231 0 discriminator 3
 883 0052 2946     		mov	r1, r5
 884 0054 1248     		ldr	r0, .L59
 885 0056 FFF7FEFF 		bl	printf
 886              	.LVL95:
 232:bq34z100.c    ****             write(device, COMMAND_BLOCKDATA + index + i, device->flashbytes[index + i]);
 887              		.loc 1 232 0 discriminator 3
 888 005a 2946     		mov	r1, r5
 889 005c 4031     		adds	r1, r1, #64
 890 005e 725D     		ldrb	r2, [r6, r5]	@ zero_extendqisi2
 891 0060 C9B2     		uxtb	r1, r1
 892 0062 3046     		mov	r0, r6
 893 0064 FFF7FEFF 		bl	write
 894              	.LVL96:
 229:bq34z100.c    ****             device->flashbytes[index + i] = (uint8_t)(value >> (8 * ((len - 1) - i)));
 895              		.loc 1 229 0 discriminator 3
 896 0068 0134     		adds	r4, r4, #1
 897              	.LVL97:
 898 006a 00E0     		b	.L55
ARM GAS  C:\Users\shizh\AppData\Local\Temp\ccMQxVCk.s 			page 21


 899              	.LVL98:
 900              	.L57:
 901              	.LBE5:
 902 006c 0024     		movs	r4, #0
 903              	.LVL99:
 904              	.L55:
 905              	.LBB6:
 229:bq34z100.c    ****             device->flashbytes[index + i] = (uint8_t)(value >> (8 * ((len - 1) - i)));
 906              		.loc 1 229 0 is_stmt 0 discriminator 1
 907 006e 08F1FF33 		add	r3, r8, #-1
 908 0072 9C42     		cmp	r4, r3
 909 0074 E6DB     		blt	.L56
 910              	.LBE6:
 233:bq34z100.c    ****         }
 234:bq34z100.c    ****         // Last byte (lower byte)
 235:bq34z100.c    ****         device->flashbytes[index + len - 1] = (uint8_t)(value & 0xFF);
 911              		.loc 1 235 0 is_stmt 1
 912 0076 07EB0804 		add	r4, r7, r8
 913              	.LVL100:
 914 007a 013C     		subs	r4, r4, #1
 915 007c 5FFA89F2 		uxtb	r2, r9
 916 0080 3255     		strb	r2, [r6, r4]
 236:bq34z100.c    ****         printf("Flash[%d] <- 0x%" PRIx8 "\n", index + len - 1, device->flashbytes[index + len - 1])
 917              		.loc 1 236 0
 918 0082 2146     		mov	r1, r4
 919 0084 0648     		ldr	r0, .L59
 920 0086 FFF7FEFF 		bl	printf
 921              	.LVL101:
 237:bq34z100.c    ****         write(device, COMMAND_BLOCKDATA + index + len - 1, device->flashbytes[index + len - 1]);
 922              		.loc 1 237 0
 923 008a 4744     		add	r7, r7, r8
 924              	.LVL102:
 925 008c 07F13F01 		add	r1, r7, #63
 926 0090 325D     		ldrb	r2, [r6, r4]	@ zero_extendqisi2
 927 0092 C9B2     		uxtb	r1, r1
 928 0094 3046     		mov	r0, r6
 929 0096 FFF7FEFF 		bl	write
 930              	.LVL103:
 931 009a BDE8F883 		pop	{r3, r4, r5, r6, r7, r8, r9, pc}
 932              	.LVL104:
 933              	.L60:
 934 009e 00BF     		.align	2
 935              	.L59:
 936 00a0 00000000 		.word	.LC0
 937              		.cfi_endproc
 938              	.LFE560:
 939              		.size	BQ34Z100_WriteFlash, .-BQ34Z100_WriteFlash
 940              		.section	.text.BQ34Z100_GetFlashBytes,"ax",%progbits
 941              		.align	2
 942              		.global	BQ34Z100_GetFlashBytes
 943              		.thumb
 944              		.thumb_func
 945              		.type	BQ34Z100_GetFlashBytes, %function
 946              	BQ34Z100_GetFlashBytes:
 947              	.LFB561:
 238:bq34z100.c    ****     }
 239:bq34z100.c    **** }
ARM GAS  C:\Users\shizh\AppData\Local\Temp\ccMQxVCk.s 			page 22


 240:bq34z100.c    **** 
 241:bq34z100.c    **** // Function to retrieve the pointer to the flashbytes array
 242:bq34z100.c    **** uint8_t* BQ34Z100_GetFlashBytes(BQ34Z100_t *device) {
 948              		.loc 1 242 0
 949              		.cfi_startproc
 950              		@ args = 0, pretend = 0, frame = 0
 951              		@ frame_needed = 0, uses_anonymous_args = 0
 952              		@ link register save eliminated.
 953              	.LVL105:
 243:bq34z100.c    ****     return device->flashbytes;
 244:bq34z100.c    **** }
 954              		.loc 1 244 0
 955 0000 7047     		bx	lr
 956              		.cfi_endproc
 957              	.LFE561:
 958              		.size	BQ34Z100_GetFlashBytes, .-BQ34Z100_GetFlashBytes
 959 0002 00BF     		.section	.text.BQ34Z100_ReadDeviceType,"ax",%progbits
 960              		.align	2
 961              		.global	BQ34Z100_ReadDeviceType
 962              		.thumb
 963              		.thumb_func
 964              		.type	BQ34Z100_ReadDeviceType, %function
 965              	BQ34Z100_ReadDeviceType:
 966              	.LFB570:
 245:bq34z100.c    **** 
 246:bq34z100.c    **** // Change to Page 48 and update design capacity and energy
 247:bq34z100.c    **** void BQ34Z100_ChangePage48(BQ34Z100_t *device) {
 248:bq34z100.c    ****     BQ34Z100_ChangePage(device, 48, 0);
 249:bq34z100.c    ****     BQ34Z100_ReadFlash(device);
 250:bq34z100.c    ****     BQ34Z100_WriteFlash(device, 11, DESIGNCAP, 2);
 251:bq34z100.c    ****     BQ34Z100_WriteFlash(device, 13, DESIGNENERGY, 2);
 252:bq34z100.c    ****     BQ34Z100_UpdateChecksum(device);
 253:bq34z100.c    ****     CyDelay(300);  // Delay for 300ms for settings to take effect
 254:bq34z100.c    **** }
 255:bq34z100.c    **** 
 256:bq34z100.c    **** // Change to Page 64 and modify configuration settings
 257:bq34z100.c    **** void BQ34Z100_ChangePage64(BQ34Z100_t *device) {
 258:bq34z100.c    ****     BQ34Z100_ChangePage(device, 64, 0);
 259:bq34z100.c    ****     BQ34Z100_ReadFlash(device);
 260:bq34z100.c    **** 
 261:bq34z100.c    ****     uint8_t packConfig_high = device->flashbytes[0];
 262:bq34z100.c    ****     uint8_t packConfig_low = device->flashbytes[1];
 263:bq34z100.c    **** 
 264:bq34z100.c    ****     if (VOLTSEL) {
 265:bq34z100.c    ****         packConfig_high |= 0x08;  // Enable external voltage divider
 266:bq34z100.c    ****     }
 267:bq34z100.c    ****     packConfig_high |= 0x40;  // Enable calibration
 268:bq34z100.c    **** 
 269:bq34z100.c    ****     packConfig_low &= ~(1);
 270:bq34z100.c    ****     packConfig_low |= USE_EXTERNAL_THERMISTOR;
 271:bq34z100.c    **** 
 272:bq34z100.c    ****     BQ34Z100_WriteFlash(device, 0, packConfig_high, 1);
 273:bq34z100.c    ****     BQ34Z100_WriteFlash(device, 1, packConfig_low, 1);
 274:bq34z100.c    **** 
 275:bq34z100.c    ****     uint8_t packConfigB = device->flashbytes[2];
 276:bq34z100.c    ****     packConfigB &= ~1;  // Disable fast convergence
 277:bq34z100.c    ****     BQ34Z100_WriteFlash(device, 2, packConfigB, 1);
ARM GAS  C:\Users\shizh\AppData\Local\Temp\ccMQxVCk.s 			page 23


 278:bq34z100.c    **** 
 279:bq34z100.c    ****     BQ34Z100_WriteFlash(device, 4, LEDCONFIG, 1);
 280:bq34z100.c    ****     BQ34Z100_WriteFlash(device, 7, 0x04, 1);  // Set number of cells
 281:bq34z100.c    ****     BQ34Z100_UpdateChecksum(device);
 282:bq34z100.c    ****     CyDelay(300);
 283:bq34z100.c    **** }
 284:bq34z100.c    **** 
 285:bq34z100.c    **** // Change to Page 80 and adjust load configuration
 286:bq34z100.c    **** void BQ34Z100_ChangePage80(BQ34Z100_t *device) {
 287:bq34z100.c    ****     BQ34Z100_ChangePage(device, 80, 0);
 288:bq34z100.c    ****     BQ34Z100_ReadFlash(device);
 289:bq34z100.c    **** 
 290:bq34z100.c    ****     BQ34Z100_WriteFlash(device, 0, LOADSELECT, 1);
 291:bq34z100.c    ****     BQ34Z100_WriteFlash(device, 1, LOADMODE, 1);
 292:bq34z100.c    ****     BQ34Z100_WriteFlash(device, 10, 10, 2);
 293:bq34z100.c    ****     BQ34Z100_UpdateChecksum(device);
 294:bq34z100.c    ****     CyDelay(300);
 295:bq34z100.c    **** 
 296:bq34z100.c    ****     BQ34Z100_ChangePage(device, 80, 53);
 297:bq34z100.c    ****     BQ34Z100_ReadFlash(device);
 298:bq34z100.c    **** 
 299:bq34z100.c    ****     BQ34Z100_WriteFlash(device, 53, ZEROCHARGEVOLT, 2);
 300:bq34z100.c    ****     BQ34Z100_UpdateChecksum(device);
 301:bq34z100.c    ****     CyDelay(300);
 302:bq34z100.c    **** }
 303:bq34z100.c    **** 
 304:bq34z100.c    **** // Change to Page 82 and update QMax
 305:bq34z100.c    **** void BQ34Z100_ChangePage82(BQ34Z100_t *device) {
 306:bq34z100.c    ****     BQ34Z100_ChangePage(device, 82, 0);
 307:bq34z100.c    ****     BQ34Z100_ReadFlash(device);
 308:bq34z100.c    ****     BQ34Z100_WriteFlash(device, 0, QMAX0, 2);
 309:bq34z100.c    ****     BQ34Z100_UpdateChecksum(device);
 310:bq34z100.c    ****     CyDelay(300);
 311:bq34z100.c    **** }
 312:bq34z100.c    **** 
 313:bq34z100.c    **** uint16_t BQ34Z100_CalibrateVoltage(BQ34Z100_t *device, uint16_t currentVoltage) {
 314:bq34z100.c    ****     BQ34Z100_ChangePage(device, 104, 0);
 315:bq34z100.c    ****     BQ34Z100_ReadFlash(device);
 316:bq34z100.c    **** 
 317:bq34z100.c    ****     // Gets the voltage divider value stored in flash
 318:bq34z100.c    ****     uint16_t flashVoltage = (uint16_t)(device->flashbytes[14] << 8);
 319:bq34z100.c    ****     flashVoltage |= (uint16_t)(device->flashbytes[15]);
 320:bq34z100.c    **** 
 321:bq34z100.c    ****     float readVoltage = (float)BQ34Z100_GetVoltage(device);
 322:bq34z100.c    ****     float newSetting = ((float)(currentVoltage) / readVoltage) * (float)(flashVoltage);
 323:bq34z100.c    ****     uint16_t writeSetting; // This 2-byte integer will be written to the chip
 324:bq34z100.c    ****     if (newSetting > 65535.0f) {
 325:bq34z100.c    ****         writeSetting = 65535;
 326:bq34z100.c    ****     } else if (newSetting < 0.0f) {
 327:bq34z100.c    ****         writeSetting = 0;
 328:bq34z100.c    ****     } else {
 329:bq34z100.c    ****         writeSetting = (uint16_t)(newSetting);
 330:bq34z100.c    ****     }
 331:bq34z100.c    ****     BQ34Z100_WriteFlash(device, 14, writeSetting, 2);
 332:bq34z100.c    ****     BQ34Z100_UpdateChecksum(device);
 333:bq34z100.c    ****     CyDelay(10); // Delay for 10ms
 334:bq34z100.c    **** 
ARM GAS  C:\Users\shizh\AppData\Local\Temp\ccMQxVCk.s 			page 24


 335:bq34z100.c    ****     // Also change the "Flash Update OK Cell Volt" as the datasheet says to:
 336:bq34z100.c    ****     BQ34Z100_ChangePage(device, 68, 0);
 337:bq34z100.c    ****     BQ34Z100_ReadFlash(device);
 338:bq34z100.c    **** 
 339:bq34z100.c    ****     int16_t oldUpdateOK = 0;
 340:bq34z100.c    ****     oldUpdateOK |= (uint16_t)(device->flashbytes[0] << 8);
 341:bq34z100.c    ****     oldUpdateOK |= device->flashbytes[1];
 342:bq34z100.c    **** 
 343:bq34z100.c    ****     int16_t newUpdateOK = (int16_t)(round(FLASH_UPDATE_OK_VOLT * CELLCOUNT * (5000.0f / writeSettin
 344:bq34z100.c    ****     printf("Changing Flash Update OK Voltage from %" PRIi16 " to %" PRIi16 "\r\n", oldUpdateOK, new
 345:bq34z100.c    **** 
 346:bq34z100.c    ****     BQ34Z100_WriteFlash(device, 0, newUpdateOK, 2);
 347:bq34z100.c    ****     BQ34Z100_UpdateChecksum(device);
 348:bq34z100.c    **** 
 349:bq34z100.c    ****     // Test output
 350:bq34z100.c    ****     printf("Register (voltage divider): %d\r\n", flashVoltage);
 351:bq34z100.c    ****     printf("New Ratio: %f\r\n", ((float)(currentVoltage) / readVoltage));
 352:bq34z100.c    ****     printf("READ VOLTAGE (mv): %f\r\n", readVoltage);
 353:bq34z100.c    ****     return writeSetting;
 354:bq34z100.c    **** }
 355:bq34z100.c    **** 
 356:bq34z100.c    **** void BQ34Z100_ResetVoltageDivider(BQ34Z100_t *device) {
 357:bq34z100.c    ****     BQ34Z100_ChangePage(device, 104, 0); // Change to page 104, offset 0
 358:bq34z100.c    ****     BQ34Z100_ReadFlash(device); // Read current settings from flash
 359:bq34z100.c    ****     BQ34Z100_WriteFlash(device, 14, RESETVOLTAGE, 2); // Write the RESETVOLTAGE value to the approp
 360:bq34z100.c    ****     BQ34Z100_UpdateChecksum(device); // Update checksum to ensure data integrity
 361:bq34z100.c    ****     CyDelay(300); // Wait for 300ms for settings to take effect
 362:bq34z100.c    **** }
 363:bq34z100.c    **** 
 364:bq34z100.c    **** void BQ34Z100_CalibrateShunt(BQ34Z100_t *device, int16_t calCurrent) {
 365:bq34z100.c    ****     if (calCurrent < 0) calCurrent = -calCurrent;
 366:bq34z100.c    **** 
 367:bq34z100.c    ****     int16_t currentReading = BQ34Z100_GetCurrent(device);
 368:bq34z100.c    ****     if (currentReading < 0) currentReading = -currentReading;
 369:bq34z100.c    **** 
 370:bq34z100.c    ****     BQ34Z100_ChangePage(device, 104, 0); // Change to page 104, offset 0 as per table 11 in datashe
 371:bq34z100.c    ****     BQ34Z100_ReadFlash(device); // Read current settings from flash
 372:bq34z100.c    ****     CyDelay(30); // Wait for 30ms
 373:bq34z100.c    **** 
 374:bq34z100.c    ****     // Read and convert CC Gain
 375:bq34z100.c    ****     uint32_t currentGainDF = ((uint32_t)device->flashbytes[0] << 24) | ((uint32_t)device->flashbyte
 376:bq34z100.c    ****                              ((uint32_t)device->flashbytes[2] << 8) | (uint32_t)device->flashbytes[
 377:bq34z100.c    ****     float currentGainResistance = (4.768f / xemicsToFloat(currentGainDF));
 378:bq34z100.c    **** 
 379:bq34z100.c    ****     uint32_t currentDeltaDF = ((uint32_t)device->flashbytes[4] << 24) | ((uint32_t)device->flashbyt
 380:bq34z100.c    ****                               ((uint32_t)device->flashbytes[6] << 8) | (uint32_t)device->flashbytes
 381:bq34z100.c    ****     float currentDeltaResistance = (5677445 / xemicsToFloat(currentGainDF));
 382:bq34z100.c    **** 
 383:bq34z100.c    ****     float newGain = (((float)currentReading) / ((float)calCurrent)) * currentGainResistance;
 384:bq34z100.c    **** 
 385:bq34z100.c    ****     uint32_t newGainDF = floatToXemics(4.768 / newGain);
 386:bq34z100.c    ****     float DeltaDF = floatToXemics(5677445 / newGain);
 387:bq34z100.c    **** 
 388:bq34z100.c    ****     printf("currentGainDF = 0x%" PRIx32 ", currentGainResistance = %f, currentDeltaDF = %" PRIx32 "
 389:bq34z100.c    ****            currentGainDF, currentGainResistance, currentDeltaDF, currentDeltaResistance, newGain, n
 390:bq34z100.c    **** 
 391:bq34z100.c    ****     BQ34Z100_WriteFlash(device, 0, newGainDF, 4);
ARM GAS  C:\Users\shizh\AppData\Local\Temp\ccMQxVCk.s 			page 25


 392:bq34z100.c    ****     BQ34Z100_WriteFlash(device, 4, DeltaDF, 4);
 393:bq34z100.c    **** 
 394:bq34z100.c    ****     BQ34Z100_UpdateChecksum(device);
 395:bq34z100.c    ****     CyDelay(300); // Delay for 300ms for settings to take effect
 396:bq34z100.c    **** }
 397:bq34z100.c    **** 
 398:bq34z100.c    **** void BQ34Z100_SetSenseResistor(BQ34Z100_t *device) {
 399:bq34z100.c    ****     BQ34Z100_ChangePage(device, 104, 0);
 400:bq34z100.c    ****     BQ34Z100_ReadFlash(device);
 401:bq34z100.c    ****     CyDelay(30); // Delay to ensure data is ready
 402:bq34z100.c    **** 
 403:bq34z100.c    ****     // Constants used to convert mOhm to the BQ34Z100 data flash units
 404:bq34z100.c    ****     uint32_t GainDF = floatToXemics(4.768 / SENSE_RES);
 405:bq34z100.c    ****     uint32_t DeltaDF = floatToXemics(5677445 / SENSE_RES);
 406:bq34z100.c    ****     BQ34Z100_WriteFlash(device, 0, GainDF, 4);
 407:bq34z100.c    ****     BQ34Z100_WriteFlash(device, 4, DeltaDF, 4);
 408:bq34z100.c    **** 
 409:bq34z100.c    ****     printf("newGain = %f, GainDF = 0x%" PRIx32 "\n", SENSE_RES, GainDF);
 410:bq34z100.c    **** 
 411:bq34z100.c    ****     BQ34Z100_UpdateChecksum(device);
 412:bq34z100.c    ****     CyDelay(300); // Wait for changes to take effect
 413:bq34z100.c    **** }
 414:bq34z100.c    **** 
 415:bq34z100.c    **** uint16_t BQ34Z100_ReadDeviceType(BQ34Z100_t *device) {
 967              		.loc 1 415 0
 968              		.cfi_startproc
 969              		@ args = 0, pretend = 0, frame = 0
 970              		@ frame_needed = 0, uses_anonymous_args = 0
 971              	.LVL106:
 972 0000 08B5     		push	{r3, lr}
 973              		.cfi_def_cfa_offset 8
 974              		.cfi_offset 3, -8
 975              		.cfi_offset 14, -4
 416:bq34z100.c    ****     return readControlCommand(device, CONTROL_DEVICE_TYPE);
 976              		.loc 1 416 0
 977 0002 0121     		movs	r1, #1
 978 0004 FFF7FEFF 		bl	readControlCommand
 979              	.LVL107:
 417:bq34z100.c    **** }
 980              		.loc 1 417 0
 981 0008 08BD     		pop	{r3, pc}
 982              		.cfi_endproc
 983              	.LFE570:
 984              		.size	BQ34Z100_ReadDeviceType, .-BQ34Z100_ReadDeviceType
 985 000a 00BF     		.section	.text.BQ34Z100_ReadFWVersion,"ax",%progbits
 986              		.align	2
 987              		.global	BQ34Z100_ReadFWVersion
 988              		.thumb
 989              		.thumb_func
 990              		.type	BQ34Z100_ReadFWVersion, %function
 991              	BQ34Z100_ReadFWVersion:
 992              	.LFB571:
 418:bq34z100.c    **** 
 419:bq34z100.c    **** uint16_t BQ34Z100_ReadFWVersion(BQ34Z100_t *device) {
 993              		.loc 1 419 0
 994              		.cfi_startproc
 995              		@ args = 0, pretend = 0, frame = 0
ARM GAS  C:\Users\shizh\AppData\Local\Temp\ccMQxVCk.s 			page 26


 996              		@ frame_needed = 0, uses_anonymous_args = 0
 997              	.LVL108:
 998 0000 08B5     		push	{r3, lr}
 999              		.cfi_def_cfa_offset 8
 1000              		.cfi_offset 3, -8
 1001              		.cfi_offset 14, -4
 420:bq34z100.c    ****     return readControlCommand(device, CONTROL_FW_VERSION);
 1002              		.loc 1 420 0
 1003 0002 0221     		movs	r1, #2
 1004 0004 FFF7FEFF 		bl	readControlCommand
 1005              	.LVL109:
 421:bq34z100.c    **** }
 1006              		.loc 1 421 0
 1007 0008 08BD     		pop	{r3, pc}
 1008              		.cfi_endproc
 1009              	.LFE571:
 1010              		.size	BQ34Z100_ReadFWVersion, .-BQ34Z100_ReadFWVersion
 1011 000a 00BF     		.section	.text.BQ34Z100_ReadHWVersion,"ax",%progbits
 1012              		.align	2
 1013              		.global	BQ34Z100_ReadHWVersion
 1014              		.thumb
 1015              		.thumb_func
 1016              		.type	BQ34Z100_ReadHWVersion, %function
 1017              	BQ34Z100_ReadHWVersion:
 1018              	.LFB572:
 422:bq34z100.c    **** 
 423:bq34z100.c    **** uint16_t BQ34Z100_ReadHWVersion(BQ34Z100_t *device) {
 1019              		.loc 1 423 0
 1020              		.cfi_startproc
 1021              		@ args = 0, pretend = 0, frame = 0
 1022              		@ frame_needed = 0, uses_anonymous_args = 0
 1023              	.LVL110:
 1024 0000 08B5     		push	{r3, lr}
 1025              		.cfi_def_cfa_offset 8
 1026              		.cfi_offset 3, -8
 1027              		.cfi_offset 14, -4
 424:bq34z100.c    ****     return readControlCommand(device, CONTROL_HW_VERSION);
 1028              		.loc 1 424 0
 1029 0002 0321     		movs	r1, #3
 1030 0004 FFF7FEFF 		bl	readControlCommand
 1031              	.LVL111:
 425:bq34z100.c    **** }
 1032              		.loc 1 425 0
 1033 0008 08BD     		pop	{r3, pc}
 1034              		.cfi_endproc
 1035              	.LFE572:
 1036              		.size	BQ34Z100_ReadHWVersion, .-BQ34Z100_ReadHWVersion
 1037              		.global	__aeabi_f2d
 1038              		.global	__aeabi_dadd
 1039              		.global	__aeabi_d2iz
 1040              		.global	__aeabi_d2f
 1041              		.global	__aeabi_dmul
 1042 000a 00BF     		.section	.text.floatToXemics,"ax",%progbits
 1043              		.align	2
 1044              		.global	floatToXemics
 1045              		.thumb
 1046              		.thumb_func
ARM GAS  C:\Users\shizh\AppData\Local\Temp\ccMQxVCk.s 			page 27


 1047              		.type	floatToXemics, %function
 1048              	floatToXemics:
 1049              	.LFB573:
 426:bq34z100.c    **** 
 427:bq34z100.c    **** 
 428:bq34z100.c    **** // Convert float to Xemics floating point format
 429:bq34z100.c    **** uint32_t floatToXemics(float value) {
 1050              		.loc 1 429 0
 1051              		.cfi_startproc
 1052              		@ args = 0, pretend = 0, frame = 0
 1053              		@ frame_needed = 0, uses_anonymous_args = 0
 1054              	.LVL112:
 1055 0000 2DE9F843 		push	{r3, r4, r5, r6, r7, r8, r9, lr}
 1056              		.cfi_def_cfa_offset 32
 1057              		.cfi_offset 3, -32
 1058              		.cfi_offset 4, -28
 1059              		.cfi_offset 5, -24
 1060              		.cfi_offset 6, -20
 1061              		.cfi_offset 7, -16
 1062              		.cfi_offset 8, -12
 1063              		.cfi_offset 9, -8
 1064              		.cfi_offset 14, -4
 1065 0004 07EE900A 		vmov	s15, r0
 1066              	.LVL113:
 430:bq34z100.c    ****     int iByte1, iByte2, iByte3, iByte4, iExp;
 431:bq34z100.c    ****     bool bNegative = false;
 432:bq34z100.c    ****     float fMantissa;
 433:bq34z100.c    ****     
 434:bq34z100.c    ****     // Handle zero input gracefully
 435:bq34z100.c    ****     if (value == 0) value = 0.00001F;
 1067              		.loc 1 435 0
 1068 0008 F5EE407A 		vcmp.f32	s15, #0
 1069 000c F1EE10FA 		vmrs	APSR_nzcv, FPSCR
 1070 0010 01D1     		bne	.L69
 1071 0012 DFED3B7A 		vldr.32	s15, .L78+8
 1072              	.L69:
 1073              	.LVL114:
 436:bq34z100.c    **** 
 437:bq34z100.c    ****     if (value < 0) {
 1074              		.loc 1 437 0
 1075 0016 F5EEC07A 		vcmpe.f32	s15, #0
 1076 001a F1EE10FA 		vmrs	APSR_nzcv, FPSCR
 1077 001e 03D5     		bpl	.L76
 1078              	.LVL115:
 438:bq34z100.c    ****         bNegative = true;
 439:bq34z100.c    ****         value = -value;
 1079              		.loc 1 439 0
 1080 0020 F1EE677A 		vneg.f32	s15, s15
 1081              	.LVL116:
 438:bq34z100.c    ****         bNegative = true;
 1082              		.loc 1 438 0
 1083 0024 0127     		movs	r7, #1
 1084 0026 00E0     		b	.L70
 1085              	.LVL117:
 1086              	.L76:
 431:bq34z100.c    ****     float fMantissa;
 1087              		.loc 1 431 0
ARM GAS  C:\Users\shizh\AppData\Local\Temp\ccMQxVCk.s 			page 28


 1088 0028 0027     		movs	r7, #0
 1089              	.LVL118:
 1090              	.L70:
 440:bq34z100.c    ****     }
 441:bq34z100.c    **** 
 442:bq34z100.c    ****     // Calculate exponent
 443:bq34z100.c    ****     iExp = (int)(log(value) / log(2) + 1);
 1091              		.loc 1 443 0
 1092 002a 17EE900A 		vmov	r0, s15
 1093 002e FFF7FEFF 		bl	__aeabi_f2d
 1094              	.LVL119:
 1095 0032 0446     		mov	r4, r0
 1096 0034 0D46     		mov	r5, r1
 1097 0036 FFF7FEFF 		bl	log
 1098              	.LVL120:
 1099 003a 2FA3     		adr	r3, .L78
 1100 003c D3E90023 		ldrd	r2, [r3]
 1101 0040 FFF7FEFF 		bl	__aeabi_ddiv
 1102              	.LVL121:
 1103 0044 0022     		movs	r2, #0
 1104 0046 2F4B     		ldr	r3, .L78+12
 1105 0048 FFF7FEFF 		bl	__aeabi_dadd
 1106              	.LVL122:
 1107 004c FFF7FEFF 		bl	__aeabi_d2iz
 1108              	.LVL123:
 444:bq34z100.c    **** 
 445:bq34z100.c    ****     // MS byte is the exponent + 0x80
 446:bq34z100.c    ****     iByte1 = iExp + 128;
 1109              		.loc 1 446 0
 1110 0050 00F18006 		add	r6, r0, #128
 1111              	.LVL124:
 447:bq34z100.c    **** 
 448:bq34z100.c    ****     // Calculate mantissa
 449:bq34z100.c    ****     fMantissa = value / pow(2, iExp);
 1112              		.loc 1 449 0
 1113 0054 FFF7FEFF 		bl	__aeabi_i2d
 1114              	.LVL125:
 1115 0058 0246     		mov	r2, r0
 1116 005a 0B46     		mov	r3, r1
 1117 005c 0020     		movs	r0, #0
 1118 005e 4FF08041 		mov	r1, #1073741824
 1119 0062 FFF7FEFF 		bl	pow
 1120              	.LVL126:
 1121 0066 0246     		mov	r2, r0
 1122 0068 0B46     		mov	r3, r1
 1123 006a 2046     		mov	r0, r4
 1124 006c 2946     		mov	r1, r5
 1125 006e FFF7FEFF 		bl	__aeabi_ddiv
 1126              	.LVL127:
 1127 0072 FFF7FEFF 		bl	__aeabi_d2f
 1128              	.LVL128:
 450:bq34z100.c    ****     fMantissa = fMantissa / pow(2, -24);
 451:bq34z100.c    **** 
 452:bq34z100.c    ****     // Convert mantissa into three bytes
 453:bq34z100.c    ****     iByte2 = (int)(fMantissa / pow(2, 16));
 1129              		.loc 1 453 0
 1130 0076 DFED247A 		vldr.32	s15, .L78+16
ARM GAS  C:\Users\shizh\AppData\Local\Temp\ccMQxVCk.s 			page 29


 1131 007a 07EE100A 		vmov	s14, r0
 1132 007e 67EE277A 		vmul.f32	s15, s14, s15
 1133              	.LVL129:
 1134 0082 17EE900A 		vmov	r0, s15
 1135 0086 FFF7FEFF 		bl	__aeabi_f2d
 1136              	.LVL130:
 1137 008a 8046     		mov	r8, r0
 1138 008c 8946     		mov	r9, r1
 1139 008e 0022     		movs	r2, #0
 1140 0090 1E4B     		ldr	r3, .L78+20
 1141 0092 FFF7FEFF 		bl	__aeabi_dmul
 1142              	.LVL131:
 1143 0096 FFF7FEFF 		bl	__aeabi_d2iz
 1144              	.LVL132:
 1145 009a 0446     		mov	r4, r0
 1146              	.LVL133:
 454:bq34z100.c    ****     iByte3 = (int)((fMantissa - (iByte2 * pow(2, 16))) / pow(2, 8));
 1147              		.loc 1 454 0
 1148 009c FFF7FEFF 		bl	__aeabi_i2d
 1149              	.LVL134:
 1150 00a0 0022     		movs	r2, #0
 1151 00a2 1B4B     		ldr	r3, .L78+24
 1152 00a4 FFF7FEFF 		bl	__aeabi_dmul
 1153              	.LVL135:
 1154 00a8 0246     		mov	r2, r0
 1155 00aa 0B46     		mov	r3, r1
 1156 00ac 4046     		mov	r0, r8
 1157 00ae 4946     		mov	r1, r9
 1158 00b0 FFF7FEFF 		bl	__aeabi_dsub
 1159              	.LVL136:
 1160 00b4 8046     		mov	r8, r0
 1161 00b6 8946     		mov	r9, r1
 1162 00b8 0022     		movs	r2, #0
 1163 00ba 164B     		ldr	r3, .L78+28
 1164 00bc FFF7FEFF 		bl	__aeabi_dmul
 1165              	.LVL137:
 1166 00c0 FFF7FEFF 		bl	__aeabi_d2iz
 1167              	.LVL138:
 1168 00c4 0546     		mov	r5, r0
 1169              	.LVL139:
 455:bq34z100.c    ****     iByte4 = (int)(fMantissa - (iByte2 * pow(2, 16)) - (iByte3 * pow(2, 8)));
 1170              		.loc 1 455 0
 1171 00c6 FFF7FEFF 		bl	__aeabi_i2d
 1172              	.LVL140:
 1173 00ca 0022     		movs	r2, #0
 1174 00cc 124B     		ldr	r3, .L78+32
 1175 00ce FFF7FEFF 		bl	__aeabi_dmul
 1176              	.LVL141:
 1177 00d2 0246     		mov	r2, r0
 1178 00d4 0B46     		mov	r3, r1
 1179 00d6 4046     		mov	r0, r8
 1180 00d8 4946     		mov	r1, r9
 1181 00da FFF7FEFF 		bl	__aeabi_dsub
 1182              	.LVL142:
 1183 00de FFF7FEFF 		bl	__aeabi_d2iz
 1184              	.LVL143:
 456:bq34z100.c    **** 
ARM GAS  C:\Users\shizh\AppData\Local\Temp\ccMQxVCk.s 			page 30


 457:bq34z100.c    ****     // Apply sign bit condition
 458:bq34z100.c    ****     if (!bNegative) {
 1185              		.loc 1 458 0
 1186 00e2 0FB9     		cbnz	r7, .L72
 459:bq34z100.c    ****         iByte2 = iByte2 & 0x7F;
 1187              		.loc 1 459 0
 1188 00e4 04F07F04 		and	r4, r4, #127
 1189              	.LVL144:
 1190              	.L72:
 460:bq34z100.c    ****     }
 461:bq34z100.c    **** 
 462:bq34z100.c    ****     return (uint32_t)(iByte1 << 24 | iByte2 << 16 | iByte3 << 8 | iByte4);
 1191              		.loc 1 462 0
 1192 00e8 2304     		lsls	r3, r4, #16
 1193 00ea 43EA0664 		orr	r4, r3, r6, lsl #24
 1194              	.LVL145:
 1195 00ee 44EA0524 		orr	r4, r4, r5, lsl #8
 463:bq34z100.c    **** }
 1196              		.loc 1 463 0
 1197 00f2 2043     		orrs	r0, r0, r4
 1198              	.LVL146:
 1199 00f4 BDE8F883 		pop	{r3, r4, r5, r6, r7, r8, r9, pc}
 1200              	.LVL147:
 1201              	.L79:
 1202              		.align	3
 1203              	.L78:
 1204 00f8 EF39FAFE 		.word	-17155601
 1205 00fc 422EE63F 		.word	1072049730
 1206 0100 ACC52737 		.word	925353388
 1207 0104 0000F03F 		.word	1072693248
 1208 0108 0000804B 		.word	1266679808
 1209 010c 0000F03E 		.word	1055916032
 1210 0110 0000F040 		.word	1089470464
 1211 0114 0000703F 		.word	1064304640
 1212 0118 00007040 		.word	1081081856
 1213              		.cfi_endproc
 1214              	.LFE573:
 1215              		.size	floatToXemics, .-floatToXemics
 1216              		.section	.text.xemicsToFloat,"ax",%progbits
 1217              		.align	2
 1218              		.global	xemicsToFloat
 1219              		.thumb
 1220              		.thumb_func
 1221              		.type	xemicsToFloat, %function
 1222              	xemicsToFloat:
 1223              	.LFB574:
 464:bq34z100.c    **** 
 465:bq34z100.c    **** // Convert Xemics floating point format to float
 466:bq34z100.c    **** float xemicsToFloat(uint32_t xemics) {
 1224              		.loc 1 466 0
 1225              		.cfi_startproc
 1226              		@ args = 0, pretend = 0, frame = 0
 1227              		@ frame_needed = 0, uses_anonymous_args = 0
 1228              	.LVL148:
 1229 0000 F8B5     		push	{r3, r4, r5, r6, r7, lr}
 1230              		.cfi_def_cfa_offset 24
 1231              		.cfi_offset 3, -24
ARM GAS  C:\Users\shizh\AppData\Local\Temp\ccMQxVCk.s 			page 31


 1232              		.cfi_offset 4, -20
 1233              		.cfi_offset 5, -16
 1234              		.cfi_offset 6, -12
 1235              		.cfi_offset 7, -8
 1236              		.cfi_offset 14, -4
 1237 0002 0446     		mov	r4, r0
 1238              	.LVL149:
 467:bq34z100.c    ****     bool bIsPositive = true;
 468:bq34z100.c    ****     float fExponent, fResult;
 469:bq34z100.c    ****     uint8_t vMSByte = (uint8_t)(xemics >> 24);
 1239              		.loc 1 469 0
 1240 0004 000E     		lsrs	r0, r0, #24
 1241              	.LVL150:
 470:bq34z100.c    ****     uint8_t vMidHiByte = (uint8_t)(xemics >> 16);
 1242              		.loc 1 470 0
 1243 0006 230C     		lsrs	r3, r4, #16
 1244 0008 DEB2     		uxtb	r6, r3
 1245              	.LVL151:
 471:bq34z100.c    ****     uint8_t vMidLoByte = (uint8_t)(xemics >> 8);
 1246              		.loc 1 471 0
 1247 000a 250A     		lsrs	r5, r4, #8
 1248              	.LVL152:
 472:bq34z100.c    ****     uint8_t vLSByte = (uint8_t)xemics;
 473:bq34z100.c    **** 
 474:bq34z100.c    ****     // Determine sign from the mid-high byte
 475:bq34z100.c    ****     if (vMidHiByte & 0x80) {
 1249              		.loc 1 475 0
 1250 000c 13F0800F 		tst	r3, #128
 1251 0010 01D1     		bne	.L83
 467:bq34z100.c    ****     float fExponent, fResult;
 1252              		.loc 1 467 0
 1253 0012 0127     		movs	r7, #1
 1254 0014 00E0     		b	.L81
 1255              	.L83:
 476:bq34z100.c    ****         bIsPositive = false;
 1256              		.loc 1 476 0
 1257 0016 0027     		movs	r7, #0
 1258              	.L81:
 1259              	.LVL153:
 477:bq34z100.c    ****     }
 478:bq34z100.c    **** 
 479:bq34z100.c    ****     // Extract exponent
 480:bq34z100.c    ****     fExponent = pow(2, (vMSByte - 128));
 1260              		.loc 1 480 0
 1261 0018 8038     		subs	r0, r0, #128
 1262              	.LVL154:
 1263 001a FFF7FEFF 		bl	__aeabi_i2d
 1264              	.LVL155:
 1265 001e 0246     		mov	r2, r0
 1266 0020 0B46     		mov	r3, r1
 1267 0022 0020     		movs	r0, #0
 1268 0024 4FF08041 		mov	r1, #1073741824
 1269 0028 FFF7FEFF 		bl	pow
 1270              	.LVL156:
 1271 002c FFF7FEFF 		bl	__aeabi_d2f
 1272              	.LVL157:
 481:bq34z100.c    **** 
ARM GAS  C:\Users\shizh\AppData\Local\Temp\ccMQxVCk.s 			page 32


 482:bq34z100.c    ****     // Restore mantissa
 483:bq34z100.c    ****     vMidHiByte |= 0x80;
 1273              		.loc 1 483 0
 1274 0030 46F08006 		orr	r6, r6, #128
 1275              	.LVL158:
 484:bq34z100.c    ****     fResult = vMidHiByte * 65536 + vMidLoByte * 256 + vLSByte;
 1276              		.loc 1 484 0
 1277 0034 EDB2     		uxtb	r5, r5
 1278 0036 05EB0625 		add	r5, r5, r6, lsl #8
 1279              	.LVL159:
 1280 003a E4B2     		uxtb	r4, r4
 1281              	.LVL160:
 1282 003c 04EB0523 		add	r3, r4, r5, lsl #8
 1283 0040 07EE903A 		vmov	s15, r3	@ int
 1284 0044 F8EEE77A 		vcvt.f32.s32	s15, s15
 1285              	.LVL161:
 485:bq34z100.c    ****     fResult = fResult * pow(2, -24); // Convert to fraction
 1286              		.loc 1 485 0
 1287 0048 9FED087A 		vldr.32	s14, .L86
 1288 004c 67EE877A 		vmul.f32	s15, s15, s14
 1289              	.LVL162:
 486:bq34z100.c    ****     fResult = fResult * fExponent;   // Apply exponent
 1290              		.loc 1 486 0
 1291 0050 07EE100A 		vmov	s14, r0
 1292 0054 67EE277A 		vmul.f32	s15, s14, s15
 1293              	.LVL163:
 487:bq34z100.c    **** 
 488:bq34z100.c    ****     // Apply sign
 489:bq34z100.c    ****     return bIsPositive ? fResult : -fResult;
 1294              		.loc 1 489 0
 1295 0058 27B9     		cbnz	r7, .L84
 1296              		.loc 1 489 0 is_stmt 0 discriminator 2
 1297 005a F1EE677A 		vneg.f32	s15, s15
 1298              	.LVL164:
 1299 005e 17EE900A 		vmov	r0, s15
 1300              	.LVL165:
 1301 0062 F8BD     		pop	{r3, r4, r5, r6, r7, pc}
 1302              	.LVL166:
 1303              	.L84:
 1304              		.loc 1 489 0
 1305 0064 17EE900A 		vmov	r0, s15
 1306              	.LVL167:
 490:bq34z100.c    **** }
 1307              		.loc 1 490 0 is_stmt 1
 1308 0068 F8BD     		pop	{r3, r4, r5, r6, r7, pc}
 1309              	.LVL168:
 1310              	.L87:
 1311 006a 00BF     		.align	2
 1312              	.L86:
 1313 006c 00008033 		.word	864026624
 1314              		.cfi_endproc
 1315              	.LFE574:
 1316              		.size	xemicsToFloat, .-xemicsToFloat
 1317              		.section	.text.BQ34Z100_GetFlags,"ax",%progbits
 1318              		.align	2
 1319              		.global	BQ34Z100_GetFlags
 1320              		.thumb
ARM GAS  C:\Users\shizh\AppData\Local\Temp\ccMQxVCk.s 			page 33


 1321              		.thumb_func
 1322              		.type	BQ34Z100_GetFlags, %function
 1323              	BQ34Z100_GetFlags:
 1324              	.LFB576:
 491:bq34z100.c    **** 
 492:bq34z100.c    **** uint8_t BQ34Z100_GetUpdateStatus(BQ34Z100_t *device) {
 493:bq34z100.c    ****     BQ34Z100_ChangePage(device, 82, 0); // Change to page 82, offset 0
 494:bq34z100.c    ****     BQ34Z100_ReadFlash(device); // Read the data from flash into the buffer
 495:bq34z100.c    ****     return device->flashbytes[4]; // Return the status byte from the flash memory buffer
 496:bq34z100.c    **** }
 497:bq34z100.c    **** 
 498:bq34z100.c    **** BQ34Z100_Flags_t BQ34Z100_GetFlags(BQ34Z100_t *device) {
 1325              		.loc 1 498 0
 1326              		.cfi_startproc
 1327              		@ args = 0, pretend = 0, frame = 8
 1328              		@ frame_needed = 0, uses_anonymous_args = 0
 1329              	.LVL169:
 1330 0000 30B5     		push	{r4, r5, lr}
 1331              		.cfi_def_cfa_offset 12
 1332              		.cfi_offset 4, -12
 1333              		.cfi_offset 5, -8
 1334              		.cfi_offset 14, -4
 1335 0002 83B0     		sub	sp, sp, #12
 1336              		.cfi_def_cfa_offset 24
 1337 0004 0546     		mov	r5, r0
 499:bq34z100.c    ****     uint16_t flags = read(device, COMMAND_FLAGS, 2);
 1338              		.loc 1 499 0
 1339 0006 0222     		movs	r2, #2
 1340 0008 0E21     		movs	r1, #14
 1341 000a FFF7FEFF 		bl	read
 1342              	.LVL170:
 1343 000e 84B2     		uxth	r4, r0
 1344              	.LVL171:
 500:bq34z100.c    ****     uint16_t flagsB = read(device, COMMAND_FLAGSB, 2);
 1345              		.loc 1 500 0
 1346 0010 0222     		movs	r2, #2
 1347 0012 1221     		movs	r1, #18
 1348 0014 2846     		mov	r0, r5
 1349 0016 FFF7FEFF 		bl	read
 1350              	.LVL172:
 501:bq34z100.c    **** 
 502:bq34z100.c    ****     BQ34Z100_Flags_t result;
 503:bq34z100.c    ****     result.flagA = flags;
 1351              		.loc 1 503 0
 1352 001a ADF80040 		strh	r4, [sp]	@ movhi
 504:bq34z100.c    ****     result.flagB = flagsB;
 1353              		.loc 1 504 0
 1354 001e ADF80200 		strh	r0, [sp, #2]	@ movhi
 505:bq34z100.c    **** 
 506:bq34z100.c    ****     return result;
 1355              		.loc 1 506 0
 1356 0022 009B     		ldr	r3, [sp]
 1357 0024 0020     		movs	r0, #0
 1358              	.LVL173:
 1359 0026 9AB2     		uxth	r2, r3
 1360 0028 62F30F00 		bfi	r0, r2, #0, #16
 1361 002c 1B0C     		lsrs	r3, r3, #16
ARM GAS  C:\Users\shizh\AppData\Local\Temp\ccMQxVCk.s 			page 34


 1362 002e 63F31F40 		bfi	r0, r3, #16, #16
 507:bq34z100.c    **** }
 1363              		.loc 1 507 0
 1364 0032 03B0     		add	sp, sp, #12
 1365              		.cfi_def_cfa_offset 12
 1366              		@ sp needed
 1367 0034 30BD     		pop	{r4, r5, pc}
 1368              		.cfi_endproc
 1369              	.LFE576:
 1370              		.size	BQ34Z100_GetFlags, .-BQ34Z100_GetFlags
 1371 0036 00BF     		.section	.text.calcChecksum,"ax",%progbits
 1372              		.align	2
 1373              		.global	calcChecksum
 1374              		.thumb
 1375              		.thumb_func
 1376              		.type	calcChecksum, %function
 1377              	calcChecksum:
 1378              	.LFB577:
 508:bq34z100.c    **** 
 509:bq34z100.c    **** uint8_t calcChecksum(uint8_t *flashbytes) {
 1379              		.loc 1 509 0
 1380              		.cfi_startproc
 1381              		@ args = 0, pretend = 0, frame = 0
 1382              		@ frame_needed = 0, uses_anonymous_args = 0
 1383              		@ link register save eliminated.
 1384              	.LVL174:
 1385              	.LBB7:
 510:bq34z100.c    ****     uint8_t sum = 0;
 511:bq34z100.c    ****     for (int i = 0; i < 32; i++) {
 1386              		.loc 1 511 0
 1387 0000 0022     		movs	r2, #0
 1388              	.LBE7:
 510:bq34z100.c    ****     uint8_t sum = 0;
 1389              		.loc 1 510 0
 1390 0002 1346     		mov	r3, r2
 1391              	.LBB8:
 1392              		.loc 1 511 0
 1393 0004 03E0     		b	.L91
 1394              	.LVL175:
 1395              	.L92:
 512:bq34z100.c    ****         sum += flashbytes[i];
 1396              		.loc 1 512 0 discriminator 3
 1397 0006 815C     		ldrb	r1, [r0, r2]	@ zero_extendqisi2
 1398 0008 0B44     		add	r3, r3, r1
 1399              	.LVL176:
 1400 000a DBB2     		uxtb	r3, r3
 1401              	.LVL177:
 511:bq34z100.c    ****         sum += flashbytes[i];
 1402              		.loc 1 511 0 discriminator 3
 1403 000c 0132     		adds	r2, r2, #1
 1404              	.LVL178:
 1405              	.L91:
 511:bq34z100.c    ****         sum += flashbytes[i];
 1406              		.loc 1 511 0 is_stmt 0 discriminator 1
 1407 000e 1F2A     		cmp	r2, #31
 1408 0010 F9DD     		ble	.L92
 1409              	.LBE8:
ARM GAS  C:\Users\shizh\AppData\Local\Temp\ccMQxVCk.s 			page 35


 513:bq34z100.c    ****     }
 514:bq34z100.c    ****     return 255 - sum;
 1410              		.loc 1 514 0 is_stmt 1
 1411 0012 D843     		mvns	r0, r3
 1412              	.LVL179:
 515:bq34z100.c    **** }
 1413              		.loc 1 515 0
 1414 0014 C0B2     		uxtb	r0, r0
 1415 0016 7047     		bx	lr
 1416              		.cfi_endproc
 1417              	.LFE577:
 1418              		.size	calcChecksum, .-calcChecksum
 1419              		.section	.text.BQ34Z100_UpdateChecksum,"ax",%progbits
 1420              		.align	2
 1421              		.global	BQ34Z100_UpdateChecksum
 1422              		.thumb
 1423              		.thumb_func
 1424              		.type	BQ34Z100_UpdateChecksum, %function
 1425              	BQ34Z100_UpdateChecksum:
 1426              	.LFB558:
 166:bq34z100.c    ****     uint8_t newChecksum = calcChecksum(device->flashbytes);
 1427              		.loc 1 166 0
 1428              		.cfi_startproc
 1429              		@ args = 0, pretend = 0, frame = 0
 1430              		@ frame_needed = 0, uses_anonymous_args = 0
 1431              	.LVL180:
 1432 0000 38B5     		push	{r3, r4, r5, lr}
 1433              		.cfi_def_cfa_offset 16
 1434              		.cfi_offset 3, -16
 1435              		.cfi_offset 4, -12
 1436              		.cfi_offset 5, -8
 1437              		.cfi_offset 14, -4
 1438 0002 0446     		mov	r4, r0
 167:bq34z100.c    **** 
 1439              		.loc 1 167 0
 1440 0004 FFF7FEFF 		bl	calcChecksum
 1441              	.LVL181:
 1442 0008 0546     		mov	r5, r0
 1443              	.LVL182:
 170:bq34z100.c    ****     printf("Writing new checksum for page %" PRIu8 " block %" PRIu8 ": 0x%" PRIx8 "\r\n",
 1444              		.loc 1 170 0
 1445 000a 0246     		mov	r2, r0
 1446 000c 6021     		movs	r1, #96
 1447 000e 2046     		mov	r0, r4
 1448              	.LVL183:
 1449 0010 FFF7FEFF 		bl	write
 1450              	.LVL184:
 171:bq34z100.c    ****            device->currFlashPage, device->currFlashBlockIndex, newChecksum);
 1451              		.loc 1 171 0
 1452 0014 2B46     		mov	r3, r5
 1453 0016 94F82120 		ldrb	r2, [r4, #33]	@ zero_extendqisi2
 1454 001a 94F82010 		ldrb	r1, [r4, #32]	@ zero_extendqisi2
 1455 001e 0348     		ldr	r0, .L95
 1456 0020 FFF7FEFF 		bl	printf
 1457              	.LVL185:
 174:bq34z100.c    **** }
 1458              		.loc 1 174 0
ARM GAS  C:\Users\shizh\AppData\Local\Temp\ccMQxVCk.s 			page 36


 1459 0024 3220     		movs	r0, #50
 1460 0026 FFF7FEFF 		bl	Cy_SysLib_Delay
 1461              	.LVL186:
 1462 002a 38BD     		pop	{r3, r4, r5, pc}
 1463              	.LVL187:
 1464              	.L96:
 1465              		.align	2
 1466              	.L95:
 1467 002c 18000000 		.word	.LC1
 1468              		.cfi_endproc
 1469              	.LFE558:
 1470              		.size	BQ34Z100_UpdateChecksum, .-BQ34Z100_UpdateChecksum
 1471              		.section	.text.BQ34Z100_ReadFlash,"ax",%progbits
 1472              		.align	2
 1473              		.global	BQ34Z100_ReadFlash
 1474              		.thumb
 1475              		.thumb_func
 1476              		.type	BQ34Z100_ReadFlash, %function
 1477              	BQ34Z100_ReadFlash:
 1478              	.LFB559:
 178:bq34z100.c    ****     char command = COMMAND_BLOCKDATA; // Command to read Data Flash
 1479              		.loc 1 178 0
 1480              		.cfi_startproc
 1481              		@ args = 0, pretend = 0, frame = 0
 1482              		@ frame_needed = 0, uses_anonymous_args = 0
 1483              	.LVL188:
 1484 0000 70B5     		push	{r4, r5, r6, lr}
 1485              		.cfi_def_cfa_offset 16
 1486              		.cfi_offset 4, -16
 1487              		.cfi_offset 5, -12
 1488              		.cfi_offset 6, -8
 1489              		.cfi_offset 14, -4
 1490 0002 0546     		mov	r5, r0
 1491              	.LVL189:
 182:bq34z100.c    ****         printf("A write error has occurred when transmitting address.\r\n");
 1492              		.loc 1 182 0
 1493 0004 0021     		movs	r1, #0
 1494 0006 AA20     		movs	r0, #170
 1495              	.LVL190:
 1496 0008 FFF7FEFF 		bl	I2C_MasterSendStart
 1497              	.LVL191:
 1498 000c 10B1     		cbz	r0, .L98
 183:bq34z100.c    ****         //return;
 1499              		.loc 1 183 0
 1500 000e 2548     		ldr	r0, .L109
 1501 0010 FFF7FEFF 		bl	puts
 1502              	.LVL192:
 1503              	.L98:
 186:bq34z100.c    ****     I2C_MasterSendStop();
 1504              		.loc 1 186 0
 1505 0014 4020     		movs	r0, #64
 1506 0016 FFF7FEFF 		bl	I2C_MasterWriteByte
 1507              	.LVL193:
 187:bq34z100.c    **** 
 1508              		.loc 1 187 0
 1509 001a FFF7FEFF 		bl	I2C_MasterSendStop
 1510              	.LVL194:
ARM GAS  C:\Users\shizh\AppData\Local\Temp\ccMQxVCk.s 			page 37


 190:bq34z100.c    ****         printf("A read error has occurred when setting read mode.\r\n");
 1511              		.loc 1 190 0
 1512 001e 0121     		movs	r1, #1
 1513 0020 AA20     		movs	r0, #170
 1514 0022 FFF7FEFF 		bl	I2C_MasterSendStart
 1515              	.LVL195:
 1516 0026 0646     		mov	r6, r0
 1517 0028 68B1     		cbz	r0, .L106
 191:bq34z100.c    ****         return;
 1518              		.loc 1 191 0
 1519 002a 1F48     		ldr	r0, .L109+4
 1520 002c FFF7FEFF 		bl	puts
 1521              	.LVL196:
 192:bq34z100.c    ****     }
 1522              		.loc 1 192 0
 1523 0030 70BD     		pop	{r4, r5, r6, pc}
 1524              	.LVL197:
 1525              	.L102:
 1526              	.LBB9:
 195:bq34z100.c    ****     }
 1527              		.loc 1 195 0
 1528 0032 1E2C     		cmp	r4, #30
 1529 0034 01DC     		bgt	.L107
 1530 0036 0120     		movs	r0, #1
 1531 0038 00E0     		b	.L101
 1532              	.L107:
 1533 003a 3046     		mov	r0, r6
 1534              	.L101:
 195:bq34z100.c    ****     }
 1535              		.loc 1 195 0 is_stmt 0 discriminator 4
 1536 003c FFF7FEFF 		bl	I2C_MasterReadByte
 1537              	.LVL198:
 1538 0040 2855     		strb	r0, [r5, r4]
 194:bq34z100.c    ****         device->flashbytes[i] = I2C_MasterReadByte((i < 31) ? I2C_ACK_DATA : I2C_NAK_DATA);
 1539              		.loc 1 194 0 is_stmt 1 discriminator 4
 1540 0042 0134     		adds	r4, r4, #1
 1541              	.LVL199:
 1542 0044 00E0     		b	.L99
 1543              	.LVL200:
 1544              	.L106:
 1545              	.LBE9:
 1546 0046 0024     		movs	r4, #0
 1547              	.L99:
 1548              	.LVL201:
 1549              	.LBB10:
 194:bq34z100.c    ****         device->flashbytes[i] = I2C_MasterReadByte((i < 31) ? I2C_ACK_DATA : I2C_NAK_DATA);
 1550              		.loc 1 194 0 is_stmt 0 discriminator 2
 1551 0048 1F2C     		cmp	r4, #31
 1552 004a F2DD     		ble	.L102
 1553              	.LBE10:
 197:bq34z100.c    **** 
 1554              		.loc 1 197 0 is_stmt 1
 1555 004c FFF7FEFF 		bl	I2C_MasterSendStop
 1556              	.LVL202:
 200:bq34z100.c    ****     uint8_t calculatedChecksum = calcChecksum(device->flashbytes);
 1557              		.loc 1 200 0
 1558 0050 0122     		movs	r2, #1
ARM GAS  C:\Users\shizh\AppData\Local\Temp\ccMQxVCk.s 			page 38


 1559 0052 6021     		movs	r1, #96
 1560 0054 2846     		mov	r0, r5
 1561 0056 FFF7FEFF 		bl	read
 1562              	.LVL203:
 1563 005a 0646     		mov	r6, r0
 1564 005c C4B2     		uxtb	r4, r0
 1565              	.LVL204:
 201:bq34z100.c    **** 
 1566              		.loc 1 201 0
 1567 005e 2846     		mov	r0, r5
 1568 0060 FFF7FEFF 		bl	calcChecksum
 1569              	.LVL205:
 203:bq34z100.c    ****         printf("ERROR: Checksum of flash memory block does not match. I2C read was likely corrupted
 1570              		.loc 1 203 0
 1571 0064 8442     		cmp	r4, r0
 1572 0066 02D0     		beq	.L103
 204:bq34z100.c    ****     }
 1573              		.loc 1 204 0
 1574 0068 1048     		ldr	r0, .L109+8
 1575              	.LVL206:
 1576 006a FFF7FEFF 		bl	puts
 1577              	.LVL207:
 1578              	.L103:
 207:bq34z100.c    ****     for (size_t byteIndex = 0; byteIndex < 32; ++byteIndex) {
 1579              		.loc 1 207 0
 1580 006e 95F82120 		ldrb	r2, [r5, #33]	@ zero_extendqisi2
 1581 0072 95F82010 		ldrb	r1, [r5, #32]	@ zero_extendqisi2
 1582 0076 0E48     		ldr	r0, .L109+12
 1583 0078 FFF7FEFF 		bl	printf
 1584              	.LVL208:
 1585              	.LBB11:
 208:bq34z100.c    ****         printf(" %" PRIx8, device->flashbytes[byteIndex]);
 1586              		.loc 1 208 0
 1587 007c 0024     		movs	r4, #0
 1588              	.LVL209:
 1589 007e 04E0     		b	.L104
 1590              	.LVL210:
 1591              	.L105:
 209:bq34z100.c    ****     }
 1592              		.loc 1 209 0 discriminator 3
 1593 0080 295D     		ldrb	r1, [r5, r4]	@ zero_extendqisi2
 1594 0082 0C48     		ldr	r0, .L109+16
 1595 0084 FFF7FEFF 		bl	printf
 1596              	.LVL211:
 208:bq34z100.c    ****         printf(" %" PRIx8, device->flashbytes[byteIndex]);
 1597              		.loc 1 208 0 discriminator 3
 1598 0088 0134     		adds	r4, r4, #1
 1599              	.LVL212:
 1600              	.L104:
 208:bq34z100.c    ****         printf(" %" PRIx8, device->flashbytes[byteIndex]);
 1601              		.loc 1 208 0 is_stmt 0 discriminator 1
 1602 008a 1F2C     		cmp	r4, #31
 1603 008c F8D9     		bls	.L105
 1604              	.LBE11:
 211:bq34z100.c    ****     printf("Checksum: 0x%" PRIx8 "\r\n", expectedChecksum);
 1605              		.loc 1 211 0 is_stmt 1
 1606 008e 0A48     		ldr	r0, .L109+20
ARM GAS  C:\Users\shizh\AppData\Local\Temp\ccMQxVCk.s 			page 39


 1607 0090 FFF7FEFF 		bl	puts
 1608              	.LVL213:
 212:bq34z100.c    **** 
 1609              		.loc 1 212 0
 1610 0094 F1B2     		uxtb	r1, r6
 1611 0096 0948     		ldr	r0, .L109+24
 1612 0098 FFF7FEFF 		bl	printf
 1613              	.LVL214:
 214:bq34z100.c    **** }
 1614              		.loc 1 214 0
 1615 009c 0A20     		movs	r0, #10
 1616 009e FFF7FEFF 		bl	Cy_SysLib_Delay
 1617              	.LVL215:
 1618 00a2 70BD     		pop	{r4, r5, r6, pc}
 1619              	.LVL216:
 1620              	.L110:
 1621              		.align	2
 1622              	.L109:
 1623 00a4 50000000 		.word	.LC2
 1624 00a8 88000000 		.word	.LC3
 1625 00ac BC000000 		.word	.LC4
 1626 00b0 14010000 		.word	.LC5
 1627 00b4 34010000 		.word	.LC6
 1628 00b8 3C010000 		.word	.LC7
 1629 00bc 40010000 		.word	.LC8
 1630              		.cfi_endproc
 1631              	.LFE559:
 1632              		.size	BQ34Z100_ReadFlash, .-BQ34Z100_ReadFlash
 1633              		.section	.text.BQ34Z100_ChangePage48,"ax",%progbits
 1634              		.align	2
 1635              		.global	BQ34Z100_ChangePage48
 1636              		.thumb
 1637              		.thumb_func
 1638              		.type	BQ34Z100_ChangePage48, %function
 1639              	BQ34Z100_ChangePage48:
 1640              	.LFB562:
 247:bq34z100.c    ****     BQ34Z100_ChangePage(device, 48, 0);
 1641              		.loc 1 247 0
 1642              		.cfi_startproc
 1643              		@ args = 0, pretend = 0, frame = 0
 1644              		@ frame_needed = 0, uses_anonymous_args = 0
 1645              	.LVL217:
 1646 0000 10B5     		push	{r4, lr}
 1647              		.cfi_def_cfa_offset 8
 1648              		.cfi_offset 4, -8
 1649              		.cfi_offset 14, -4
 1650 0002 0446     		mov	r4, r0
 248:bq34z100.c    ****     BQ34Z100_ReadFlash(device);
 1651              		.loc 1 248 0
 1652 0004 0022     		movs	r2, #0
 1653 0006 3021     		movs	r1, #48
 1654 0008 FFF7FEFF 		bl	BQ34Z100_ChangePage
 1655              	.LVL218:
 249:bq34z100.c    ****     BQ34Z100_WriteFlash(device, 11, DESIGNCAP, 2);
 1656              		.loc 1 249 0
 1657 000c 2046     		mov	r0, r4
 1658 000e FFF7FEFF 		bl	BQ34Z100_ReadFlash
ARM GAS  C:\Users\shizh\AppData\Local\Temp\ccMQxVCk.s 			page 40


 1659              	.LVL219:
 250:bq34z100.c    ****     BQ34Z100_WriteFlash(device, 13, DESIGNENERGY, 2);
 1660              		.loc 1 250 0
 1661 0012 0223     		movs	r3, #2
 1662 0014 4FF4AF62 		mov	r2, #1400
 1663 0018 0B21     		movs	r1, #11
 1664 001a 2046     		mov	r0, r4
 1665 001c FFF7FEFF 		bl	BQ34Z100_WriteFlash
 1666              	.LVL220:
 251:bq34z100.c    ****     BQ34Z100_UpdateChecksum(device);
 1667              		.loc 1 251 0
 1668 0020 0223     		movs	r3, #2
 1669 0022 41F23C42 		movw	r2, #5180
 1670 0026 0D21     		movs	r1, #13
 1671 0028 2046     		mov	r0, r4
 1672 002a FFF7FEFF 		bl	BQ34Z100_WriteFlash
 1673              	.LVL221:
 252:bq34z100.c    ****     CyDelay(300);  // Delay for 300ms for settings to take effect
 1674              		.loc 1 252 0
 1675 002e 2046     		mov	r0, r4
 1676 0030 FFF7FEFF 		bl	BQ34Z100_UpdateChecksum
 1677              	.LVL222:
 253:bq34z100.c    **** }
 1678              		.loc 1 253 0
 1679 0034 4FF49670 		mov	r0, #300
 1680 0038 FFF7FEFF 		bl	Cy_SysLib_Delay
 1681              	.LVL223:
 1682 003c 10BD     		pop	{r4, pc}
 1683              		.cfi_endproc
 1684              	.LFE562:
 1685              		.size	BQ34Z100_ChangePage48, .-BQ34Z100_ChangePage48
 1686 003e 00BF     		.section	.text.BQ34Z100_ChangePage64,"ax",%progbits
 1687              		.align	2
 1688              		.global	BQ34Z100_ChangePage64
 1689              		.thumb
 1690              		.thumb_func
 1691              		.type	BQ34Z100_ChangePage64, %function
 1692              	BQ34Z100_ChangePage64:
 1693              	.LFB563:
 257:bq34z100.c    ****     BQ34Z100_ChangePage(device, 64, 0);
 1694              		.loc 1 257 0
 1695              		.cfi_startproc
 1696              		@ args = 0, pretend = 0, frame = 0
 1697              		@ frame_needed = 0, uses_anonymous_args = 0
 1698              	.LVL224:
 1699 0000 38B5     		push	{r3, r4, r5, lr}
 1700              		.cfi_def_cfa_offset 16
 1701              		.cfi_offset 3, -16
 1702              		.cfi_offset 4, -12
 1703              		.cfi_offset 5, -8
 1704              		.cfi_offset 14, -4
 1705 0002 0446     		mov	r4, r0
 258:bq34z100.c    ****     BQ34Z100_ReadFlash(device);
 1706              		.loc 1 258 0
 1707 0004 0022     		movs	r2, #0
 1708 0006 4021     		movs	r1, #64
 1709 0008 FFF7FEFF 		bl	BQ34Z100_ChangePage
ARM GAS  C:\Users\shizh\AppData\Local\Temp\ccMQxVCk.s 			page 41


 1710              	.LVL225:
 259:bq34z100.c    **** 
 1711              		.loc 1 259 0
 1712 000c 2046     		mov	r0, r4
 1713 000e FFF7FEFF 		bl	BQ34Z100_ReadFlash
 1714              	.LVL226:
 261:bq34z100.c    ****     uint8_t packConfig_low = device->flashbytes[1];
 1715              		.loc 1 261 0
 1716 0012 2278     		ldrb	r2, [r4]	@ zero_extendqisi2
 1717              	.LVL227:
 262:bq34z100.c    **** 
 1718              		.loc 1 262 0
 1719 0014 6578     		ldrb	r5, [r4, #1]	@ zero_extendqisi2
 1720              	.LVL228:
 269:bq34z100.c    ****     packConfig_low |= USE_EXTERNAL_THERMISTOR;
 1721              		.loc 1 269 0
 1722 0016 05F0FE05 		and	r5, r5, #254
 1723              	.LVL229:
 272:bq34z100.c    ****     BQ34Z100_WriteFlash(device, 1, packConfig_low, 1);
 1724              		.loc 1 272 0
 1725 001a 0123     		movs	r3, #1
 1726 001c 42F04802 		orr	r2, r2, #72
 1727              	.LVL230:
 1728 0020 0021     		movs	r1, #0
 1729 0022 2046     		mov	r0, r4
 1730 0024 FFF7FEFF 		bl	BQ34Z100_WriteFlash
 1731              	.LVL231:
 273:bq34z100.c    **** 
 1732              		.loc 1 273 0
 1733 0028 0123     		movs	r3, #1
 1734 002a 2A46     		mov	r2, r5
 1735 002c 1946     		mov	r1, r3
 1736 002e 2046     		mov	r0, r4
 1737 0030 FFF7FEFF 		bl	BQ34Z100_WriteFlash
 1738              	.LVL232:
 275:bq34z100.c    ****     packConfigB &= ~1;  // Disable fast convergence
 1739              		.loc 1 275 0
 1740 0034 A278     		ldrb	r2, [r4, #2]	@ zero_extendqisi2
 1741              	.LVL233:
 277:bq34z100.c    **** 
 1742              		.loc 1 277 0
 1743 0036 0123     		movs	r3, #1
 1744 0038 02F0FE02 		and	r2, r2, #254
 1745              	.LVL234:
 1746 003c 0221     		movs	r1, #2
 1747 003e 2046     		mov	r0, r4
 1748 0040 FFF7FEFF 		bl	BQ34Z100_WriteFlash
 1749              	.LVL235:
 279:bq34z100.c    ****     BQ34Z100_WriteFlash(device, 7, 0x04, 1);  // Set number of cells
 1750              		.loc 1 279 0
 1751 0044 0123     		movs	r3, #1
 1752 0046 4B22     		movs	r2, #75
 1753 0048 0421     		movs	r1, #4
 1754 004a 2046     		mov	r0, r4
 1755 004c FFF7FEFF 		bl	BQ34Z100_WriteFlash
 1756              	.LVL236:
 280:bq34z100.c    ****     BQ34Z100_UpdateChecksum(device);
ARM GAS  C:\Users\shizh\AppData\Local\Temp\ccMQxVCk.s 			page 42


 1757              		.loc 1 280 0
 1758 0050 0123     		movs	r3, #1
 1759 0052 0422     		movs	r2, #4
 1760 0054 0721     		movs	r1, #7
 1761 0056 2046     		mov	r0, r4
 1762 0058 FFF7FEFF 		bl	BQ34Z100_WriteFlash
 1763              	.LVL237:
 281:bq34z100.c    ****     CyDelay(300);
 1764              		.loc 1 281 0
 1765 005c 2046     		mov	r0, r4
 1766 005e FFF7FEFF 		bl	BQ34Z100_UpdateChecksum
 1767              	.LVL238:
 282:bq34z100.c    **** }
 1768              		.loc 1 282 0
 1769 0062 4FF49670 		mov	r0, #300
 1770 0066 FFF7FEFF 		bl	Cy_SysLib_Delay
 1771              	.LVL239:
 1772 006a 38BD     		pop	{r3, r4, r5, pc}
 1773              		.cfi_endproc
 1774              	.LFE563:
 1775              		.size	BQ34Z100_ChangePage64, .-BQ34Z100_ChangePage64
 1776              		.section	.text.BQ34Z100_ChangePage80,"ax",%progbits
 1777              		.align	2
 1778              		.global	BQ34Z100_ChangePage80
 1779              		.thumb
 1780              		.thumb_func
 1781              		.type	BQ34Z100_ChangePage80, %function
 1782              	BQ34Z100_ChangePage80:
 1783              	.LFB564:
 286:bq34z100.c    ****     BQ34Z100_ChangePage(device, 80, 0);
 1784              		.loc 1 286 0
 1785              		.cfi_startproc
 1786              		@ args = 0, pretend = 0, frame = 0
 1787              		@ frame_needed = 0, uses_anonymous_args = 0
 1788              	.LVL240:
 1789 0000 10B5     		push	{r4, lr}
 1790              		.cfi_def_cfa_offset 8
 1791              		.cfi_offset 4, -8
 1792              		.cfi_offset 14, -4
 1793 0002 0446     		mov	r4, r0
 287:bq34z100.c    ****     BQ34Z100_ReadFlash(device);
 1794              		.loc 1 287 0
 1795 0004 0022     		movs	r2, #0
 1796 0006 5021     		movs	r1, #80
 1797 0008 FFF7FEFF 		bl	BQ34Z100_ChangePage
 1798              	.LVL241:
 288:bq34z100.c    **** 
 1799              		.loc 1 288 0
 1800 000c 2046     		mov	r0, r4
 1801 000e FFF7FEFF 		bl	BQ34Z100_ReadFlash
 1802              	.LVL242:
 290:bq34z100.c    ****     BQ34Z100_WriteFlash(device, 1, LOADMODE, 1);
 1803              		.loc 1 290 0
 1804 0012 0123     		movs	r3, #1
 1805 0014 1A46     		mov	r2, r3
 1806 0016 0021     		movs	r1, #0
 1807 0018 2046     		mov	r0, r4
ARM GAS  C:\Users\shizh\AppData\Local\Temp\ccMQxVCk.s 			page 43


 1808 001a FFF7FEFF 		bl	BQ34Z100_WriteFlash
 1809              	.LVL243:
 291:bq34z100.c    ****     BQ34Z100_WriteFlash(device, 10, 10, 2);
 1810              		.loc 1 291 0
 1811 001e 0123     		movs	r3, #1
 1812 0020 0022     		movs	r2, #0
 1813 0022 1946     		mov	r1, r3
 1814 0024 2046     		mov	r0, r4
 1815 0026 FFF7FEFF 		bl	BQ34Z100_WriteFlash
 1816              	.LVL244:
 292:bq34z100.c    ****     BQ34Z100_UpdateChecksum(device);
 1817              		.loc 1 292 0
 1818 002a 0223     		movs	r3, #2
 1819 002c 0A22     		movs	r2, #10
 1820 002e 1146     		mov	r1, r2
 1821 0030 2046     		mov	r0, r4
 1822 0032 FFF7FEFF 		bl	BQ34Z100_WriteFlash
 1823              	.LVL245:
 293:bq34z100.c    ****     CyDelay(300);
 1824              		.loc 1 293 0
 1825 0036 2046     		mov	r0, r4
 1826 0038 FFF7FEFF 		bl	BQ34Z100_UpdateChecksum
 1827              	.LVL246:
 294:bq34z100.c    **** 
 1828              		.loc 1 294 0
 1829 003c 4FF49670 		mov	r0, #300
 1830 0040 FFF7FEFF 		bl	Cy_SysLib_Delay
 1831              	.LVL247:
 296:bq34z100.c    ****     BQ34Z100_ReadFlash(device);
 1832              		.loc 1 296 0
 1833 0044 3522     		movs	r2, #53
 1834 0046 5021     		movs	r1, #80
 1835 0048 2046     		mov	r0, r4
 1836 004a FFF7FEFF 		bl	BQ34Z100_ChangePage
 1837              	.LVL248:
 297:bq34z100.c    **** 
 1838              		.loc 1 297 0
 1839 004e 2046     		mov	r0, r4
 1840 0050 FFF7FEFF 		bl	BQ34Z100_ReadFlash
 1841              	.LVL249:
 299:bq34z100.c    ****     BQ34Z100_UpdateChecksum(device);
 1842              		.loc 1 299 0
 1843 0054 0223     		movs	r3, #2
 1844 0056 40F62F52 		movw	r2, #3375
 1845 005a 3521     		movs	r1, #53
 1846 005c 2046     		mov	r0, r4
 1847 005e FFF7FEFF 		bl	BQ34Z100_WriteFlash
 1848              	.LVL250:
 300:bq34z100.c    ****     CyDelay(300);
 1849              		.loc 1 300 0
 1850 0062 2046     		mov	r0, r4
 1851 0064 FFF7FEFF 		bl	BQ34Z100_UpdateChecksum
 1852              	.LVL251:
 301:bq34z100.c    **** }
 1853              		.loc 1 301 0
 1854 0068 4FF49670 		mov	r0, #300
 1855 006c FFF7FEFF 		bl	Cy_SysLib_Delay
ARM GAS  C:\Users\shizh\AppData\Local\Temp\ccMQxVCk.s 			page 44


 1856              	.LVL252:
 1857 0070 10BD     		pop	{r4, pc}
 1858              		.cfi_endproc
 1859              	.LFE564:
 1860              		.size	BQ34Z100_ChangePage80, .-BQ34Z100_ChangePage80
 1861 0072 00BF     		.section	.text.BQ34Z100_ChangePage82,"ax",%progbits
 1862              		.align	2
 1863              		.global	BQ34Z100_ChangePage82
 1864              		.thumb
 1865              		.thumb_func
 1866              		.type	BQ34Z100_ChangePage82, %function
 1867              	BQ34Z100_ChangePage82:
 1868              	.LFB565:
 305:bq34z100.c    ****     BQ34Z100_ChangePage(device, 82, 0);
 1869              		.loc 1 305 0
 1870              		.cfi_startproc
 1871              		@ args = 0, pretend = 0, frame = 0
 1872              		@ frame_needed = 0, uses_anonymous_args = 0
 1873              	.LVL253:
 1874 0000 10B5     		push	{r4, lr}
 1875              		.cfi_def_cfa_offset 8
 1876              		.cfi_offset 4, -8
 1877              		.cfi_offset 14, -4
 1878 0002 0446     		mov	r4, r0
 306:bq34z100.c    ****     BQ34Z100_ReadFlash(device);
 1879              		.loc 1 306 0
 1880 0004 0022     		movs	r2, #0
 1881 0006 5221     		movs	r1, #82
 1882 0008 FFF7FEFF 		bl	BQ34Z100_ChangePage
 1883              	.LVL254:
 307:bq34z100.c    ****     BQ34Z100_WriteFlash(device, 0, QMAX0, 2);
 1884              		.loc 1 307 0
 1885 000c 2046     		mov	r0, r4
 1886 000e FFF7FEFF 		bl	BQ34Z100_ReadFlash
 1887              	.LVL255:
 308:bq34z100.c    ****     BQ34Z100_UpdateChecksum(device);
 1888              		.loc 1 308 0
 1889 0012 0223     		movs	r3, #2
 1890 0014 4FF4AF62 		mov	r2, #1400
 1891 0018 0021     		movs	r1, #0
 1892 001a 2046     		mov	r0, r4
 1893 001c FFF7FEFF 		bl	BQ34Z100_WriteFlash
 1894              	.LVL256:
 309:bq34z100.c    ****     CyDelay(300);
 1895              		.loc 1 309 0
 1896 0020 2046     		mov	r0, r4
 1897 0022 FFF7FEFF 		bl	BQ34Z100_UpdateChecksum
 1898              	.LVL257:
 310:bq34z100.c    **** }
 1899              		.loc 1 310 0
 1900 0026 4FF49670 		mov	r0, #300
 1901 002a FFF7FEFF 		bl	Cy_SysLib_Delay
 1902              	.LVL258:
 1903 002e 10BD     		pop	{r4, pc}
 1904              		.cfi_endproc
 1905              	.LFE565:
 1906              		.size	BQ34Z100_ChangePage82, .-BQ34Z100_ChangePage82
ARM GAS  C:\Users\shizh\AppData\Local\Temp\ccMQxVCk.s 			page 45


 1907              		.section	.text.BQ34Z100_CalibrateVoltage,"ax",%progbits
 1908              		.align	2
 1909              		.global	BQ34Z100_CalibrateVoltage
 1910              		.thumb
 1911              		.thumb_func
 1912              		.type	BQ34Z100_CalibrateVoltage, %function
 1913              	BQ34Z100_CalibrateVoltage:
 1914              	.LFB566:
 313:bq34z100.c    ****     BQ34Z100_ChangePage(device, 104, 0);
 1915              		.loc 1 313 0
 1916              		.cfi_startproc
 1917              		@ args = 0, pretend = 0, frame = 8
 1918              		@ frame_needed = 0, uses_anonymous_args = 0
 1919              	.LVL259:
 1920 0000 2DE9F041 		push	{r4, r5, r6, r7, r8, lr}
 1921              		.cfi_def_cfa_offset 24
 1922              		.cfi_offset 4, -24
 1923              		.cfi_offset 5, -20
 1924              		.cfi_offset 6, -16
 1925              		.cfi_offset 7, -12
 1926              		.cfi_offset 8, -8
 1927              		.cfi_offset 14, -4
 1928 0004 2DED048B 		vpush.64	{d8, d9}
 1929              		.cfi_def_cfa_offset 40
 1930              		.cfi_offset 80, -40
 1931              		.cfi_offset 81, -36
 1932              		.cfi_offset 82, -32
 1933              		.cfi_offset 83, -28
 1934 0008 82B0     		sub	sp, sp, #8
 1935              		.cfi_def_cfa_offset 48
 1936 000a 0446     		mov	r4, r0
 1937 000c 08EE101A 		vmov	s16, r1	@ int
 314:bq34z100.c    ****     BQ34Z100_ReadFlash(device);
 1938              		.loc 1 314 0
 1939 0010 0022     		movs	r2, #0
 1940 0012 6821     		movs	r1, #104
 1941              	.LVL260:
 1942 0014 FFF7FEFF 		bl	BQ34Z100_ChangePage
 1943              	.LVL261:
 315:bq34z100.c    **** 
 1944              		.loc 1 315 0
 1945 0018 2046     		mov	r0, r4
 1946 001a FFF7FEFF 		bl	BQ34Z100_ReadFlash
 1947              	.LVL262:
 318:bq34z100.c    ****     flashVoltage |= (uint16_t)(device->flashbytes[15]);
 1948              		.loc 1 318 0
 1949 001e A57B     		ldrb	r5, [r4, #14]	@ zero_extendqisi2
 1950              	.LVL263:
 319:bq34z100.c    **** 
 1951              		.loc 1 319 0
 1952 0020 E37B     		ldrb	r3, [r4, #15]	@ zero_extendqisi2
 1953 0022 43EA0525 		orr	r5, r3, r5, lsl #8
 1954              	.LVL264:
 321:bq34z100.c    ****     float newSetting = ((float)(currentVoltage) / readVoltage) * (float)(flashVoltage);
 1955              		.loc 1 321 0
 1956 0026 2046     		mov	r0, r4
 1957 0028 FFF7FEFF 		bl	BQ34Z100_GetVoltage
ARM GAS  C:\Users\shizh\AppData\Local\Temp\ccMQxVCk.s 			page 46


 1958              	.LVL265:
 1959 002c 07EE900A 		vmov	s15, r0	@ int
 1960 0030 F8EE678A 		vcvt.f32.u32	s17, s15
 1961              	.LVL266:
 322:bq34z100.c    ****     uint16_t writeSetting; // This 2-byte integer will be written to the chip
 1962              		.loc 1 322 0
 1963 0034 B8EE488A 		vcvt.f32.u32	s16, s16
 1964 0038 88EE289A 		vdiv.f32	s18, s16, s17
 1965 003c 07EE905A 		vmov	s15, r5	@ int
 1966 0040 F8EE677A 		vcvt.f32.u32	s15, s15
 1967 0044 69EE277A 		vmul.f32	s15, s18, s15
 1968              	.LVL267:
 324:bq34z100.c    ****         writeSetting = 65535;
 1969              		.loc 1 324 0
 1970 0048 9FED377A 		vldr.32	s14, .L124
 1971 004c F4EEC77A 		vcmpe.f32	s15, s14
 1972 0050 F1EE10FA 		vmrs	APSR_nzcv, FPSCR
 1973 0054 0BDC     		bgt	.L121
 326:bq34z100.c    ****         writeSetting = 0;
 1974              		.loc 1 326 0
 1975 0056 F5EEC07A 		vcmpe.f32	s15, #0
 1976 005a F1EE10FA 		vmrs	APSR_nzcv, FPSCR
 1977 005e 09D4     		bmi	.L122
 329:bq34z100.c    ****     }
 1978              		.loc 1 329 0
 1979 0060 FCEEE77A 		vcvt.u32.f32	s15, s15
 1980              	.LVL268:
 1981 0064 CDED017A 		vstr.32	s15, [sp, #4]	@ int
 1982 0068 BDF80460 		ldrh	r6, [sp, #4]
 1983              	.LVL269:
 1984 006c 03E0     		b	.L120
 1985              	.LVL270:
 1986              	.L121:
 325:bq34z100.c    ****     } else if (newSetting < 0.0f) {
 1987              		.loc 1 325 0
 1988 006e 4FF6FF76 		movw	r6, #65535
 1989 0072 00E0     		b	.L120
 1990              	.L122:
 327:bq34z100.c    ****     } else {
 1991              		.loc 1 327 0
 1992 0074 0026     		movs	r6, #0
 1993              	.LVL271:
 1994              	.L120:
 331:bq34z100.c    ****     BQ34Z100_UpdateChecksum(device);
 1995              		.loc 1 331 0
 1996 0076 0223     		movs	r3, #2
 1997 0078 3246     		mov	r2, r6
 1998 007a 0E21     		movs	r1, #14
 1999 007c 2046     		mov	r0, r4
 2000 007e FFF7FEFF 		bl	BQ34Z100_WriteFlash
 2001              	.LVL272:
 332:bq34z100.c    ****     CyDelay(10); // Delay for 10ms
 2002              		.loc 1 332 0
 2003 0082 2046     		mov	r0, r4
 2004 0084 FFF7FEFF 		bl	BQ34Z100_UpdateChecksum
 2005              	.LVL273:
 333:bq34z100.c    **** 
ARM GAS  C:\Users\shizh\AppData\Local\Temp\ccMQxVCk.s 			page 47


 2006              		.loc 1 333 0
 2007 0088 0A20     		movs	r0, #10
 2008 008a FFF7FEFF 		bl	Cy_SysLib_Delay
 2009              	.LVL274:
 336:bq34z100.c    ****     BQ34Z100_ReadFlash(device);
 2010              		.loc 1 336 0
 2011 008e 0022     		movs	r2, #0
 2012 0090 4421     		movs	r1, #68
 2013 0092 2046     		mov	r0, r4
 2014 0094 FFF7FEFF 		bl	BQ34Z100_ChangePage
 2015              	.LVL275:
 337:bq34z100.c    **** 
 2016              		.loc 1 337 0
 2017 0098 2046     		mov	r0, r4
 2018 009a FFF7FEFF 		bl	BQ34Z100_ReadFlash
 2019              	.LVL276:
 340:bq34z100.c    ****     oldUpdateOK |= device->flashbytes[1];
 2020              		.loc 1 340 0
 2021 009e 2378     		ldrb	r3, [r4]	@ zero_extendqisi2
 2022 00a0 1B02     		lsls	r3, r3, #8
 2023 00a2 1BB2     		sxth	r3, r3
 2024              	.LVL277:
 341:bq34z100.c    **** 
 2025              		.loc 1 341 0
 2026 00a4 6778     		ldrb	r7, [r4, #1]	@ zero_extendqisi2
 2027 00a6 1F43     		orrs	r7, r7, r3
 2028              	.LVL278:
 343:bq34z100.c    ****     printf("Changing Flash Update OK Voltage from %" PRIi16 " to %" PRIi16 "\r\n", oldUpdateOK, new
 2029              		.loc 1 343 0
 2030 00a8 07EE906A 		vmov	s15, r6	@ int
 2031 00ac F8EEE77A 		vcvt.f32.s32	s15, s15
 2032 00b0 DFED1E6A 		vldr.32	s13, .L124+4
 2033 00b4 86EEA77A 		vdiv.f32	s14, s13, s15
 2034 00b8 DFED1D7A 		vldr.32	s15, .L124+8
 2035 00bc 67EE277A 		vmul.f32	s15, s14, s15
 2036 00c0 17EE900A 		vmov	r0, s15
 2037 00c4 FFF7FEFF 		bl	__aeabi_f2d
 2038              	.LVL279:
 2039 00c8 FFF7FEFF 		bl	round
 2040              	.LVL280:
 2041 00cc FFF7FEFF 		bl	__aeabi_d2iz
 2042              	.LVL281:
 2043 00d0 0FFA80F8 		sxth	r8, r0
 2044              	.LVL282:
 344:bq34z100.c    **** 
 2045              		.loc 1 344 0
 2046 00d4 4246     		mov	r2, r8
 2047 00d6 3946     		mov	r1, r7
 2048 00d8 1648     		ldr	r0, .L124+12
 2049 00da FFF7FEFF 		bl	printf
 2050              	.LVL283:
 346:bq34z100.c    ****     BQ34Z100_UpdateChecksum(device);
 2051              		.loc 1 346 0
 2052 00de 0223     		movs	r3, #2
 2053 00e0 4246     		mov	r2, r8
 2054 00e2 0021     		movs	r1, #0
 2055 00e4 2046     		mov	r0, r4
ARM GAS  C:\Users\shizh\AppData\Local\Temp\ccMQxVCk.s 			page 48


 2056 00e6 FFF7FEFF 		bl	BQ34Z100_WriteFlash
 2057              	.LVL284:
 347:bq34z100.c    **** 
 2058              		.loc 1 347 0
 2059 00ea 2046     		mov	r0, r4
 2060 00ec FFF7FEFF 		bl	BQ34Z100_UpdateChecksum
 2061              	.LVL285:
 350:bq34z100.c    ****     printf("New Ratio: %f\r\n", ((float)(currentVoltage) / readVoltage));
 2062              		.loc 1 350 0
 2063 00f0 2946     		mov	r1, r5
 2064 00f2 1148     		ldr	r0, .L124+16
 2065 00f4 FFF7FEFF 		bl	printf
 2066              	.LVL286:
 351:bq34z100.c    ****     printf("READ VOLTAGE (mv): %f\r\n", readVoltage);
 2067              		.loc 1 351 0
 2068 00f8 19EE100A 		vmov	r0, s18
 2069 00fc FFF7FEFF 		bl	__aeabi_f2d
 2070              	.LVL287:
 2071 0100 0246     		mov	r2, r0
 2072 0102 0B46     		mov	r3, r1
 2073 0104 0D48     		ldr	r0, .L124+20
 2074 0106 FFF7FEFF 		bl	printf
 2075              	.LVL288:
 352:bq34z100.c    ****     return writeSetting;
 2076              		.loc 1 352 0
 2077 010a 18EE900A 		vmov	r0, s17
 2078 010e FFF7FEFF 		bl	__aeabi_f2d
 2079              	.LVL289:
 2080 0112 0246     		mov	r2, r0
 2081 0114 0B46     		mov	r3, r1
 2082 0116 0A48     		ldr	r0, .L124+24
 2083 0118 FFF7FEFF 		bl	printf
 2084              	.LVL290:
 354:bq34z100.c    **** 
 2085              		.loc 1 354 0
 2086 011c 3046     		mov	r0, r6
 2087 011e 02B0     		add	sp, sp, #8
 2088              		.cfi_def_cfa_offset 40
 2089              		@ sp needed
 2090 0120 BDEC048B 		vldm	sp!, {d8-d9}
 2091              		.cfi_restore 82
 2092              		.cfi_restore 83
 2093              		.cfi_restore 80
 2094              		.cfi_restore 81
 2095              		.cfi_def_cfa_offset 24
 2096              	.LVL291:
 2097 0124 BDE8F081 		pop	{r4, r5, r6, r7, r8, pc}
 2098              	.LVL292:
 2099              	.L125:
 2100              		.align	2
 2101              	.L124:
 2102 0128 00FF7F47 		.word	1199570688
 2103 012c 00409C45 		.word	1167867904
 2104 0130 00002F46 		.word	1177485312
 2105 0134 54010000 		.word	.LC9
 2106 0138 88010000 		.word	.LC10
 2107 013c AC010000 		.word	.LC11
ARM GAS  C:\Users\shizh\AppData\Local\Temp\ccMQxVCk.s 			page 49


 2108 0140 BC010000 		.word	.LC12
 2109              		.cfi_endproc
 2110              	.LFE566:
 2111              		.size	BQ34Z100_CalibrateVoltage, .-BQ34Z100_CalibrateVoltage
 2112              		.section	.text.BQ34Z100_ResetVoltageDivider,"ax",%progbits
 2113              		.align	2
 2114              		.global	BQ34Z100_ResetVoltageDivider
 2115              		.thumb
 2116              		.thumb_func
 2117              		.type	BQ34Z100_ResetVoltageDivider, %function
 2118              	BQ34Z100_ResetVoltageDivider:
 2119              	.LFB567:
 356:bq34z100.c    ****     BQ34Z100_ChangePage(device, 104, 0); // Change to page 104, offset 0
 2120              		.loc 1 356 0
 2121              		.cfi_startproc
 2122              		@ args = 0, pretend = 0, frame = 0
 2123              		@ frame_needed = 0, uses_anonymous_args = 0
 2124              	.LVL293:
 2125 0000 10B5     		push	{r4, lr}
 2126              		.cfi_def_cfa_offset 8
 2127              		.cfi_offset 4, -8
 2128              		.cfi_offset 14, -4
 2129 0002 0446     		mov	r4, r0
 357:bq34z100.c    ****     BQ34Z100_ReadFlash(device); // Read current settings from flash
 2130              		.loc 1 357 0
 2131 0004 0022     		movs	r2, #0
 2132 0006 6821     		movs	r1, #104
 2133 0008 FFF7FEFF 		bl	BQ34Z100_ChangePage
 2134              	.LVL294:
 358:bq34z100.c    ****     BQ34Z100_WriteFlash(device, 14, RESETVOLTAGE, 2); // Write the RESETVOLTAGE value to the approp
 2135              		.loc 1 358 0
 2136 000c 2046     		mov	r0, r4
 2137 000e FFF7FEFF 		bl	BQ34Z100_ReadFlash
 2138              	.LVL295:
 359:bq34z100.c    ****     BQ34Z100_UpdateChecksum(device); // Update checksum to ensure data integrity
 2139              		.loc 1 359 0
 2140 0012 0223     		movs	r3, #2
 2141 0014 45F2B862 		movw	r2, #22200
 2142 0018 0E21     		movs	r1, #14
 2143 001a 2046     		mov	r0, r4
 2144 001c FFF7FEFF 		bl	BQ34Z100_WriteFlash
 2145              	.LVL296:
 360:bq34z100.c    ****     CyDelay(300); // Wait for 300ms for settings to take effect
 2146              		.loc 1 360 0
 2147 0020 2046     		mov	r0, r4
 2148 0022 FFF7FEFF 		bl	BQ34Z100_UpdateChecksum
 2149              	.LVL297:
 361:bq34z100.c    **** }
 2150              		.loc 1 361 0
 2151 0026 4FF49670 		mov	r0, #300
 2152 002a FFF7FEFF 		bl	Cy_SysLib_Delay
 2153              	.LVL298:
 2154 002e 10BD     		pop	{r4, pc}
 2155              		.cfi_endproc
 2156              	.LFE567:
 2157              		.size	BQ34Z100_ResetVoltageDivider, .-BQ34Z100_ResetVoltageDivider
 2158              		.section	.text.BQ34Z100_CalibrateShunt,"ax",%progbits
ARM GAS  C:\Users\shizh\AppData\Local\Temp\ccMQxVCk.s 			page 50


 2159              		.align	2
 2160              		.global	BQ34Z100_CalibrateShunt
 2161              		.thumb
 2162              		.thumb_func
 2163              		.type	BQ34Z100_CalibrateShunt, %function
 2164              	BQ34Z100_CalibrateShunt:
 2165              	.LFB568:
 364:bq34z100.c    ****     if (calCurrent < 0) calCurrent = -calCurrent;
 2166              		.loc 1 364 0
 2167              		.cfi_startproc
 2168              		@ args = 0, pretend = 0, frame = 0
 2169              		@ frame_needed = 0, uses_anonymous_args = 0
 2170              	.LVL299:
 2171 0000 2DE9F04F 		push	{r4, r5, r6, r7, r8, r9, r10, fp, lr}
 2172              		.cfi_def_cfa_offset 36
 2173              		.cfi_offset 4, -36
 2174              		.cfi_offset 5, -32
 2175              		.cfi_offset 6, -28
 2176              		.cfi_offset 7, -24
 2177              		.cfi_offset 8, -20
 2178              		.cfi_offset 9, -16
 2179              		.cfi_offset 10, -12
 2180              		.cfi_offset 11, -8
 2181              		.cfi_offset 14, -4
 2182 0004 2DED048B 		vpush.64	{d8, d9}
 2183              		.cfi_def_cfa_offset 52
 2184              		.cfi_offset 80, -52
 2185              		.cfi_offset 81, -48
 2186              		.cfi_offset 82, -44
 2187              		.cfi_offset 83, -40
 2188 0008 89B0     		sub	sp, sp, #36
 2189              		.cfi_def_cfa_offset 88
 2190 000a 0446     		mov	r4, r0
 365:bq34z100.c    **** 
 2191              		.loc 1 365 0
 2192 000c 0F1E     		subs	r7, r1, #0
 2193 000e 01DA     		bge	.L129
 365:bq34z100.c    **** 
 2194              		.loc 1 365 0 is_stmt 0 discriminator 1
 2195 0010 7F42     		negs	r7, r7
 2196 0012 3FB2     		sxth	r7, r7
 2197              	.LVL300:
 2198              	.L129:
 367:bq34z100.c    ****     if (currentReading < 0) currentReading = -currentReading;
 2199              		.loc 1 367 0 is_stmt 1
 2200 0014 2046     		mov	r0, r4
 2201              	.LVL301:
 2202 0016 FFF7FEFF 		bl	BQ34Z100_GetCurrent
 2203              	.LVL302:
 368:bq34z100.c    **** 
 2204              		.loc 1 368 0
 2205 001a 061E     		subs	r6, r0, #0
 2206 001c 01DA     		bge	.L130
 368:bq34z100.c    **** 
 2207              		.loc 1 368 0 is_stmt 0 discriminator 1
 2208 001e 7642     		negs	r6, r6
 2209 0020 36B2     		sxth	r6, r6
ARM GAS  C:\Users\shizh\AppData\Local\Temp\ccMQxVCk.s 			page 51


 2210              	.LVL303:
 2211              	.L130:
 370:bq34z100.c    ****     BQ34Z100_ReadFlash(device); // Read current settings from flash
 2212              		.loc 1 370 0 is_stmt 1
 2213 0022 0022     		movs	r2, #0
 2214 0024 6821     		movs	r1, #104
 2215 0026 2046     		mov	r0, r4
 2216 0028 FFF7FEFF 		bl	BQ34Z100_ChangePage
 2217              	.LVL304:
 371:bq34z100.c    ****     CyDelay(30); // Wait for 30ms
 2218              		.loc 1 371 0
 2219 002c 2046     		mov	r0, r4
 2220 002e FFF7FEFF 		bl	BQ34Z100_ReadFlash
 2221              	.LVL305:
 372:bq34z100.c    **** 
 2222              		.loc 1 372 0
 2223 0032 1E20     		movs	r0, #30
 2224 0034 FFF7FEFF 		bl	Cy_SysLib_Delay
 2225              	.LVL306:
 375:bq34z100.c    ****                              ((uint32_t)device->flashbytes[2] << 8) | (uint32_t)device->flashbytes[
 2226              		.loc 1 375 0
 2227 0038 2278     		ldrb	r2, [r4]	@ zero_extendqisi2
 2228 003a 6378     		ldrb	r3, [r4, #1]	@ zero_extendqisi2
 2229 003c 1B04     		lsls	r3, r3, #16
 2230 003e 43EA0263 		orr	r3, r3, r2, lsl #24
 376:bq34z100.c    ****     float currentGainResistance = (4.768f / xemicsToFloat(currentGainDF));
 2231              		.loc 1 376 0
 2232 0042 A278     		ldrb	r2, [r4, #2]	@ zero_extendqisi2
 375:bq34z100.c    ****                              ((uint32_t)device->flashbytes[2] << 8) | (uint32_t)device->flashbytes[
 2233              		.loc 1 375 0
 2234 0044 43EA0223 		orr	r3, r3, r2, lsl #8
 376:bq34z100.c    ****     float currentGainResistance = (4.768f / xemicsToFloat(currentGainDF));
 2235              		.loc 1 376 0
 2236 0048 E578     		ldrb	r5, [r4, #3]	@ zero_extendqisi2
 375:bq34z100.c    ****                              ((uint32_t)device->flashbytes[2] << 8) | (uint32_t)device->flashbytes[
 2237              		.loc 1 375 0
 2238 004a 1D43     		orrs	r5, r5, r3
 2239              	.LVL307:
 377:bq34z100.c    **** 
 2240              		.loc 1 377 0
 2241 004c 2846     		mov	r0, r5
 2242 004e FFF7FEFF 		bl	xemicsToFloat
 2243              	.LVL308:
 2244 0052 DFED3D7A 		vldr.32	s15, .L132+8
 2245 0056 07EE100A 		vmov	s14, r0
 2246 005a C7EE878A 		vdiv.f32	s17, s15, s14
 2247              	.LVL309:
 379:bq34z100.c    ****                               ((uint32_t)device->flashbytes[6] << 8) | (uint32_t)device->flashbytes
 2248              		.loc 1 379 0
 2249 005e 2279     		ldrb	r2, [r4, #4]	@ zero_extendqisi2
 2250 0060 6379     		ldrb	r3, [r4, #5]	@ zero_extendqisi2
 2251 0062 1B04     		lsls	r3, r3, #16
 2252 0064 43EA0263 		orr	r3, r3, r2, lsl #24
 380:bq34z100.c    ****     float currentDeltaResistance = (5677445 / xemicsToFloat(currentGainDF));
 2253              		.loc 1 380 0
 2254 0068 A279     		ldrb	r2, [r4, #6]	@ zero_extendqisi2
 379:bq34z100.c    ****                               ((uint32_t)device->flashbytes[6] << 8) | (uint32_t)device->flashbytes
ARM GAS  C:\Users\shizh\AppData\Local\Temp\ccMQxVCk.s 			page 52


 2255              		.loc 1 379 0
 2256 006a 43EA0223 		orr	r3, r3, r2, lsl #8
 380:bq34z100.c    ****     float currentDeltaResistance = (5677445 / xemicsToFloat(currentGainDF));
 2257              		.loc 1 380 0
 2258 006e 94F80780 		ldrb	r8, [r4, #7]	@ zero_extendqisi2
 379:bq34z100.c    ****                               ((uint32_t)device->flashbytes[6] << 8) | (uint32_t)device->flashbytes
 2259              		.loc 1 379 0
 2260 0072 43EA0808 		orr	r8, r3, r8
 2261              	.LVL310:
 381:bq34z100.c    **** 
 2262              		.loc 1 381 0
 2263 0076 2846     		mov	r0, r5
 2264 0078 FFF7FEFF 		bl	xemicsToFloat
 2265              	.LVL311:
 2266 007c 9FED339A 		vldr.32	s18, .L132+12
 2267 0080 07EE900A 		vmov	s15, r0
 2268 0084 C9EE279A 		vdiv.f32	s19, s18, s15
 2269              	.LVL312:
 383:bq34z100.c    **** 
 2270              		.loc 1 383 0
 2271 0088 07EE906A 		vmov	s15, r6	@ int
 2272 008c F8EEE77A 		vcvt.f32.s32	s15, s15
 2273 0090 07EE107A 		vmov	s14, r7	@ int
 2274 0094 B8EEC77A 		vcvt.f32.s32	s14, s14
 2275 0098 87EE878A 		vdiv.f32	s16, s15, s14
 2276 009c 28EE888A 		vmul.f32	s16, s17, s16
 2277              	.LVL313:
 385:bq34z100.c    ****     float DeltaDF = floatToXemics(5677445 / newGain);
 2278              		.loc 1 385 0
 2279 00a0 18EE100A 		vmov	r0, s16
 2280 00a4 FFF7FEFF 		bl	__aeabi_f2d
 2281              	.LVL314:
 2282 00a8 8246     		mov	r10, r0
 2283 00aa 8B46     		mov	fp, r1
 2284 00ac 0246     		mov	r2, r0
 2285 00ae 0B46     		mov	r3, r1
 2286 00b0 23A1     		adr	r1, .L132
 2287 00b2 D1E90001 		ldrd	r0, [r1]
 2288 00b6 FFF7FEFF 		bl	__aeabi_ddiv
 2289              	.LVL315:
 2290 00ba FFF7FEFF 		bl	__aeabi_d2f
 2291              	.LVL316:
 2292 00be FFF7FEFF 		bl	floatToXemics
 2293              	.LVL317:
 2294 00c2 8146     		mov	r9, r0
 2295              	.LVL318:
 386:bq34z100.c    **** 
 2296              		.loc 1 386 0
 2297 00c4 C9EE087A 		vdiv.f32	s15, s18, s16
 2298 00c8 17EE900A 		vmov	r0, s15
 2299              	.LVL319:
 2300 00cc FFF7FEFF 		bl	floatToXemics
 2301              	.LVL320:
 2302 00d0 07EE900A 		vmov	s15, r0	@ int
 2303 00d4 B8EE678A 		vcvt.f32.u32	s16, s15
 2304              	.LVL321:
 388:bq34z100.c    ****            currentGainDF, currentGainResistance, currentDeltaDF, currentDeltaResistance, newGain, n
ARM GAS  C:\Users\shizh\AppData\Local\Temp\ccMQxVCk.s 			page 53


 2305              		.loc 1 388 0
 2306 00d8 18EE900A 		vmov	r0, s17
 2307 00dc FFF7FEFF 		bl	__aeabi_f2d
 2308              	.LVL322:
 2309 00e0 0646     		mov	r6, r0
 2310              	.LVL323:
 2311 00e2 0F46     		mov	r7, r1
 2312              	.LVL324:
 2313 00e4 CDF81890 		str	r9, [sp, #24]
 2314 00e8 CDE904AB 		strd	r10, [sp, #16]
 2315 00ec 19EE900A 		vmov	r0, s19
 2316 00f0 FFF7FEFF 		bl	__aeabi_f2d
 2317              	.LVL325:
 2318 00f4 CDE90201 		strd	r0, [sp, #8]
 2319 00f8 CDF80080 		str	r8, [sp]
 2320 00fc 3246     		mov	r2, r6
 2321 00fe 3B46     		mov	r3, r7
 2322 0100 2946     		mov	r1, r5
 2323 0102 1348     		ldr	r0, .L132+16
 2324 0104 FFF7FEFF 		bl	printf
 2325              	.LVL326:
 391:bq34z100.c    ****     BQ34Z100_WriteFlash(device, 4, DeltaDF, 4);
 2326              		.loc 1 391 0
 2327 0108 0423     		movs	r3, #4
 2328 010a 4A46     		mov	r2, r9
 2329 010c 0021     		movs	r1, #0
 2330 010e 2046     		mov	r0, r4
 2331 0110 FFF7FEFF 		bl	BQ34Z100_WriteFlash
 2332              	.LVL327:
 392:bq34z100.c    **** 
 2333              		.loc 1 392 0
 2334 0114 0423     		movs	r3, #4
 2335 0116 FCEEC87A 		vcvt.u32.f32	s15, s16
 2336 011a 17EE902A 		vmov	r2, s15	@ int
 2337 011e 1946     		mov	r1, r3
 2338 0120 2046     		mov	r0, r4
 2339 0122 FFF7FEFF 		bl	BQ34Z100_WriteFlash
 2340              	.LVL328:
 394:bq34z100.c    ****     CyDelay(300); // Delay for 300ms for settings to take effect
 2341              		.loc 1 394 0
 2342 0126 2046     		mov	r0, r4
 2343 0128 FFF7FEFF 		bl	BQ34Z100_UpdateChecksum
 2344              	.LVL329:
 395:bq34z100.c    **** }
 2345              		.loc 1 395 0
 2346 012c 4FF49670 		mov	r0, #300
 2347 0130 FFF7FEFF 		bl	Cy_SysLib_Delay
 2348              	.LVL330:
 396:bq34z100.c    **** 
 2349              		.loc 1 396 0
 2350 0134 09B0     		add	sp, sp, #36
 2351              		.cfi_def_cfa_offset 52
 2352              		@ sp needed
 2353 0136 BDEC048B 		vldm	sp!, {d8-d9}
 2354              		.cfi_restore 82
 2355              		.cfi_restore 83
 2356              		.cfi_restore 80
ARM GAS  C:\Users\shizh\AppData\Local\Temp\ccMQxVCk.s 			page 54


 2357              		.cfi_restore 81
 2358              		.cfi_def_cfa_offset 36
 2359              	.LVL331:
 2360 013a BDE8F08F 		pop	{r4, r5, r6, r7, r8, r9, r10, fp, pc}
 2361              	.LVL332:
 2362              	.L133:
 2363 013e 00BF     		.align	3
 2364              	.L132:
 2365 0140 DF4F8D97 		.word	-1752346657
 2366 0144 6E121340 		.word	1074991726
 2367 0148 75939840 		.word	1083741045
 2368 014c 0A43AD4A 		.word	1252868874
 2369 0150 D4010000 		.word	.LC13
 2370              		.cfi_endproc
 2371              	.LFE568:
 2372              		.size	BQ34Z100_CalibrateShunt, .-BQ34Z100_CalibrateShunt
 2373              		.section	.text.BQ34Z100_SetSenseResistor,"ax",%progbits
 2374              		.align	2
 2375              		.global	BQ34Z100_SetSenseResistor
 2376              		.thumb
 2377              		.thumb_func
 2378              		.type	BQ34Z100_SetSenseResistor, %function
 2379              	BQ34Z100_SetSenseResistor:
 2380              	.LFB569:
 398:bq34z100.c    ****     BQ34Z100_ChangePage(device, 104, 0);
 2381              		.loc 1 398 0
 2382              		.cfi_startproc
 2383              		@ args = 0, pretend = 0, frame = 0
 2384              		@ frame_needed = 0, uses_anonymous_args = 0
 2385              	.LVL333:
 2386 0000 70B5     		push	{r4, r5, r6, lr}
 2387              		.cfi_def_cfa_offset 16
 2388              		.cfi_offset 4, -16
 2389              		.cfi_offset 5, -12
 2390              		.cfi_offset 6, -8
 2391              		.cfi_offset 14, -4
 2392 0002 82B0     		sub	sp, sp, #8
 2393              		.cfi_def_cfa_offset 24
 2394 0004 0446     		mov	r4, r0
 399:bq34z100.c    ****     BQ34Z100_ReadFlash(device);
 2395              		.loc 1 399 0
 2396 0006 0022     		movs	r2, #0
 2397 0008 6821     		movs	r1, #104
 2398 000a FFF7FEFF 		bl	BQ34Z100_ChangePage
 2399              	.LVL334:
 400:bq34z100.c    ****     CyDelay(30); // Delay to ensure data is ready
 2400              		.loc 1 400 0
 2401 000e 2046     		mov	r0, r4
 2402 0010 FFF7FEFF 		bl	BQ34Z100_ReadFlash
 2403              	.LVL335:
 401:bq34z100.c    **** 
 2404              		.loc 1 401 0
 2405 0014 1E20     		movs	r0, #30
 2406 0016 FFF7FEFF 		bl	Cy_SysLib_Delay
 2407              	.LVL336:
 404:bq34z100.c    ****     uint32_t DeltaDF = floatToXemics(5677445 / SENSE_RES);
 2408              		.loc 1 404 0
ARM GAS  C:\Users\shizh\AppData\Local\Temp\ccMQxVCk.s 			page 55


 2409 001a 1148     		ldr	r0, .L136
 2410 001c FFF7FEFF 		bl	floatToXemics
 2411              	.LVL337:
 2412 0020 0546     		mov	r5, r0
 2413              	.LVL338:
 405:bq34z100.c    ****     BQ34Z100_WriteFlash(device, 0, GainDF, 4);
 2414              		.loc 1 405 0
 2415 0022 1048     		ldr	r0, .L136+4
 2416              	.LVL339:
 2417 0024 FFF7FEFF 		bl	floatToXemics
 2418              	.LVL340:
 2419 0028 0646     		mov	r6, r0
 2420              	.LVL341:
 406:bq34z100.c    ****     BQ34Z100_WriteFlash(device, 4, DeltaDF, 4);
 2421              		.loc 1 406 0
 2422 002a 0423     		movs	r3, #4
 2423 002c 2A46     		mov	r2, r5
 2424 002e 0021     		movs	r1, #0
 2425 0030 2046     		mov	r0, r4
 2426              	.LVL342:
 2427 0032 FFF7FEFF 		bl	BQ34Z100_WriteFlash
 2428              	.LVL343:
 407:bq34z100.c    **** 
 2429              		.loc 1 407 0
 2430 0036 0423     		movs	r3, #4
 2431 0038 3246     		mov	r2, r6
 2432 003a 1946     		mov	r1, r3
 2433 003c 2046     		mov	r0, r4
 2434 003e FFF7FEFF 		bl	BQ34Z100_WriteFlash
 2435              	.LVL344:
 409:bq34z100.c    **** 
 2436              		.loc 1 409 0
 2437 0042 0095     		str	r5, [sp]
 2438 0044 0022     		movs	r2, #0
 2439 0046 084B     		ldr	r3, .L136+8
 2440 0048 0848     		ldr	r0, .L136+12
 2441 004a FFF7FEFF 		bl	printf
 2442              	.LVL345:
 411:bq34z100.c    ****     CyDelay(300); // Wait for changes to take effect
 2443              		.loc 1 411 0
 2444 004e 2046     		mov	r0, r4
 2445 0050 FFF7FEFF 		bl	BQ34Z100_UpdateChecksum
 2446              	.LVL346:
 412:bq34z100.c    **** }
 2447              		.loc 1 412 0
 2448 0054 4FF49670 		mov	r0, #300
 2449 0058 FFF7FEFF 		bl	Cy_SysLib_Delay
 2450              	.LVL347:
 413:bq34z100.c    **** 
 2451              		.loc 1 413 0
 2452 005c 02B0     		add	sp, sp, #8
 2453              		.cfi_def_cfa_offset 16
 2454              		@ sp needed
 2455 005e 70BD     		pop	{r4, r5, r6, pc}
 2456              	.LVL348:
 2457              	.L137:
 2458              		.align	2
ARM GAS  C:\Users\shizh\AppData\Local\Temp\ccMQxVCk.s 			page 56


 2459              	.L136:
 2460 0060 6BBFA23E 		.word	1050853227
 2461 0064 0BD0B848 		.word	1220071435
 2462 0068 00002E40 		.word	1076756480
 2463 006c 5C020000 		.word	.LC14
 2464              		.cfi_endproc
 2465              	.LFE569:
 2466              		.size	BQ34Z100_SetSenseResistor, .-BQ34Z100_SetSenseResistor
 2467              		.section	.text.BQ34Z100_GetUpdateStatus,"ax",%progbits
 2468              		.align	2
 2469              		.global	BQ34Z100_GetUpdateStatus
 2470              		.thumb
 2471              		.thumb_func
 2472              		.type	BQ34Z100_GetUpdateStatus, %function
 2473              	BQ34Z100_GetUpdateStatus:
 2474              	.LFB575:
 492:bq34z100.c    ****     BQ34Z100_ChangePage(device, 82, 0); // Change to page 82, offset 0
 2475              		.loc 1 492 0
 2476              		.cfi_startproc
 2477              		@ args = 0, pretend = 0, frame = 0
 2478              		@ frame_needed = 0, uses_anonymous_args = 0
 2479              	.LVL349:
 2480 0000 10B5     		push	{r4, lr}
 2481              		.cfi_def_cfa_offset 8
 2482              		.cfi_offset 4, -8
 2483              		.cfi_offset 14, -4
 2484 0002 0446     		mov	r4, r0
 493:bq34z100.c    ****     BQ34Z100_ReadFlash(device); // Read the data from flash into the buffer
 2485              		.loc 1 493 0
 2486 0004 0022     		movs	r2, #0
 2487 0006 5221     		movs	r1, #82
 2488 0008 FFF7FEFF 		bl	BQ34Z100_ChangePage
 2489              	.LVL350:
 494:bq34z100.c    ****     return device->flashbytes[4]; // Return the status byte from the flash memory buffer
 2490              		.loc 1 494 0
 2491 000c 2046     		mov	r0, r4
 2492 000e FFF7FEFF 		bl	BQ34Z100_ReadFlash
 2493              	.LVL351:
 496:bq34z100.c    **** 
 2494              		.loc 1 496 0
 2495 0012 2079     		ldrb	r0, [r4, #4]	@ zero_extendqisi2
 2496 0014 10BD     		pop	{r4, pc}
 2497              		.cfi_endproc
 2498              	.LFE575:
 2499              		.size	BQ34Z100_GetUpdateStatus, .-BQ34Z100_GetUpdateStatus
 2500 0016 00BF     		.section	.rodata.str1.4,"aMS",%progbits,1
 2501              		.align	2
 2502              	.LC0:
 2503 0000 466C6173 		.ascii	"Flash[%d] <- 0x%hhx\012\000"
 2503      685B2564 
 2503      5D203C2D 
 2503      20307825 
 2503      6868780A 
 2504 0015 000000   		.space	3
 2505              	.LC1:
 2506 0018 57726974 		.ascii	"Writing new checksum for page %hhu block %hhu: 0x%h"
 2506      696E6720 
ARM GAS  C:\Users\shizh\AppData\Local\Temp\ccMQxVCk.s 			page 57


 2506      6E657720 
 2506      63686563 
 2506      6B73756D 
 2507 004b 68780D0A 		.ascii	"hx\015\012\000"
 2507      00
 2508              	.LC2:
 2509 0050 41207772 		.ascii	"A write error has occurred when transmitting addres"
 2509      69746520 
 2509      6572726F 
 2509      72206861 
 2509      73206F63 
 2510 0083 732E0D00 		.ascii	"s.\015\000"
 2511 0087 00       		.space	1
 2512              	.LC3:
 2513 0088 41207265 		.ascii	"A read error has occurred when setting read mode.\015"
 2513      61642065 
 2513      72726F72 
 2513      20686173 
 2513      206F6363 
 2514 00ba 00       		.ascii	"\000"
 2515 00bb 00       		.space	1
 2516              	.LC4:
 2517 00bc 4552524F 		.ascii	"ERROR: Checksum of flash memory block does not matc"
 2517      523A2043 
 2517      6865636B 
 2517      73756D20 
 2517      6F662066 
 2518 00ef 682E2049 		.ascii	"h. I2C read was likely corrupted.\015\000"
 2518      32432072 
 2518      65616420 
 2518      77617320 
 2518      6C696B65 
 2519 0112 0000     		.space	2
 2520              	.LC5:
 2521 0114 50616765 		.ascii	"Page %hhu block %hhu contents:\000"
 2521      20256868 
 2521      7520626C 
 2521      6F636B20 
 2521      25686875 
 2522 0133 00       		.space	1
 2523              	.LC6:
 2524 0134 20256868 		.ascii	" %hhx\000"
 2524      7800
 2525 013a 0000     		.space	2
 2526              	.LC7:
 2527 013c 0D00     		.ascii	"\015\000"
 2528 013e 0000     		.space	2
 2529              	.LC8:
 2530 0140 43686563 		.ascii	"Checksum: 0x%hhx\015\012\000"
 2530      6B73756D 
 2530      3A203078 
 2530      25686878 
 2530      0D0A00
 2531 0153 00       		.space	1
 2532              	.LC9:
 2533 0154 4368616E 		.ascii	"Changing Flash Update OK Voltage from %hi to %hi\015"
 2533      67696E67 
ARM GAS  C:\Users\shizh\AppData\Local\Temp\ccMQxVCk.s 			page 58


 2533      20466C61 
 2533      73682055 
 2533      70646174 
 2534 0185 0A00     		.ascii	"\012\000"
 2535 0187 00       		.space	1
 2536              	.LC10:
 2537 0188 52656769 		.ascii	"Register (voltage divider): %d\015\012\000"
 2537      73746572 
 2537      2028766F 
 2537      6C746167 
 2537      65206469 
 2538 01a9 000000   		.space	3
 2539              	.LC11:
 2540 01ac 4E657720 		.ascii	"New Ratio: %f\015\012\000"
 2540      52617469 
 2540      6F3A2025 
 2540      660D0A00 
 2541              	.LC12:
 2542 01bc 52454144 		.ascii	"READ VOLTAGE (mv): %f\015\012\000"
 2542      20564F4C 
 2542      54414745 
 2542      20286D76 
 2542      293A2025 
 2543              	.LC13:
 2544 01d4 63757272 		.ascii	"currentGainDF = 0x%lx, currentGainResistance = %f, "
 2544      656E7447 
 2544      61696E44 
 2544      46203D20 
 2544      3078256C 
 2545 0207 63757272 		.ascii	"currentDeltaDF = %lx, currentDeltaResistance = %f, "
 2545      656E7444 
 2545      656C7461 
 2545      4446203D 
 2545      20256C78 
 2546 023a 6E657747 		.ascii	"newGain = %f, newGainDF = 0x%lx\012\000"
 2546      61696E20 
 2546      3D202566 
 2546      2C206E65 
 2546      77476169 
 2547 025b 00       		.space	1
 2548              	.LC14:
 2549 025c 6E657747 		.ascii	"newGain = %f, GainDF = 0x%lx\012\000"
 2549      61696E20 
 2549      3D202566 
 2549      2C204761 
 2549      696E4446 
 2550              		.text
 2551              	.Letext0:
 2552              		.file 2 "c:\\program files (x86)\\cypress\\psoc creator\\4.4\\psoc creator\\import\\gnu\\arm\\5.4.
 2553              		.file 3 "c:\\program files (x86)\\cypress\\psoc creator\\4.4\\psoc creator\\import\\gnu\\arm\\5.4.
 2554              		.file 4 "c:\\program files (x86)\\cypress\\psoc creator\\4.4\\psoc creator\\import\\gnu\\arm\\5.4.
 2555              		.file 5 "Generated_Source\\PSoC6\\pdl\\drivers/peripheral/device/cy_device.h"
 2556              		.file 6 "Generated_Source\\PSoC6\\pdl\\drivers/peripheral/sar/cy_sar.h"
 2557              		.file 7 "Generated_Source\\PSoC6\\pdl\\drivers/peripheral/scb/cy_scb_uart.h"
 2558              		.file 8 "Generated_Source\\PSoC6/ADC.h"
 2559              		.file 9 "bq34z100.h"
 2560              		.file 10 "Generated_Source\\PSoC6\\pdl\\cmsis/include/core_cm4.h"
ARM GAS  C:\Users\shizh\AppData\Local\Temp\ccMQxVCk.s 			page 59


 2561              		.file 11 "Generated_Source\\PSoC6/UART.h"
 2562              		.file 12 "Generated_Source\\PSoC6/I2C.h"
 2563              		.file 13 "Generated_Source\\PSoC6\\pdl\\drivers/peripheral/syslib/cy_syslib.h"
 2564              		.file 14 "c:\\program files (x86)\\cypress\\psoc creator\\4.4\\psoc creator\\import\\gnu\\arm\\5.4
 2565              		.file 15 "c:\\program files (x86)\\cypress\\psoc creator\\4.4\\psoc creator\\import\\gnu\\arm\\5.4
 2566              		.file 16 "<built-in>"