ARM GAS  C:\Users\15311\AppData\Local\Temp\ccNSb5XI.s 			page 1


   1              		.syntax unified
   2              		.cpu cortex-m4
   3              		.eabi_attribute 27, 1
   4              		.fpu fpv4-sp-d16
   5              		.eabi_attribute 20, 1
   6              		.eabi_attribute 21, 1
   7              		.eabi_attribute 23, 3
   8              		.eabi_attribute 24, 1
   9              		.eabi_attribute 25, 1
  10              		.eabi_attribute 26, 1
  11              		.eabi_attribute 30, 1
  12              		.eabi_attribute 34, 1
  13              		.eabi_attribute 18, 4
  14              		.thumb
  15              		.syntax unified
  16              		.file	"main_cm4.c"
  17              		.text
  18              	.Ltext0:
  19              		.cfi_sections	.debug_frame
  20              		.section	.text.Write_I2C,"ax",%progbits
  21              		.align	2
  22              		.global	Write_I2C
  23              		.thumb
  24              		.thumb_func
  25              		.type	Write_I2C, %function
  26              	Write_I2C:
  27              	.LFB492:
  28              		.file 1 "main_cm4.c"
   1:main_cm4.c    **** /* ========================================
   2:main_cm4.c    ****  *
   3:main_cm4.c    ****  * Copyright YOUR COMPANY, THE YEAR
   4:main_cm4.c    ****  * All Rights Reserved
   5:main_cm4.c    ****  * UNPUBLISHED, LICENSED SOFTWARE.
   6:main_cm4.c    ****  *
   7:main_cm4.c    ****  * CONFIDENTIAL AND PROPRIETARY INFORMATION
   8:main_cm4.c    ****  * WHICH IS THE PROPERTY OF your company.
   9:main_cm4.c    ****  *
  10:main_cm4.c    ****  * ========================================*/
  11:main_cm4.c    **** #include "project.h"
  12:main_cm4.c    **** #include "FreeRTOS.h"
  13:main_cm4.c    **** #include "task.h"
  14:main_cm4.c    **** #include "queue.h"
  15:main_cm4.c    **** #include <stdio.h>
  16:main_cm4.c    **** 
  17:main_cm4.c    **** #define TASK_I2C_PRIORITY (configMAX_PRIORITIES - 1)
  18:main_cm4.c    **** #define I2C_QUEUE_LENGTH  (5)
  19:main_cm4.c    **** #define I2C_ITEM_SIZE     (sizeof(I2C_Message_t))
  20:main_cm4.c    **** 
  21:main_cm4.c    **** QueueHandle_t i2cQueue;
  22:main_cm4.c    **** 
  23:main_cm4.c    **** typedef struct {
  24:main_cm4.c    ****     uint8_t address;
  25:main_cm4.c    ****     uint8_t reg;
  26:main_cm4.c    ****     uint8_t data;
  27:main_cm4.c    **** } I2C_Message_t;
  28:main_cm4.c    **** 
  29:main_cm4.c    **** TaskHandle_t i2cWriteTaskHandle;
ARM GAS  C:\Users\15311\AppData\Local\Temp\ccNSb5XI.s 			page 2


  30:main_cm4.c    **** TaskHandle_t i2cReadTaskHandle;
  31:main_cm4.c    **** 
  32:main_cm4.c    **** void Write_I2C(void *pvParameters);
  33:main_cm4.c    **** void Read_I2C(void *pvParameters);
  34:main_cm4.c    **** 
  35:main_cm4.c    **** int main()
  36:main_cm4.c    **** {   
  37:main_cm4.c    ****     I2C_Start();
  38:main_cm4.c    ****     UART_Start();
  39:main_cm4.c    ****     setvbuf(stdin, NULL, _IONBF, 0);
  40:main_cm4.c    ****     xTaskCreate(Write_I2C, "I2C Write", configMINIMAL_STACK_SIZE, NULL, TASK_I2C_PRIORITY, &i2cWrit
  41:main_cm4.c    ****     xTaskCreate(Read_I2C, "I2C Read", configMINIMAL_STACK_SIZE, NULL, TASK_I2C_PRIORITY, &i2cReadTa
  42:main_cm4.c    **** 
  43:main_cm4.c    ****     i2cQueue = xQueueCreate(I2C_QUEUE_LENGTH, I2C_ITEM_SIZE);
  44:main_cm4.c    ****     if (i2cQueue == NULL)
  45:main_cm4.c    ****     {
  46:main_cm4.c    ****         CY_ASSERT(0);
  47:main_cm4.c    ****     }
  48:main_cm4.c    **** 
  49:main_cm4.c    ****     vTaskStartScheduler();
  50:main_cm4.c    ****     
  51:main_cm4.c    ****     CY_ASSERT(0);
  52:main_cm4.c    **** 
  53:main_cm4.c    ****     for(;;)
  54:main_cm4.c    ****     {
  55:main_cm4.c    ****     }    
  56:main_cm4.c    **** }
  57:main_cm4.c    **** 
  58:main_cm4.c    **** void Write_I2C(void *pvParameters)
  59:main_cm4.c    **** {
  29              		.loc 1 59 0
  30              		.cfi_startproc
  31              		@ args = 0, pretend = 0, frame = 8
  32              		@ frame_needed = 0, uses_anonymous_args = 0
  33              	.LVL0:
  34 0000 00B5     		push	{lr}
  35              		.cfi_def_cfa_offset 4
  36              		.cfi_offset 14, -4
  37 0002 83B0     		sub	sp, sp, #12
  38              		.cfi_def_cfa_offset 16
  39              	.LVL1:
  40              	.L3:
  41              	.LBB2:
  60:main_cm4.c    ****     I2C_Message_t i2cMessage;
  61:main_cm4.c    ****     uint8_t randomAddress = 0x27; // I2C address of Arduino
  62:main_cm4.c    ****     uint8_t randomReg = 0x01;     // Arbitrary register, not used in this context
  63:main_cm4.c    **** 
  64:main_cm4.c    ****     for (;;)
  65:main_cm4.c    ****     {
  66:main_cm4.c    ****         // Generate random data
  67:main_cm4.c    ****         i2cMessage.address = randomAddress;
  68:main_cm4.c    ****         i2cMessage.reg = randomReg;
  69:main_cm4.c    ****         i2cMessage.data = 0x2; // Random data
  70:main_cm4.c    **** 
  71:main_cm4.c    ****         // Perform I2C write operation
  72:main_cm4.c    ****         uint8_t writeData[2] = {i2cMessage.reg, i2cMessage.data};
  42              		.loc 1 72 0
ARM GAS  C:\Users\15311\AppData\Local\Temp\ccNSb5XI.s 			page 3


  43 0004 0123     		movs	r3, #1
  44 0006 8DF80430 		strb	r3, [sp, #4]
  45 000a 0222     		movs	r2, #2
  46 000c 8DF80520 		strb	r2, [sp, #5]
  73:main_cm4.c    ****         I2C_MasterWriteBuf(i2cMessage.address, writeData, 2, I2C_MODE_COMPLETE_XFER);
  47              		.loc 1 73 0
  48 0010 0023     		movs	r3, #0
  49 0012 01A9     		add	r1, sp, #4
  50 0014 2720     		movs	r0, #39
  51 0016 FFF7FEFF 		bl	I2C_MasterWriteBuf
  52              	.LVL2:
  53              	.L2:
  74:main_cm4.c    **** 
  75:main_cm4.c    ****         // Wait for the transfer to complete
  76:main_cm4.c    ****         while (I2C_MasterStatus() & I2C_MSTAT_XFER_INP);
  54              		.loc 1 76 0 discriminator 1
  55 001a FFF7FEFF 		bl	I2C_MasterStatus
  56              	.LVL3:
  57 001e 10F0040F 		tst	r0, #4
  58 0022 FAD1     		bne	.L2
  77:main_cm4.c    ****         // Add a delay to observe on logic analyzer
  78:main_cm4.c    ****         vTaskDelay(pdMS_TO_TICKS(100)); // 100ms delay for clear signal observation
  59              		.loc 1 78 0
  60 0024 6420     		movs	r0, #100
  61 0026 FFF7FEFF 		bl	vTaskDelay
  62              	.LVL4:
  63              	.LBE2:
  79:main_cm4.c    ****     }
  64              		.loc 1 79 0
  65 002a EBE7     		b	.L3
  66              		.cfi_endproc
  67              	.LFE492:
  68              		.size	Write_I2C, .-Write_I2C
  69              		.section	.text.Read_I2C,"ax",%progbits
  70              		.align	2
  71              		.global	Read_I2C
  72              		.thumb
  73              		.thumb_func
  74              		.type	Read_I2C, %function
  75              	Read_I2C:
  76              	.LFB493:
  80:main_cm4.c    **** }
  81:main_cm4.c    **** 
  82:main_cm4.c    **** void Read_I2C(void *pvParameters)
  83:main_cm4.c    **** {
  77              		.loc 1 83 0
  78              		.cfi_startproc
  79              		@ args = 0, pretend = 0, frame = 8
  80              		@ frame_needed = 0, uses_anonymous_args = 0
  81              	.LVL5:
  82 0000 00B5     		push	{lr}
  83              		.cfi_def_cfa_offset 4
  84              		.cfi_offset 14, -4
  85 0002 83B0     		sub	sp, sp, #12
  86              		.cfi_def_cfa_offset 16
  87              	.LVL6:
  88              	.L7:
ARM GAS  C:\Users\15311\AppData\Local\Temp\ccNSb5XI.s 			page 4


  84:main_cm4.c    ****     uint8_t slaveAddress = 0x27; // Use the same address as your Arduino
  85:main_cm4.c    ****     uint8_t readData[1];         // Buffer to store read data
  86:main_cm4.c    **** 
  87:main_cm4.c    ****     for (;;)
  88:main_cm4.c    ****     {
  89:main_cm4.c    ****         // Send read request to slave
  90:main_cm4.c    ****         I2C_MasterReadBuf(slaveAddress, readData, 1, I2C_MODE_COMPLETE_XFER);
  89              		.loc 1 90 0
  90 0004 0023     		movs	r3, #0
  91 0006 0122     		movs	r2, #1
  92 0008 01A9     		add	r1, sp, #4
  93 000a 2720     		movs	r0, #39
  94 000c FFF7FEFF 		bl	I2C_MasterReadBuf
  95              	.LVL7:
  96              	.L6:
  91:main_cm4.c    **** 
  92:main_cm4.c    ****         // Wait for the transfer to complete
  93:main_cm4.c    ****         while (I2C_MasterStatus() & I2C_MSTAT_XFER_INP);
  97              		.loc 1 93 0 discriminator 1
  98 0010 FFF7FEFF 		bl	I2C_MasterStatus
  99              	.LVL8:
 100 0014 10F0040F 		tst	r0, #4
 101 0018 FAD1     		bne	.L6
  94:main_cm4.c    **** 
  95:main_cm4.c    ****         // Print the read data or process it
  96:main_cm4.c    ****         printf("Received data: 0x%02X\n", readData[0]);
 102              		.loc 1 96 0
 103 001a 9DF80410 		ldrb	r1, [sp, #4]	@ zero_extendqisi2
 104 001e 0348     		ldr	r0, .L9
 105 0020 FFF7FEFF 		bl	printf
 106              	.LVL9:
  97:main_cm4.c    **** 
  98:main_cm4.c    ****         // Add a delay to avoid constant polling
  99:main_cm4.c    ****         vTaskDelay(pdMS_TO_TICKS(200)); // 500ms delay for next read
 107              		.loc 1 99 0
 108 0024 C820     		movs	r0, #200
 109 0026 FFF7FEFF 		bl	vTaskDelay
 110              	.LVL10:
 100:main_cm4.c    ****     }
 111              		.loc 1 100 0
 112 002a EBE7     		b	.L7
 113              	.L10:
 114              		.align	2
 115              	.L9:
 116 002c 00000000 		.word	.LC0
 117              		.cfi_endproc
 118              	.LFE493:
 119              		.size	Read_I2C, .-Read_I2C
 120              		.section	.text.main,"ax",%progbits
 121              		.align	2
 122              		.global	main
 123              		.thumb
 124              		.thumb_func
 125              		.type	main, %function
 126              	main:
 127              	.LFB491:
  36:main_cm4.c    ****     I2C_Start();
ARM GAS  C:\Users\15311\AppData\Local\Temp\ccNSb5XI.s 			page 5


 128              		.loc 1 36 0
 129              		.cfi_startproc
 130              		@ Volatile: function does not return.
 131              		@ args = 0, pretend = 0, frame = 0
 132              		@ frame_needed = 0, uses_anonymous_args = 0
 133 0000 00B5     		push	{lr}
 134              		.cfi_def_cfa_offset 4
 135              		.cfi_offset 14, -4
 136 0002 83B0     		sub	sp, sp, #12
 137              		.cfi_def_cfa_offset 16
  37:main_cm4.c    ****     UART_Start();
 138              		.loc 1 37 0
 139 0004 FFF7FEFF 		bl	I2C_Start
 140              	.LVL11:
  38:main_cm4.c    ****     setvbuf(stdin, NULL, _IONBF, 0);
 141              		.loc 1 38 0
 142 0008 FFF7FEFF 		bl	UART_Start
 143              	.LVL12:
  39:main_cm4.c    ****     xTaskCreate(Write_I2C, "I2C Write", configMINIMAL_STACK_SIZE, NULL, TASK_I2C_PRIORITY, &i2cWrit
 144              		.loc 1 39 0
 145 000c 164B     		ldr	r3, .L15
 146 000e 1868     		ldr	r0, [r3]
 147 0010 0023     		movs	r3, #0
 148 0012 0222     		movs	r2, #2
 149 0014 1946     		mov	r1, r3
 150 0016 4068     		ldr	r0, [r0, #4]
 151 0018 FFF7FEFF 		bl	setvbuf
 152              	.LVL13:
  40:main_cm4.c    ****     xTaskCreate(Read_I2C, "I2C Read", configMINIMAL_STACK_SIZE, NULL, TASK_I2C_PRIORITY, &i2cReadTa
 153              		.loc 1 40 0
 154 001c 134B     		ldr	r3, .L15+4
 155 001e 0193     		str	r3, [sp, #4]
 156 0020 0624     		movs	r4, #6
 157 0022 0094     		str	r4, [sp]
 158 0024 0023     		movs	r3, #0
 159 0026 8022     		movs	r2, #128
 160 0028 1149     		ldr	r1, .L15+8
 161 002a 1248     		ldr	r0, .L15+12
 162 002c FFF7FEFF 		bl	xTaskCreate
 163              	.LVL14:
  41:main_cm4.c    **** 
 164              		.loc 1 41 0
 165 0030 114B     		ldr	r3, .L15+16
 166 0032 0193     		str	r3, [sp, #4]
 167 0034 0094     		str	r4, [sp]
 168 0036 0023     		movs	r3, #0
 169 0038 8022     		movs	r2, #128
 170 003a 1049     		ldr	r1, .L15+20
 171 003c 1048     		ldr	r0, .L15+24
 172 003e FFF7FEFF 		bl	xTaskCreate
 173              	.LVL15:
  43:main_cm4.c    ****     if (i2cQueue == NULL)
 174              		.loc 1 43 0
 175 0042 0022     		movs	r2, #0
 176 0044 0321     		movs	r1, #3
 177 0046 0520     		movs	r0, #5
 178 0048 FFF7FEFF 		bl	xQueueGenericCreate
ARM GAS  C:\Users\15311\AppData\Local\Temp\ccNSb5XI.s 			page 6


 179              	.LVL16:
 180 004c 0D4B     		ldr	r3, .L15+28
 181 004e 1860     		str	r0, [r3]
  44:main_cm4.c    ****     {
 182              		.loc 1 44 0
 183 0050 18B9     		cbnz	r0, .L12
  46:main_cm4.c    ****     }
 184              		.loc 1 46 0 discriminator 1
 185 0052 2E21     		movs	r1, #46
 186 0054 0C48     		ldr	r0, .L15+32
 187 0056 FFF7FEFF 		bl	Cy_SysLib_AssertFailed
 188              	.LVL17:
 189              	.L12:
  49:main_cm4.c    ****     
 190              		.loc 1 49 0
 191 005a FFF7FEFF 		bl	vTaskStartScheduler
 192              	.LVL18:
  51:main_cm4.c    **** 
 193              		.loc 1 51 0
 194 005e 3321     		movs	r1, #51
 195 0060 0948     		ldr	r0, .L15+32
 196 0062 FFF7FEFF 		bl	Cy_SysLib_AssertFailed
 197              	.LVL19:
 198              	.L13:
 199 0066 FEE7     		b	.L13
 200              	.L16:
 201              		.align	2
 202              	.L15:
 203 0068 00000000 		.word	_impure_ptr
 204 006c 00000000 		.word	i2cWriteTaskHandle
 205 0070 18000000 		.word	.LC1
 206 0074 00000000 		.word	Write_I2C
 207 0078 00000000 		.word	i2cReadTaskHandle
 208 007c 24000000 		.word	.LC2
 209 0080 00000000 		.word	Read_I2C
 210 0084 00000000 		.word	i2cQueue
 211 0088 30000000 		.word	.LC3
 212              		.cfi_endproc
 213              	.LFE491:
 214              		.size	main, .-main
 215              		.section	.text.vApplicationIdleHook,"ax",%progbits
 216              		.align	2
 217              		.global	vApplicationIdleHook
 218              		.thumb
 219              		.thumb_func
 220              		.type	vApplicationIdleHook, %function
 221              	vApplicationIdleHook:
 222              	.LFB494:
 101:main_cm4.c    **** }
 102:main_cm4.c    **** 
 103:main_cm4.c    **** void vApplicationIdleHook(void)
 104:main_cm4.c    **** {
 223              		.loc 1 104 0
 224              		.cfi_startproc
 225              		@ args = 0, pretend = 0, frame = 0
 226              		@ frame_needed = 0, uses_anonymous_args = 0
 227 0000 08B5     		push	{r3, lr}
ARM GAS  C:\Users\15311\AppData\Local\Temp\ccNSb5XI.s 			page 7


 228              		.cfi_def_cfa_offset 8
 229              		.cfi_offset 3, -8
 230              		.cfi_offset 14, -4
 105:main_cm4.c    ****     Cy_SysPm_Sleep(CY_SYSPM_WAIT_FOR_INTERRUPT);
 231              		.loc 1 105 0
 232 0002 0020     		movs	r0, #0
 233 0004 FFF7FEFF 		bl	Cy_SysPm_CpuEnterSleep
 234              	.LVL20:
 235 0008 08BD     		pop	{r3, pc}
 236              		.cfi_endproc
 237              	.LFE494:
 238              		.size	vApplicationIdleHook, .-vApplicationIdleHook
 239 000a 00BF     		.section	.text.vApplicationStackOverflowHook,"ax",%progbits
 240              		.align	2
 241              		.global	vApplicationStackOverflowHook
 242              		.thumb
 243              		.thumb_func
 244              		.type	vApplicationStackOverflowHook, %function
 245              	vApplicationStackOverflowHook:
 246              	.LFB495:
 106:main_cm4.c    **** }
 107:main_cm4.c    **** 
 108:main_cm4.c    **** void vApplicationStackOverflowHook(TaskHandle_t *pxTask, signed char *pcTaskName)
 109:main_cm4.c    **** {
 247              		.loc 1 109 0
 248              		.cfi_startproc
 249              		@ args = 0, pretend = 0, frame = 0
 250              		@ frame_needed = 0, uses_anonymous_args = 0
 251              	.LVL21:
 252 0000 08B5     		push	{r3, lr}
 253              		.cfi_def_cfa_offset 8
 254              		.cfi_offset 3, -8
 255              		.cfi_offset 14, -4
 110:main_cm4.c    ****     (void)pxTask;
 111:main_cm4.c    ****     CY_ASSERT(0);
 256              		.loc 1 111 0
 257 0002 6F21     		movs	r1, #111
 258              	.LVL22:
 259 0004 0148     		ldr	r0, .L21
 260              	.LVL23:
 261 0006 FFF7FEFF 		bl	Cy_SysLib_AssertFailed
 262              	.LVL24:
 263 000a 08BD     		pop	{r3, pc}
 264              	.L22:
 265              		.align	2
 266              	.L21:
 267 000c 30000000 		.word	.LC3
 268              		.cfi_endproc
 269              	.LFE495:
 270              		.size	vApplicationStackOverflowHook, .-vApplicationStackOverflowHook
 271              		.section	.text.vApplicationMallocFailedHook,"ax",%progbits
 272              		.align	2
 273              		.global	vApplicationMallocFailedHook
 274              		.thumb
 275              		.thumb_func
 276              		.type	vApplicationMallocFailedHook, %function
 277              	vApplicationMallocFailedHook:
ARM GAS  C:\Users\15311\AppData\Local\Temp\ccNSb5XI.s 			page 8


 278              	.LFB496:
 112:main_cm4.c    **** }
 113:main_cm4.c    **** 
 114:main_cm4.c    **** void vApplicationMallocFailedHook(void)
 115:main_cm4.c    **** {
 279              		.loc 1 115 0
 280              		.cfi_startproc
 281              		@ args = 0, pretend = 0, frame = 0
 282              		@ frame_needed = 0, uses_anonymous_args = 0
 283 0000 08B5     		push	{r3, lr}
 284              		.cfi_def_cfa_offset 8
 285              		.cfi_offset 3, -8
 286              		.cfi_offset 14, -4
 116:main_cm4.c    ****     CY_ASSERT(0);
 287              		.loc 1 116 0
 288 0002 7421     		movs	r1, #116
 289 0004 0148     		ldr	r0, .L25
 290 0006 FFF7FEFF 		bl	Cy_SysLib_AssertFailed
 291              	.LVL25:
 292 000a 08BD     		pop	{r3, pc}
 293              	.L26:
 294              		.align	2
 295              	.L25:
 296 000c 30000000 		.word	.LC3
 297              		.cfi_endproc
 298              	.LFE496:
 299              		.size	vApplicationMallocFailedHook, .-vApplicationMallocFailedHook
 300              		.comm	i2cReadTaskHandle,4,4
 301              		.comm	i2cWriteTaskHandle,4,4
 302              		.comm	i2cQueue,4,4
 303              		.section	.rodata.str1.4,"aMS",%progbits,1
 304              		.align	2
 305              	.LC0:
 306 0000 52656365 		.ascii	"Received data: 0x%02X\012\000"
 306      69766564 
 306      20646174 
 306      613A2030 
 306      78253032 
 307 0017 00       		.space	1
 308              	.LC1:
 309 0018 49324320 		.ascii	"I2C Write\000"
 309      57726974 
 309      6500
 310 0022 0000     		.space	2
 311              	.LC2:
 312 0024 49324320 		.ascii	"I2C Read\000"
 312      52656164 
 312      00
 313 002d 000000   		.space	3
 314              	.LC3:
 315 0030 6D61696E 		.ascii	"main_cm4.c\000"
 315      5F636D34 
 315      2E6300
 316              		.text
 317              	.Letext0:
 318              		.file 2 "c:\\program files (x86)\\cypress\\psoc creator\\4.4\\psoc creator\\import\\gnu\\arm\\5.4.
 319              		.file 3 "c:\\program files (x86)\\cypress\\psoc creator\\4.4\\psoc creator\\import\\gnu\\arm\\5.4.
ARM GAS  C:\Users\15311\AppData\Local\Temp\ccNSb5XI.s 			page 9


 320              		.file 4 "Generated_Source\\PSoC6\\pdl\\drivers/peripheral/device/cy_device.h"
 321              		.file 5 "Generated_Source\\PSoC6\\pdl\\drivers/peripheral/syslib/cy_syslib.h"
 322              		.file 6 "Generated_Source\\PSoC6\\pdl\\drivers/peripheral/scb/cy_scb_uart.h"
 323              		.file 7 "Generated_Source\\PSoC6\\pdl\\rtos/FreeRTOS/10.0.1/Source/portable/GCC/CM4F/portmacro.h"
 324              		.file 8 "Generated_Source\\PSoC6\\pdl\\rtos/FreeRTOS/10.0.1/Source/include/task.h"
 325              		.file 9 "Generated_Source\\PSoC6\\pdl\\rtos/FreeRTOS/10.0.1/Source/include/queue.h"
 326              		.file 10 "c:\\program files (x86)\\cypress\\psoc creator\\4.4\\psoc creator\\import\\gnu\\arm\\5.4
 327              		.file 11 "c:\\program files (x86)\\cypress\\psoc creator\\4.4\\psoc creator\\import\\gnu\\arm\\5.4
 328              		.file 12 "c:\\program files (x86)\\cypress\\psoc creator\\4.4\\psoc creator\\import\\gnu\\arm\\5.4
 329              		.file 13 "c:\\program files (x86)\\cypress\\psoc creator\\4.4\\psoc creator\\import\\gnu\\arm\\5.4
 330              		.file 14 "Generated_Source\\PSoC6\\pdl\\cmsis/include/core_cm4.h"
 331              		.file 15 "Generated_Source\\PSoC6/UART.h"
 332              		.file 16 "Generated_Source\\PSoC6/I2C.h"
 333              		.file 17 "c:\\program files (x86)\\cypress\\psoc creator\\4.4\\psoc creator\\import\\gnu\\arm\\5.4
 334              		.file 18 "Generated_Source\\PSoC6\\pdl\\drivers/peripheral/syspm/cy_syspm.h"